Archive member included because of file (symbol)

c:/isis/application/toolchain/bin/../lib/gcc/arm-none-eabi/4.7.4/../../../../arm-none-eabi/lib\libc_s.a(lib_a-vfprintf_float.o)
                              (_printf_float)
c:/isis/application/toolchain/bin/../lib/gcc/arm-none-eabi/4.7.4/../../../../arm-none-eabi/lib\libc_s.a(lib_a-vfprintf_i.o)
                              c:/isis/application/toolchain/bin/../lib/gcc/arm-none-eabi/4.7.4/../../../../arm-none-eabi/lib\libc_s.a(lib_a-vfprintf_float.o) (_printf_common)
c:/isis/application/toolchain/bin/../lib/gcc/arm-none-eabi/4.7.4/../../../../arm-none-eabi/lib\libc_s.a(lib_a-vfscanf_float.o)
                              (_scanf_float)
c:/isis/application/toolchain/bin/../lib/gcc/arm-none-eabi/4.7.4/../../../../arm-none-eabi/lib\libc_s.a(lib_a-dtoa.o)
                              c:/isis/application/toolchain/bin/../lib/gcc/arm-none-eabi/4.7.4/../../../../arm-none-eabi/lib\libc_s.a(lib_a-vfprintf_float.o) (_dtoa_r)
c:/isis/application/toolchain/bin/../lib/gcc/arm-none-eabi/4.7.4/../../../../arm-none-eabi/lib\libc_s.a(lib_a-locale.o)
                              c:/isis/application/toolchain/bin/../lib/gcc/arm-none-eabi/4.7.4/../../../../arm-none-eabi/lib\libc_s.a(lib_a-vfprintf_float.o) (_localeconv_r)
c:/isis/application/toolchain/bin/../lib/gcc/arm-none-eabi/4.7.4/../../../../arm-none-eabi/lib\libc_s.a(lib_a-malloc.o)
                              c:/isis/application/toolchain/bin/../lib/gcc/arm-none-eabi/4.7.4/../../../../arm-none-eabi/lib\libc_s.a(lib_a-dtoa.o) (malloc)
c:/isis/application/toolchain/bin/../lib/gcc/arm-none-eabi/4.7.4/../../../../arm-none-eabi/lib\libc_s.a(lib_a-mallocr.o)
                              c:/isis/application/toolchain/bin/../lib/gcc/arm-none-eabi/4.7.4/../../../../arm-none-eabi/lib\libc_s.a(lib_a-malloc.o) (_malloc_r)
c:/isis/application/toolchain/bin/../lib/gcc/arm-none-eabi/4.7.4/../../../../arm-none-eabi/lib\libc_s.a(lib_a-memcpy.o)
                              c:/isis/application/toolchain/bin/../lib/gcc/arm-none-eabi/4.7.4/../../../../arm-none-eabi/lib\libc_s.a(lib_a-dtoa.o) (memcpy)
c:/isis/application/toolchain/bin/../lib/gcc/arm-none-eabi/4.7.4/../../../../arm-none-eabi/lib\libc_s.a(lib_a-mprec.o)
                              c:/isis/application/toolchain/bin/../lib/gcc/arm-none-eabi/4.7.4/../../../../arm-none-eabi/lib\libc_s.a(lib_a-dtoa.o) (_Balloc)
c:/isis/application/toolchain/bin/../lib/gcc/arm-none-eabi/4.7.4/../../../../arm-none-eabi/lib\libc_s.a(lib_a-s_fpclassify.o)
                              c:/isis/application/toolchain/bin/../lib/gcc/arm-none-eabi/4.7.4/../../../../arm-none-eabi/lib\libc_s.a(lib_a-vfprintf_float.o) (__fpclassifyd)
c:/isis/application/toolchain/bin/../lib/gcc/arm-none-eabi/4.7.4/../../../../arm-none-eabi/lib\libc_s.a(lib_a-sbrkr.o)
                              c:/isis/application/toolchain/bin/../lib/gcc/arm-none-eabi/4.7.4/../../../../arm-none-eabi/lib\libc_s.a(lib_a-mallocr.o) (_sbrk_r)
c:/isis/application/toolchain/bin/../lib/gcc/arm-none-eabi/4.7.4/../../../../arm-none-eabi/lib\libc_s.a(lib_a-sf_nan.o)
                              c:/isis/application/toolchain/bin/../lib/gcc/arm-none-eabi/4.7.4/../../../../arm-none-eabi/lib\libc_s.a(lib_a-vfscanf_float.o) (nanf)
c:/isis/application/toolchain/bin/../lib/gcc/arm-none-eabi/4.7.4/../../../../arm-none-eabi/lib\libc_s.a(lib_a-sprintf.o)
                              c:/isis/application/toolchain/bin/../lib/gcc/arm-none-eabi/4.7.4/../../../../arm-none-eabi/lib\libc_s.a(lib_a-vfscanf_float.o) (sprintf)
c:/isis/application/toolchain/bin/../lib/gcc/arm-none-eabi/4.7.4/../../../../arm-none-eabi/lib\libc_s.a(lib_a-strcmp.o)
                              c:/isis/application/toolchain/bin/../lib/gcc/arm-none-eabi/4.7.4/../../../../arm-none-eabi/lib\libc_s.a(lib_a-locale.o) (strcmp)
c:/isis/application/toolchain/bin/../lib/gcc/arm-none-eabi/4.7.4/../../../../arm-none-eabi/lib\libc_s.a(lib_a-strlen.o)
                              c:/isis/application/toolchain/bin/../lib/gcc/arm-none-eabi/4.7.4/../../../../arm-none-eabi/lib\libc_s.a(lib_a-vfprintf_float.o) (strlen)
c:/isis/application/toolchain/bin/../lib/gcc/arm-none-eabi/4.7.4/../../../../arm-none-eabi/lib\libc_s.a(lib_a-strtod.o)
                              c:/isis/application/toolchain/bin/../lib/gcc/arm-none-eabi/4.7.4/../../../../arm-none-eabi/lib\libc_s.a(lib_a-vfscanf_float.o) (_strtod_r)
c:/isis/application/toolchain/bin/../lib/gcc/arm-none-eabi/4.7.4/../../../../arm-none-eabi/lib\libc_s.a(lib_a-strtol.o)
                              c:/isis/application/toolchain/bin/../lib/gcc/arm-none-eabi/4.7.4/../../../../arm-none-eabi/lib\libc_s.a(lib_a-vfscanf_float.o) (_strtol_r)
c:/isis/application/toolchain/bin/../lib/gcc/arm-none-eabi/4.7.4/../../../../arm-none-eabi/lib\libc_s.a(lib_a-svfprintf.o)
                              c:/isis/application/toolchain/bin/../lib/gcc/arm-none-eabi/4.7.4/../../../../arm-none-eabi/lib\libc_s.a(lib_a-sprintf.o) (_svfprintf_r)
c:/isis/application/toolchain/bin/../lib/gcc/arm-none-eabi/4.7.4/../../../../arm-none-eabi/lib\libc_s.a(lib_a-callocr.o)
                              c:/isis/application/toolchain/bin/../lib/gcc/arm-none-eabi/4.7.4/../../../../arm-none-eabi/lib\libc_s.a(lib_a-mprec.o) (_calloc_r)
c:/isis/application/toolchain/bin/../lib/gcc/arm-none-eabi/4.7.4/../../../../arm-none-eabi/lib\libc_s.a(lib_a-ctype_.o)
                              c:/isis/application/toolchain/bin/../lib/gcc/arm-none-eabi/4.7.4/../../../../arm-none-eabi/lib\libc_s.a(lib_a-strtol.o) (__ctype_ptr__)
c:/isis/application/toolchain/bin/../lib/gcc/arm-none-eabi/4.7.4/../../../../arm-none-eabi/lib\libc_s.a(lib_a-freer.o)
                              c:/isis/application/toolchain/bin/../lib/gcc/arm-none-eabi/4.7.4/../../../../arm-none-eabi/lib\libc_s.a(lib_a-malloc.o) (_free_r)
c:/isis/application/toolchain/bin/../lib/gcc/arm-none-eabi/4.7.4/../../../../arm-none-eabi/lib\libc_s.a(lib_a-gdtoa-gethex.o)
                              c:/isis/application/toolchain/bin/../lib/gcc/arm-none-eabi/4.7.4/../../../../arm-none-eabi/lib\libc_s.a(lib_a-strtod.o) (__gethex)
c:/isis/application/toolchain/bin/../lib/gcc/arm-none-eabi/4.7.4/../../../../arm-none-eabi/lib\libc_s.a(lib_a-gdtoa-hexnan.o)
                              c:/isis/application/toolchain/bin/../lib/gcc/arm-none-eabi/4.7.4/../../../../arm-none-eabi/lib\libc_s.a(lib_a-strtod.o) (__hexnan)
c:/isis/application/toolchain/bin/../lib/gcc/arm-none-eabi/4.7.4/../../../../arm-none-eabi/lib\libc_s.a(lib_a-impure.o)
                              c:/isis/application/toolchain/bin/../lib/gcc/arm-none-eabi/4.7.4/../../../../arm-none-eabi/lib\libc_s.a(lib_a-locale.o) (_impure_ptr)
c:/isis/application/toolchain/bin/../lib/gcc/arm-none-eabi/4.7.4/../../../../arm-none-eabi/lib\libc_s.a(lib_a-memchr.o)
                              c:/isis/application/toolchain/bin/../lib/gcc/arm-none-eabi/4.7.4/../../../../arm-none-eabi/lib\libc_s.a(lib_a-svfprintf.o) (memchr)
c:/isis/application/toolchain/bin/../lib/gcc/arm-none-eabi/4.7.4/../../../../arm-none-eabi/lib\libc_s.a(lib_a-memmove.o)
                              c:/isis/application/toolchain/bin/../lib/gcc/arm-none-eabi/4.7.4/../../../../arm-none-eabi/lib\libc_s.a(lib_a-svfprintf.o) (memmove)
c:/isis/application/toolchain/bin/../lib/gcc/arm-none-eabi/4.7.4/../../../../arm-none-eabi/lib\libc_s.a(lib_a-memset.o)
                              c:/isis/application/toolchain/bin/../lib/gcc/arm-none-eabi/4.7.4/../../../../arm-none-eabi/lib\libc_s.a(lib_a-callocr.o) (memset)
c:/isis/application/toolchain/bin/../lib/gcc/arm-none-eabi/4.7.4/../../../../arm-none-eabi/lib\libc_s.a(lib_a-reallocr.o)
                              c:/isis/application/toolchain/bin/../lib/gcc/arm-none-eabi/4.7.4/../../../../arm-none-eabi/lib\libc_s.a(lib_a-svfprintf.o) (_realloc_r)
c:/isis/application/toolchain/bin/../lib/gcc/arm-none-eabi/4.7.4/../../../../arm-none-eabi/lib\libc_s.a(lib_a-reent.o)
                              c:/isis/application/toolchain/bin/../lib/gcc/arm-none-eabi/4.7.4/../../../../arm-none-eabi/lib\libc_s.a(lib_a-sbrkr.o) (errno)
c:/isis/application/toolchain/bin/../lib/gcc/arm-none-eabi/4.7.4/../../../../arm-none-eabi/lib\libc_s.a(lib_a-strncmp.o)
                              c:/isis/application/toolchain/bin/../lib/gcc/arm-none-eabi/4.7.4/../../../../arm-none-eabi/lib\libc_s.a(lib_a-strtod.o) (strncmp)
c:/isis/application/toolchain/bin/../lib/gcc/arm-none-eabi/4.7.4/../../../../arm-none-eabi/lib\libc_s.a(lib_a-msizer.o)
                              c:/isis/application/toolchain/bin/../lib/gcc/arm-none-eabi/4.7.4/../../../../arm-none-eabi/lib\libc_s.a(lib_a-reallocr.o) (_malloc_usable_size_r)
C:/HOOPOE3/satellite-subsystems/demo/..//satellite-subsystems/lib\libSatelliteSubsystemsD.a(GomEPS.o)
                              ./src/sub-systemCode/Main/EPS.o (GomEpsInitialize)
C:/HOOPOE3/satellite-subsystems/demo/..//satellite-subsystems/lib\libSatelliteSubsystemsD.a(IsisAntS.o)
                              ./src/sub-systemCode/Main/Ants.o (IsisAntS_initialize)
C:/HOOPOE3/satellite-subsystems/demo/..//satellite-subsystems/lib\libSatelliteSubsystemsD.a(IsisSolarPanelv2.o)
                              ./src/sub-systemCode/Main/EPS.o (IsisSolarPanelv2_initialize)
C:/HOOPOE3/satellite-subsystems/demo/..//satellite-subsystems/lib\libSatelliteSubsystemsD.a(IsisTRXVU.o)
                              ./src/sub-systemCode/COMM/TRXVU.o (IsisTrxvu_initialize)
C:/HOOPOE3/satellite-subsystems/demo/..//satellite-subsystems/lib\libSatelliteSubsystemsD.a(cspaceADCS.o)
                              ./src/sub-systemCode/ADCS/ADCS.o (cspaceADCS_initialize)
C:/HOOPOE3/satellite-subsystems/demo/..//satellite-subsystems/lib\libSatelliteSubsystemsD.a(gecko_driver.o)
                              ./src/sub-systemCode/Main/HouseKeeping.o (GECKO_GetVoltageInput5V)
C:/HOOPOE3/satellite-subsystems/demo/..//satellite-subsystems/lib\libSatelliteSubsystemsD.a(IsisTRXCommon.o)
                              C:/HOOPOE3/satellite-subsystems/demo/..//satellite-subsystems/lib\libSatelliteSubsystemsD.a(IsisTRXVU.o) (IsisTrxCommon_componentReset)
c:/isis/application/toolchain/bin/../lib/gcc/arm-none-eabi/4.7.4/../../../../arm-none-eabi/lib\libm.a(lib_a-w_log.o)
                              C:/HOOPOE3/satellite-subsystems/demo/..//satellite-subsystems/lib\libSatelliteSubsystemsD.a(gecko_driver.o) (log)
c:/isis/application/toolchain/bin/../lib/gcc/arm-none-eabi/4.7.4/../../../../arm-none-eabi/lib\libm.a(lib_a-e_log.o)
                              c:/isis/application/toolchain/bin/../lib/gcc/arm-none-eabi/4.7.4/../../../../arm-none-eabi/lib\libm.a(lib_a-w_log.o) (__ieee754_log)
c:/isis/application/toolchain/bin/../lib/gcc/arm-none-eabi/4.7.4/../../../../arm-none-eabi/lib\libm.a(lib_a-s_lib_ver.o)
                              c:/isis/application/toolchain/bin/../lib/gcc/arm-none-eabi/4.7.4/../../../../arm-none-eabi/lib\libm.a(lib_a-w_log.o) (__fdlib_version)
c:/isis/application/toolchain/bin/../lib/gcc/arm-none-eabi/4.7.4/../../../../arm-none-eabi/lib\libm.a(lib_a-s_matherr.o)
                              c:/isis/application/toolchain/bin/../lib/gcc/arm-none-eabi/4.7.4/../../../../arm-none-eabi/lib\libm.a(lib_a-w_log.o) (matherr)
c:/isis/application/toolchain/bin/../lib/gcc/arm-none-eabi/4.7.4/../../../../arm-none-eabi/lib\libm.a(lib_a-s_nan.o)
                              c:/isis/application/toolchain/bin/../lib/gcc/arm-none-eabi/4.7.4/../../../../arm-none-eabi/lib\libm.a(lib_a-w_log.o) (nan)
C:/HOOPOE3/satellite-subsystems/demo/../..//hal/hcc/lib\libHCCD.a(fat_common.o)
                              ./src/sub-systemCode/Global/TLM_management.o (fn_init)
C:/HOOPOE3/satellite-subsystems/demo/../..//hal/hcc/lib\libHCCD.a(fat_m.o)
                              ./src/sub-systemCode/Global/TLM_management.o (fm_initvolume)
C:/HOOPOE3/satellite-subsystems/demo/../..//hal/hcc/lib\libHCCD.a(safefat.o)
                              C:/HOOPOE3/satellite-subsystems/demo/../..//hal/hcc/lib\libHCCD.a(fat_common.o) (safe_fix_filelengths)
C:/HOOPOE3/satellite-subsystems/demo/../..//hal/hcc/lib\libHCCD.a(atmel_mcipdc.o)
                              ./src/sub-systemCode/Global/TLM_management.o (atmel_mcipdc_initfunc)
C:/HOOPOE3/satellite-subsystems/demo/../..//hal/hcc/lib\libHCCD.a(oalp_mutex.o)
                              C:/HOOPOE3/satellite-subsystems/demo/../..//hal/hcc/lib\libHCCD.a(fat_common.o) (oal_mutex_create)
C:/HOOPOE3/satellite-subsystems/demo/../..//hal/hcc/lib\libHCCD.a(oalp_task.o)
                              C:/HOOPOE3/satellite-subsystems/demo/../..//hal/hcc/lib\libHCCD.a(fat_common.o) (oal_task_get_id)
C:/HOOPOE3/satellite-subsystems/demo/../..//hal/hcc/lib\libHCCD.a(atmel_mcipdc_hw.o)
                              C:/HOOPOE3/satellite-subsystems/demo/../..//hal/hcc/lib\libHCCD.a(atmel_mcipdc.o) (mcipdc_hw_init)
C:/HOOPOE3/satellite-subsystems/demo/../..//hal/hcc/lib\libHCCD.a(psp_rand.o)
                              C:/HOOPOE3/satellite-subsystems/demo/../..//hal/hcc/lib\libHCCD.a(fat_common.o) (psp_getrand)
C:/HOOPOE3/satellite-subsystems/demo/../..//hal/hcc/lib\libHCCD.a(psp_rtc.o)
                              C:/HOOPOE3/satellite-subsystems/demo/../..//hal/hcc/lib\libHCCD.a(fat_common.o) (psp_getcurrenttimedate)
C:/HOOPOE3/satellite-subsystems/demo/../..//hal/hcc/lib\libHCCD.a(hcc_mem.o)
                              C:/HOOPOE3/satellite-subsystems/demo/../..//hal/hcc/lib\libHCCD.a(atmel_mcipdc.o) (hcc_mem_alloc)
C:/HOOPOE3/satellite-subsystems/demo/../..//hal/hcc/lib\libHCCD.a(fat.o)
                              C:/HOOPOE3/satellite-subsystems/demo/../..//hal/hcc/lib\libHCCD.a(fat_common.o) (_f_getdirsector)
C:/HOOPOE3/satellite-subsystems/demo/../..//hal/hcc/lib\libHCCD.a(psp_hcc_mem.o)
                              C:/HOOPOE3/satellite-subsystems/demo/../..//hal/hcc/lib\libHCCD.a(hcc_mem.o) (hcc_mem_buf_alloc)
C:/HOOPOE3/satellite-subsystems/demo/../..//hal/hal/lib\libHALD.a(I2C.o)
                              ./src/sub-systemCode/Main/CMD/General_CMD.o (I2C_write)
C:/HOOPOE3/satellite-subsystems/demo/../..//hal/hal/lib\libHALD.a(SPI.o)
                              ./src/sub-systemCode/Main/Main_Init.o (SPI_start)
C:/HOOPOE3/satellite-subsystems/demo/../..//hal/hal/lib\libHALD.a(FRAM.o)
                              ./src/sub-systemCode/Main/Main_Init.o (FRAM_start)
C:/HOOPOE3/satellite-subsystems/demo/../..//hal/hal/lib\libHALD.a(Time.o)
                              ./src/sub-systemCode/Main/Main_Init.o (Time_start)
C:/HOOPOE3/satellite-subsystems/demo/../..//hal/hal/lib\libHALD.a(WatchDogTimerNoOS.o)
                              ./src/main.o (WDT_start)
C:/HOOPOE3/satellite-subsystems/demo/../..//hal/hal/lib\libHALD.a(WatchDogTimerOS.o)
                              ./src/main.o (WDT_startWatchdogKickTask)
C:/HOOPOE3/satellite-subsystems/demo/../..//hal/hal/lib\libHALD.a(util.o)
                              ./src/sub-systemCode/Main/Main_Init.o (UTIL_DbguGetIntegerMinMax)
C:/HOOPOE3/satellite-subsystems/demo/../..//hal/hal/lib\libHALD.a(LED.o)
                              C:/HOOPOE3/satellite-subsystems/demo/../..//hal/hal/lib\libHALD.a(WatchDogTimerOS.o) (LED_toggle)
C:/HOOPOE3/satellite-subsystems/demo/../..//hal/hal/lib\libHALD.a(RTC.o)
                              C:/HOOPOE3/satellite-subsystems/demo/../..//hal/hal/lib\libHALD.a(Time.o) (RTC_getTime)
C:/HOOPOE3/satellite-subsystems/demo/../..//hal/hal/lib\libHALD.a(RTT.o)
                              C:/HOOPOE3/satellite-subsystems/demo/../..//hal/hal/lib\libHALD.a(Time.o) (RTT_start)
C:/HOOPOE3/satellite-subsystems/demo/../..//hal/freertos/lib\libFreeRTOSD.a(queue.o)
                              ./src/sub-systemCode/COMM/TRXVU.o (xQueueGenericReset)
C:/HOOPOE3/satellite-subsystems/demo/../..//hal/freertos/lib\libFreeRTOSD.a(tasks.o)
                              ./src/sub-systemCode/Main/CMD/COMM_CMD.o (xTaskGenericCreate)
C:/HOOPOE3/satellite-subsystems/demo/../..//hal/freertos/lib\libFreeRTOSD.a(hooks.o)
                              C:/HOOPOE3/satellite-subsystems/demo/../..//hal/freertos/lib\libFreeRTOSD.a(tasks.o) (vApplicationStackOverflowHook)
C:/HOOPOE3/satellite-subsystems/demo/../..//hal/freertos/lib\libFreeRTOSD.a(standardMemMang.o)
                              C:/HOOPOE3/satellite-subsystems/demo/../..//hal/freertos/lib\libFreeRTOSD.a(queue.o) (pvPortMalloc)
C:/HOOPOE3/satellite-subsystems/demo/../..//hal/freertos/lib\libFreeRTOSD.a(port.o)
                              C:/HOOPOE3/satellite-subsystems/demo/../..//hal/freertos/lib\libFreeRTOSD.a(tasks.o) (pxPortInitialiseStack)
C:/HOOPOE3/satellite-subsystems/demo/../..//hal/freertos/lib\libFreeRTOSD.a(list.o)
                              C:/HOOPOE3/satellite-subsystems/demo/../..//hal/freertos/lib\libFreeRTOSD.a(queue.o) (vListInitialise)
C:/HOOPOE3/satellite-subsystems/demo/../..//hal/at91/lib\libAt91D.a(syscalls.o)
                              c:/isis/application/toolchain/bin/../lib/gcc/arm-none-eabi/4.7.4/../../../../arm-none-eabi/lib\libc_s.a(lib_a-sbrkr.o) (_sbrk)
C:/HOOPOE3/satellite-subsystems/demo/../..//hal/at91/lib\libAt91D.a(aic.o)
                              C:/HOOPOE3/satellite-subsystems/demo/../..//hal/hal/lib\libHALD.a(I2C.o) (AIC_ConfigureIT)
C:/HOOPOE3/satellite-subsystems/demo/../..//hal/at91/lib\libAt91D.a(cp15.o)
                              ./src/main.o (CP15_Enable_I_Cache)
C:/HOOPOE3/satellite-subsystems/demo/../..//hal/at91/lib\libAt91D.a(dbgu.o)
                              ./src/main.o (DBGU_Configure)
C:/HOOPOE3/satellite-subsystems/demo/../..//hal/at91/lib\libAt91D.a(pio.o)
                              ./src/main.o (PIO_Configure)
C:/HOOPOE3/satellite-subsystems/demo/../..//hal/at91/lib\libAt91D.a(pit.o)
                              C:/HOOPOE3/satellite-subsystems/demo/../..//hal/freertos/lib\libFreeRTOSD.a(port.o) (PIT_Init)
C:/HOOPOE3/satellite-subsystems/demo/../..//hal/at91/lib\libAt91D.a(pmc.o)
                              C:/HOOPOE3/satellite-subsystems/demo/../..//hal/hcc/lib\libHCCD.a(atmel_mcipdc_hw.o) (PMC_EnablePeripheral)
C:/HOOPOE3/satellite-subsystems/demo/../..//hal/at91/lib\libAt91D.a(spi_at91.o)
                              C:/HOOPOE3/satellite-subsystems/demo/../..//hal/hal/lib\libHALD.a(SPI.o) (SPI_Enable)
C:/HOOPOE3/satellite-subsystems/demo/../..//hal/at91/lib\libAt91D.a(twi_at91.o)
                              C:/HOOPOE3/satellite-subsystems/demo/../..//hal/hal/lib\libHALD.a(I2C.o) (TWI_ConfigureMaster)
C:/HOOPOE3/satellite-subsystems/demo/../..//hal/at91/lib\libAt91D.a(ExitHandler.o)
                              C:/HOOPOE3/satellite-subsystems/demo/../..//hal/freertos/lib\libFreeRTOSD.a(hooks.o) (restart)
C:/HOOPOE3/satellite-subsystems/demo/../..//hal/at91/lib\libAt91D.a(board_cstartup.o)
                              (entry)
C:/HOOPOE3/satellite-subsystems/demo/../..//hal/at91/lib\libAt91D.a(cp15_asm.o)
                              C:/HOOPOE3/satellite-subsystems/demo/../..//hal/at91/lib\libAt91D.a(cp15.o) (_readControlRegister)
C:/HOOPOE3/satellite-subsystems/demo/../..//hal/at91/lib\libAt91D.a(board_lowlevel.o)
                              C:/HOOPOE3/satellite-subsystems/demo/../..//hal/at91/lib\libAt91D.a(board_cstartup.o) (LowLevelInit)
C:/HOOPOE3/satellite-subsystems/demo/../..//hal/at91/lib\libAt91D.a(board_memories.o)
                              C:/HOOPOE3/satellite-subsystems/demo/../..//hal/at91/lib\libAt91D.a(board_lowlevel.o) (BOARD_RemapRam)
c:/isis/application/toolchain/bin/../lib/gcc/arm-none-eabi/4.7.4\libgcc.a(_udivsi3.o)
                              c:/isis/application/toolchain/bin/../lib/gcc/arm-none-eabi/4.7.4/../../../../arm-none-eabi/lib\libc_s.a(lib_a-vfprintf_i.o) (__aeabi_uidiv)
c:/isis/application/toolchain/bin/../lib/gcc/arm-none-eabi/4.7.4\libgcc.a(_divsi3.o)
                              c:/isis/application/toolchain/bin/../lib/gcc/arm-none-eabi/4.7.4/../../../../arm-none-eabi/lib\libc_s.a(lib_a-vfprintf_float.o) (__aeabi_idiv)
c:/isis/application/toolchain/bin/../lib/gcc/arm-none-eabi/4.7.4\libgcc.a(_dvmd_tls.o)
                              c:/isis/application/toolchain/bin/../lib/gcc/arm-none-eabi/4.7.4\libgcc.a(_udivsi3.o) (__aeabi_idiv0)
c:/isis/application/toolchain/bin/../lib/gcc/arm-none-eabi/4.7.4\libgcc.a(_arm_addsubdf3.o)
                              c:/isis/application/toolchain/bin/../lib/gcc/arm-none-eabi/4.7.4/../../../../arm-none-eabi/lib\libc_s.a(lib_a-dtoa.o) (__aeabi_dsub)
c:/isis/application/toolchain/bin/../lib/gcc/arm-none-eabi/4.7.4\libgcc.a(_arm_muldivdf3.o)
                              c:/isis/application/toolchain/bin/../lib/gcc/arm-none-eabi/4.7.4/../../../../arm-none-eabi/lib\libc_s.a(lib_a-dtoa.o) (__aeabi_dmul)
c:/isis/application/toolchain/bin/../lib/gcc/arm-none-eabi/4.7.4\libgcc.a(_arm_cmpdf2.o)
                              c:/isis/application/toolchain/bin/../lib/gcc/arm-none-eabi/4.7.4/../../../../arm-none-eabi/lib\libc_s.a(lib_a-vfprintf_float.o) (__aeabi_dcmpeq)
c:/isis/application/toolchain/bin/../lib/gcc/arm-none-eabi/4.7.4\libgcc.a(_arm_fixdfsi.o)
                              c:/isis/application/toolchain/bin/../lib/gcc/arm-none-eabi/4.7.4/../../../../arm-none-eabi/lib\libc_s.a(lib_a-dtoa.o) (__aeabi_d2iz)
c:/isis/application/toolchain/bin/../lib/gcc/arm-none-eabi/4.7.4\libgcc.a(_arm_fixunsdfsi.o)
                              c:/isis/application/toolchain/bin/../lib/gcc/arm-none-eabi/4.7.4/../../../../arm-none-eabi/lib\libc_s.a(lib_a-strtod.o) (__aeabi_d2uiz)
c:/isis/application/toolchain/bin/../lib/gcc/arm-none-eabi/4.7.4\libgcc.a(_arm_truncdfsf2.o)
                              c:/isis/application/toolchain/bin/../lib/gcc/arm-none-eabi/4.7.4/../../../../arm-none-eabi/lib\libc_s.a(lib_a-vfscanf_float.o) (__aeabi_d2f)
c:/isis/application/toolchain/bin/../lib/gcc/arm-none-eabi/4.7.4\libgcc.a(_arm_addsubsf3.o)
                              ./src/sub-systemCode/Main/EPS.o (__aeabi_fsub)
c:/isis/application/toolchain/bin/../lib/gcc/arm-none-eabi/4.7.4\libgcc.a(_arm_muldivsf3.o)
                              ./src/sub-systemCode/Main/EPS.o (__aeabi_fmul)
c:/isis/application/toolchain/bin/../lib/gcc/arm-none-eabi/4.7.4\libgcc.a(_arm_cmpsf2.o)
                              ./src/sub-systemCode/Main/CMD/EPS_CMD.o (__aeabi_fcmplt)
c:/isis/application/toolchain/bin/../lib/gcc/arm-none-eabi/4.7.4\libgcc.a(_arm_fixsfsi.o)
                              ./src/sub-systemCode/Global/GlobalParam.o (__aeabi_f2iz)
c:/isis/application/toolchain/bin/../lib/gcc/arm-none-eabi/4.7.4\libgcc.a(_arm_fixunssfsi.o)
                              ./src/sub-systemCode/Main/EPS.o (__aeabi_f2uiz)
c:/isis/application/toolchain/bin/../lib/gcc/arm-none-eabi/4.7.4/../../../../arm-none-eabi/lib\libc_s.a(lib_a-errno.o)
                              c:/isis/application/toolchain/bin/../lib/gcc/arm-none-eabi/4.7.4/../../../../arm-none-eabi/lib\libm.a(lib_a-w_log.o) (__errno)
c:/isis/application/toolchain/bin/../lib/gcc/arm-none-eabi/4.7.4/../../../../arm-none-eabi/lib\libc_s.a(lib_a-memcmp.o)
                              ./src/sub-systemCode/Global/TLM_management.o (memcmp)
c:/isis/application/toolchain/bin/../lib/gcc/arm-none-eabi/4.7.4/../../../../arm-none-eabi/lib\libc_s.a(lib_a-printf.o)
                              ./src/sub-systemCode/Main/Ants.o (printf)
c:/isis/application/toolchain/bin/../lib/gcc/arm-none-eabi/4.7.4/../../../../arm-none-eabi/lib\libc_s.a(lib_a-puts.o)
                              ./src/sub-systemCode/Main/CMD/General_CMD.o (puts)
c:/isis/application/toolchain/bin/../lib/gcc/arm-none-eabi/4.7.4/../../../../arm-none-eabi/lib\libc_s.a(lib_a-strcpy.o)
                              ./src/sub-systemCode/Main/HouseKeeping.o (strcpy)
c:/isis/application/toolchain/bin/../lib/gcc/arm-none-eabi/4.7.4/../../../../arm-none-eabi/lib\libc_s.a(lib_a-vfprintf.o)
                              c:/isis/application/toolchain/bin/../lib/gcc/arm-none-eabi/4.7.4/../../../../arm-none-eabi/lib\libc_s.a(lib_a-printf.o) (_vfprintf_r)
c:/isis/application/toolchain/bin/../lib/gcc/arm-none-eabi/4.7.4/../../../../arm-none-eabi/lib\libc_s.a(lib_a-wbuf.o)
                              c:/isis/application/toolchain/bin/../lib/gcc/arm-none-eabi/4.7.4/../../../../arm-none-eabi/lib\libc_s.a(lib_a-vfprintf.o) (__swbuf_r)
c:/isis/application/toolchain/bin/../lib/gcc/arm-none-eabi/4.7.4/../../../../arm-none-eabi/lib\libc_s.a(lib_a-wsetup.o)
                              c:/isis/application/toolchain/bin/../lib/gcc/arm-none-eabi/4.7.4/../../../../arm-none-eabi/lib\libc_s.a(lib_a-vfprintf.o) (__swsetup_r)
c:/isis/application/toolchain/bin/../lib/gcc/arm-none-eabi/4.7.4/../../../../arm-none-eabi/lib\libc_s.a(lib_a-fflush.o)
                              c:/isis/application/toolchain/bin/../lib/gcc/arm-none-eabi/4.7.4/../../../../arm-none-eabi/lib\libc_s.a(lib_a-wbuf.o) (_fflush_r)
c:/isis/application/toolchain/bin/../lib/gcc/arm-none-eabi/4.7.4/../../../../arm-none-eabi/lib\libc_s.a(lib_a-findfp.o)
                              c:/isis/application/toolchain/bin/../lib/gcc/arm-none-eabi/4.7.4/../../../../arm-none-eabi/lib\libc_s.a(lib_a-printf.o) (__sinit)
c:/isis/application/toolchain/bin/../lib/gcc/arm-none-eabi/4.7.4/../../../../arm-none-eabi/lib\libc_s.a(lib_a-fputwc.o)
                              c:/isis/application/toolchain/bin/../lib/gcc/arm-none-eabi/4.7.4/../../../../arm-none-eabi/lib\libc_s.a(lib_a-vfprintf.o) (_fputwc_r)
c:/isis/application/toolchain/bin/../lib/gcc/arm-none-eabi/4.7.4/../../../../arm-none-eabi/lib\libc_s.a(lib_a-fvwrite.o)
                              c:/isis/application/toolchain/bin/../lib/gcc/arm-none-eabi/4.7.4/../../../../arm-none-eabi/lib\libc_s.a(lib_a-vfprintf.o) (__sfvwrite_r)
c:/isis/application/toolchain/bin/../lib/gcc/arm-none-eabi/4.7.4/../../../../arm-none-eabi/lib\libc_s.a(lib_a-fwalk.o)
                              c:/isis/application/toolchain/bin/../lib/gcc/arm-none-eabi/4.7.4/../../../../arm-none-eabi/lib\libc_s.a(lib_a-findfp.o) (_fwalk)
c:/isis/application/toolchain/bin/../lib/gcc/arm-none-eabi/4.7.4/../../../../arm-none-eabi/lib\libc_s.a(lib_a-makebuf.o)
                              c:/isis/application/toolchain/bin/../lib/gcc/arm-none-eabi/4.7.4/../../../../arm-none-eabi/lib\libc_s.a(lib_a-wsetup.o) (__smakebuf_r)
c:/isis/application/toolchain/bin/../lib/gcc/arm-none-eabi/4.7.4/../../../../arm-none-eabi/lib\libc_s.a(lib_a-putc.o)
                              c:/isis/application/toolchain/bin/../lib/gcc/arm-none-eabi/4.7.4/../../../../arm-none-eabi/lib\libc_s.a(lib_a-puts.o) (_putc_r)
c:/isis/application/toolchain/bin/../lib/gcc/arm-none-eabi/4.7.4/../../../../arm-none-eabi/lib\libc_s.a(lib_a-stdio.o)
                              c:/isis/application/toolchain/bin/../lib/gcc/arm-none-eabi/4.7.4/../../../../arm-none-eabi/lib\libc_s.a(lib_a-findfp.o) (__sread)
c:/isis/application/toolchain/bin/../lib/gcc/arm-none-eabi/4.7.4/../../../../arm-none-eabi/lib\libc_s.a(lib_a-wcrtomb.o)
                              c:/isis/application/toolchain/bin/../lib/gcc/arm-none-eabi/4.7.4/../../../../arm-none-eabi/lib\libc_s.a(lib_a-fputwc.o) (_wcrtomb_r)
c:/isis/application/toolchain/bin/../lib/gcc/arm-none-eabi/4.7.4/../../../../arm-none-eabi/lib\libc_s.a(lib_a-wctomb_r.o)
                              c:/isis/application/toolchain/bin/../lib/gcc/arm-none-eabi/4.7.4/../../../../arm-none-eabi/lib\libc_s.a(lib_a-wcrtomb.o) (__wctomb)
c:/isis/application/toolchain/bin/../lib/gcc/arm-none-eabi/4.7.4/../../../../arm-none-eabi/lib\libc_s.a(lib_a-writer.o)
                              c:/isis/application/toolchain/bin/../lib/gcc/arm-none-eabi/4.7.4/../../../../arm-none-eabi/lib\libc_s.a(lib_a-stdio.o) (_write_r)
c:/isis/application/toolchain/bin/../lib/gcc/arm-none-eabi/4.7.4/../../../../arm-none-eabi/lib\libc_s.a(lib_a-closer.o)
                              c:/isis/application/toolchain/bin/../lib/gcc/arm-none-eabi/4.7.4/../../../../arm-none-eabi/lib\libc_s.a(lib_a-stdio.o) (_close_r)
c:/isis/application/toolchain/bin/../lib/gcc/arm-none-eabi/4.7.4/../../../../arm-none-eabi/lib\libc_s.a(lib_a-fstatr.o)
                              c:/isis/application/toolchain/bin/../lib/gcc/arm-none-eabi/4.7.4/../../../../arm-none-eabi/lib\libc_s.a(lib_a-makebuf.o) (_fstat_r)
c:/isis/application/toolchain/bin/../lib/gcc/arm-none-eabi/4.7.4/../../../../arm-none-eabi/lib\libc_s.a(lib_a-isattyr.o)
                              c:/isis/application/toolchain/bin/../lib/gcc/arm-none-eabi/4.7.4/../../../../arm-none-eabi/lib\libc_s.a(lib_a-makebuf.o) (_isatty_r)
c:/isis/application/toolchain/bin/../lib/gcc/arm-none-eabi/4.7.4/../../../../arm-none-eabi/lib\libc_s.a(lib_a-lseekr.o)
                              c:/isis/application/toolchain/bin/../lib/gcc/arm-none-eabi/4.7.4/../../../../arm-none-eabi/lib\libc_s.a(lib_a-stdio.o) (_lseek_r)
c:/isis/application/toolchain/bin/../lib/gcc/arm-none-eabi/4.7.4/../../../../arm-none-eabi/lib\libc_s.a(lib_a-readr.o)
                              c:/isis/application/toolchain/bin/../lib/gcc/arm-none-eabi/4.7.4/../../../../arm-none-eabi/lib\libc_s.a(lib_a-stdio.o) (_read_r)

Allocating common symbols
Common symbol       size              file

g_fatmutex          0x4               C:/HOOPOE3/satellite-subsystems/demo/../..//hal/hcc/lib\libHCCD.a(fat_common.o)
onlineTM_list       0x1db             ./src/sub-systemCode/Global/OnlineTM.o
ST                  0x4               ./src/sub-systemCode/Main/Main_Init.o
allocked_write_element
                    0xef              ./src/sub-systemCode/Global/TLM_management.o
current_global_param
                    0x3a              ./src/sub-systemCode/Global/GlobalParam.o
errno               0x4               c:/isis/application/toolchain/bin/../lib/gcc/arm-none-eabi/4.7.4/../../../../arm-none-eabi/lib\libc_s.a(lib_a-reent.o)
not_first_activation
                    0x4               ./src/sub-systemCode/Global/Global.o
g_multi             0x10a0            C:/HOOPOE3/satellite-subsystems/demo/../..//hal/hcc/lib\libHCCD.a(fat_common.o)
allocked_read_element
                    0xef              ./src/sub-systemCode/Global/TLM_management.o
xQueueRegistry      0x100             C:/HOOPOE3/satellite-subsystems/demo/../..//hal/freertos/lib\libFreeRTOSD.a(queue.o)
__hexdig            0x100             c:/isis/application/toolchain/bin/../lib/gcc/arm-none-eabi/4.7.4/../../../../arm-none-eabi/lib\libc_s.a(lib_a-gdtoa-gethex.o)
allow_transponder   0x4               ./src/sub-systemCode/COMM/TRXVU.o
xBeaconTask         0x4               ./src/sub-systemCode/COMM/TRXVU.o
xDumpQueue          0x4               ./src/sub-systemCode/Main/CMD/COMM_CMD.o
xFileOpenHandler    0x4               ./src/sub-systemCode/Global/TLM_management.o
f_format_progress   0x4               C:/HOOPOE3/satellite-subsystems/demo/../..//hal/hcc/lib\libHCCD.a(fat_common.o)
offline_TM_list     0x82              ./src/sub-systemCode/Global/OnlineTM.o
command_to_execute  0xfa0             ./src/sub-systemCode/Main/commands.o
VBatt_previous      0x2               ./src/sub-systemCode/Main/EPS.o
xIsTransmitting     0x4               ./src/sub-systemCode/COMM/TRXVU.o
switches_states     0x1               ./src/sub-systemCode/Main/EPS.o
batteryLastMode     0x1               ./src/sub-systemCode/Main/EPS.o
enterMode           0x20              ./src/sub-systemCode/Main/EPS.o
xTransponderHandle  0x4               ./src/sub-systemCode/Main/CMD/COMM_CMD.o
xTransponderQueue   0x4               ./src/sub-systemCode/Main/CMD/COMM_CMD.o
xEnterTaskFS        0x4               ./src/sub-systemCode/Global/TLM_management.o
allocked_delete_element
                    0xef              ./src/sub-systemCode/Global/TLM_management.o
xDumpHandle         0x4               ./src/sub-systemCode/Main/CMD/COMM_CMD.o

Discarded input sections

 .text          0x00000000        0x0 c:/isis/application/toolchain/bin/../lib/gcc/arm-none-eabi/4.7.4/../../../../arm-none-eabi/lib\libc_s.a(lib_a-vfprintf_float.o)
 .data          0x00000000        0x0 c:/isis/application/toolchain/bin/../lib/gcc/arm-none-eabi/4.7.4/../../../../arm-none-eabi/lib\libc_s.a(lib_a-vfprintf_float.o)
 .bss           0x00000000        0x0 c:/isis/application/toolchain/bin/../lib/gcc/arm-none-eabi/4.7.4/../../../../arm-none-eabi/lib\libc_s.a(lib_a-vfprintf_float.o)
 .text          0x00000000        0x0 c:/isis/application/toolchain/bin/../lib/gcc/arm-none-eabi/4.7.4/../../../../arm-none-eabi/lib\libc_s.a(lib_a-vfprintf_i.o)
 .data          0x00000000        0x0 c:/isis/application/toolchain/bin/../lib/gcc/arm-none-eabi/4.7.4/../../../../arm-none-eabi/lib\libc_s.a(lib_a-vfprintf_i.o)
 .bss           0x00000000        0x0 c:/isis/application/toolchain/bin/../lib/gcc/arm-none-eabi/4.7.4/../../../../arm-none-eabi/lib\libc_s.a(lib_a-vfprintf_i.o)
 .text          0x00000000        0x0 c:/isis/application/toolchain/bin/../lib/gcc/arm-none-eabi/4.7.4/../../../../arm-none-eabi/lib\libc_s.a(lib_a-vfscanf_float.o)
 .data          0x00000000        0x0 c:/isis/application/toolchain/bin/../lib/gcc/arm-none-eabi/4.7.4/../../../../arm-none-eabi/lib\libc_s.a(lib_a-vfscanf_float.o)
 .bss           0x00000000        0x0 c:/isis/application/toolchain/bin/../lib/gcc/arm-none-eabi/4.7.4/../../../../arm-none-eabi/lib\libc_s.a(lib_a-vfscanf_float.o)
 .text          0x00000000        0x0 c:/isis/application/toolchain/bin/../lib/gcc/arm-none-eabi/4.7.4/../../../../arm-none-eabi/lib\libc_s.a(lib_a-dtoa.o)
 .data          0x00000000        0x0 c:/isis/application/toolchain/bin/../lib/gcc/arm-none-eabi/4.7.4/../../../../arm-none-eabi/lib\libc_s.a(lib_a-dtoa.o)
 .bss           0x00000000        0x0 c:/isis/application/toolchain/bin/../lib/gcc/arm-none-eabi/4.7.4/../../../../arm-none-eabi/lib\libc_s.a(lib_a-dtoa.o)
 .text          0x00000000        0x0 c:/isis/application/toolchain/bin/../lib/gcc/arm-none-eabi/4.7.4/../../../../arm-none-eabi/lib\libc_s.a(lib_a-locale.o)
 .data          0x00000000        0x0 c:/isis/application/toolchain/bin/../lib/gcc/arm-none-eabi/4.7.4/../../../../arm-none-eabi/lib\libc_s.a(lib_a-locale.o)
 .bss           0x00000000        0x0 c:/isis/application/toolchain/bin/../lib/gcc/arm-none-eabi/4.7.4/../../../../arm-none-eabi/lib\libc_s.a(lib_a-locale.o)
 .text._setlocale_r
                0x00000000       0x6c c:/isis/application/toolchain/bin/../lib/gcc/arm-none-eabi/4.7.4/../../../../arm-none-eabi/lib\libc_s.a(lib_a-locale.o)
 .text.__locale_charset
                0x00000000        0xc c:/isis/application/toolchain/bin/../lib/gcc/arm-none-eabi/4.7.4/../../../../arm-none-eabi/lib\libc_s.a(lib_a-locale.o)
 .text.__locale_mb_cur_max
                0x00000000       0x10 c:/isis/application/toolchain/bin/../lib/gcc/arm-none-eabi/4.7.4/../../../../arm-none-eabi/lib\libc_s.a(lib_a-locale.o)
 .text.__locale_msgcharset
                0x00000000        0xc c:/isis/application/toolchain/bin/../lib/gcc/arm-none-eabi/4.7.4/../../../../arm-none-eabi/lib\libc_s.a(lib_a-locale.o)
 .text.__locale_cjk_lang
                0x00000000        0x8 c:/isis/application/toolchain/bin/../lib/gcc/arm-none-eabi/4.7.4/../../../../arm-none-eabi/lib\libc_s.a(lib_a-locale.o)
 .text.setlocale
                0x00000000       0x1c c:/isis/application/toolchain/bin/../lib/gcc/arm-none-eabi/4.7.4/../../../../arm-none-eabi/lib\libc_s.a(lib_a-locale.o)
 .text.localeconv
                0x00000000        0xc c:/isis/application/toolchain/bin/../lib/gcc/arm-none-eabi/4.7.4/../../../../arm-none-eabi/lib\libc_s.a(lib_a-locale.o)
 .data.lc_message_charset
                0x00000000       0x20 c:/isis/application/toolchain/bin/../lib/gcc/arm-none-eabi/4.7.4/../../../../arm-none-eabi/lib\libc_s.a(lib_a-locale.o)
 .bss._PathLocale
                0x00000000        0x4 c:/isis/application/toolchain/bin/../lib/gcc/arm-none-eabi/4.7.4/../../../../arm-none-eabi/lib\libc_s.a(lib_a-locale.o)
 .bss.__nlocale_changed
                0x00000000        0x4 c:/isis/application/toolchain/bin/../lib/gcc/arm-none-eabi/4.7.4/../../../../arm-none-eabi/lib\libc_s.a(lib_a-locale.o)
 .bss.__mlocale_changed
                0x00000000        0x4 c:/isis/application/toolchain/bin/../lib/gcc/arm-none-eabi/4.7.4/../../../../arm-none-eabi/lib\libc_s.a(lib_a-locale.o)
 .data.lc_ctype_charset
                0x00000000       0x20 c:/isis/application/toolchain/bin/../lib/gcc/arm-none-eabi/4.7.4/../../../../arm-none-eabi/lib\libc_s.a(lib_a-locale.o)
 .data.__mb_cur_max
                0x00000000        0x4 c:/isis/application/toolchain/bin/../lib/gcc/arm-none-eabi/4.7.4/../../../../arm-none-eabi/lib\libc_s.a(lib_a-locale.o)
 .text          0x00000000        0x0 c:/isis/application/toolchain/bin/../lib/gcc/arm-none-eabi/4.7.4/../../../../arm-none-eabi/lib\libc_s.a(lib_a-malloc.o)
 .data          0x00000000        0x0 c:/isis/application/toolchain/bin/../lib/gcc/arm-none-eabi/4.7.4/../../../../arm-none-eabi/lib\libc_s.a(lib_a-malloc.o)
 .bss           0x00000000        0x0 c:/isis/application/toolchain/bin/../lib/gcc/arm-none-eabi/4.7.4/../../../../arm-none-eabi/lib\libc_s.a(lib_a-malloc.o)
 .text          0x00000000        0x0 c:/isis/application/toolchain/bin/../lib/gcc/arm-none-eabi/4.7.4/../../../../arm-none-eabi/lib\libc_s.a(lib_a-mallocr.o)
 .data          0x00000000        0x0 c:/isis/application/toolchain/bin/../lib/gcc/arm-none-eabi/4.7.4/../../../../arm-none-eabi/lib\libc_s.a(lib_a-mallocr.o)
 .bss           0x00000000        0x0 c:/isis/application/toolchain/bin/../lib/gcc/arm-none-eabi/4.7.4/../../../../arm-none-eabi/lib\libc_s.a(lib_a-mallocr.o)
 .text          0x00000000        0x0 c:/isis/application/toolchain/bin/../lib/gcc/arm-none-eabi/4.7.4/../../../../arm-none-eabi/lib\libc_s.a(lib_a-memcpy.o)
 .data          0x00000000        0x0 c:/isis/application/toolchain/bin/../lib/gcc/arm-none-eabi/4.7.4/../../../../arm-none-eabi/lib\libc_s.a(lib_a-memcpy.o)
 .bss           0x00000000        0x0 c:/isis/application/toolchain/bin/../lib/gcc/arm-none-eabi/4.7.4/../../../../arm-none-eabi/lib\libc_s.a(lib_a-memcpy.o)
 .text          0x00000000        0x0 c:/isis/application/toolchain/bin/../lib/gcc/arm-none-eabi/4.7.4/../../../../arm-none-eabi/lib\libc_s.a(lib_a-mprec.o)
 .data          0x00000000        0x0 c:/isis/application/toolchain/bin/../lib/gcc/arm-none-eabi/4.7.4/../../../../arm-none-eabi/lib\libc_s.a(lib_a-mprec.o)
 .bss           0x00000000        0x0 c:/isis/application/toolchain/bin/../lib/gcc/arm-none-eabi/4.7.4/../../../../arm-none-eabi/lib\libc_s.a(lib_a-mprec.o)
 .text._mprec_log10
                0x00000000       0x4c c:/isis/application/toolchain/bin/../lib/gcc/arm-none-eabi/4.7.4/../../../../arm-none-eabi/lib\libc_s.a(lib_a-mprec.o)
 .rodata.__mprec_tinytens
                0x00000000       0x28 c:/isis/application/toolchain/bin/../lib/gcc/arm-none-eabi/4.7.4/../../../../arm-none-eabi/lib\libc_s.a(lib_a-mprec.o)
 .text          0x00000000        0x0 c:/isis/application/toolchain/bin/../lib/gcc/arm-none-eabi/4.7.4/../../../../arm-none-eabi/lib\libc_s.a(lib_a-s_fpclassify.o)
 .data          0x00000000        0x0 c:/isis/application/toolchain/bin/../lib/gcc/arm-none-eabi/4.7.4/../../../../arm-none-eabi/lib\libc_s.a(lib_a-s_fpclassify.o)
 .bss           0x00000000        0x0 c:/isis/application/toolchain/bin/../lib/gcc/arm-none-eabi/4.7.4/../../../../arm-none-eabi/lib\libc_s.a(lib_a-s_fpclassify.o)
 .text          0x00000000        0x0 c:/isis/application/toolchain/bin/../lib/gcc/arm-none-eabi/4.7.4/../../../../arm-none-eabi/lib\libc_s.a(lib_a-sbrkr.o)
 .data          0x00000000        0x0 c:/isis/application/toolchain/bin/../lib/gcc/arm-none-eabi/4.7.4/../../../../arm-none-eabi/lib\libc_s.a(lib_a-sbrkr.o)
 .bss           0x00000000        0x0 c:/isis/application/toolchain/bin/../lib/gcc/arm-none-eabi/4.7.4/../../../../arm-none-eabi/lib\libc_s.a(lib_a-sbrkr.o)
 .text          0x00000000        0x0 c:/isis/application/toolchain/bin/../lib/gcc/arm-none-eabi/4.7.4/../../../../arm-none-eabi/lib\libc_s.a(lib_a-sf_nan.o)
 .data          0x00000000        0x0 c:/isis/application/toolchain/bin/../lib/gcc/arm-none-eabi/4.7.4/../../../../arm-none-eabi/lib\libc_s.a(lib_a-sf_nan.o)
 .bss           0x00000000        0x0 c:/isis/application/toolchain/bin/../lib/gcc/arm-none-eabi/4.7.4/../../../../arm-none-eabi/lib\libc_s.a(lib_a-sf_nan.o)
 .text          0x00000000        0x0 c:/isis/application/toolchain/bin/../lib/gcc/arm-none-eabi/4.7.4/../../../../arm-none-eabi/lib\libc_s.a(lib_a-sprintf.o)
 .data          0x00000000        0x0 c:/isis/application/toolchain/bin/../lib/gcc/arm-none-eabi/4.7.4/../../../../arm-none-eabi/lib\libc_s.a(lib_a-sprintf.o)
 .bss           0x00000000        0x0 c:/isis/application/toolchain/bin/../lib/gcc/arm-none-eabi/4.7.4/../../../../arm-none-eabi/lib\libc_s.a(lib_a-sprintf.o)
 .text._sprintf_r
                0x00000000       0x60 c:/isis/application/toolchain/bin/../lib/gcc/arm-none-eabi/4.7.4/../../../../arm-none-eabi/lib\libc_s.a(lib_a-sprintf.o)
 .text          0x00000000        0x0 c:/isis/application/toolchain/bin/../lib/gcc/arm-none-eabi/4.7.4/../../../../arm-none-eabi/lib\libc_s.a(lib_a-strcmp.o)
 .data          0x00000000        0x0 c:/isis/application/toolchain/bin/../lib/gcc/arm-none-eabi/4.7.4/../../../../arm-none-eabi/lib\libc_s.a(lib_a-strcmp.o)
 .bss           0x00000000        0x0 c:/isis/application/toolchain/bin/../lib/gcc/arm-none-eabi/4.7.4/../../../../arm-none-eabi/lib\libc_s.a(lib_a-strcmp.o)
 .text          0x00000000        0x0 c:/isis/application/toolchain/bin/../lib/gcc/arm-none-eabi/4.7.4/../../../../arm-none-eabi/lib\libc_s.a(lib_a-strlen.o)
 .data          0x00000000        0x0 c:/isis/application/toolchain/bin/../lib/gcc/arm-none-eabi/4.7.4/../../../../arm-none-eabi/lib\libc_s.a(lib_a-strlen.o)
 .bss           0x00000000        0x0 c:/isis/application/toolchain/bin/../lib/gcc/arm-none-eabi/4.7.4/../../../../arm-none-eabi/lib\libc_s.a(lib_a-strlen.o)
 .text          0x00000000        0x0 c:/isis/application/toolchain/bin/../lib/gcc/arm-none-eabi/4.7.4/../../../../arm-none-eabi/lib\libc_s.a(lib_a-strtod.o)
 .data          0x00000000        0x0 c:/isis/application/toolchain/bin/../lib/gcc/arm-none-eabi/4.7.4/../../../../arm-none-eabi/lib\libc_s.a(lib_a-strtod.o)
 .bss           0x00000000        0x0 c:/isis/application/toolchain/bin/../lib/gcc/arm-none-eabi/4.7.4/../../../../arm-none-eabi/lib\libc_s.a(lib_a-strtod.o)
 .text.strtod   0x00000000       0x1c c:/isis/application/toolchain/bin/../lib/gcc/arm-none-eabi/4.7.4/../../../../arm-none-eabi/lib\libc_s.a(lib_a-strtod.o)
 .text.strtof   0x00000000       0x50 c:/isis/application/toolchain/bin/../lib/gcc/arm-none-eabi/4.7.4/../../../../arm-none-eabi/lib\libc_s.a(lib_a-strtod.o)
 .text          0x00000000        0x0 c:/isis/application/toolchain/bin/../lib/gcc/arm-none-eabi/4.7.4/../../../../arm-none-eabi/lib\libc_s.a(lib_a-strtol.o)
 .data          0x00000000        0x0 c:/isis/application/toolchain/bin/../lib/gcc/arm-none-eabi/4.7.4/../../../../arm-none-eabi/lib\libc_s.a(lib_a-strtol.o)
 .bss           0x00000000        0x0 c:/isis/application/toolchain/bin/../lib/gcc/arm-none-eabi/4.7.4/../../../../arm-none-eabi/lib\libc_s.a(lib_a-strtol.o)
 .text.strtol   0x00000000       0x2c c:/isis/application/toolchain/bin/../lib/gcc/arm-none-eabi/4.7.4/../../../../arm-none-eabi/lib\libc_s.a(lib_a-strtol.o)
 .text          0x00000000        0x0 c:/isis/application/toolchain/bin/../lib/gcc/arm-none-eabi/4.7.4/../../../../arm-none-eabi/lib\libc_s.a(lib_a-svfprintf.o)
 .data          0x00000000        0x0 c:/isis/application/toolchain/bin/../lib/gcc/arm-none-eabi/4.7.4/../../../../arm-none-eabi/lib\libc_s.a(lib_a-svfprintf.o)
 .bss           0x00000000        0x0 c:/isis/application/toolchain/bin/../lib/gcc/arm-none-eabi/4.7.4/../../../../arm-none-eabi/lib\libc_s.a(lib_a-svfprintf.o)
 .text.__ssprint_r
                0x00000000      0x184 c:/isis/application/toolchain/bin/../lib/gcc/arm-none-eabi/4.7.4/../../../../arm-none-eabi/lib\libc_s.a(lib_a-svfprintf.o)
 .text          0x00000000        0x0 c:/isis/application/toolchain/bin/../lib/gcc/arm-none-eabi/4.7.4/../../../../arm-none-eabi/lib\libc_s.a(lib_a-callocr.o)
 .data          0x00000000        0x0 c:/isis/application/toolchain/bin/../lib/gcc/arm-none-eabi/4.7.4/../../../../arm-none-eabi/lib\libc_s.a(lib_a-callocr.o)
 .bss           0x00000000        0x0 c:/isis/application/toolchain/bin/../lib/gcc/arm-none-eabi/4.7.4/../../../../arm-none-eabi/lib\libc_s.a(lib_a-callocr.o)
 .text          0x00000000        0x0 c:/isis/application/toolchain/bin/../lib/gcc/arm-none-eabi/4.7.4/../../../../arm-none-eabi/lib\libc_s.a(lib_a-ctype_.o)
 .data          0x00000000        0x0 c:/isis/application/toolchain/bin/../lib/gcc/arm-none-eabi/4.7.4/../../../../arm-none-eabi/lib\libc_s.a(lib_a-ctype_.o)
 .bss           0x00000000        0x0 c:/isis/application/toolchain/bin/../lib/gcc/arm-none-eabi/4.7.4/../../../../arm-none-eabi/lib\libc_s.a(lib_a-ctype_.o)
 .text          0x00000000        0x0 c:/isis/application/toolchain/bin/../lib/gcc/arm-none-eabi/4.7.4/../../../../arm-none-eabi/lib\libc_s.a(lib_a-freer.o)
 .data          0x00000000        0x0 c:/isis/application/toolchain/bin/../lib/gcc/arm-none-eabi/4.7.4/../../../../arm-none-eabi/lib\libc_s.a(lib_a-freer.o)
 .bss           0x00000000        0x0 c:/isis/application/toolchain/bin/../lib/gcc/arm-none-eabi/4.7.4/../../../../arm-none-eabi/lib\libc_s.a(lib_a-freer.o)
 .text          0x00000000        0x0 c:/isis/application/toolchain/bin/../lib/gcc/arm-none-eabi/4.7.4/../../../../arm-none-eabi/lib\libc_s.a(lib_a-gdtoa-gethex.o)
 .data          0x00000000        0x0 c:/isis/application/toolchain/bin/../lib/gcc/arm-none-eabi/4.7.4/../../../../arm-none-eabi/lib\libc_s.a(lib_a-gdtoa-gethex.o)
 .bss           0x00000000        0x0 c:/isis/application/toolchain/bin/../lib/gcc/arm-none-eabi/4.7.4/../../../../arm-none-eabi/lib\libc_s.a(lib_a-gdtoa-gethex.o)
 .text          0x00000000        0x0 c:/isis/application/toolchain/bin/../lib/gcc/arm-none-eabi/4.7.4/../../../../arm-none-eabi/lib\libc_s.a(lib_a-gdtoa-hexnan.o)
 .data          0x00000000        0x0 c:/isis/application/toolchain/bin/../lib/gcc/arm-none-eabi/4.7.4/../../../../arm-none-eabi/lib\libc_s.a(lib_a-gdtoa-hexnan.o)
 .bss           0x00000000        0x0 c:/isis/application/toolchain/bin/../lib/gcc/arm-none-eabi/4.7.4/../../../../arm-none-eabi/lib\libc_s.a(lib_a-gdtoa-hexnan.o)
 .text          0x00000000        0x0 c:/isis/application/toolchain/bin/../lib/gcc/arm-none-eabi/4.7.4/../../../../arm-none-eabi/lib\libc_s.a(lib_a-impure.o)
 .data          0x00000000        0x0 c:/isis/application/toolchain/bin/../lib/gcc/arm-none-eabi/4.7.4/../../../../arm-none-eabi/lib\libc_s.a(lib_a-impure.o)
 .bss           0x00000000        0x0 c:/isis/application/toolchain/bin/../lib/gcc/arm-none-eabi/4.7.4/../../../../arm-none-eabi/lib\libc_s.a(lib_a-impure.o)
 .text          0x00000000        0x0 c:/isis/application/toolchain/bin/../lib/gcc/arm-none-eabi/4.7.4/../../../../arm-none-eabi/lib\libc_s.a(lib_a-memchr.o)
 .data          0x00000000        0x0 c:/isis/application/toolchain/bin/../lib/gcc/arm-none-eabi/4.7.4/../../../../arm-none-eabi/lib\libc_s.a(lib_a-memchr.o)
 .bss           0x00000000        0x0 c:/isis/application/toolchain/bin/../lib/gcc/arm-none-eabi/4.7.4/../../../../arm-none-eabi/lib\libc_s.a(lib_a-memchr.o)
 .text          0x00000000        0x0 c:/isis/application/toolchain/bin/../lib/gcc/arm-none-eabi/4.7.4/../../../../arm-none-eabi/lib\libc_s.a(lib_a-memmove.o)
 .data          0x00000000        0x0 c:/isis/application/toolchain/bin/../lib/gcc/arm-none-eabi/4.7.4/../../../../arm-none-eabi/lib\libc_s.a(lib_a-memmove.o)
 .bss           0x00000000        0x0 c:/isis/application/toolchain/bin/../lib/gcc/arm-none-eabi/4.7.4/../../../../arm-none-eabi/lib\libc_s.a(lib_a-memmove.o)
 .text.memmove  0x00000000       0x64 c:/isis/application/toolchain/bin/../lib/gcc/arm-none-eabi/4.7.4/../../../../arm-none-eabi/lib\libc_s.a(lib_a-memmove.o)
 .ARM.attributes
                0x00000000       0x30 c:/isis/application/toolchain/bin/../lib/gcc/arm-none-eabi/4.7.4/../../../../arm-none-eabi/lib\libc_s.a(lib_a-memmove.o)
 .debug_frame   0x00000000       0x28 c:/isis/application/toolchain/bin/../lib/gcc/arm-none-eabi/4.7.4/../../../../arm-none-eabi/lib\libc_s.a(lib_a-memmove.o)
 .text          0x00000000        0x0 c:/isis/application/toolchain/bin/../lib/gcc/arm-none-eabi/4.7.4/../../../../arm-none-eabi/lib\libc_s.a(lib_a-memset.o)
 .data          0x00000000        0x0 c:/isis/application/toolchain/bin/../lib/gcc/arm-none-eabi/4.7.4/../../../../arm-none-eabi/lib\libc_s.a(lib_a-memset.o)
 .bss           0x00000000        0x0 c:/isis/application/toolchain/bin/../lib/gcc/arm-none-eabi/4.7.4/../../../../arm-none-eabi/lib\libc_s.a(lib_a-memset.o)
 .text          0x00000000        0x0 c:/isis/application/toolchain/bin/../lib/gcc/arm-none-eabi/4.7.4/../../../../arm-none-eabi/lib\libc_s.a(lib_a-reallocr.o)
 .data          0x00000000        0x0 c:/isis/application/toolchain/bin/../lib/gcc/arm-none-eabi/4.7.4/../../../../arm-none-eabi/lib\libc_s.a(lib_a-reallocr.o)
 .bss           0x00000000        0x0 c:/isis/application/toolchain/bin/../lib/gcc/arm-none-eabi/4.7.4/../../../../arm-none-eabi/lib\libc_s.a(lib_a-reallocr.o)
 .text          0x00000000        0x0 c:/isis/application/toolchain/bin/../lib/gcc/arm-none-eabi/4.7.4/../../../../arm-none-eabi/lib\libc_s.a(lib_a-reent.o)
 .data          0x00000000        0x0 c:/isis/application/toolchain/bin/../lib/gcc/arm-none-eabi/4.7.4/../../../../arm-none-eabi/lib\libc_s.a(lib_a-reent.o)
 .bss           0x00000000        0x0 c:/isis/application/toolchain/bin/../lib/gcc/arm-none-eabi/4.7.4/../../../../arm-none-eabi/lib\libc_s.a(lib_a-reent.o)
 .text.cleanup_glue
                0x00000000       0x2c c:/isis/application/toolchain/bin/../lib/gcc/arm-none-eabi/4.7.4/../../../../arm-none-eabi/lib\libc_s.a(lib_a-reent.o)
 .text._reclaim_reent
                0x00000000      0x13c c:/isis/application/toolchain/bin/../lib/gcc/arm-none-eabi/4.7.4/../../../../arm-none-eabi/lib\libc_s.a(lib_a-reent.o)
 .text._wrapup_reent
                0x00000000       0x5c c:/isis/application/toolchain/bin/../lib/gcc/arm-none-eabi/4.7.4/../../../../arm-none-eabi/lib\libc_s.a(lib_a-reent.o)
 .text          0x00000000        0x0 c:/isis/application/toolchain/bin/../lib/gcc/arm-none-eabi/4.7.4/../../../../arm-none-eabi/lib\libc_s.a(lib_a-strncmp.o)
 .data          0x00000000        0x0 c:/isis/application/toolchain/bin/../lib/gcc/arm-none-eabi/4.7.4/../../../../arm-none-eabi/lib\libc_s.a(lib_a-strncmp.o)
 .bss           0x00000000        0x0 c:/isis/application/toolchain/bin/../lib/gcc/arm-none-eabi/4.7.4/../../../../arm-none-eabi/lib\libc_s.a(lib_a-strncmp.o)
 .text          0x00000000        0x0 c:/isis/application/toolchain/bin/../lib/gcc/arm-none-eabi/4.7.4/../../../../arm-none-eabi/lib\libc_s.a(lib_a-msizer.o)
 .data          0x00000000        0x0 c:/isis/application/toolchain/bin/../lib/gcc/arm-none-eabi/4.7.4/../../../../arm-none-eabi/lib\libc_s.a(lib_a-msizer.o)
 .bss           0x00000000        0x0 c:/isis/application/toolchain/bin/../lib/gcc/arm-none-eabi/4.7.4/../../../../arm-none-eabi/lib\libc_s.a(lib_a-msizer.o)
 .text          0x00000000        0x0 ./src/sub-systemCode/Main/CMD/COMM_CMD.o
 .data          0x00000000        0x0 ./src/sub-systemCode/Main/CMD/COMM_CMD.o
 .bss           0x00000000        0x0 ./src/sub-systemCode/Main/CMD/COMM_CMD.o
 .text          0x00000000        0x0 ./src/sub-systemCode/Main/CMD/EPS_CMD.o
 .data          0x00000000        0x0 ./src/sub-systemCode/Main/CMD/EPS_CMD.o
 .bss           0x00000000        0x0 ./src/sub-systemCode/Main/CMD/EPS_CMD.o
 .text          0x00000000        0x0 ./src/sub-systemCode/Main/CMD/General_CMD.o
 .data          0x00000000        0x0 ./src/sub-systemCode/Main/CMD/General_CMD.o
 .bss           0x00000000        0x0 ./src/sub-systemCode/Main/CMD/General_CMD.o
 .text.cmd_deploy_ants
                0x00000000       0x20 ./src/sub-systemCode/Main/CMD/General_CMD.o
 .text          0x00000000        0x0 ./src/sub-systemCode/Main/CMD/SW_CMD.o
 .data          0x00000000        0x0 ./src/sub-systemCode/Main/CMD/SW_CMD.o
 .bss           0x00000000        0x0 ./src/sub-systemCode/Main/CMD/SW_CMD.o
 .text          0x00000000        0x0 ./src/sub-systemCode/Main/CMD/payload_CMD.o
 .data          0x00000000        0x0 ./src/sub-systemCode/Main/CMD/payload_CMD.o
 .bss           0x00000000        0x0 ./src/sub-systemCode/Main/CMD/payload_CMD.o
 .debug_line    0x00000000        0x0 ./src/sub-systemCode/Main/CMD/payload_CMD.o
 .comment       0x00000000       0x71 ./src/sub-systemCode/Main/CMD/payload_CMD.o
 .ARM.attributes
                0x00000000       0x32 ./src/sub-systemCode/Main/CMD/payload_CMD.o
 .text          0x00000000        0x0 ./src/sub-systemCode/Main/Ants.o
 .data          0x00000000        0x0 ./src/sub-systemCode/Main/Ants.o
 .bss           0x00000000        0x0 ./src/sub-systemCode/Main/Ants.o
 .text.init_Ants
                0x00000000       0x50 ./src/sub-systemCode/Main/Ants.o
 .text.deploye_ants
                0x00000000       0x34 ./src/sub-systemCode/Main/Ants.o
 .text.time_out_before_deploy
                0x00000000      0x16c ./src/sub-systemCode/Main/Ants.o
 .text.Auto_Deploy
                0x00000000       0x90 ./src/sub-systemCode/Main/Ants.o
 .text          0x00000000        0x0 ./src/sub-systemCode/Main/EPS.o
 .bss           0x00000000        0x0 ./src/sub-systemCode/Main/EPS.o
 .text.WriteCurrentTelemetry
                0x00000000      0x104 ./src/sub-systemCode/Main/EPS.o
 .text.convert_raw_voltage
                0x00000000       0xd8 ./src/sub-systemCode/Main/EPS.o
 .text          0x00000000        0x0 ./src/sub-systemCode/Main/HouseKeeping.o
 .data          0x00000000        0x0 ./src/sub-systemCode/Main/HouseKeeping.o
 .bss           0x00000000        0x0 ./src/sub-systemCode/Main/HouseKeeping.o
 .text          0x00000000        0x0 ./src/sub-systemCode/Main/Main_Init.o
 .data          0x00000000        0x0 ./src/sub-systemCode/Main/Main_Init.o
 .bss           0x00000000        0x0 ./src/sub-systemCode/Main/Main_Init.o
 .text.resetSD  0x00000000       0xc4 ./src/sub-systemCode/Main/Main_Init.o
 COMMON         0x00000000        0x4 ./src/sub-systemCode/Main/Main_Init.o
 .text          0x00000000        0x0 ./src/sub-systemCode/Main/commands.o
 .data          0x00000000        0x0 ./src/sub-systemCode/Main/commands.o
 .text.check_number_commands
                0x00000000       0x24 ./src/sub-systemCode/Main/commands.o
 .text.AUC_test
                0x00000000       0x6c ./src/sub-systemCode/Main/commands.o
 .text          0x00000000        0x0 ./src/sub-systemCode/Global/Global.o
 .data          0x00000000        0x0 ./src/sub-systemCode/Global/Global.o
 .bss           0x00000000        0x0 ./src/sub-systemCode/Global/Global.o
 .text.print_array
                0x00000000       0x70 ./src/sub-systemCode/Global/Global.o
 .text.switch_endian
                0x00000000       0xc4 ./src/sub-systemCode/Global/Global.o
 .text.double_little_endian
                0x00000000       0x98 ./src/sub-systemCode/Global/Global.o
 .text.BigEnE_raw_value
                0x00000000       0xb8 ./src/sub-systemCode/Global/Global.o
 .text.fram_byte_fix
                0x00000000      0x16c ./src/sub-systemCode/Global/Global.o
 .text.comapre_string
                0x00000000       0x84 ./src/sub-systemCode/Global/Global.o
 .text.getBitValueByIndex
                0x00000000       0xd0 ./src/sub-systemCode/Global/Global.o
 COMMON         0x00000000        0x4 ./src/sub-systemCode/Global/Global.o
 .text          0x00000000        0x0 ./src/sub-systemCode/Global/GlobalParam.o
 .data          0x00000000        0x0 ./src/sub-systemCode/Global/GlobalParam.o
 .text.get_curBat
                0x00000000       0x80 ./src/sub-systemCode/Global/GlobalParam.o
 .text.get_cur3V3
                0x00000000       0x80 ./src/sub-systemCode/Global/GlobalParam.o
 .text.get_cur5V
                0x00000000       0x80 ./src/sub-systemCode/Global/GlobalParam.o
 .text.get_tempComm_LO
                0x00000000       0xf4 ./src/sub-systemCode/Global/GlobalParam.o
 .text.get_tempComm_PA
                0x00000000       0xf4 ./src/sub-systemCode/Global/GlobalParam.o
 .text.get_tempEPS
                0x00000000       0xd4 ./src/sub-systemCode/Global/GlobalParam.o
 .text.get_tempBatt
                0x00000000       0xd4 ./src/sub-systemCode/Global/GlobalParam.o
 .text.get_RxDoppler
                0x00000000       0x80 ./src/sub-systemCode/Global/GlobalParam.o
 .text.get_RxRSSI
                0x00000000       0x80 ./src/sub-systemCode/Global/GlobalParam.o
 .text.get_TxRefl
                0x00000000       0x80 ./src/sub-systemCode/Global/GlobalParam.o
 .text.get_TxForw
                0x00000000       0x80 ./src/sub-systemCode/Global/GlobalParam.o
 .text.get_Attitude
                0x00000000      0x114 ./src/sub-systemCode/Global/GlobalParam.o
 .text.set_Attitude
                0x00000000       0xd4 ./src/sub-systemCode/Global/GlobalParam.o
 .text.get_numOfPics
                0x00000000       0x80 ./src/sub-systemCode/Global/GlobalParam.o
 .text.set_numOfPics
                0x00000000       0x78 ./src/sub-systemCode/Global/GlobalParam.o
 .text.get_numOfAPRS
                0x00000000       0x80 ./src/sub-systemCode/Global/GlobalParam.o
 .text.get_numOfDelayedCommand
                0x00000000       0x80 ./src/sub-systemCode/Global/GlobalParam.o
 .text.get_numOfResets
                0x00000000       0x90 ./src/sub-systemCode/Global/GlobalParam.o
 .text.set_lastReset
                0x00000000       0x98 ./src/sub-systemCode/Global/GlobalParam.o
 .text.get_lastReset
                0x00000000       0x90 ./src/sub-systemCode/Global/GlobalParam.o
 .text          0x00000000        0x0 ./src/sub-systemCode/Global/OnlineTM.o
 .data          0x00000000        0x0 ./src/sub-systemCode/Global/OnlineTM.o
 .bss           0x00000000        0x0 ./src/sub-systemCode/Global/OnlineTM.o
 .text          0x00000000        0x0 ./src/sub-systemCode/Global/TLM_management.o
 .data          0x00000000        0x0 ./src/sub-systemCode/Global/TLM_management.o
 .bss           0x00000000        0x0 ./src/sub-systemCode/Global/TLM_management.o
 .text.fileWrite
                0x00000000       0x6c ./src/sub-systemCode/Global/TLM_management.o
 .text.fileRead
                0x00000000      0x190 ./src/sub-systemCode/Global/TLM_management.o
 .text.print_file
                0x00000000      0x1d8 ./src/sub-systemCode/Global/TLM_management.o
 .text.DeInitializeFS
                0x00000000       0xe0 ./src/sub-systemCode/Global/TLM_management.o
 .text          0x00000000        0x0 ./src/sub-systemCode/Global/freertosExtended.o
 .data          0x00000000        0x0 ./src/sub-systemCode/Global/freertosExtended.o
 .bss           0x00000000        0x0 ./src/sub-systemCode/Global/freertosExtended.o
 .text          0x00000000        0x0 ./src/sub-systemCode/COMM/APRS.o
 .data          0x00000000        0x0 ./src/sub-systemCode/COMM/APRS.o
 .text.check_APRS
                0x00000000      0x1a4 ./src/sub-systemCode/COMM/APRS.o
 .text          0x00000000        0x0 ./src/sub-systemCode/COMM/DelayedCommand_list.o
 .data          0x00000000        0x0 ./src/sub-systemCode/COMM/DelayedCommand_list.o
 .text          0x00000000        0x0 ./src/sub-systemCode/COMM/GSC.o
 .data          0x00000000        0x0 ./src/sub-systemCode/COMM/GSC.o
 .bss           0x00000000        0x0 ./src/sub-systemCode/COMM/GSC.o
 .text.decode_TMpacket
                0x00000000       0xfc ./src/sub-systemCode/COMM/GSC.o
 .rodata        0x00000000       0x40 ./src/sub-systemCode/COMM/GSC.o
 .text.print_TM_spl_packet
                0x00000000       0xdc ./src/sub-systemCode/COMM/GSC.o
 .text          0x00000000        0x0 ./src/sub-systemCode/COMM/TRXVU.o
 .data          0x00000000        0x0 ./src/sub-systemCode/COMM/TRXVU.o
 .text.check_Tx_temp
                0x00000000       0xcc ./src/sub-systemCode/COMM/TRXVU.o
 .text          0x00000000        0x0 ./src/sub-systemCode/ADCS/ADCS.o
 .data          0x00000000        0x0 ./src/sub-systemCode/ADCS/ADCS.o
 .bss           0x00000000        0x0 ./src/sub-systemCode/ADCS/ADCS.o
 .text          0x00000000        0x0 ./src/sub-systemCode/ADCS/Stage_Table.o
 .data          0x00000000        0x0 ./src/sub-systemCode/ADCS/Stage_Table.o
 .bss           0x00000000        0x0 ./src/sub-systemCode/ADCS/Stage_Table.o
 .text.GetDelay
                0x00000000       0x48 ./src/sub-systemCode/ADCS/Stage_Table.o
 .rodata        0x00000000        0x4 ./src/sub-systemCode/ADCS/Stage_Table.o
 .text.translateCommandDelay
                0x00000000       0x80 ./src/sub-systemCode/ADCS/Stage_Table.o
 .text.translateCommandControlMode
                0x00000000       0x3c ./src/sub-systemCode/ADCS/Stage_Table.o
 .text.translateCommandPower
                0x00000000       0x3c ./src/sub-systemCode/ADCS/Stage_Table.o
 .text.translateCommandEstimationMode
                0x00000000       0x3c ./src/sub-systemCode/ADCS/Stage_Table.o
 .text.translateCommandTelemtry
                0x00000000       0x64 ./src/sub-systemCode/ADCS/Stage_Table.o
 .text.checkEstimatedAttitudeAngles
                0x00000000       0x30 ./src/sub-systemCode/ADCS/Stage_Table.o
 .text.checkEstimatedAngularRates
                0x00000000       0x34 ./src/sub-systemCode/ADCS/Stage_Table.o
 .text.checkSatellitePositionECI
                0x00000000       0x34 ./src/sub-systemCode/ADCS/Stage_Table.o
 .text.checkSatelliteVelocityECI
                0x00000000       0x34 ./src/sub-systemCode/ADCS/Stage_Table.o
 .text.checkSatellitePositionLLH
                0x00000000       0x34 ./src/sub-systemCode/ADCS/Stage_Table.o
 .text.checkMagneticFieldVector
                0x00000000       0x34 ./src/sub-systemCode/ADCS/Stage_Table.o
 .text.checkCoarseSunVector
                0x00000000       0x34 ./src/sub-systemCode/ADCS/Stage_Table.o
 .text.checkRateSensorRates
                0x00000000       0x30 ./src/sub-systemCode/ADCS/Stage_Table.o
 .text.checkWheelSpeedcheck
                0x00000000       0x30 ./src/sub-systemCode/ADCS/Stage_Table.o
 .text.checkMagnetorquercmd
                0x00000000       0x34 ./src/sub-systemCode/ADCS/Stage_Table.o
 .text.checkWheelSpeedcmd
                0x00000000       0x34 ./src/sub-systemCode/ADCS/Stage_Table.o
 .text.checkIGRFModelledMagneticFieldVector
                0x00000000       0x34 ./src/sub-systemCode/ADCS/Stage_Table.o
 .text.checkEstimatedGyroBiascheck
                0x00000000       0x34 ./src/sub-systemCode/ADCS/Stage_Table.o
 .text.checkEstimationInnovationVector
                0x00000000       0x34 ./src/sub-systemCode/ADCS/Stage_Table.o
 .text.checkQuaternionErrorVector
                0x00000000       0x34 ./src/sub-systemCode/ADCS/Stage_Table.o
 .text.checkQuaternionCovariance
                0x00000000       0x30 ./src/sub-systemCode/ADCS/Stage_Table.o
 .text.checkAngularRateCovariance
                0x00000000       0x30 ./src/sub-systemCode/ADCS/Stage_Table.o
 .text.checkRawCSS
                0x00000000       0x34 ./src/sub-systemCode/ADCS/Stage_Table.o
 .text.checkRawMagnetometer
                0x00000000       0x34 ./src/sub-systemCode/ADCS/Stage_Table.o
 .text.checkEstimatedQuaternion
                0x00000000       0x34 ./src/sub-systemCode/ADCS/Stage_Table.o
 .text.checkECEFPosition
                0x00000000       0x34 ./src/sub-systemCode/ADCS/Stage_Table.o
 .text.checkSunModelle
                0x00000000       0x34 ./src/sub-systemCode/ADCS/Stage_Table.o
 .text          0x00000000        0x0 ./src/main.o
 .data          0x00000000        0x0 ./src/main.o
 .bss           0x00000000        0x0 ./src/main.o
 .text          0x00000000        0x0 C:/HOOPOE3/satellite-subsystems/demo/..//satellite-subsystems/lib\libSatelliteSubsystemsD.a(GomEPS.o)
 .data          0x00000000        0x0 C:/HOOPOE3/satellite-subsystems/demo/..//satellite-subsystems/lib\libSatelliteSubsystemsD.a(GomEPS.o)
 .text.GomEpsPing
                0x00000000       0xf8 C:/HOOPOE3/satellite-subsystems/demo/..//satellite-subsystems/lib\libSatelliteSubsystemsD.a(GomEPS.o)
 .text.GomEpsSetSingleOutput
                0x00000000       0xe4 C:/HOOPOE3/satellite-subsystems/demo/..//satellite-subsystems/lib\libSatelliteSubsystemsD.a(GomEPS.o)
 .text.GomEpsSetPhotovoltaicInputs
                0x00000000      0x11c C:/HOOPOE3/satellite-subsystems/demo/..//satellite-subsystems/lib\libSatelliteSubsystemsD.a(GomEPS.o)
 .text.GomEpsSetPptMode
                0x00000000       0xc0 C:/HOOPOE3/satellite-subsystems/demo/..//satellite-subsystems/lib\libSatelliteSubsystemsD.a(GomEPS.o)
 .text.GomEpsSetHeaterAutoMode
                0x00000000       0xe8 C:/HOOPOE3/satellite-subsystems/demo/..//satellite-subsystems/lib\libSatelliteSubsystemsD.a(GomEPS.o)
 .text.GomEpsResetCounters
                0x00000000       0xc4 C:/HOOPOE3/satellite-subsystems/demo/..//satellite-subsystems/lib\libSatelliteSubsystemsD.a(GomEPS.o)
 .text.GomEpsResetWDT
                0x00000000       0xc4 C:/HOOPOE3/satellite-subsystems/demo/..//satellite-subsystems/lib\libSatelliteSubsystemsD.a(GomEPS.o)
 .text.GomEpsConfigCMD
                0x00000000       0xb8 C:/HOOPOE3/satellite-subsystems/demo/..//satellite-subsystems/lib\libSatelliteSubsystemsD.a(GomEPS.o)
 .text.GomEpsConfig2CMD
                0x00000000       0xb8 C:/HOOPOE3/satellite-subsystems/demo/..//satellite-subsystems/lib\libSatelliteSubsystemsD.a(GomEPS.o)
 .text.GomEpsConfig2Set
                0x00000000      0x184 C:/HOOPOE3/satellite-subsystems/demo/..//satellite-subsystems/lib\libSatelliteSubsystemsD.a(GomEPS.o)
 .text          0x00000000        0x0 C:/HOOPOE3/satellite-subsystems/demo/..//satellite-subsystems/lib\libSatelliteSubsystemsD.a(IsisAntS.o)
 .data          0x00000000        0x0 C:/HOOPOE3/satellite-subsystems/demo/..//satellite-subsystems/lib\libSatelliteSubsystemsD.a(IsisAntS.o)
 .text.IsisAntS_initialize
                0x00000000      0x26c C:/HOOPOE3/satellite-subsystems/demo/..//satellite-subsystems/lib\libSatelliteSubsystemsD.a(IsisAntS.o)
 .text.IsisAntS_attemptDeployment
                0x00000000      0x168 C:/HOOPOE3/satellite-subsystems/demo/..//satellite-subsystems/lib\libSatelliteSubsystemsD.a(IsisAntS.o)
 .text.IsisAntS_getUptime
                0x00000000      0x120 C:/HOOPOE3/satellite-subsystems/demo/..//satellite-subsystems/lib\libSatelliteSubsystemsD.a(IsisAntS.o)
 .text.IsisAntS_getActivationCount
                0x00000000      0x138 C:/HOOPOE3/satellite-subsystems/demo/..//satellite-subsystems/lib\libSatelliteSubsystemsD.a(IsisAntS.o)
 .text.IsisAntS_getActivationTime
                0x00000000      0x138 C:/HOOPOE3/satellite-subsystems/demo/..//satellite-subsystems/lib\libSatelliteSubsystemsD.a(IsisAntS.o)
 .text.IsisAntS_cancelDeployment
                0x00000000      0x104 C:/HOOPOE3/satellite-subsystems/demo/..//satellite-subsystems/lib\libSatelliteSubsystemsD.a(IsisAntS.o)
 .text.IsisAntS_autoDeployment
                0x00000000      0x114 C:/HOOPOE3/satellite-subsystems/demo/..//satellite-subsystems/lib\libSatelliteSubsystemsD.a(IsisAntS.o)
 .text          0x00000000        0x0 C:/HOOPOE3/satellite-subsystems/demo/..//satellite-subsystems/lib\libSatelliteSubsystemsD.a(IsisSolarPanelv2.o)
 .text.IsisSolarPanelv2_getState
                0x00000000       0x24 C:/HOOPOE3/satellite-subsystems/demo/..//satellite-subsystems/lib\libSatelliteSubsystemsD.a(IsisSolarPanelv2.o)
 .text          0x00000000        0x0 C:/HOOPOE3/satellite-subsystems/demo/..//satellite-subsystems/lib\libSatelliteSubsystemsD.a(IsisTRXVU.o)
 .data          0x00000000        0x0 C:/HOOPOE3/satellite-subsystems/demo/..//satellite-subsystems/lib\libSatelliteSubsystemsD.a(IsisTRXVU.o)
 .text.IsisTrxvu_tcSendAX25OvrClSign
                0x00000000      0x10c C:/HOOPOE3/satellite-subsystems/demo/..//satellite-subsystems/lib\libSatelliteSubsystemsD.a(IsisTRXVU.o)
 .text.IsisTrxvu_tcSetAx25BeaconDefClSign
                0x00000000       0xe4 C:/HOOPOE3/satellite-subsystems/demo/..//satellite-subsystems/lib\libSatelliteSubsystemsD.a(IsisTRXVU.o)
 .text.IsisTrxvu_tcSetAx25BeaconOvrClSign
                0x00000000      0x10c C:/HOOPOE3/satellite-subsystems/demo/..//satellite-subsystems/lib\libSatelliteSubsystemsD.a(IsisTRXVU.o)
 .text.IsisTrxvu_tcClearBeacon
                0x00000000       0x80 C:/HOOPOE3/satellite-subsystems/demo/..//satellite-subsystems/lib\libSatelliteSubsystemsD.a(IsisTRXVU.o)
 .text.IsisTrxvu_tcSetDefToClSign
                0x00000000       0x9c C:/HOOPOE3/satellite-subsystems/demo/..//satellite-subsystems/lib\libSatelliteSubsystemsD.a(IsisTRXVU.o)
 .text.IsisTrxvu_tcSetDefFromClSign
                0x00000000       0x9c C:/HOOPOE3/satellite-subsystems/demo/..//satellite-subsystems/lib\libSatelliteSubsystemsD.a(IsisTRXVU.o)
 .text.IsisTrxvu_tcGetUptime
                0x00000000       0xa0 C:/HOOPOE3/satellite-subsystems/demo/..//satellite-subsystems/lib\libSatelliteSubsystemsD.a(IsisTRXVU.o)
 .text.IsisTrxvu_tcGetState
                0x00000000       0xd0 C:/HOOPOE3/satellite-subsystems/demo/..//satellite-subsystems/lib\libSatelliteSubsystemsD.a(IsisTRXVU.o)
 .text.IsisTrxvu_tcGetLastTxTelemetry
                0x00000000       0xe4 C:/HOOPOE3/satellite-subsystems/demo/..//satellite-subsystems/lib\libSatelliteSubsystemsD.a(IsisTRXVU.o)
 .text.IsisTrxvu_tcGetLastTxTelemetry_revC
                0x00000000       0xe4 C:/HOOPOE3/satellite-subsystems/demo/..//satellite-subsystems/lib\libSatelliteSubsystemsD.a(IsisTRXVU.o)
 .text.IsisTrxvu_tcEstimateTransmissionTime
                0x00000000      0x14c C:/HOOPOE3/satellite-subsystems/demo/..//satellite-subsystems/lib\libSatelliteSubsystemsD.a(IsisTRXVU.o)
 .text.IsisTrxvu_rcGetUptime
                0x00000000       0xa0 C:/HOOPOE3/satellite-subsystems/demo/..//satellite-subsystems/lib\libSatelliteSubsystemsD.a(IsisTRXVU.o)
 .text          0x00000000        0x0 C:/HOOPOE3/satellite-subsystems/demo/..//satellite-subsystems/lib\libSatelliteSubsystemsD.a(cspaceADCS.o)
 .data          0x00000000        0x0 C:/HOOPOE3/satellite-subsystems/demo/..//satellite-subsystems/lib\libSatelliteSubsystemsD.a(cspaceADCS.o)
 .text.cspaceADCS_setCurrentTime
                0x00000000       0xd0 C:/HOOPOE3/satellite-subsystems/demo/..//satellite-subsystems/lib\libSatelliteSubsystemsD.a(cspaceADCS.o)
 .text.cspaceADCS_cacheStateADCS
                0x00000000       0xd0 C:/HOOPOE3/satellite-subsystems/demo/..//satellite-subsystems/lib\libSatelliteSubsystemsD.a(cspaceADCS.o)
 .text.cspaceADCS_deployMagBoomADCS
                0x00000000       0xbc C:/HOOPOE3/satellite-subsystems/demo/..//satellite-subsystems/lib\libSatelliteSubsystemsD.a(cspaceADCS.o)
 .text.cspaceADCS_clearErrors
                0x00000000       0xb8 C:/HOOPOE3/satellite-subsystems/demo/..//satellite-subsystems/lib\libSatelliteSubsystemsD.a(cspaceADCS.o)
 .text.cspaceADCS_setMagOutput
                0x00000000       0xd0 C:/HOOPOE3/satellite-subsystems/demo/..//satellite-subsystems/lib\libSatelliteSubsystemsD.a(cspaceADCS.o)
 .text.cspaceADCS_setWheelSpeed
                0x00000000       0xd0 C:/HOOPOE3/satellite-subsystems/demo/..//satellite-subsystems/lib\libSatelliteSubsystemsD.a(cspaceADCS.o)
 .text.cspaceADCS_setCam1SensorConfig
                0x00000000       0xd0 C:/HOOPOE3/satellite-subsystems/demo/..//satellite-subsystems/lib\libSatelliteSubsystemsD.a(cspaceADCS.o)
 .text.cspaceADCS_setCam2SensorConfig
                0x00000000       0xd0 C:/HOOPOE3/satellite-subsystems/demo/..//satellite-subsystems/lib\libSatelliteSubsystemsD.a(cspaceADCS.o)
 .text.cspaceADCS_setMagMountConfig
                0x00000000       0xd0 C:/HOOPOE3/satellite-subsystems/demo/..//satellite-subsystems/lib\libSatelliteSubsystemsD.a(cspaceADCS.o)
 .text.cspaceADCS_setMagOffsetScalingConfig
                0x00000000       0xd0 C:/HOOPOE3/satellite-subsystems/demo/..//satellite-subsystems/lib\libSatelliteSubsystemsD.a(cspaceADCS.o)
 .text.cspaceADCS_setMagSensConfig
                0x00000000       0xd0 C:/HOOPOE3/satellite-subsystems/demo/..//satellite-subsystems/lib\libSatelliteSubsystemsD.a(cspaceADCS.o)
 .text.cspaceADCS_setRateSensorConfig
                0x00000000       0xd0 C:/HOOPOE3/satellite-subsystems/demo/..//satellite-subsystems/lib\libSatelliteSubsystemsD.a(cspaceADCS.o)
 .text.cspaceADCS_setStarTrackerConfig
                0x00000000       0xd0 C:/HOOPOE3/satellite-subsystems/demo/..//satellite-subsystems/lib\libSatelliteSubsystemsD.a(cspaceADCS.o)
 .text.cspaceADCS_setEstimationParam1
                0x00000000       0xd0 C:/HOOPOE3/satellite-subsystems/demo/..//satellite-subsystems/lib\libSatelliteSubsystemsD.a(cspaceADCS.o)
 .text.cspaceADCS_setEstimationParam2
                0x00000000       0xd0 C:/HOOPOE3/satellite-subsystems/demo/..//satellite-subsystems/lib\libSatelliteSubsystemsD.a(cspaceADCS.o)
 .text.cspaceADCS_setSGP4OrbitParameters
                0x00000000       0xcc C:/HOOPOE3/satellite-subsystems/demo/..//satellite-subsystems/lib\libSatelliteSubsystemsD.a(cspaceADCS.o)
 .text.cspaceADCS_setMagnetometerMode
                0x00000000       0xb8 C:/HOOPOE3/satellite-subsystems/demo/..//satellite-subsystems/lib\libSatelliteSubsystemsD.a(cspaceADCS.o)
 .text.cspaceADCS_saveConfig
                0x00000000       0xac C:/HOOPOE3/satellite-subsystems/demo/..//satellite-subsystems/lib\libSatelliteSubsystemsD.a(cspaceADCS.o)
 .text.cspaceADCS_saveOrbitParam
                0x00000000       0xac C:/HOOPOE3/satellite-subsystems/demo/..//satellite-subsystems/lib\libSatelliteSubsystemsD.a(cspaceADCS.o)
 .text.cspaceADCS_saveImage
                0x00000000       0xd8 C:/HOOPOE3/satellite-subsystems/demo/..//satellite-subsystems/lib\libSatelliteSubsystemsD.a(cspaceADCS.o)
 .text.cspaceADCS_BLSetBootIndex
                0x00000000      0x124 C:/HOOPOE3/satellite-subsystems/demo/..//satellite-subsystems/lib\libSatelliteSubsystemsD.a(cspaceADCS.o)
 .text.cspaceADCS_BLRunSelectedProgram
                0x00000000      0x114 C:/HOOPOE3/satellite-subsystems/demo/..//satellite-subsystems/lib\libSatelliteSubsystemsD.a(cspaceADCS.o)
 .text.cspaceADCS_getGeneralInfo
                0x00000000       0xc4 C:/HOOPOE3/satellite-subsystems/demo/..//satellite-subsystems/lib\libSatelliteSubsystemsD.a(cspaceADCS.o)
 .text.cspaceADCS_getBootProgramInfo
                0x00000000       0xc4 C:/HOOPOE3/satellite-subsystems/demo/..//satellite-subsystems/lib\libSatelliteSubsystemsD.a(cspaceADCS.o)
 .text.cspaceADCS_getSRAMLatchupCounters
                0x00000000       0xc4 C:/HOOPOE3/satellite-subsystems/demo/..//satellite-subsystems/lib\libSatelliteSubsystemsD.a(cspaceADCS.o)
 .text.cspaceADCS_getEDACCounters
                0x00000000       0xc4 C:/HOOPOE3/satellite-subsystems/demo/..//satellite-subsystems/lib\libSatelliteSubsystemsD.a(cspaceADCS.o)
 .text.cspaceADCS_getCurrentTime
                0x00000000       0xc4 C:/HOOPOE3/satellite-subsystems/demo/..//satellite-subsystems/lib\libSatelliteSubsystemsD.a(cspaceADCS.o)
 .text.cspaceADCS_getCommStatus
                0x00000000       0xc4 C:/HOOPOE3/satellite-subsystems/demo/..//satellite-subsystems/lib\libSatelliteSubsystemsD.a(cspaceADCS.o)
 .text.cspaceADCS_getMagneticFieldVec
                0x00000000       0xc4 C:/HOOPOE3/satellite-subsystems/demo/..//satellite-subsystems/lib\libSatelliteSubsystemsD.a(cspaceADCS.o)
 .text.cspaceADCS_getCoarseSunVec
                0x00000000       0xc4 C:/HOOPOE3/satellite-subsystems/demo/..//satellite-subsystems/lib\libSatelliteSubsystemsD.a(cspaceADCS.o)
 .text.cspaceADCS_getFineSunVec
                0x00000000       0xc4 C:/HOOPOE3/satellite-subsystems/demo/..//satellite-subsystems/lib\libSatelliteSubsystemsD.a(cspaceADCS.o)
 .text.cspaceADCS_getNadirVector
                0x00000000       0xc4 C:/HOOPOE3/satellite-subsystems/demo/..//satellite-subsystems/lib\libSatelliteSubsystemsD.a(cspaceADCS.o)
 .text.cspaceADCS_getSensorRates
                0x00000000       0xc4 C:/HOOPOE3/satellite-subsystems/demo/..//satellite-subsystems/lib\libSatelliteSubsystemsD.a(cspaceADCS.o)
 .text.cspaceADCS_getWheelSpeed
                0x00000000       0xc4 C:/HOOPOE3/satellite-subsystems/demo/..//satellite-subsystems/lib\libSatelliteSubsystemsD.a(cspaceADCS.o)
 .text.cspaceADCS_getMagnetorquerCmd
                0x00000000       0xc4 C:/HOOPOE3/satellite-subsystems/demo/..//satellite-subsystems/lib\libSatelliteSubsystemsD.a(cspaceADCS.o)
 .text.cspaceADCS_getWheelSpeedCmd
                0x00000000       0xc4 C:/HOOPOE3/satellite-subsystems/demo/..//satellite-subsystems/lib\libSatelliteSubsystemsD.a(cspaceADCS.o)
 .text.cspaceADCS_getRawCam2Sensor
                0x00000000       0xc4 C:/HOOPOE3/satellite-subsystems/demo/..//satellite-subsystems/lib\libSatelliteSubsystemsD.a(cspaceADCS.o)
 .text.cspaceADCS_getRawCam1Sensor
                0x00000000       0xc4 C:/HOOPOE3/satellite-subsystems/demo/..//satellite-subsystems/lib\libSatelliteSubsystemsD.a(cspaceADCS.o)
 .text.cspaceADCS_getRawCss1_6Measurements
                0x00000000       0xc4 C:/HOOPOE3/satellite-subsystems/demo/..//satellite-subsystems/lib\libSatelliteSubsystemsD.a(cspaceADCS.o)
 .text.cspaceADCS_getRawCss7_10Measurements
                0x00000000       0xc4 C:/HOOPOE3/satellite-subsystems/demo/..//satellite-subsystems/lib\libSatelliteSubsystemsD.a(cspaceADCS.o)
 .text.cspaceADCS_getRawMagnetometerMeas
                0x00000000       0xc4 C:/HOOPOE3/satellite-subsystems/demo/..//satellite-subsystems/lib\libSatelliteSubsystemsD.a(cspaceADCS.o)
 .text.cspaceADCS_getCSenseCurrentMeasurements
                0x00000000       0xc4 C:/HOOPOE3/satellite-subsystems/demo/..//satellite-subsystems/lib\libSatelliteSubsystemsD.a(cspaceADCS.o)
 .text.cspaceADCS_getCControlCurrentMeasurements
                0x00000000       0xc4 C:/HOOPOE3/satellite-subsystems/demo/..//satellite-subsystems/lib\libSatelliteSubsystemsD.a(cspaceADCS.o)
 .text.cspaceADCS_getWheelCurrentsTlm
                0x00000000       0xc4 C:/HOOPOE3/satellite-subsystems/demo/..//satellite-subsystems/lib\libSatelliteSubsystemsD.a(cspaceADCS.o)
 .text.cspaceADCS_getADCSTemperatureTlm
                0x00000000       0xc4 C:/HOOPOE3/satellite-subsystems/demo/..//satellite-subsystems/lib\libSatelliteSubsystemsD.a(cspaceADCS.o)
 .text.cspaceADCS_getRateSensorTempTlm
                0x00000000       0xc4 C:/HOOPOE3/satellite-subsystems/demo/..//satellite-subsystems/lib\libSatelliteSubsystemsD.a(cspaceADCS.o)
 .text.cspaceADCS_getRawGpsStatus
                0x00000000       0xc4 C:/HOOPOE3/satellite-subsystems/demo/..//satellite-subsystems/lib\libSatelliteSubsystemsD.a(cspaceADCS.o)
 .text.cspaceADCS_getRawGpsTime
                0x00000000       0xc4 C:/HOOPOE3/satellite-subsystems/demo/..//satellite-subsystems/lib\libSatelliteSubsystemsD.a(cspaceADCS.o)
 .text.cspaceADCS_getRawGpsX
                0x00000000       0xc4 C:/HOOPOE3/satellite-subsystems/demo/..//satellite-subsystems/lib\libSatelliteSubsystemsD.a(cspaceADCS.o)
 .text.cspaceADCS_getRawGpsY
                0x00000000       0xc4 C:/HOOPOE3/satellite-subsystems/demo/..//satellite-subsystems/lib\libSatelliteSubsystemsD.a(cspaceADCS.o)
 .text.cspaceADCS_getRawGpsZ
                0x00000000       0xc4 C:/HOOPOE3/satellite-subsystems/demo/..//satellite-subsystems/lib\libSatelliteSubsystemsD.a(cspaceADCS.o)
 .text.cspaceADCS_getStateTlm
                0x00000000       0xc4 C:/HOOPOE3/satellite-subsystems/demo/..//satellite-subsystems/lib\libSatelliteSubsystemsD.a(cspaceADCS.o)
 .text.cspaceADCS_getADCSMeasurements
                0x00000000       0xc4 C:/HOOPOE3/satellite-subsystems/demo/..//satellite-subsystems/lib\libSatelliteSubsystemsD.a(cspaceADCS.o)
 .text.cspaceADCS_getActuatorsCmds
                0x00000000       0xc4 C:/HOOPOE3/satellite-subsystems/demo/..//satellite-subsystems/lib\libSatelliteSubsystemsD.a(cspaceADCS.o)
 .text.cspaceADCS_getEstimationMetadata
                0x00000000       0xc4 C:/HOOPOE3/satellite-subsystems/demo/..//satellite-subsystems/lib\libSatelliteSubsystemsD.a(cspaceADCS.o)
 .text.cspaceADCS_getStartrackerTLM
                0x00000000       0xc4 C:/HOOPOE3/satellite-subsystems/demo/..//satellite-subsystems/lib\libSatelliteSubsystemsD.a(cspaceADCS.o)
 .text.cspaceADCS_getRawSensorMeasurements
                0x00000000       0xc4 C:/HOOPOE3/satellite-subsystems/demo/..//satellite-subsystems/lib\libSatelliteSubsystemsD.a(cspaceADCS.o)
 .text.cspaceADCS_getADCSExcTimes
                0x00000000       0xc4 C:/HOOPOE3/satellite-subsystems/demo/..//satellite-subsystems/lib\libSatelliteSubsystemsD.a(cspaceADCS.o)
 .text.cspaceADCS_getMiscCurrentMeas
                0x00000000       0xc4 C:/HOOPOE3/satellite-subsystems/demo/..//satellite-subsystems/lib\libSatelliteSubsystemsD.a(cspaceADCS.o)
 .text.cspaceADCS_getCommandedAttitudeAngles
                0x00000000       0xc4 C:/HOOPOE3/satellite-subsystems/demo/..//satellite-subsystems/lib\libSatelliteSubsystemsD.a(cspaceADCS.o)
 .text.cspaceADCS_getADCSRawGPSMeas
                0x00000000       0xc4 C:/HOOPOE3/satellite-subsystems/demo/..//satellite-subsystems/lib\libSatelliteSubsystemsD.a(cspaceADCS.o)
 .text.cspaceADCS_getADCRawRedMag
                0x00000000       0xc4 C:/HOOPOE3/satellite-subsystems/demo/..//satellite-subsystems/lib\libSatelliteSubsystemsD.a(cspaceADCS.o)
 .text.cspaceADCS_getACPExecutionState
                0x00000000       0xc4 C:/HOOPOE3/satellite-subsystems/demo/..//satellite-subsystems/lib\libSatelliteSubsystemsD.a(cspaceADCS.o)
 .text.cspaceADCS_getADCSConfiguration
                0x00000000       0xc4 C:/HOOPOE3/satellite-subsystems/demo/..//satellite-subsystems/lib\libSatelliteSubsystemsD.a(cspaceADCS.o)
 .text.cspaceADCS_getSGP4OrbitParameters
                0x00000000       0xc4 C:/HOOPOE3/satellite-subsystems/demo/..//satellite-subsystems/lib\libSatelliteSubsystemsD.a(cspaceADCS.o)
 .text          0x00000000        0x0 C:/HOOPOE3/satellite-subsystems/demo/..//satellite-subsystems/lib\libSatelliteSubsystemsD.a(gecko_driver.o)
 .bss           0x00000000        0x0 C:/HOOPOE3/satellite-subsystems/demo/..//satellite-subsystems/lib\libSatelliteSubsystemsD.a(gecko_driver.o)
 .text.GECKO_Init
                0x00000000       0x40 C:/HOOPOE3/satellite-subsystems/demo/..//satellite-subsystems/lib\libSatelliteSubsystemsD.a(gecko_driver.o)
 .text.GECKO_SetReg
                0x00000000      0x138 C:/HOOPOE3/satellite-subsystems/demo/..//satellite-subsystems/lib\libSatelliteSubsystemsD.a(gecko_driver.o)
 .text.GetParamUINT8
                0x00000000       0x8c C:/HOOPOE3/satellite-subsystems/demo/..//satellite-subsystems/lib\libSatelliteSubsystemsD.a(gecko_driver.o)
 .text.GECKO_GetImgData
                0x00000000       0x5c C:/HOOPOE3/satellite-subsystems/demo/..//satellite-subsystems/lib\libSatelliteSubsystemsD.a(gecko_driver.o)
 .text.GECKO_GetVersionSwBuild
                0x00000000       0x60 C:/HOOPOE3/satellite-subsystems/demo/..//satellite-subsystems/lib\libSatelliteSubsystemsD.a(gecko_driver.o)
 .text.GECKO_GetVersionSwMinor
                0x00000000       0x64 C:/HOOPOE3/satellite-subsystems/demo/..//satellite-subsystems/lib\libSatelliteSubsystemsD.a(gecko_driver.o)
 .text.GECKO_GetVersionSwMajor
                0x00000000       0x64 C:/HOOPOE3/satellite-subsystems/demo/..//satellite-subsystems/lib\libSatelliteSubsystemsD.a(gecko_driver.o)
 .text.GECKO_GetVersionHW
                0x00000000       0x64 C:/HOOPOE3/satellite-subsystems/demo/..//satellite-subsystems/lib\libSatelliteSubsystemsD.a(gecko_driver.o)
 .text.GECKO_StartReadout
                0x00000000       0xb8 C:/HOOPOE3/satellite-subsystems/demo/..//satellite-subsystems/lib\libSatelliteSubsystemsD.a(gecko_driver.o)
 .text.GECKO_StartSample
                0x00000000       0xb8 C:/HOOPOE3/satellite-subsystems/demo/..//satellite-subsystems/lib\libSatelliteSubsystemsD.a(gecko_driver.o)
 .text.GECKO_StartErase
                0x00000000       0xb8 C:/HOOPOE3/satellite-subsystems/demo/..//satellite-subsystems/lib\libSatelliteSubsystemsD.a(gecko_driver.o)
 .text.GECKO_EnableTestPattern
                0x00000000       0xb8 C:/HOOPOE3/satellite-subsystems/demo/..//satellite-subsystems/lib\libSatelliteSubsystemsD.a(gecko_driver.o)
 .text.GECKO_StopReadout
                0x00000000       0xb4 C:/HOOPOE3/satellite-subsystems/demo/..//satellite-subsystems/lib\libSatelliteSubsystemsD.a(gecko_driver.o)
 .text.GECKO_StopSample
                0x00000000       0xb4 C:/HOOPOE3/satellite-subsystems/demo/..//satellite-subsystems/lib\libSatelliteSubsystemsD.a(gecko_driver.o)
 .text.GECKO_StopErase
                0x00000000       0xb4 C:/HOOPOE3/satellite-subsystems/demo/..//satellite-subsystems/lib\libSatelliteSubsystemsD.a(gecko_driver.o)
 .text.GECKO_DisableTestPattern
                0x00000000       0xb4 C:/HOOPOE3/satellite-subsystems/demo/..//satellite-subsystems/lib\libSatelliteSubsystemsD.a(gecko_driver.o)
 .text.GECKO_GetFlashInitDone
                0x00000000       0x64 C:/HOOPOE3/satellite-subsystems/demo/..//satellite-subsystems/lib\libSatelliteSubsystemsD.a(gecko_driver.o)
 .text.GECKO_GetReadReady
                0x00000000       0x64 C:/HOOPOE3/satellite-subsystems/demo/..//satellite-subsystems/lib\libSatelliteSubsystemsD.a(gecko_driver.o)
 .text.GECKO_GetReadBusy
                0x00000000       0x64 C:/HOOPOE3/satellite-subsystems/demo/..//satellite-subsystems/lib\libSatelliteSubsystemsD.a(gecko_driver.o)
 .text.GECKO_GetSampleBusy
                0x00000000       0x64 C:/HOOPOE3/satellite-subsystems/demo/..//satellite-subsystems/lib\libSatelliteSubsystemsD.a(gecko_driver.o)
 .text.GECKO_GetEraseBusy
                0x00000000       0x64 C:/HOOPOE3/satellite-subsystems/demo/..//satellite-subsystems/lib\libSatelliteSubsystemsD.a(gecko_driver.o)
 .text.GECKO_GetReadDone
                0x00000000       0x64 C:/HOOPOE3/satellite-subsystems/demo/..//satellite-subsystems/lib\libSatelliteSubsystemsD.a(gecko_driver.o)
 .text.GECKO_GetSampleDone
                0x00000000       0x64 C:/HOOPOE3/satellite-subsystems/demo/..//satellite-subsystems/lib\libSatelliteSubsystemsD.a(gecko_driver.o)
 .text.GECKO_GetEraseDone
                0x00000000       0x64 C:/HOOPOE3/satellite-subsystems/demo/..//satellite-subsystems/lib\libSatelliteSubsystemsD.a(gecko_driver.o)
 .text.GECKO_ClearReadDone
                0x00000000       0xb4 C:/HOOPOE3/satellite-subsystems/demo/..//satellite-subsystems/lib\libSatelliteSubsystemsD.a(gecko_driver.o)
 .text.GECKO_ClearSampleDone
                0x00000000       0xb4 C:/HOOPOE3/satellite-subsystems/demo/..//satellite-subsystems/lib\libSatelliteSubsystemsD.a(gecko_driver.o)
 .text.GECKO_ClearEraseDone
                0x00000000       0xb4 C:/HOOPOE3/satellite-subsystems/demo/..//satellite-subsystems/lib\libSatelliteSubsystemsD.a(gecko_driver.o)
 .text.GECKO_GetFlashCount
                0x00000000       0x74 C:/HOOPOE3/satellite-subsystems/demo/..//satellite-subsystems/lib\libSatelliteSubsystemsD.a(gecko_driver.o)
 .text.GECKO_GetImageID
                0x00000000       0x64 C:/HOOPOE3/satellite-subsystems/demo/..//satellite-subsystems/lib\libSatelliteSubsystemsD.a(gecko_driver.o)
 .text.GECKO_SetImageID
                0x00000000       0xcc C:/HOOPOE3/satellite-subsystems/demo/..//satellite-subsystems/lib\libSatelliteSubsystemsD.a(gecko_driver.o)
 .text.GECKO_GetFrameAmount
                0x00000000       0x5c C:/HOOPOE3/satellite-subsystems/demo/..//satellite-subsystems/lib\libSatelliteSubsystemsD.a(gecko_driver.o)
 .text.GECKO_SetFrameAmount
                0x00000000       0xbc C:/HOOPOE3/satellite-subsystems/demo/..//satellite-subsystems/lib\libSatelliteSubsystemsD.a(gecko_driver.o)
 .text.GECKO_GetUpTime
                0x00000000       0x5c C:/HOOPOE3/satellite-subsystems/demo/..//satellite-subsystems/lib\libSatelliteSubsystemsD.a(gecko_driver.o)
 .text.GECKO_GetPageCount
                0x00000000       0x5c C:/HOOPOE3/satellite-subsystems/demo/..//satellite-subsystems/lib\libSatelliteSubsystemsD.a(gecko_driver.o)
 .text.GECKO_SensorOn
                0x00000000       0xb8 C:/HOOPOE3/satellite-subsystems/demo/..//satellite-subsystems/lib\libSatelliteSubsystemsD.a(gecko_driver.o)
 .text.GECKO_SensorOff
                0x00000000       0xb4 C:/HOOPOE3/satellite-subsystems/demo/..//satellite-subsystems/lib\libSatelliteSubsystemsD.a(gecko_driver.o)
 .text.GECKO_GetFrameRate
                0x00000000       0x60 C:/HOOPOE3/satellite-subsystems/demo/..//satellite-subsystems/lib\libSatelliteSubsystemsD.a(gecko_driver.o)
 .text.GECKO_SetFrameRate
                0x00000000       0xc4 C:/HOOPOE3/satellite-subsystems/demo/..//satellite-subsystems/lib\libSatelliteSubsystemsD.a(gecko_driver.o)
 .text.GECKO_GetOnDone
                0x00000000       0x64 C:/HOOPOE3/satellite-subsystems/demo/..//satellite-subsystems/lib\libSatelliteSubsystemsD.a(gecko_driver.o)
 .text.GECKO_GetTrainingDone
                0x00000000       0x64 C:/HOOPOE3/satellite-subsystems/demo/..//satellite-subsystems/lib\libSatelliteSubsystemsD.a(gecko_driver.o)
 .text.GECKO_GetTrainingError
                0x00000000       0x64 C:/HOOPOE3/satellite-subsystems/demo/..//satellite-subsystems/lib\libSatelliteSubsystemsD.a(gecko_driver.o)
 .text.GECKO_SetAdcGain
                0x00000000       0xc4 C:/HOOPOE3/satellite-subsystems/demo/..//satellite-subsystems/lib\libSatelliteSubsystemsD.a(gecko_driver.o)
 .text.GECKO_SetPgaGain
                0x00000000       0xcc C:/HOOPOE3/satellite-subsystems/demo/..//satellite-subsystems/lib\libSatelliteSubsystemsD.a(gecko_driver.o)
 .text.GECKO_SetOffset
                0x00000000       0xd0 C:/HOOPOE3/satellite-subsystems/demo/..//satellite-subsystems/lib\libSatelliteSubsystemsD.a(gecko_driver.o)
 .text.GECKO_SetExposure
                0x00000000       0xc4 C:/HOOPOE3/satellite-subsystems/demo/..//satellite-subsystems/lib\libSatelliteSubsystemsD.a(gecko_driver.o)
 .text          0x00000000        0x0 C:/HOOPOE3/satellite-subsystems/demo/..//satellite-subsystems/lib\libSatelliteSubsystemsD.a(IsisTRXCommon.o)
 .data          0x00000000        0x0 C:/HOOPOE3/satellite-subsystems/demo/..//satellite-subsystems/lib\libSatelliteSubsystemsD.a(IsisTRXCommon.o)
 .bss           0x00000000        0x0 C:/HOOPOE3/satellite-subsystems/demo/..//satellite-subsystems/lib\libSatelliteSubsystemsD.a(IsisTRXCommon.o)
 .text.IsisTrxCommon_TxSendAX25OvrClSign
                0x00000000      0x120 C:/HOOPOE3/satellite-subsystems/demo/..//satellite-subsystems/lib\libSatelliteSubsystemsD.a(IsisTRXCommon.o)
 .text.IsisTrxCommon_TxSetAx25BeaconDefClSign
                0x00000000       0xf4 C:/HOOPOE3/satellite-subsystems/demo/..//satellite-subsystems/lib\libSatelliteSubsystemsD.a(IsisTRXCommon.o)
 .text.IsisTrxCommon_TxSetAx25BeaconOvrClSign
                0x00000000      0x124 C:/HOOPOE3/satellite-subsystems/demo/..//satellite-subsystems/lib\libSatelliteSubsystemsD.a(IsisTRXCommon.o)
 .text.IsisTrxCommon_TxClearBeacon
                0x00000000       0x68 C:/HOOPOE3/satellite-subsystems/demo/..//satellite-subsystems/lib\libSatelliteSubsystemsD.a(IsisTRXCommon.o)
 .text.IsisTrxCommon_TxSetDefToClSign
                0x00000000       0x84 C:/HOOPOE3/satellite-subsystems/demo/..//satellite-subsystems/lib\libSatelliteSubsystemsD.a(IsisTRXCommon.o)
 .text.IsisTrxCommon_TxSetDefFromClSign
                0x00000000       0x84 C:/HOOPOE3/satellite-subsystems/demo/..//satellite-subsystems/lib\libSatelliteSubsystemsD.a(IsisTRXCommon.o)
 .text.IsisTrxCommon_RxGetTelemetryAll
                0x00000000       0x8c C:/HOOPOE3/satellite-subsystems/demo/..//satellite-subsystems/lib\libSatelliteSubsystemsD.a(IsisTRXCommon.o)
 .text.IsisTrxCommon_GetUptime
                0x00000000       0x8c C:/HOOPOE3/satellite-subsystems/demo/..//satellite-subsystems/lib\libSatelliteSubsystemsD.a(IsisTRXCommon.o)
 .text          0x00000000        0x0 c:/isis/application/toolchain/bin/../lib/gcc/arm-none-eabi/4.7.4/../../../../arm-none-eabi/lib\libm.a(lib_a-w_log.o)
 .data          0x00000000        0x0 c:/isis/application/toolchain/bin/../lib/gcc/arm-none-eabi/4.7.4/../../../../arm-none-eabi/lib\libm.a(lib_a-w_log.o)
 .bss           0x00000000        0x0 c:/isis/application/toolchain/bin/../lib/gcc/arm-none-eabi/4.7.4/../../../../arm-none-eabi/lib\libm.a(lib_a-w_log.o)
 .text          0x00000000        0x0 c:/isis/application/toolchain/bin/../lib/gcc/arm-none-eabi/4.7.4/../../../../arm-none-eabi/lib\libm.a(lib_a-e_log.o)
 .data          0x00000000        0x0 c:/isis/application/toolchain/bin/../lib/gcc/arm-none-eabi/4.7.4/../../../../arm-none-eabi/lib\libm.a(lib_a-e_log.o)
 .bss           0x00000000        0x0 c:/isis/application/toolchain/bin/../lib/gcc/arm-none-eabi/4.7.4/../../../../arm-none-eabi/lib\libm.a(lib_a-e_log.o)
 .text          0x00000000        0x0 c:/isis/application/toolchain/bin/../lib/gcc/arm-none-eabi/4.7.4/../../../../arm-none-eabi/lib\libm.a(lib_a-s_lib_ver.o)
 .data          0x00000000        0x0 c:/isis/application/toolchain/bin/../lib/gcc/arm-none-eabi/4.7.4/../../../../arm-none-eabi/lib\libm.a(lib_a-s_lib_ver.o)
 .bss           0x00000000        0x0 c:/isis/application/toolchain/bin/../lib/gcc/arm-none-eabi/4.7.4/../../../../arm-none-eabi/lib\libm.a(lib_a-s_lib_ver.o)
 .text          0x00000000        0x0 c:/isis/application/toolchain/bin/../lib/gcc/arm-none-eabi/4.7.4/../../../../arm-none-eabi/lib\libm.a(lib_a-s_matherr.o)
 .data          0x00000000        0x0 c:/isis/application/toolchain/bin/../lib/gcc/arm-none-eabi/4.7.4/../../../../arm-none-eabi/lib\libm.a(lib_a-s_matherr.o)
 .bss           0x00000000        0x0 c:/isis/application/toolchain/bin/../lib/gcc/arm-none-eabi/4.7.4/../../../../arm-none-eabi/lib\libm.a(lib_a-s_matherr.o)
 .text          0x00000000        0x0 c:/isis/application/toolchain/bin/../lib/gcc/arm-none-eabi/4.7.4/../../../../arm-none-eabi/lib\libm.a(lib_a-s_nan.o)
 .data          0x00000000        0x0 c:/isis/application/toolchain/bin/../lib/gcc/arm-none-eabi/4.7.4/../../../../arm-none-eabi/lib\libm.a(lib_a-s_nan.o)
 .bss           0x00000000        0x0 c:/isis/application/toolchain/bin/../lib/gcc/arm-none-eabi/4.7.4/../../../../arm-none-eabi/lib\libm.a(lib_a-s_nan.o)
 .text          0x00000000        0x0 C:/HOOPOE3/satellite-subsystems/demo/../..//hal/hcc/lib\libHCCD.a(fat_common.o)
 .data          0x00000000        0x0 C:/HOOPOE3/satellite-subsystems/demo/../..//hal/hcc/lib\libHCCD.a(fat_common.o)
 .rodata        0x00000000       0x6c C:/HOOPOE3/satellite-subsystems/demo/../..//hal/hcc/lib\libHCCD.a(fat_common.o)
 .text.fn_start
                0x00000000       0x1c C:/HOOPOE3/satellite-subsystems/demo/../..//hal/hcc/lib\libHCCD.a(fat_common.o)
 .text.fn_stop  0x00000000       0x1c C:/HOOPOE3/satellite-subsystems/demo/../..//hal/hcc/lib\libHCCD.a(fat_common.o)
 .text.fsn_delete
                0x00000000       0xc8 C:/HOOPOE3/satellite-subsystems/demo/../..//hal/hcc/lib\libHCCD.a(fat_common.o)
 .text._set8bitzero
                0x00000000       0x6c C:/HOOPOE3/satellite-subsystems/demo/../..//hal/hcc/lib\libHCCD.a(fat_common.o)
 .text._set8bit
                0x00000000       0xa0 C:/HOOPOE3/satellite-subsystems/demo/../..//hal/hcc/lib\libHCCD.a(fat_common.o)
 .text._set16bitl
                0x00000000       0x3c C:/HOOPOE3/satellite-subsystems/demo/../..//hal/hcc/lib\libHCCD.a(fat_common.o)
 .text._set32bitl
                0x00000000       0x34 C:/HOOPOE3/satellite-subsystems/demo/../..//hal/hcc/lib\libHCCD.a(fat_common.o)
 .text._f_ioctl
                0x00000000       0x84 C:/HOOPOE3/satellite-subsystems/demo/../..//hal/hcc/lib\libHCCD.a(fat_common.o)
 .text._f_ioctl_endofdelete
                0x00000000       0x88 C:/HOOPOE3/satellite-subsystems/demo/../..//hal/hcc/lib\libHCCD.a(fat_common.o)
 .text._f_ioctl_multiplesectorerase
                0x00000000       0x5c C:/HOOPOE3/satellite-subsystems/demo/../..//hal/hcc/lib\libHCCD.a(fat_common.o)
 .text.fn_getpartition
                0x00000000      0x514 C:/HOOPOE3/satellite-subsystems/demo/../..//hal/hcc/lib\libHCCD.a(fat_common.o)
 .text._f_writebootrecord
                0x00000000      0x5e4 C:/HOOPOE3/satellite-subsystems/demo/../..//hal/hcc/lib\libHCCD.a(fat_common.o)
 .text.fn_initvolume_nonsafe
                0x00000000      0x14c C:/HOOPOE3/satellite-subsystems/demo/../..//hal/hcc/lib\libHCCD.a(fat_common.o)
 .text.fn_releasedriver
                0x00000000       0xf4 C:/HOOPOE3/satellite-subsystems/demo/../..//hal/hcc/lib\libHCCD.a(fat_common.o)
 .text.fn_initvolumepartition_nonsafe
                0x00000000       0xac C:/HOOPOE3/satellite-subsystems/demo/../..//hal/hcc/lib\libHCCD.a(fat_common.o)
 .text.fn_checkvolume
                0x00000000       0x44 C:/HOOPOE3/satellite-subsystems/demo/../..//hal/hcc/lib\libHCCD.a(fat_common.o)
 .text.fn_delvolume
                0x00000000      0x194 C:/HOOPOE3/satellite-subsystems/demo/../..//hal/hcc/lib\libHCCD.a(fat_common.o)
 .text.fn_get_volume_count
                0x00000000       0xa8 C:/HOOPOE3/satellite-subsystems/demo/../..//hal/hcc/lib\libHCCD.a(fat_common.o)
 .text.fn_get_volume_list
                0x00000000       0xc4 C:/HOOPOE3/satellite-subsystems/demo/../..//hal/hcc/lib\libHCCD.a(fat_common.o)
 .text._f_prepareformat
                0x00000000      0x8b8 C:/HOOPOE3/satellite-subsystems/demo/../..//hal/hcc/lib\libHCCD.a(fat_common.o)
 .text._f_resetfatentries
                0x00000000      0x410 C:/HOOPOE3/satellite-subsystems/demo/../..//hal/hcc/lib\libHCCD.a(fat_common.o)
 .text._f_resetrootdir
                0x00000000       0xcc C:/HOOPOE3/satellite-subsystems/demo/../..//hal/hcc/lib\libHCCD.a(fat_common.o)
 .text._f_postformat
                0x00000000      0x178 C:/HOOPOE3/satellite-subsystems/demo/../..//hal/hcc/lib\libHCCD.a(fat_common.o)
 .text.fn_createpartition
                0x00000000      0x56c C:/HOOPOE3/satellite-subsystems/demo/../..//hal/hcc/lib\libHCCD.a(fat_common.o)
 .text.fn_format
                0x00000000      0x148 C:/HOOPOE3/satellite-subsystems/demo/../..//hal/hcc/lib\libHCCD.a(fat_common.o)
 .text.fn_chdrive
                0x00000000       0xb0 C:/HOOPOE3/satellite-subsystems/demo/../..//hal/hcc/lib\libHCCD.a(fat_common.o)
 .text.fn_abortclose
                0x00000000      0x150 C:/HOOPOE3/satellite-subsystems/demo/../..//hal/hcc/lib\libHCCD.a(fat_common.o)
 .text.fn_flush_filebuffer
                0x00000000      0x138 C:/HOOPOE3/satellite-subsystems/demo/../..//hal/hcc/lib\libHCCD.a(fat_common.o)
 .text.fn_tell  0x00000000      0x19c C:/HOOPOE3/satellite-subsystems/demo/../..//hal/hcc/lib\libHCCD.a(fat_common.o)
 .text.fn_eof   0x00000000       0xf8 C:/HOOPOE3/satellite-subsystems/demo/../..//hal/hcc/lib\libHCCD.a(fat_common.o)
 .text.fn_rewind
                0x00000000       0x38 C:/HOOPOE3/satellite-subsystems/demo/../..//hal/hcc/lib\libHCCD.a(fat_common.o)
 .text.fn_putc  0x00000000       0x68 C:/HOOPOE3/satellite-subsystems/demo/../..//hal/hcc/lib\libHCCD.a(fat_common.o)
 .text.fn_getc  0x00000000       0x58 C:/HOOPOE3/satellite-subsystems/demo/../..//hal/hcc/lib\libHCCD.a(fat_common.o)
 .text.fn_get_oem
                0x00000000       0xfc C:/HOOPOE3/satellite-subsystems/demo/../..//hal/hcc/lib\libHCCD.a(fat_common.o)
 .text.fn_ftruncate
                0x00000000       0x64 C:/HOOPOE3/satellite-subsystems/demo/../..//hal/hcc/lib\libHCCD.a(fat_common.o)
 .text.fn_seteof
                0x00000000      0x468 C:/HOOPOE3/satellite-subsystems/demo/../..//hal/hcc/lib\libHCCD.a(fat_common.o)
 .text._fn_removeseekpos
                0x00000000       0xc0 C:/HOOPOE3/satellite-subsystems/demo/../..//hal/hcc/lib\libHCCD.a(fat_common.o)
 .text.fn_fstat
                0x00000000      0x250 C:/HOOPOE3/satellite-subsystems/demo/../..//hal/hcc/lib\libHCCD.a(fat_common.o)
 .text          0x00000000        0x0 C:/HOOPOE3/satellite-subsystems/demo/../..//hal/hcc/lib\libHCCD.a(fat_m.o)
 .data          0x00000000        0x0 C:/HOOPOE3/satellite-subsystems/demo/../..//hal/hcc/lib\libHCCD.a(fat_m.o)
 .bss           0x00000000        0x0 C:/HOOPOE3/satellite-subsystems/demo/../..//hal/hcc/lib\libHCCD.a(fat_m.o)
 .text.fm_initvolume_nonsafe
                0x00000000       0x70 C:/HOOPOE3/satellite-subsystems/demo/../..//hal/hcc/lib\libHCCD.a(fat_m.o)
 .text.fm_createdriver
                0x00000000       0x70 C:/HOOPOE3/satellite-subsystems/demo/../..//hal/hcc/lib\libHCCD.a(fat_m.o)
 .text.fm_initvolumepartition
                0x00000000       0x70 C:/HOOPOE3/satellite-subsystems/demo/../..//hal/hcc/lib\libHCCD.a(fat_m.o)
 .text.fm_initvolumepartition_nonsafe
                0x00000000       0x70 C:/HOOPOE3/satellite-subsystems/demo/../..//hal/hcc/lib\libHCCD.a(fat_m.o)
 .text.fm_createpartition
                0x00000000       0x70 C:/HOOPOE3/satellite-subsystems/demo/../..//hal/hcc/lib\libHCCD.a(fat_m.o)
 .text.fm_getpartition
                0x00000000       0x68 C:/HOOPOE3/satellite-subsystems/demo/../..//hal/hcc/lib\libHCCD.a(fat_m.o)
 .text.fm_checkvolume
                0x00000000       0x60 C:/HOOPOE3/satellite-subsystems/demo/../..//hal/hcc/lib\libHCCD.a(fat_m.o)
 .text.fm_delvolume
                0x00000000       0x60 C:/HOOPOE3/satellite-subsystems/demo/../..//hal/hcc/lib\libHCCD.a(fat_m.o)
 .text.fm_releasedriver
                0x00000000       0x54 C:/HOOPOE3/satellite-subsystems/demo/../..//hal/hcc/lib\libHCCD.a(fat_m.o)
 .text.fm_get_volume_count
                0x00000000       0x58 C:/HOOPOE3/satellite-subsystems/demo/../..//hal/hcc/lib\libHCCD.a(fat_m.o)
 .text.fm_get_volume_list
                0x00000000       0x60 C:/HOOPOE3/satellite-subsystems/demo/../..//hal/hcc/lib\libHCCD.a(fat_m.o)
 .text.fm_format
                0x00000000       0x68 C:/HOOPOE3/satellite-subsystems/demo/../..//hal/hcc/lib\libHCCD.a(fat_m.o)
 .text.fm_getcwd
                0x00000000       0x68 C:/HOOPOE3/satellite-subsystems/demo/../..//hal/hcc/lib\libHCCD.a(fat_m.o)
 .text.fm_getdcwd
                0x00000000       0x70 C:/HOOPOE3/satellite-subsystems/demo/../..//hal/hcc/lib\libHCCD.a(fat_m.o)
 .text.fm_chdrive
                0x00000000       0x60 C:/HOOPOE3/satellite-subsystems/demo/../..//hal/hcc/lib\libHCCD.a(fat_m.o)
 .text.fm_chdir
                0x00000000       0x60 C:/HOOPOE3/satellite-subsystems/demo/../..//hal/hcc/lib\libHCCD.a(fat_m.o)
 .text.fm_mkdir
                0x00000000       0x60 C:/HOOPOE3/satellite-subsystems/demo/../..//hal/hcc/lib\libHCCD.a(fat_m.o)
 .text.fm_rmdir
                0x00000000       0x60 C:/HOOPOE3/satellite-subsystems/demo/../..//hal/hcc/lib\libHCCD.a(fat_m.o)
 .text.fm_move  0x00000000       0x68 C:/HOOPOE3/satellite-subsystems/demo/../..//hal/hcc/lib\libHCCD.a(fat_m.o)
 .text.fm_abortclose
                0x00000000       0x60 C:/HOOPOE3/satellite-subsystems/demo/../..//hal/hcc/lib\libHCCD.a(fat_m.o)
 .text.fm_flush_filebuffer
                0x00000000       0x60 C:/HOOPOE3/satellite-subsystems/demo/../..//hal/hcc/lib\libHCCD.a(fat_m.o)
 .text.fm_open_nonsafe
                0x00000000       0x68 C:/HOOPOE3/satellite-subsystems/demo/../..//hal/hcc/lib\libHCCD.a(fat_m.o)
 .text.fm_open_pos
                0x00000000       0x70 C:/HOOPOE3/satellite-subsystems/demo/../..//hal/hcc/lib\libHCCD.a(fat_m.o)
 .text.fm_tell  0x00000000       0x60 C:/HOOPOE3/satellite-subsystems/demo/../..//hal/hcc/lib\libHCCD.a(fat_m.o)
 .text.fm_getc  0x00000000       0x60 C:/HOOPOE3/satellite-subsystems/demo/../..//hal/hcc/lib\libHCCD.a(fat_m.o)
 .text.fm_putc  0x00000000       0x68 C:/HOOPOE3/satellite-subsystems/demo/../..//hal/hcc/lib\libHCCD.a(fat_m.o)
 .text.fm_rewind
                0x00000000       0x60 C:/HOOPOE3/satellite-subsystems/demo/../..//hal/hcc/lib\libHCCD.a(fat_m.o)
 .text.fm_eof   0x00000000       0x60 C:/HOOPOE3/satellite-subsystems/demo/../..//hal/hcc/lib\libHCCD.a(fat_m.o)
 .text.fm_gettimedate
                0x00000000       0x70 C:/HOOPOE3/satellite-subsystems/demo/../..//hal/hcc/lib\libHCCD.a(fat_m.o)
 .text.fm_stat  0x00000000       0x68 C:/HOOPOE3/satellite-subsystems/demo/../..//hal/hcc/lib\libHCCD.a(fat_m.o)
 .text.fm_fstat
                0x00000000       0x68 C:/HOOPOE3/satellite-subsystems/demo/../..//hal/hcc/lib\libHCCD.a(fat_m.o)
 .text.fm_settimedate
                0x00000000       0x74 C:/HOOPOE3/satellite-subsystems/demo/../..//hal/hcc/lib\libHCCD.a(fat_m.o)
 .text.fm_getattr
                0x00000000       0x68 C:/HOOPOE3/satellite-subsystems/demo/../..//hal/hcc/lib\libHCCD.a(fat_m.o)
 .text.fm_setattr
                0x00000000       0x70 C:/HOOPOE3/satellite-subsystems/demo/../..//hal/hcc/lib\libHCCD.a(fat_m.o)
 .text.fm_getlabel
                0x00000000       0x70 C:/HOOPOE3/satellite-subsystems/demo/../..//hal/hcc/lib\libHCCD.a(fat_m.o)
 .text.fm_setlabel
                0x00000000       0x68 C:/HOOPOE3/satellite-subsystems/demo/../..//hal/hcc/lib\libHCCD.a(fat_m.o)
 .text.fm_truncate
                0x00000000       0x68 C:/HOOPOE3/satellite-subsystems/demo/../..//hal/hcc/lib\libHCCD.a(fat_m.o)
 .text.fm_get_oem
                0x00000000       0x70 C:/HOOPOE3/satellite-subsystems/demo/../..//hal/hcc/lib\libHCCD.a(fat_m.o)
 .text.fm_ftruncate
                0x00000000       0x68 C:/HOOPOE3/satellite-subsystems/demo/../..//hal/hcc/lib\libHCCD.a(fat_m.o)
 .text.fm_seteof
                0x00000000       0x60 C:/HOOPOE3/satellite-subsystems/demo/../..//hal/hcc/lib\libHCCD.a(fat_m.o)
 .text          0x00000000        0x0 C:/HOOPOE3/satellite-subsystems/demo/../..//hal/hcc/lib\libHCCD.a(safefat.o)
 .bss           0x00000000        0x0 C:/HOOPOE3/satellite-subsystems/demo/../..//hal/hcc/lib\libHCCD.a(safefat.o)
 .text._s_get_len
                0x00000000      0x10c C:/HOOPOE3/satellite-subsystems/demo/../..//hal/hcc/lib\libHCCD.a(safefat.o)
 .text._s_set_len
                0x00000000       0xb4 C:/HOOPOE3/satellite-subsystems/demo/../..//hal/hcc/lib\libHCCD.a(safefat.o)
 .text.safe_fix_filelengths
                0x00000000       0xcc C:/HOOPOE3/satellite-subsystems/demo/../..//hal/hcc/lib\libHCCD.a(safefat.o)
 .text.safe_seteof
                0x00000000      0x1a0 C:/HOOPOE3/satellite-subsystems/demo/../..//hal/hcc/lib\libHCCD.a(safefat.o)
 .text          0x00000000        0x0 C:/HOOPOE3/satellite-subsystems/demo/../..//hal/hcc/lib\libHCCD.a(atmel_mcipdc.o)
 .data          0x00000000        0x0 C:/HOOPOE3/satellite-subsystems/demo/../..//hal/hcc/lib\libHCCD.a(atmel_mcipdc.o)
 .text          0x00000000        0x0 C:/HOOPOE3/satellite-subsystems/demo/../..//hal/hcc/lib\libHCCD.a(oalp_mutex.o)
 .data          0x00000000        0x0 C:/HOOPOE3/satellite-subsystems/demo/../..//hal/hcc/lib\libHCCD.a(oalp_mutex.o)
 .bss           0x00000000        0x0 C:/HOOPOE3/satellite-subsystems/demo/../..//hal/hcc/lib\libHCCD.a(oalp_mutex.o)
 .text          0x00000000        0x0 C:/HOOPOE3/satellite-subsystems/demo/../..//hal/hcc/lib\libHCCD.a(oalp_task.o)
 .data          0x00000000        0x0 C:/HOOPOE3/satellite-subsystems/demo/../..//hal/hcc/lib\libHCCD.a(oalp_task.o)
 .bss           0x00000000        0x0 C:/HOOPOE3/satellite-subsystems/demo/../..//hal/hcc/lib\libHCCD.a(oalp_task.o)
 .text          0x00000000        0x0 C:/HOOPOE3/satellite-subsystems/demo/../..//hal/hcc/lib\libHCCD.a(atmel_mcipdc_hw.o)
 .data          0x00000000        0x0 C:/HOOPOE3/satellite-subsystems/demo/../..//hal/hcc/lib\libHCCD.a(atmel_mcipdc_hw.o)
 .bss           0x00000000        0x0 C:/HOOPOE3/satellite-subsystems/demo/../..//hal/hcc/lib\libHCCD.a(atmel_mcipdc_hw.o)
 .text          0x00000000        0x0 C:/HOOPOE3/satellite-subsystems/demo/../..//hal/hcc/lib\libHCCD.a(psp_rand.o)
 .data          0x00000000        0x4 C:/HOOPOE3/satellite-subsystems/demo/../..//hal/hcc/lib\libHCCD.a(psp_rand.o)
 .bss           0x00000000        0x0 C:/HOOPOE3/satellite-subsystems/demo/../..//hal/hcc/lib\libHCCD.a(psp_rand.o)
 .text.psp_getrand
                0x00000000      0x14c C:/HOOPOE3/satellite-subsystems/demo/../..//hal/hcc/lib\libHCCD.a(psp_rand.o)
 .debug_info    0x00000000      0x157 C:/HOOPOE3/satellite-subsystems/demo/../..//hal/hcc/lib\libHCCD.a(psp_rand.o)
 .debug_abbrev  0x00000000       0xad C:/HOOPOE3/satellite-subsystems/demo/../..//hal/hcc/lib\libHCCD.a(psp_rand.o)
 .debug_loc     0x00000000       0x2c C:/HOOPOE3/satellite-subsystems/demo/../..//hal/hcc/lib\libHCCD.a(psp_rand.o)
 .debug_aranges
                0x00000000       0x20 C:/HOOPOE3/satellite-subsystems/demo/../..//hal/hcc/lib\libHCCD.a(psp_rand.o)
 .debug_ranges  0x00000000       0x10 C:/HOOPOE3/satellite-subsystems/demo/../..//hal/hcc/lib\libHCCD.a(psp_rand.o)
 .debug_line    0x00000000      0x124 C:/HOOPOE3/satellite-subsystems/demo/../..//hal/hcc/lib\libHCCD.a(psp_rand.o)
 .debug_str     0x00000000      0x175 C:/HOOPOE3/satellite-subsystems/demo/../..//hal/hcc/lib\libHCCD.a(psp_rand.o)
 .comment       0x00000000       0x71 C:/HOOPOE3/satellite-subsystems/demo/../..//hal/hcc/lib\libHCCD.a(psp_rand.o)
 .ARM.attributes
                0x00000000       0x32 C:/HOOPOE3/satellite-subsystems/demo/../..//hal/hcc/lib\libHCCD.a(psp_rand.o)
 .debug_frame   0x00000000       0x2c C:/HOOPOE3/satellite-subsystems/demo/../..//hal/hcc/lib\libHCCD.a(psp_rand.o)
 .text          0x00000000        0x0 C:/HOOPOE3/satellite-subsystems/demo/../..//hal/hcc/lib\libHCCD.a(psp_rtc.o)
 .data          0x00000000        0x0 C:/HOOPOE3/satellite-subsystems/demo/../..//hal/hcc/lib\libHCCD.a(psp_rtc.o)
 .bss           0x00000000        0x0 C:/HOOPOE3/satellite-subsystems/demo/../..//hal/hcc/lib\libHCCD.a(psp_rtc.o)
 .text          0x00000000        0x0 C:/HOOPOE3/satellite-subsystems/demo/../..//hal/hcc/lib\libHCCD.a(hcc_mem.o)
 .data          0x00000000        0x0 C:/HOOPOE3/satellite-subsystems/demo/../..//hal/hcc/lib\libHCCD.a(hcc_mem.o)
 .text._hcc_set_lock_dsc
                0x00000000      0x124 C:/HOOPOE3/satellite-subsystems/demo/../..//hal/hcc/lib\libHCCD.a(hcc_mem.o)
 .text._hcc_mem_lock_get_area
                0x00000000      0x244 C:/HOOPOE3/satellite-subsystems/demo/../..//hal/hcc/lib\libHCCD.a(hcc_mem.o)
 .text.hcc_mem_lock_tr
                0x00000000      0x2cc C:/HOOPOE3/satellite-subsystems/demo/../..//hal/hcc/lib\libHCCD.a(hcc_mem.o)
 .text.hcc_mem_lock
                0x00000000      0x1b0 C:/HOOPOE3/satellite-subsystems/demo/../..//hal/hcc/lib\libHCCD.a(hcc_mem.o)
 .text.hcc_mem_unlock
                0x00000000      0x170 C:/HOOPOE3/satellite-subsystems/demo/../..//hal/hcc/lib\libHCCD.a(hcc_mem.o)
 .text.hcc_mem_unlock_int
                0x00000000      0x1a8 C:/HOOPOE3/satellite-subsystems/demo/../..//hal/hcc/lib\libHCCD.a(hcc_mem.o)
 .text.hcc_mem_get_hdl
                0x00000000       0x8c C:/HOOPOE3/satellite-subsystems/demo/../..//hal/hcc/lib\libHCCD.a(hcc_mem.o)
 .text.hcc_mem_start
                0x00000000       0x1c C:/HOOPOE3/satellite-subsystems/demo/../..//hal/hcc/lib\libHCCD.a(hcc_mem.o)
 .text.hcc_mem_stop
                0x00000000       0x1c C:/HOOPOE3/satellite-subsystems/demo/../..//hal/hcc/lib\libHCCD.a(hcc_mem.o)
 .text.hcc_mem_delete
                0x00000000       0x94 C:/HOOPOE3/satellite-subsystems/demo/../..//hal/hcc/lib\libHCCD.a(hcc_mem.o)
 .text          0x00000000        0x0 C:/HOOPOE3/satellite-subsystems/demo/../..//hal/hcc/lib\libHCCD.a(fat.o)
 .data          0x00000000        0x0 C:/HOOPOE3/satellite-subsystems/demo/../..//hal/hcc/lib\libHCCD.a(fat.o)
 .bss           0x00000000        0x0 C:/HOOPOE3/satellite-subsystems/demo/../..//hal/hcc/lib\libHCCD.a(fat.o)
 .text.fn_getcwd
                0x00000000      0x1e8 C:/HOOPOE3/satellite-subsystems/demo/../..//hal/hcc/lib\libHCCD.a(fat.o)
 .text.fn_chdir
                0x00000000      0x240 C:/HOOPOE3/satellite-subsystems/demo/../..//hal/hcc/lib\libHCCD.a(fat.o)
 .rodata        0x00000000       0x20 C:/HOOPOE3/satellite-subsystems/demo/../..//hal/hcc/lib\libHCCD.a(fat.o)
 .text.fn_mkdir
                0x00000000      0x75c C:/HOOPOE3/satellite-subsystems/demo/../..//hal/hcc/lib\libHCCD.a(fat.o)
 .text.fn_open_nonsafe
                0x00000000       0x44 C:/HOOPOE3/satellite-subsystems/demo/../..//hal/hcc/lib\libHCCD.a(fat.o)
 .text.fn_open_pos
                0x00000000       0x48 C:/HOOPOE3/satellite-subsystems/demo/../..//hal/hcc/lib\libHCCD.a(fat.o)
 .text.fn_settimedate
                0x00000000      0x324 C:/HOOPOE3/satellite-subsystems/demo/../..//hal/hcc/lib\libHCCD.a(fat.o)
 .text.fn_gettimedate
                0x00000000      0x1bc C:/HOOPOE3/satellite-subsystems/demo/../..//hal/hcc/lib\libHCCD.a(fat.o)
 .text.fn_stat  0x00000000      0x26c C:/HOOPOE3/satellite-subsystems/demo/../..//hal/hcc/lib\libHCCD.a(fat.o)
 .text.fn_getattr
                0x00000000      0x17c C:/HOOPOE3/satellite-subsystems/demo/../..//hal/hcc/lib\libHCCD.a(fat.o)
 .text.fn_setattr
                0x00000000      0x328 C:/HOOPOE3/satellite-subsystems/demo/../..//hal/hcc/lib\libHCCD.a(fat.o)
 .text.fn_rmdir
                0x00000000      0x5ac C:/HOOPOE3/satellite-subsystems/demo/../..//hal/hcc/lib\libHCCD.a(fat.o)
 .text.fn_getlabel
                0x00000000      0x39c C:/HOOPOE3/satellite-subsystems/demo/../..//hal/hcc/lib\libHCCD.a(fat.o)
 .text.fn_setlabel
                0x00000000      0x574 C:/HOOPOE3/satellite-subsystems/demo/../..//hal/hcc/lib\libHCCD.a(fat.o)
 .text.fn_truncate
                0x00000000      0x7b4 C:/HOOPOE3/satellite-subsystems/demo/../..//hal/hcc/lib\libHCCD.a(fat.o)
 .text          0x00000000        0x0 C:/HOOPOE3/satellite-subsystems/demo/../..//hal/hcc/lib\libHCCD.a(psp_hcc_mem.o)
 .data          0x00000000        0x0 C:/HOOPOE3/satellite-subsystems/demo/../..//hal/hcc/lib\libHCCD.a(psp_hcc_mem.o)
 .text.hcc_mem_buf_free
                0x00000000       0x6c C:/HOOPOE3/satellite-subsystems/demo/../..//hal/hcc/lib\libHCCD.a(psp_hcc_mem.o)
 .text          0x00000000        0x0 C:/HOOPOE3/satellite-subsystems/demo/../..//hal/hal/lib\libHALD.a(I2C.o)
 .text.I2C_read
                0x00000000      0x110 C:/HOOPOE3/satellite-subsystems/demo/../..//hal/hal/lib\libHALD.a(I2C.o)
 .text.I2C_blockBus
                0x00000000       0x50 C:/HOOPOE3/satellite-subsystems/demo/../..//hal/hal/lib\libHALD.a(I2C.o)
 .text.I2C_releaseBus
                0x00000000       0x2c C:/HOOPOE3/satellite-subsystems/demo/../..//hal/hal/lib\libHALD.a(I2C.o)
 .text.I2C_getDriverState
                0x00000000       0x28 C:/HOOPOE3/satellite-subsystems/demo/../..//hal/hal/lib\libHALD.a(I2C.o)
 .text.I2C_getCurrentTransferStatus
                0x00000000       0x28 C:/HOOPOE3/satellite-subsystems/demo/../..//hal/hal/lib\libHALD.a(I2C.o)
 .text          0x00000000        0x0 C:/HOOPOE3/satellite-subsystems/demo/../..//hal/hal/lib\libHALD.a(SPI.o)
 .text          0x00000000        0x0 C:/HOOPOE3/satellite-subsystems/demo/../..//hal/hal/lib\libHALD.a(FRAM.o)
 .text.FRAM_stop
                0x00000000       0x6c C:/HOOPOE3/satellite-subsystems/demo/../..//hal/hal/lib\libHALD.a(FRAM.o)
 .text.FRAM_protectBlocks
                0x00000000      0x1ec C:/HOOPOE3/satellite-subsystems/demo/../..//hal/hal/lib\libHALD.a(FRAM.o)
 .text.FRAM_getProtectedBlocks
                0x00000000      0x108 C:/HOOPOE3/satellite-subsystems/demo/../..//hal/hal/lib\libHALD.a(FRAM.o)
 .text.FRAM_getDeviceID
                0x00000000      0x13c C:/HOOPOE3/satellite-subsystems/demo/../..//hal/hal/lib\libHALD.a(FRAM.o)
 .text          0x00000000        0x0 C:/HOOPOE3/satellite-subsystems/demo/../..//hal/hal/lib\libHALD.a(Time.o)
 .text.Time_getUptimeSeconds
                0x00000000       0x28 C:/HOOPOE3/satellite-subsystems/demo/../..//hal/hal/lib\libHALD.a(Time.o)
 .text.Time_diff
                0x00000000      0x24c C:/HOOPOE3/satellite-subsystems/demo/../..//hal/hal/lib\libHALD.a(Time.o)
 .text.Time_isRTCworking
                0x00000000       0x24 C:/HOOPOE3/satellite-subsystems/demo/../..//hal/hal/lib\libHALD.a(Time.o)
 .text          0x00000000        0x0 C:/HOOPOE3/satellite-subsystems/demo/../..//hal/hal/lib\libHALD.a(WatchDogTimerNoOS.o)
 .data          0x00000000        0x0 C:/HOOPOE3/satellite-subsystems/demo/../..//hal/hal/lib\libHALD.a(WatchDogTimerNoOS.o)
 .bss           0x00000000        0x0 C:/HOOPOE3/satellite-subsystems/demo/../..//hal/hal/lib\libHALD.a(WatchDogTimerNoOS.o)
 .text          0x00000000        0x0 C:/HOOPOE3/satellite-subsystems/demo/../..//hal/hal/lib\libHALD.a(WatchDogTimerOS.o)
 .data          0x00000000        0x0 C:/HOOPOE3/satellite-subsystems/demo/../..//hal/hal/lib\libHALD.a(WatchDogTimerOS.o)
 .text.WDT_stopWatchdogKickTask
                0x00000000       0x3c C:/HOOPOE3/satellite-subsystems/demo/../..//hal/hal/lib\libHALD.a(WatchDogTimerOS.o)
 .text          0x00000000        0x0 C:/HOOPOE3/satellite-subsystems/demo/../..//hal/hal/lib\libHALD.a(util.o)
 .data          0x00000000        0x0 C:/HOOPOE3/satellite-subsystems/demo/../..//hal/hal/lib\libHALD.a(util.o)
 .bss           0x00000000        0x0 C:/HOOPOE3/satellite-subsystems/demo/../..//hal/hal/lib\libHALD.a(util.o)
 .text.PrintChar
                0x00000000       0x58 C:/HOOPOE3/satellite-subsystems/demo/../..//hal/hal/lib\libHALD.a(util.o)
 .text.UTIL_DbguDumpMemory
                0x00000000      0x254 C:/HOOPOE3/satellite-subsystems/demo/../..//hal/hal/lib\libHALD.a(util.o)
 .text.UTIL_DbguDumpArrayBytes
                0x00000000       0x70 C:/HOOPOE3/satellite-subsystems/demo/../..//hal/hal/lib\libHALD.a(util.o)
 .text.UTIL_DbguGetString
                0x00000000       0xe0 C:/HOOPOE3/satellite-subsystems/demo/../..//hal/hal/lib\libHALD.a(util.o)
 .text.UTIL_DbguGetHexa32
                0x00000000      0x174 C:/HOOPOE3/satellite-subsystems/demo/../..//hal/hal/lib\libHALD.a(util.o)
 .text          0x00000000        0x0 C:/HOOPOE3/satellite-subsystems/demo/../..//hal/hal/lib\libHALD.a(LED.o)
 .data          0x00000000        0x0 C:/HOOPOE3/satellite-subsystems/demo/../..//hal/hal/lib\libHALD.a(LED.o)
 .text.uSdelay  0x00000000       0x88 C:/HOOPOE3/satellite-subsystems/demo/../..//hal/hal/lib\libHALD.a(LED.o)
 .text.LED_start
                0x00000000       0x1c C:/HOOPOE3/satellite-subsystems/demo/../..//hal/hal/lib\libHALD.a(LED.o)
 .text.LED_wave
                0x00000000       0xd0 C:/HOOPOE3/satellite-subsystems/demo/../..//hal/hal/lib\libHALD.a(LED.o)
 .text.LED_waveReverse
                0x00000000       0xd0 C:/HOOPOE3/satellite-subsystems/demo/../..//hal/hal/lib\libHALD.a(LED.o)
 .text          0x00000000        0x0 C:/HOOPOE3/satellite-subsystems/demo/../..//hal/hal/lib\libHALD.a(RTC.o)
 .bss           0x00000000        0x0 C:/HOOPOE3/satellite-subsystems/demo/../..//hal/hal/lib\libHALD.a(RTC.o)
 .text.uSdelay  0x00000000       0x8c C:/HOOPOE3/satellite-subsystems/demo/../..//hal/hal/lib\libHALD.a(RTC.o)
 .rodata        0x00000000       0x58 C:/HOOPOE3/satellite-subsystems/demo/../..//hal/hal/lib\libHALD.a(RTC.o)
 .text.RTC_printSeconds
                0x00000000       0x8c C:/HOOPOE3/satellite-subsystems/demo/../..//hal/hal/lib\libHALD.a(RTC.o)
 .text.RTC_stop
                0x00000000       0x14 C:/HOOPOE3/satellite-subsystems/demo/../..//hal/hal/lib\libHALD.a(RTC.o)
 .text.RTC_testGetSet
                0x00000000      0x178 C:/HOOPOE3/satellite-subsystems/demo/../..//hal/hal/lib\libHALD.a(RTC.o)
 .text.RTC_testSeconds
                0x00000000       0xb8 C:/HOOPOE3/satellite-subsystems/demo/../..//hal/hal/lib\libHALD.a(RTC.o)
 .text.RTC_getTemperature
                0x00000000      0x104 C:/HOOPOE3/satellite-subsystems/demo/../..//hal/hal/lib\libHALD.a(RTC.o)
 .text          0x00000000        0x0 C:/HOOPOE3/satellite-subsystems/demo/../..//hal/hal/lib\libHALD.a(RTT.o)
 .data          0x00000000        0x0 C:/HOOPOE3/satellite-subsystems/demo/../..//hal/hal/lib\libHALD.a(RTT.o)
 .bss           0x00000000        0x0 C:/HOOPOE3/satellite-subsystems/demo/../..//hal/hal/lib\libHALD.a(RTT.o)
 .text.uSdelay  0x00000000       0x8c C:/HOOPOE3/satellite-subsystems/demo/../..//hal/hal/lib\libHALD.a(RTT.o)
 .text.RTT_GetTime
                0x00000000       0x24 C:/HOOPOE3/satellite-subsystems/demo/../..//hal/hal/lib\libHALD.a(RTT.o)
 .text.RTT_GetStatus
                0x00000000       0x24 C:/HOOPOE3/satellite-subsystems/demo/../..//hal/hal/lib\libHALD.a(RTT.o)
 .text.RTT_test
                0x00000000       0x54 C:/HOOPOE3/satellite-subsystems/demo/../..//hal/hal/lib\libHALD.a(RTT.o)
 .text          0x00000000        0x0 C:/HOOPOE3/satellite-subsystems/demo/../..//hal/freertos/lib\libFreeRTOSD.a(queue.o)
 .data          0x00000000        0x0 C:/HOOPOE3/satellite-subsystems/demo/../..//hal/freertos/lib\libFreeRTOSD.a(queue.o)
 .bss           0x00000000        0x0 C:/HOOPOE3/satellite-subsystems/demo/../..//hal/freertos/lib\libFreeRTOSD.a(queue.o)
 .text.xQueueGiveMutexRecursive
                0x00000000       0xc0 C:/HOOPOE3/satellite-subsystems/demo/../..//hal/freertos/lib\libFreeRTOSD.a(queue.o)
 .text.xQueueTakeMutexRecursive
                0x00000000       0xd4 C:/HOOPOE3/satellite-subsystems/demo/../..//hal/freertos/lib\libFreeRTOSD.a(queue.o)
 .text.xQueueReceiveFromISR
                0x00000000      0x15c C:/HOOPOE3/satellite-subsystems/demo/../..//hal/freertos/lib\libFreeRTOSD.a(queue.o)
 .text.xQueuePeekFromISR
                0x00000000       0xf0 C:/HOOPOE3/satellite-subsystems/demo/../..//hal/freertos/lib\libFreeRTOSD.a(queue.o)
 .text.uxQueueSpacesAvailable
                0x00000000       0x80 C:/HOOPOE3/satellite-subsystems/demo/../..//hal/freertos/lib\libFreeRTOSD.a(queue.o)
 .text.uxQueueMessagesWaitingFromISR
                0x00000000       0x64 C:/HOOPOE3/satellite-subsystems/demo/../..//hal/freertos/lib\libFreeRTOSD.a(queue.o)
 .text.xQueueIsQueueEmptyFromISR
                0x00000000       0x7c C:/HOOPOE3/satellite-subsystems/demo/../..//hal/freertos/lib\libFreeRTOSD.a(queue.o)
 .text.xQueueIsQueueFullFromISR
                0x00000000       0x84 C:/HOOPOE3/satellite-subsystems/demo/../..//hal/freertos/lib\libFreeRTOSD.a(queue.o)
 .text.vQueueAddToRegistry
                0x00000000       0x90 C:/HOOPOE3/satellite-subsystems/demo/../..//hal/freertos/lib\libFreeRTOSD.a(queue.o)
 .text          0x00000000        0x0 C:/HOOPOE3/satellite-subsystems/demo/../..//hal/freertos/lib\libFreeRTOSD.a(tasks.o)
 .text.eTaskGetState
                0x00000000       0xe4 C:/HOOPOE3/satellite-subsystems/demo/../..//hal/freertos/lib\libFreeRTOSD.a(tasks.o)
 .text.uxTaskPriorityGet
                0x00000000       0x58 C:/HOOPOE3/satellite-subsystems/demo/../..//hal/freertos/lib\libFreeRTOSD.a(tasks.o)
 .text.vTaskPrioritySet
                0x00000000      0x22c C:/HOOPOE3/satellite-subsystems/demo/../..//hal/freertos/lib\libFreeRTOSD.a(tasks.o)
 .text.vTaskSuspend
                0x00000000       0xec C:/HOOPOE3/satellite-subsystems/demo/../..//hal/freertos/lib\libFreeRTOSD.a(tasks.o)
 .text.xTaskIsTaskSuspended
                0x00000000       0xd8 C:/HOOPOE3/satellite-subsystems/demo/../..//hal/freertos/lib\libFreeRTOSD.a(tasks.o)
 .text.vTaskResume
                0x00000000      0x12c C:/HOOPOE3/satellite-subsystems/demo/../..//hal/freertos/lib\libFreeRTOSD.a(tasks.o)
 .text.xTaskResumeFromISR
                0x00000000      0x150 C:/HOOPOE3/satellite-subsystems/demo/../..//hal/freertos/lib\libFreeRTOSD.a(tasks.o)
 .text.vTaskEndScheduler
                0x00000000       0x34 C:/HOOPOE3/satellite-subsystems/demo/../..//hal/freertos/lib\libFreeRTOSD.a(tasks.o)
 .text.xTaskGetTickCountFromISR
                0x00000000       0x38 C:/HOOPOE3/satellite-subsystems/demo/../..//hal/freertos/lib\libFreeRTOSD.a(tasks.o)
 .text.uxTaskGetNumberOfTasks
                0x00000000       0x24 C:/HOOPOE3/satellite-subsystems/demo/../..//hal/freertos/lib\libFreeRTOSD.a(tasks.o)
 .text.pcTaskGetTaskName
                0x00000000       0x80 C:/HOOPOE3/satellite-subsystems/demo/../..//hal/freertos/lib\libFreeRTOSD.a(tasks.o)
 .text          0x00000000        0x0 C:/HOOPOE3/satellite-subsystems/demo/../..//hal/freertos/lib\libFreeRTOSD.a(hooks.o)
 .data          0x00000000        0x0 C:/HOOPOE3/satellite-subsystems/demo/../..//hal/freertos/lib\libFreeRTOSD.a(hooks.o)
 .bss           0x00000000        0x0 C:/HOOPOE3/satellite-subsystems/demo/../..//hal/freertos/lib\libFreeRTOSD.a(hooks.o)
 .text          0x00000000        0x0 C:/HOOPOE3/satellite-subsystems/demo/../..//hal/freertos/lib\libFreeRTOSD.a(standardMemMang.o)
 .data          0x00000000        0x0 C:/HOOPOE3/satellite-subsystems/demo/../..//hal/freertos/lib\libFreeRTOSD.a(standardMemMang.o)
 .bss           0x00000000        0x0 C:/HOOPOE3/satellite-subsystems/demo/../..//hal/freertos/lib\libFreeRTOSD.a(standardMemMang.o)
 .text.vPortInitialiseBlocks
                0x00000000       0x14 C:/HOOPOE3/satellite-subsystems/demo/../..//hal/freertos/lib\libFreeRTOSD.a(standardMemMang.o)
 .text.xPortGetFreeHeapSize
                0x00000000       0x20 C:/HOOPOE3/satellite-subsystems/demo/../..//hal/freertos/lib\libFreeRTOSD.a(standardMemMang.o)
 .text          0x00000000        0x0 C:/HOOPOE3/satellite-subsystems/demo/../..//hal/freertos/lib\libFreeRTOSD.a(port.o)
 .bss           0x00000000        0x0 C:/HOOPOE3/satellite-subsystems/demo/../..//hal/freertos/lib\libFreeRTOSD.a(port.o)
 .text.vPortEndScheduler
                0x00000000       0x14 C:/HOOPOE3/satellite-subsystems/demo/../..//hal/freertos/lib\libFreeRTOSD.a(port.o)
 .text.vPortDisableInterruptsFromThumb
                0x00000000       0x18 C:/HOOPOE3/satellite-subsystems/demo/../..//hal/freertos/lib\libFreeRTOSD.a(port.o)
 .text.vPortEnableInterruptsFromThumb
                0x00000000       0x18 C:/HOOPOE3/satellite-subsystems/demo/../..//hal/freertos/lib\libFreeRTOSD.a(port.o)
 .text          0x00000000        0x0 C:/HOOPOE3/satellite-subsystems/demo/../..//hal/freertos/lib\libFreeRTOSD.a(list.o)
 .data          0x00000000        0x0 C:/HOOPOE3/satellite-subsystems/demo/../..//hal/freertos/lib\libFreeRTOSD.a(list.o)
 .bss           0x00000000        0x0 C:/HOOPOE3/satellite-subsystems/demo/../..//hal/freertos/lib\libFreeRTOSD.a(list.o)
 .text          0x00000000        0x0 C:/HOOPOE3/satellite-subsystems/demo/../..//hal/at91/lib\libAt91D.a(syscalls.o)
 .data          0x00000000        0x0 C:/HOOPOE3/satellite-subsystems/demo/../..//hal/at91/lib\libAt91D.a(syscalls.o)
 .text._open    0x00000000       0x2c C:/HOOPOE3/satellite-subsystems/demo/../..//hal/at91/lib\libAt91D.a(syscalls.o)
 .text._link    0x00000000       0x28 C:/HOOPOE3/satellite-subsystems/demo/../..//hal/at91/lib\libAt91D.a(syscalls.o)
 .text._rename  0x00000000       0x28 C:/HOOPOE3/satellite-subsystems/demo/../..//hal/at91/lib\libAt91D.a(syscalls.o)
 .text._unlink  0x00000000       0x24 C:/HOOPOE3/satellite-subsystems/demo/../..//hal/at91/lib\libAt91D.a(syscalls.o)
 .text.fsync    0x00000000       0x24 C:/HOOPOE3/satellite-subsystems/demo/../..//hal/at91/lib\libAt91D.a(syscalls.o)
 .text._stat    0x00000000       0x28 C:/HOOPOE3/satellite-subsystems/demo/../..//hal/at91/lib\libAt91D.a(syscalls.o)
 .text.exit     0x00000000       0x28 C:/HOOPOE3/satellite-subsystems/demo/../..//hal/at91/lib\libAt91D.a(syscalls.o)
 .text._exit    0x00000000       0x28 C:/HOOPOE3/satellite-subsystems/demo/../..//hal/at91/lib\libAt91D.a(syscalls.o)
 .text._kill    0x00000000       0x1c C:/HOOPOE3/satellite-subsystems/demo/../..//hal/at91/lib\libAt91D.a(syscalls.o)
 .text._getpid  0x00000000       0x1c C:/HOOPOE3/satellite-subsystems/demo/../..//hal/at91/lib\libAt91D.a(syscalls.o)
 .text._gettimeofday
                0x00000000       0x1c C:/HOOPOE3/satellite-subsystems/demo/../..//hal/at91/lib\libAt91D.a(syscalls.o)
 .text          0x00000000        0x0 C:/HOOPOE3/satellite-subsystems/demo/../..//hal/at91/lib\libAt91D.a(aic.o)
 .data          0x00000000        0x0 C:/HOOPOE3/satellite-subsystems/demo/../..//hal/at91/lib\libAt91D.a(aic.o)
 .bss           0x00000000        0x0 C:/HOOPOE3/satellite-subsystems/demo/../..//hal/at91/lib\libAt91D.a(aic.o)
 .text          0x00000000        0x0 C:/HOOPOE3/satellite-subsystems/demo/../..//hal/at91/lib\libAt91D.a(cp15.o)
 .data          0x00000000        0x0 C:/HOOPOE3/satellite-subsystems/demo/../..//hal/at91/lib\libAt91D.a(cp15.o)
 .bss           0x00000000        0x0 C:/HOOPOE3/satellite-subsystems/demo/../..//hal/at91/lib\libAt91D.a(cp15.o)
 .text.CP15_Is_I_CacheEnabled
                0x00000000       0x38 C:/HOOPOE3/satellite-subsystems/demo/../..//hal/at91/lib\libAt91D.a(cp15.o)
 .text.CP15_Is_MMUEnabled
                0x00000000       0x38 C:/HOOPOE3/satellite-subsystems/demo/../..//hal/at91/lib\libAt91D.a(cp15.o)
 .text.CP15_EnableMMU
                0x00000000       0x5c C:/HOOPOE3/satellite-subsystems/demo/../..//hal/at91/lib\libAt91D.a(cp15.o)
 .text.CP15_Is_DCacheEnabled
                0x00000000       0x38 C:/HOOPOE3/satellite-subsystems/demo/../..//hal/at91/lib\libAt91D.a(cp15.o)
 .text.CP15_Enable_D_Cache
                0x00000000       0x7c C:/HOOPOE3/satellite-subsystems/demo/../..//hal/at91/lib\libAt91D.a(cp15.o)
 .text          0x00000000        0x0 C:/HOOPOE3/satellite-subsystems/demo/../..//hal/at91/lib\libAt91D.a(dbgu.o)
 .data          0x00000000        0x0 C:/HOOPOE3/satellite-subsystems/demo/../..//hal/at91/lib\libAt91D.a(dbgu.o)
 .bss           0x00000000        0x0 C:/HOOPOE3/satellite-subsystems/demo/../..//hal/at91/lib\libAt91D.a(dbgu.o)
 .text.fputc    0x00000000       0x70 C:/HOOPOE3/satellite-subsystems/demo/../..//hal/at91/lib\libAt91D.a(dbgu.o)
 .text.fputs    0x00000000       0x80 C:/HOOPOE3/satellite-subsystems/demo/../..//hal/at91/lib\libAt91D.a(dbgu.o)
 .text.putchar  0x00000000       0x3c C:/HOOPOE3/satellite-subsystems/demo/../..//hal/at91/lib\libAt91D.a(dbgu.o)
 .text          0x00000000        0x0 C:/HOOPOE3/satellite-subsystems/demo/../..//hal/at91/lib\libAt91D.a(pio.o)
 .data          0x00000000        0x0 C:/HOOPOE3/satellite-subsystems/demo/../..//hal/at91/lib\libAt91D.a(pio.o)
 .bss           0x00000000        0x0 C:/HOOPOE3/satellite-subsystems/demo/../..//hal/at91/lib\libAt91D.a(pio.o)
 .text.PIO_GetOutputDataStatus
                0x00000000       0x60 C:/HOOPOE3/satellite-subsystems/demo/../..//hal/at91/lib\libAt91D.a(pio.o)
 .text.PIO_GetISR
                0x00000000       0x40 C:/HOOPOE3/satellite-subsystems/demo/../..//hal/at91/lib\libAt91D.a(pio.o)
 .text          0x00000000        0x0 C:/HOOPOE3/satellite-subsystems/demo/../..//hal/at91/lib\libAt91D.a(pit.o)
 .data          0x00000000        0x0 C:/HOOPOE3/satellite-subsystems/demo/../..//hal/at91/lib\libAt91D.a(pit.o)
 .bss           0x00000000        0x0 C:/HOOPOE3/satellite-subsystems/demo/../..//hal/at91/lib\libAt91D.a(pit.o)
 .text.PIT_SetPIV
                0x00000000       0x40 C:/HOOPOE3/satellite-subsystems/demo/../..//hal/at91/lib\libAt91D.a(pit.o)
 .text.PIT_DisableIT
                0x00000000       0x2c C:/HOOPOE3/satellite-subsystems/demo/../..//hal/at91/lib\libAt91D.a(pit.o)
 .text.PIT_GetMode
                0x00000000       0x24 C:/HOOPOE3/satellite-subsystems/demo/../..//hal/at91/lib\libAt91D.a(pit.o)
 .text.PIT_GetStatus
                0x00000000       0x24 C:/HOOPOE3/satellite-subsystems/demo/../..//hal/at91/lib\libAt91D.a(pit.o)
 .text.PIT_GetPIIR
                0x00000000       0x24 C:/HOOPOE3/satellite-subsystems/demo/../..//hal/at91/lib\libAt91D.a(pit.o)
 .text.PIT_GetPIVR
                0x00000000       0x24 C:/HOOPOE3/satellite-subsystems/demo/../..//hal/at91/lib\libAt91D.a(pit.o)
 .text          0x00000000        0x0 C:/HOOPOE3/satellite-subsystems/demo/../..//hal/at91/lib\libAt91D.a(pmc.o)
 .data          0x00000000        0x0 C:/HOOPOE3/satellite-subsystems/demo/../..//hal/at91/lib\libAt91D.a(pmc.o)
 .bss           0x00000000        0x0 C:/HOOPOE3/satellite-subsystems/demo/../..//hal/at91/lib\libAt91D.a(pmc.o)
 .text.PMC_DisableProcessorClock
                0x00000000       0x3c C:/HOOPOE3/satellite-subsystems/demo/../..//hal/at91/lib\libAt91D.a(pmc.o)
 .text.PMC_EnableAllPeripherals
                0x00000000       0x40 C:/HOOPOE3/satellite-subsystems/demo/../..//hal/at91/lib\libAt91D.a(pmc.o)
 .text.PMC_DisableAllPeripherals
                0x00000000       0x40 C:/HOOPOE3/satellite-subsystems/demo/../..//hal/at91/lib\libAt91D.a(pmc.o)
 .text.PMC_IsAllPeriphEnabled
                0x00000000       0x34 C:/HOOPOE3/satellite-subsystems/demo/../..//hal/at91/lib\libAt91D.a(pmc.o)
 .text.PMC_CPUInIdleMode
                0x00000000       0x14 C:/HOOPOE3/satellite-subsystems/demo/../..//hal/at91/lib\libAt91D.a(pmc.o)
 .text          0x00000000        0x0 C:/HOOPOE3/satellite-subsystems/demo/../..//hal/at91/lib\libAt91D.a(spi_at91.o)
 .data          0x00000000        0x0 C:/HOOPOE3/satellite-subsystems/demo/../..//hal/at91/lib\libAt91D.a(spi_at91.o)
 .bss           0x00000000        0x0 C:/HOOPOE3/satellite-subsystems/demo/../..//hal/at91/lib\libAt91D.a(spi_at91.o)
 .text.SPI_Write
                0x00000000       0x84 C:/HOOPOE3/satellite-subsystems/demo/../..//hal/at91/lib\libAt91D.a(spi_at91.o)
 .text.SPI_WriteBuffer
                0x00000000       0x98 C:/HOOPOE3/satellite-subsystems/demo/../..//hal/at91/lib\libAt91D.a(spi_at91.o)
 .text.SPI_IsFinished
                0x00000000       0x3c C:/HOOPOE3/satellite-subsystems/demo/../..//hal/at91/lib\libAt91D.a(spi_at91.o)
 .text.SPI_Read
                0x00000000       0x48 C:/HOOPOE3/satellite-subsystems/demo/../..//hal/at91/lib\libAt91D.a(spi_at91.o)
 .text.SPI_ReadBuffer
                0x00000000       0x98 C:/HOOPOE3/satellite-subsystems/demo/../..//hal/at91/lib\libAt91D.a(spi_at91.o)
 .text          0x00000000        0x0 C:/HOOPOE3/satellite-subsystems/demo/../..//hal/at91/lib\libAt91D.a(twi_at91.o)
 .data          0x00000000        0x0 C:/HOOPOE3/satellite-subsystems/demo/../..//hal/at91/lib\libAt91D.a(twi_at91.o)
 .bss           0x00000000        0x0 C:/HOOPOE3/satellite-subsystems/demo/../..//hal/at91/lib\libAt91D.a(twi_at91.o)
 .text.TWI_ConfigureSlave
                0x00000000       0xe0 C:/HOOPOE3/satellite-subsystems/demo/../..//hal/at91/lib\libAt91D.a(twi_at91.o)
 .text.TWI_Stop
                0x00000000       0x58 C:/HOOPOE3/satellite-subsystems/demo/../..//hal/at91/lib\libAt91D.a(twi_at91.o)
 .text.TWI_StartRead
                0x00000000      0x134 C:/HOOPOE3/satellite-subsystems/demo/../..//hal/at91/lib\libAt91D.a(twi_at91.o)
 .text.TWI_ReadByte
                0x00000000       0x5c C:/HOOPOE3/satellite-subsystems/demo/../..//hal/at91/lib\libAt91D.a(twi_at91.o)
 .text.TWI_WriteByte
                0x00000000       0x64 C:/HOOPOE3/satellite-subsystems/demo/../..//hal/at91/lib\libAt91D.a(twi_at91.o)
 .text.TWI_StartWrite
                0x00000000      0x140 C:/HOOPOE3/satellite-subsystems/demo/../..//hal/at91/lib\libAt91D.a(twi_at91.o)
 .text.TWI_ByteReceived
                0x00000000       0x3c C:/HOOPOE3/satellite-subsystems/demo/../..//hal/at91/lib\libAt91D.a(twi_at91.o)
 .text.TWI_ByteSent
                0x00000000       0x3c C:/HOOPOE3/satellite-subsystems/demo/../..//hal/at91/lib\libAt91D.a(twi_at91.o)
 .text.TWI_TransferComplete
                0x00000000       0x3c C:/HOOPOE3/satellite-subsystems/demo/../..//hal/at91/lib\libAt91D.a(twi_at91.o)
 .text.TWI_EnableIt
                0x00000000       0x90 C:/HOOPOE3/satellite-subsystems/demo/../..//hal/at91/lib\libAt91D.a(twi_at91.o)
 .text.TWI_DisableIt
                0x00000000       0x94 C:/HOOPOE3/satellite-subsystems/demo/../..//hal/at91/lib\libAt91D.a(twi_at91.o)
 .text.TWI_GetStatus
                0x00000000       0x5c C:/HOOPOE3/satellite-subsystems/demo/../..//hal/at91/lib\libAt91D.a(twi_at91.o)
 .text.TWI_SendSTOPCondition
                0x00000000       0x64 C:/HOOPOE3/satellite-subsystems/demo/../..//hal/at91/lib\libAt91D.a(twi_at91.o)
 .text          0x00000000        0x0 C:/HOOPOE3/satellite-subsystems/demo/../..//hal/at91/lib\libAt91D.a(ExitHandler.o)
 .data          0x00000000        0x0 C:/HOOPOE3/satellite-subsystems/demo/../..//hal/at91/lib\libAt91D.a(ExitHandler.o)
 .bss           0x00000000        0x0 C:/HOOPOE3/satellite-subsystems/demo/../..//hal/at91/lib\libAt91D.a(ExitHandler.o)
 .text          0x00000000        0x0 C:/HOOPOE3/satellite-subsystems/demo/../..//hal/at91/lib\libAt91D.a(board_cstartup.o)
 .data          0x00000000        0x0 C:/HOOPOE3/satellite-subsystems/demo/../..//hal/at91/lib\libAt91D.a(board_cstartup.o)
 .bss           0x00000000        0x0 C:/HOOPOE3/satellite-subsystems/demo/../..//hal/at91/lib\libAt91D.a(board_cstartup.o)
 .data          0x00000000        0x0 C:/HOOPOE3/satellite-subsystems/demo/../..//hal/at91/lib\libAt91D.a(cp15_asm.o)
 .bss           0x00000000        0x0 C:/HOOPOE3/satellite-subsystems/demo/../..//hal/at91/lib\libAt91D.a(cp15_asm.o)
 .text          0x00000000        0x0 C:/HOOPOE3/satellite-subsystems/demo/../..//hal/at91/lib\libAt91D.a(board_lowlevel.o)
 .data          0x00000000        0x0 C:/HOOPOE3/satellite-subsystems/demo/../..//hal/at91/lib\libAt91D.a(board_lowlevel.o)
 .bss           0x00000000        0x0 C:/HOOPOE3/satellite-subsystems/demo/../..//hal/at91/lib\libAt91D.a(board_lowlevel.o)
 .text.assignBusMatrixPriorities
                0x00000000       0x54 C:/HOOPOE3/satellite-subsystems/demo/../..//hal/at91/lib\libAt91D.a(board_lowlevel.o)
 .text          0x00000000        0x0 C:/HOOPOE3/satellite-subsystems/demo/../..//hal/at91/lib\libAt91D.a(board_memories.o)
 .data          0x00000000        0x0 C:/HOOPOE3/satellite-subsystems/demo/../..//hal/at91/lib\libAt91D.a(board_memories.o)
 .bss           0x00000000        0x0 C:/HOOPOE3/satellite-subsystems/demo/../..//hal/at91/lib\libAt91D.a(board_memories.o)
 .text.BOARD_RemapRom
                0x00000000       0x24 C:/HOOPOE3/satellite-subsystems/demo/../..//hal/at91/lib\libAt91D.a(board_memories.o)
 .text.BOARD_ConfigureSdram
                0x00000000      0x24c C:/HOOPOE3/satellite-subsystems/demo/../..//hal/at91/lib\libAt91D.a(board_memories.o)
 .text.BOARD_ConfigureNorFlash
                0x00000000       0xc4 C:/HOOPOE3/satellite-subsystems/demo/../..//hal/at91/lib\libAt91D.a(board_memories.o)
 .rodata        0x00000000        0xc C:/HOOPOE3/satellite-subsystems/demo/../..//hal/at91/lib\libAt91D.a(board_memories.o)
 .data          0x00000000        0x0 c:/isis/application/toolchain/bin/../lib/gcc/arm-none-eabi/4.7.4\libgcc.a(_udivsi3.o)
 .bss           0x00000000        0x0 c:/isis/application/toolchain/bin/../lib/gcc/arm-none-eabi/4.7.4\libgcc.a(_udivsi3.o)
 .data          0x00000000        0x0 c:/isis/application/toolchain/bin/../lib/gcc/arm-none-eabi/4.7.4\libgcc.a(_divsi3.o)
 .bss           0x00000000        0x0 c:/isis/application/toolchain/bin/../lib/gcc/arm-none-eabi/4.7.4\libgcc.a(_divsi3.o)
 .data          0x00000000        0x0 c:/isis/application/toolchain/bin/../lib/gcc/arm-none-eabi/4.7.4\libgcc.a(_dvmd_tls.o)
 .bss           0x00000000        0x0 c:/isis/application/toolchain/bin/../lib/gcc/arm-none-eabi/4.7.4\libgcc.a(_dvmd_tls.o)
 .data          0x00000000        0x0 c:/isis/application/toolchain/bin/../lib/gcc/arm-none-eabi/4.7.4\libgcc.a(_arm_addsubdf3.o)
 .bss           0x00000000        0x0 c:/isis/application/toolchain/bin/../lib/gcc/arm-none-eabi/4.7.4\libgcc.a(_arm_addsubdf3.o)
 .data          0x00000000        0x0 c:/isis/application/toolchain/bin/../lib/gcc/arm-none-eabi/4.7.4\libgcc.a(_arm_muldivdf3.o)
 .bss           0x00000000        0x0 c:/isis/application/toolchain/bin/../lib/gcc/arm-none-eabi/4.7.4\libgcc.a(_arm_muldivdf3.o)
 .data          0x00000000        0x0 c:/isis/application/toolchain/bin/../lib/gcc/arm-none-eabi/4.7.4\libgcc.a(_arm_cmpdf2.o)
 .bss           0x00000000        0x0 c:/isis/application/toolchain/bin/../lib/gcc/arm-none-eabi/4.7.4\libgcc.a(_arm_cmpdf2.o)
 .data          0x00000000        0x0 c:/isis/application/toolchain/bin/../lib/gcc/arm-none-eabi/4.7.4\libgcc.a(_arm_fixdfsi.o)
 .bss           0x00000000        0x0 c:/isis/application/toolchain/bin/../lib/gcc/arm-none-eabi/4.7.4\libgcc.a(_arm_fixdfsi.o)
 .data          0x00000000        0x0 c:/isis/application/toolchain/bin/../lib/gcc/arm-none-eabi/4.7.4\libgcc.a(_arm_fixunsdfsi.o)
 .bss           0x00000000        0x0 c:/isis/application/toolchain/bin/../lib/gcc/arm-none-eabi/4.7.4\libgcc.a(_arm_fixunsdfsi.o)
 .data          0x00000000        0x0 c:/isis/application/toolchain/bin/../lib/gcc/arm-none-eabi/4.7.4\libgcc.a(_arm_truncdfsf2.o)
 .bss           0x00000000        0x0 c:/isis/application/toolchain/bin/../lib/gcc/arm-none-eabi/4.7.4\libgcc.a(_arm_truncdfsf2.o)
 .data          0x00000000        0x0 c:/isis/application/toolchain/bin/../lib/gcc/arm-none-eabi/4.7.4\libgcc.a(_arm_addsubsf3.o)
 .bss           0x00000000        0x0 c:/isis/application/toolchain/bin/../lib/gcc/arm-none-eabi/4.7.4\libgcc.a(_arm_addsubsf3.o)
 .data          0x00000000        0x0 c:/isis/application/toolchain/bin/../lib/gcc/arm-none-eabi/4.7.4\libgcc.a(_arm_muldivsf3.o)
 .bss           0x00000000        0x0 c:/isis/application/toolchain/bin/../lib/gcc/arm-none-eabi/4.7.4\libgcc.a(_arm_muldivsf3.o)
 .data          0x00000000        0x0 c:/isis/application/toolchain/bin/../lib/gcc/arm-none-eabi/4.7.4\libgcc.a(_arm_cmpsf2.o)
 .bss           0x00000000        0x0 c:/isis/application/toolchain/bin/../lib/gcc/arm-none-eabi/4.7.4\libgcc.a(_arm_cmpsf2.o)
 .text          0x00000000       0x5c c:/isis/application/toolchain/bin/../lib/gcc/arm-none-eabi/4.7.4\libgcc.a(_arm_fixsfsi.o)
 .data          0x00000000        0x0 c:/isis/application/toolchain/bin/../lib/gcc/arm-none-eabi/4.7.4\libgcc.a(_arm_fixsfsi.o)
 .bss           0x00000000        0x0 c:/isis/application/toolchain/bin/../lib/gcc/arm-none-eabi/4.7.4\libgcc.a(_arm_fixsfsi.o)
 .ARM.attributes
                0x00000000       0x18 c:/isis/application/toolchain/bin/../lib/gcc/arm-none-eabi/4.7.4\libgcc.a(_arm_fixsfsi.o)
 .data          0x00000000        0x0 c:/isis/application/toolchain/bin/../lib/gcc/arm-none-eabi/4.7.4\libgcc.a(_arm_fixunssfsi.o)
 .bss           0x00000000        0x0 c:/isis/application/toolchain/bin/../lib/gcc/arm-none-eabi/4.7.4\libgcc.a(_arm_fixunssfsi.o)
 .text          0x00000000        0x0 c:/isis/application/toolchain/bin/../lib/gcc/arm-none-eabi/4.7.4/../../../../arm-none-eabi/lib\libc_s.a(lib_a-errno.o)
 .data          0x00000000        0x0 c:/isis/application/toolchain/bin/../lib/gcc/arm-none-eabi/4.7.4/../../../../arm-none-eabi/lib\libc_s.a(lib_a-errno.o)
 .bss           0x00000000        0x0 c:/isis/application/toolchain/bin/../lib/gcc/arm-none-eabi/4.7.4/../../../../arm-none-eabi/lib\libc_s.a(lib_a-errno.o)
 .text          0x00000000        0x0 c:/isis/application/toolchain/bin/../lib/gcc/arm-none-eabi/4.7.4/../../../../arm-none-eabi/lib\libc_s.a(lib_a-memcmp.o)
 .data          0x00000000        0x0 c:/isis/application/toolchain/bin/../lib/gcc/arm-none-eabi/4.7.4/../../../../arm-none-eabi/lib\libc_s.a(lib_a-memcmp.o)
 .bss           0x00000000        0x0 c:/isis/application/toolchain/bin/../lib/gcc/arm-none-eabi/4.7.4/../../../../arm-none-eabi/lib\libc_s.a(lib_a-memcmp.o)
 .text          0x00000000        0x0 c:/isis/application/toolchain/bin/../lib/gcc/arm-none-eabi/4.7.4/../../../../arm-none-eabi/lib\libc_s.a(lib_a-printf.o)
 .data          0x00000000        0x0 c:/isis/application/toolchain/bin/../lib/gcc/arm-none-eabi/4.7.4/../../../../arm-none-eabi/lib\libc_s.a(lib_a-printf.o)
 .bss           0x00000000        0x0 c:/isis/application/toolchain/bin/../lib/gcc/arm-none-eabi/4.7.4/../../../../arm-none-eabi/lib\libc_s.a(lib_a-printf.o)
 .text._printf_r
                0x00000000       0x40 c:/isis/application/toolchain/bin/../lib/gcc/arm-none-eabi/4.7.4/../../../../arm-none-eabi/lib\libc_s.a(lib_a-printf.o)
 .text          0x00000000        0x0 c:/isis/application/toolchain/bin/../lib/gcc/arm-none-eabi/4.7.4/../../../../arm-none-eabi/lib\libc_s.a(lib_a-puts.o)
 .data          0x00000000        0x0 c:/isis/application/toolchain/bin/../lib/gcc/arm-none-eabi/4.7.4/../../../../arm-none-eabi/lib\libc_s.a(lib_a-puts.o)
 .bss           0x00000000        0x0 c:/isis/application/toolchain/bin/../lib/gcc/arm-none-eabi/4.7.4/../../../../arm-none-eabi/lib\libc_s.a(lib_a-puts.o)
 .text._puts_r  0x00000000       0x58 c:/isis/application/toolchain/bin/../lib/gcc/arm-none-eabi/4.7.4/../../../../arm-none-eabi/lib\libc_s.a(lib_a-puts.o)
 .text          0x00000000        0x0 c:/isis/application/toolchain/bin/../lib/gcc/arm-none-eabi/4.7.4/../../../../arm-none-eabi/lib\libc_s.a(lib_a-strcpy.o)
 .data          0x00000000        0x0 c:/isis/application/toolchain/bin/../lib/gcc/arm-none-eabi/4.7.4/../../../../arm-none-eabi/lib\libc_s.a(lib_a-strcpy.o)
 .bss           0x00000000        0x0 c:/isis/application/toolchain/bin/../lib/gcc/arm-none-eabi/4.7.4/../../../../arm-none-eabi/lib\libc_s.a(lib_a-strcpy.o)
 .text          0x00000000        0x0 c:/isis/application/toolchain/bin/../lib/gcc/arm-none-eabi/4.7.4/../../../../arm-none-eabi/lib\libc_s.a(lib_a-vfprintf.o)
 .data          0x00000000        0x0 c:/isis/application/toolchain/bin/../lib/gcc/arm-none-eabi/4.7.4/../../../../arm-none-eabi/lib\libc_s.a(lib_a-vfprintf.o)
 .bss           0x00000000        0x0 c:/isis/application/toolchain/bin/../lib/gcc/arm-none-eabi/4.7.4/../../../../arm-none-eabi/lib\libc_s.a(lib_a-vfprintf.o)
 .text.__sprint_r
                0x00000000       0xb0 c:/isis/application/toolchain/bin/../lib/gcc/arm-none-eabi/4.7.4/../../../../arm-none-eabi/lib\libc_s.a(lib_a-vfprintf.o)
 .text.vfprintf
                0x00000000       0x2c c:/isis/application/toolchain/bin/../lib/gcc/arm-none-eabi/4.7.4/../../../../arm-none-eabi/lib\libc_s.a(lib_a-vfprintf.o)
 .text          0x00000000        0x0 c:/isis/application/toolchain/bin/../lib/gcc/arm-none-eabi/4.7.4/../../../../arm-none-eabi/lib\libc_s.a(lib_a-wbuf.o)
 .data          0x00000000        0x0 c:/isis/application/toolchain/bin/../lib/gcc/arm-none-eabi/4.7.4/../../../../arm-none-eabi/lib\libc_s.a(lib_a-wbuf.o)
 .bss           0x00000000        0x0 c:/isis/application/toolchain/bin/../lib/gcc/arm-none-eabi/4.7.4/../../../../arm-none-eabi/lib\libc_s.a(lib_a-wbuf.o)
 .text.__swbuf  0x00000000       0x1c c:/isis/application/toolchain/bin/../lib/gcc/arm-none-eabi/4.7.4/../../../../arm-none-eabi/lib\libc_s.a(lib_a-wbuf.o)
 .text          0x00000000        0x0 c:/isis/application/toolchain/bin/../lib/gcc/arm-none-eabi/4.7.4/../../../../arm-none-eabi/lib\libc_s.a(lib_a-wsetup.o)
 .data          0x00000000        0x0 c:/isis/application/toolchain/bin/../lib/gcc/arm-none-eabi/4.7.4/../../../../arm-none-eabi/lib\libc_s.a(lib_a-wsetup.o)
 .bss           0x00000000        0x0 c:/isis/application/toolchain/bin/../lib/gcc/arm-none-eabi/4.7.4/../../../../arm-none-eabi/lib\libc_s.a(lib_a-wsetup.o)
 .text          0x00000000        0x0 c:/isis/application/toolchain/bin/../lib/gcc/arm-none-eabi/4.7.4/../../../../arm-none-eabi/lib\libc_s.a(lib_a-fflush.o)
 .data          0x00000000        0x0 c:/isis/application/toolchain/bin/../lib/gcc/arm-none-eabi/4.7.4/../../../../arm-none-eabi/lib\libc_s.a(lib_a-fflush.o)
 .bss           0x00000000        0x0 c:/isis/application/toolchain/bin/../lib/gcc/arm-none-eabi/4.7.4/../../../../arm-none-eabi/lib\libc_s.a(lib_a-fflush.o)
 .text.fflush   0x00000000       0x40 c:/isis/application/toolchain/bin/../lib/gcc/arm-none-eabi/4.7.4/../../../../arm-none-eabi/lib\libc_s.a(lib_a-fflush.o)
 .text          0x00000000        0x0 c:/isis/application/toolchain/bin/../lib/gcc/arm-none-eabi/4.7.4/../../../../arm-none-eabi/lib\libc_s.a(lib_a-findfp.o)
 .data          0x00000000        0x0 c:/isis/application/toolchain/bin/../lib/gcc/arm-none-eabi/4.7.4/../../../../arm-none-eabi/lib\libc_s.a(lib_a-findfp.o)
 .bss           0x00000000        0x0 c:/isis/application/toolchain/bin/../lib/gcc/arm-none-eabi/4.7.4/../../../../arm-none-eabi/lib\libc_s.a(lib_a-findfp.o)
 .text.__fp_lock
                0x00000000        0x8 c:/isis/application/toolchain/bin/../lib/gcc/arm-none-eabi/4.7.4/../../../../arm-none-eabi/lib\libc_s.a(lib_a-findfp.o)
 .text.__fp_unlock
                0x00000000        0x8 c:/isis/application/toolchain/bin/../lib/gcc/arm-none-eabi/4.7.4/../../../../arm-none-eabi/lib\libc_s.a(lib_a-findfp.o)
 .text._cleanup
                0x00000000       0x10 c:/isis/application/toolchain/bin/../lib/gcc/arm-none-eabi/4.7.4/../../../../arm-none-eabi/lib\libc_s.a(lib_a-findfp.o)
 .text.__sfp_lock_acquire
                0x00000000        0x4 c:/isis/application/toolchain/bin/../lib/gcc/arm-none-eabi/4.7.4/../../../../arm-none-eabi/lib\libc_s.a(lib_a-findfp.o)
 .text.__sfp_lock_release
                0x00000000        0x4 c:/isis/application/toolchain/bin/../lib/gcc/arm-none-eabi/4.7.4/../../../../arm-none-eabi/lib\libc_s.a(lib_a-findfp.o)
 .text.__sinit_lock_acquire
                0x00000000        0x4 c:/isis/application/toolchain/bin/../lib/gcc/arm-none-eabi/4.7.4/../../../../arm-none-eabi/lib\libc_s.a(lib_a-findfp.o)
 .text.__sinit_lock_release
                0x00000000        0x4 c:/isis/application/toolchain/bin/../lib/gcc/arm-none-eabi/4.7.4/../../../../arm-none-eabi/lib\libc_s.a(lib_a-findfp.o)
 .text.__fp_lock_all
                0x00000000       0x24 c:/isis/application/toolchain/bin/../lib/gcc/arm-none-eabi/4.7.4/../../../../arm-none-eabi/lib\libc_s.a(lib_a-findfp.o)
 .text.__fp_unlock_all
                0x00000000       0x24 c:/isis/application/toolchain/bin/../lib/gcc/arm-none-eabi/4.7.4/../../../../arm-none-eabi/lib\libc_s.a(lib_a-findfp.o)
 .text          0x00000000        0x0 c:/isis/application/toolchain/bin/../lib/gcc/arm-none-eabi/4.7.4/../../../../arm-none-eabi/lib\libc_s.a(lib_a-fputwc.o)
 .data          0x00000000        0x0 c:/isis/application/toolchain/bin/../lib/gcc/arm-none-eabi/4.7.4/../../../../arm-none-eabi/lib\libc_s.a(lib_a-fputwc.o)
 .bss           0x00000000        0x0 c:/isis/application/toolchain/bin/../lib/gcc/arm-none-eabi/4.7.4/../../../../arm-none-eabi/lib\libc_s.a(lib_a-fputwc.o)
 .text._fputwc_r
                0x00000000      0x138 c:/isis/application/toolchain/bin/../lib/gcc/arm-none-eabi/4.7.4/../../../../arm-none-eabi/lib\libc_s.a(lib_a-fputwc.o)
 .text.fputwc   0x00000000       0x84 c:/isis/application/toolchain/bin/../lib/gcc/arm-none-eabi/4.7.4/../../../../arm-none-eabi/lib\libc_s.a(lib_a-fputwc.o)
 .ARM.attributes
                0x00000000       0x30 c:/isis/application/toolchain/bin/../lib/gcc/arm-none-eabi/4.7.4/../../../../arm-none-eabi/lib\libc_s.a(lib_a-fputwc.o)
 .debug_frame   0x00000000       0x50 c:/isis/application/toolchain/bin/../lib/gcc/arm-none-eabi/4.7.4/../../../../arm-none-eabi/lib\libc_s.a(lib_a-fputwc.o)
 .text          0x00000000        0x0 c:/isis/application/toolchain/bin/../lib/gcc/arm-none-eabi/4.7.4/../../../../arm-none-eabi/lib\libc_s.a(lib_a-fvwrite.o)
 .data          0x00000000        0x0 c:/isis/application/toolchain/bin/../lib/gcc/arm-none-eabi/4.7.4/../../../../arm-none-eabi/lib\libc_s.a(lib_a-fvwrite.o)
 .bss           0x00000000        0x0 c:/isis/application/toolchain/bin/../lib/gcc/arm-none-eabi/4.7.4/../../../../arm-none-eabi/lib\libc_s.a(lib_a-fvwrite.o)
 .text.__sfvwrite_r
                0x00000000      0x460 c:/isis/application/toolchain/bin/../lib/gcc/arm-none-eabi/4.7.4/../../../../arm-none-eabi/lib\libc_s.a(lib_a-fvwrite.o)
 .ARM.attributes
                0x00000000       0x30 c:/isis/application/toolchain/bin/../lib/gcc/arm-none-eabi/4.7.4/../../../../arm-none-eabi/lib\libc_s.a(lib_a-fvwrite.o)
 .debug_frame   0x00000000       0x38 c:/isis/application/toolchain/bin/../lib/gcc/arm-none-eabi/4.7.4/../../../../arm-none-eabi/lib\libc_s.a(lib_a-fvwrite.o)
 .text          0x00000000        0x0 c:/isis/application/toolchain/bin/../lib/gcc/arm-none-eabi/4.7.4/../../../../arm-none-eabi/lib\libc_s.a(lib_a-fwalk.o)
 .data          0x00000000        0x0 c:/isis/application/toolchain/bin/../lib/gcc/arm-none-eabi/4.7.4/../../../../arm-none-eabi/lib\libc_s.a(lib_a-fwalk.o)
 .bss           0x00000000        0x0 c:/isis/application/toolchain/bin/../lib/gcc/arm-none-eabi/4.7.4/../../../../arm-none-eabi/lib\libc_s.a(lib_a-fwalk.o)
 .text._fwalk   0x00000000       0x78 c:/isis/application/toolchain/bin/../lib/gcc/arm-none-eabi/4.7.4/../../../../arm-none-eabi/lib\libc_s.a(lib_a-fwalk.o)
 .text._fwalk_reent
                0x00000000       0x7c c:/isis/application/toolchain/bin/../lib/gcc/arm-none-eabi/4.7.4/../../../../arm-none-eabi/lib\libc_s.a(lib_a-fwalk.o)
 .ARM.attributes
                0x00000000       0x30 c:/isis/application/toolchain/bin/../lib/gcc/arm-none-eabi/4.7.4/../../../../arm-none-eabi/lib\libc_s.a(lib_a-fwalk.o)
 .debug_frame   0x00000000       0x54 c:/isis/application/toolchain/bin/../lib/gcc/arm-none-eabi/4.7.4/../../../../arm-none-eabi/lib\libc_s.a(lib_a-fwalk.o)
 .text          0x00000000        0x0 c:/isis/application/toolchain/bin/../lib/gcc/arm-none-eabi/4.7.4/../../../../arm-none-eabi/lib\libc_s.a(lib_a-makebuf.o)
 .data          0x00000000        0x0 c:/isis/application/toolchain/bin/../lib/gcc/arm-none-eabi/4.7.4/../../../../arm-none-eabi/lib\libc_s.a(lib_a-makebuf.o)
 .bss           0x00000000        0x0 c:/isis/application/toolchain/bin/../lib/gcc/arm-none-eabi/4.7.4/../../../../arm-none-eabi/lib\libc_s.a(lib_a-makebuf.o)
 .text          0x00000000        0x0 c:/isis/application/toolchain/bin/../lib/gcc/arm-none-eabi/4.7.4/../../../../arm-none-eabi/lib\libc_s.a(lib_a-putc.o)
 .data          0x00000000        0x0 c:/isis/application/toolchain/bin/../lib/gcc/arm-none-eabi/4.7.4/../../../../arm-none-eabi/lib\libc_s.a(lib_a-putc.o)
 .bss           0x00000000        0x0 c:/isis/application/toolchain/bin/../lib/gcc/arm-none-eabi/4.7.4/../../../../arm-none-eabi/lib\libc_s.a(lib_a-putc.o)
 .text.putc     0x00000000       0x1c c:/isis/application/toolchain/bin/../lib/gcc/arm-none-eabi/4.7.4/../../../../arm-none-eabi/lib\libc_s.a(lib_a-putc.o)
 .text          0x00000000        0x0 c:/isis/application/toolchain/bin/../lib/gcc/arm-none-eabi/4.7.4/../../../../arm-none-eabi/lib\libc_s.a(lib_a-stdio.o)
 .data          0x00000000        0x0 c:/isis/application/toolchain/bin/../lib/gcc/arm-none-eabi/4.7.4/../../../../arm-none-eabi/lib\libc_s.a(lib_a-stdio.o)
 .bss           0x00000000        0x0 c:/isis/application/toolchain/bin/../lib/gcc/arm-none-eabi/4.7.4/../../../../arm-none-eabi/lib\libc_s.a(lib_a-stdio.o)
 .text.__seofread
                0x00000000        0x8 c:/isis/application/toolchain/bin/../lib/gcc/arm-none-eabi/4.7.4/../../../../arm-none-eabi/lib\libc_s.a(lib_a-stdio.o)
 .text          0x00000000        0x0 c:/isis/application/toolchain/bin/../lib/gcc/arm-none-eabi/4.7.4/../../../../arm-none-eabi/lib\libc_s.a(lib_a-wcrtomb.o)
 .data          0x00000000        0x0 c:/isis/application/toolchain/bin/../lib/gcc/arm-none-eabi/4.7.4/../../../../arm-none-eabi/lib\libc_s.a(lib_a-wcrtomb.o)
 .bss           0x00000000        0x0 c:/isis/application/toolchain/bin/../lib/gcc/arm-none-eabi/4.7.4/../../../../arm-none-eabi/lib\libc_s.a(lib_a-wcrtomb.o)
 .text._wcrtomb_r
                0x00000000       0x84 c:/isis/application/toolchain/bin/../lib/gcc/arm-none-eabi/4.7.4/../../../../arm-none-eabi/lib\libc_s.a(lib_a-wcrtomb.o)
 .text.wcrtomb  0x00000000       0x2c c:/isis/application/toolchain/bin/../lib/gcc/arm-none-eabi/4.7.4/../../../../arm-none-eabi/lib\libc_s.a(lib_a-wcrtomb.o)
 .ARM.attributes
                0x00000000       0x30 c:/isis/application/toolchain/bin/../lib/gcc/arm-none-eabi/4.7.4/../../../../arm-none-eabi/lib\libc_s.a(lib_a-wcrtomb.o)
 .debug_frame   0x00000000       0x4c c:/isis/application/toolchain/bin/../lib/gcc/arm-none-eabi/4.7.4/../../../../arm-none-eabi/lib\libc_s.a(lib_a-wcrtomb.o)
 .text          0x00000000        0x0 c:/isis/application/toolchain/bin/../lib/gcc/arm-none-eabi/4.7.4/../../../../arm-none-eabi/lib\libc_s.a(lib_a-wctomb_r.o)
 .data          0x00000000        0x0 c:/isis/application/toolchain/bin/../lib/gcc/arm-none-eabi/4.7.4/../../../../arm-none-eabi/lib\libc_s.a(lib_a-wctomb_r.o)
 .bss           0x00000000        0x0 c:/isis/application/toolchain/bin/../lib/gcc/arm-none-eabi/4.7.4/../../../../arm-none-eabi/lib\libc_s.a(lib_a-wctomb_r.o)
 .text.__ascii_wctomb
                0x00000000       0x2c c:/isis/application/toolchain/bin/../lib/gcc/arm-none-eabi/4.7.4/../../../../arm-none-eabi/lib\libc_s.a(lib_a-wctomb_r.o)
 .text._wctomb_r
                0x00000000       0x48 c:/isis/application/toolchain/bin/../lib/gcc/arm-none-eabi/4.7.4/../../../../arm-none-eabi/lib\libc_s.a(lib_a-wctomb_r.o)
 .data.__wctomb
                0x00000000        0x4 c:/isis/application/toolchain/bin/../lib/gcc/arm-none-eabi/4.7.4/../../../../arm-none-eabi/lib\libc_s.a(lib_a-wctomb_r.o)
 .ARM.attributes
                0x00000000       0x30 c:/isis/application/toolchain/bin/../lib/gcc/arm-none-eabi/4.7.4/../../../../arm-none-eabi/lib\libc_s.a(lib_a-wctomb_r.o)
 .debug_frame   0x00000000       0x44 c:/isis/application/toolchain/bin/../lib/gcc/arm-none-eabi/4.7.4/../../../../arm-none-eabi/lib\libc_s.a(lib_a-wctomb_r.o)
 .text          0x00000000        0x0 c:/isis/application/toolchain/bin/../lib/gcc/arm-none-eabi/4.7.4/../../../../arm-none-eabi/lib\libc_s.a(lib_a-writer.o)
 .data          0x00000000        0x0 c:/isis/application/toolchain/bin/../lib/gcc/arm-none-eabi/4.7.4/../../../../arm-none-eabi/lib\libc_s.a(lib_a-writer.o)
 .bss           0x00000000        0x0 c:/isis/application/toolchain/bin/../lib/gcc/arm-none-eabi/4.7.4/../../../../arm-none-eabi/lib\libc_s.a(lib_a-writer.o)
 .text          0x00000000        0x0 c:/isis/application/toolchain/bin/../lib/gcc/arm-none-eabi/4.7.4/../../../../arm-none-eabi/lib\libc_s.a(lib_a-closer.o)
 .data          0x00000000        0x0 c:/isis/application/toolchain/bin/../lib/gcc/arm-none-eabi/4.7.4/../../../../arm-none-eabi/lib\libc_s.a(lib_a-closer.o)
 .bss           0x00000000        0x0 c:/isis/application/toolchain/bin/../lib/gcc/arm-none-eabi/4.7.4/../../../../arm-none-eabi/lib\libc_s.a(lib_a-closer.o)
 .text          0x00000000        0x0 c:/isis/application/toolchain/bin/../lib/gcc/arm-none-eabi/4.7.4/../../../../arm-none-eabi/lib\libc_s.a(lib_a-fstatr.o)
 .data          0x00000000        0x0 c:/isis/application/toolchain/bin/../lib/gcc/arm-none-eabi/4.7.4/../../../../arm-none-eabi/lib\libc_s.a(lib_a-fstatr.o)
 .bss           0x00000000        0x0 c:/isis/application/toolchain/bin/../lib/gcc/arm-none-eabi/4.7.4/../../../../arm-none-eabi/lib\libc_s.a(lib_a-fstatr.o)
 .text          0x00000000        0x0 c:/isis/application/toolchain/bin/../lib/gcc/arm-none-eabi/4.7.4/../../../../arm-none-eabi/lib\libc_s.a(lib_a-isattyr.o)
 .data          0x00000000        0x0 c:/isis/application/toolchain/bin/../lib/gcc/arm-none-eabi/4.7.4/../../../../arm-none-eabi/lib\libc_s.a(lib_a-isattyr.o)
 .bss           0x00000000        0x0 c:/isis/application/toolchain/bin/../lib/gcc/arm-none-eabi/4.7.4/../../../../arm-none-eabi/lib\libc_s.a(lib_a-isattyr.o)
 .text          0x00000000        0x0 c:/isis/application/toolchain/bin/../lib/gcc/arm-none-eabi/4.7.4/../../../../arm-none-eabi/lib\libc_s.a(lib_a-lseekr.o)
 .data          0x00000000        0x0 c:/isis/application/toolchain/bin/../lib/gcc/arm-none-eabi/4.7.4/../../../../arm-none-eabi/lib\libc_s.a(lib_a-lseekr.o)
 .bss           0x00000000        0x0 c:/isis/application/toolchain/bin/../lib/gcc/arm-none-eabi/4.7.4/../../../../arm-none-eabi/lib\libc_s.a(lib_a-lseekr.o)
 .text          0x00000000        0x0 c:/isis/application/toolchain/bin/../lib/gcc/arm-none-eabi/4.7.4/../../../../arm-none-eabi/lib\libc_s.a(lib_a-readr.o)
 .data          0x00000000        0x0 c:/isis/application/toolchain/bin/../lib/gcc/arm-none-eabi/4.7.4/../../../../arm-none-eabi/lib\libc_s.a(lib_a-readr.o)
 .bss           0x00000000        0x0 c:/isis/application/toolchain/bin/../lib/gcc/arm-none-eabi/4.7.4/../../../../arm-none-eabi/lib\libc_s.a(lib_a-readr.o)

Memory Configuration

Name             Origin             Length             Attributes
sram0            0x00200000         0x00004000         w !xr
sram1            0x00300000         0x00004000         w !xr
sdram            0x20000000         0x02000000         w !xr
*default*        0x00000000         0xffffffff

Linker script and memory map

LOAD c:/isis/application/toolchain/bin/../lib/gcc/arm-none-eabi/4.7.4/../../../../arm-none-eabi/lib\libc_s.a
LOAD ./src/sub-systemCode/Main/CMD/COMM_CMD.o
LOAD ./src/sub-systemCode/Main/CMD/EPS_CMD.o
LOAD ./src/sub-systemCode/Main/CMD/General_CMD.o
LOAD ./src/sub-systemCode/Main/CMD/SW_CMD.o
LOAD ./src/sub-systemCode/Main/CMD/payload_CMD.o
LOAD ./src/sub-systemCode/Main/Ants.o
LOAD ./src/sub-systemCode/Main/EPS.o
LOAD ./src/sub-systemCode/Main/HouseKeeping.o
LOAD ./src/sub-systemCode/Main/Main_Init.o
LOAD ./src/sub-systemCode/Main/commands.o
LOAD ./src/sub-systemCode/Global/Global.o
LOAD ./src/sub-systemCode/Global/GlobalParam.o
LOAD ./src/sub-systemCode/Global/OnlineTM.o
LOAD ./src/sub-systemCode/Global/TLM_management.o
LOAD ./src/sub-systemCode/Global/freertosExtended.o
LOAD ./src/sub-systemCode/COMM/APRS.o
LOAD ./src/sub-systemCode/COMM/DelayedCommand_list.o
LOAD ./src/sub-systemCode/COMM/GSC.o
LOAD ./src/sub-systemCode/COMM/TRXVU.o
LOAD ./src/sub-systemCode/ADCS/ADCS.o
LOAD ./src/sub-systemCode/ADCS/Stage_Table.o
LOAD ./src/main.o
LOAD C:/HOOPOE3/satellite-subsystems/demo/..//satellite-subsystems/lib\libSatelliteSubsystemsD.a
LOAD c:/isis/application/toolchain/bin/../lib/gcc/arm-none-eabi/4.7.4/../../../../arm-none-eabi/lib\libm.a
LOAD C:/HOOPOE3/satellite-subsystems/demo/../..//hal/hcc/lib\libHCCD.a
LOAD C:/HOOPOE3/satellite-subsystems/demo/../..//hal/hal/lib\libHALD.a
LOAD C:/HOOPOE3/satellite-subsystems/demo/../..//hal/freertos/lib\libFreeRTOSD.a
LOAD C:/HOOPOE3/satellite-subsystems/demo/../..//hal/at91/lib\libAt91D.a
START GROUP
LOAD c:/isis/application/toolchain/bin/../lib/gcc/arm-none-eabi/4.7.4\libgcc.a
LOAD c:/isis/application/toolchain/bin/../lib/gcc/arm-none-eabi/4.7.4/../../../../arm-none-eabi/lib\libc_s.a
END GROUP

.fixed          0x20000000    0x426b8
                0x20000000                . = ALIGN (0x4)
                0x20000000                _sfixed = .
 *(.startup)
 .startup       0x20000000      0x134 C:/HOOPOE3/satellite-subsystems/demo/../..//hal/at91/lib\libAt91D.a(board_cstartup.o)
                0x20000000                entry
 *(.text)
 .text          0x20000134       0x64 C:/HOOPOE3/satellite-subsystems/demo/../..//hal/at91/lib\libAt91D.a(cp15_asm.o)
                0x20000134                _readControlRegister
                0x20000140                _writeControlRegister
                0x20000148                _waitForInterrupt
                0x20000154                _writeTTB
                0x2000015c                _writeDomain
                0x20000164                _writeITLBLockdown
                0x2000016c                _prefetchICacheLine
                0x20000174                _flushDCache
                0x20000180                _flushWriteBuffer
                0x2000018c                _invalidateIDTLBs
 .text          0x20000198      0x114 c:/isis/application/toolchain/bin/../lib/gcc/arm-none-eabi/4.7.4\libgcc.a(_udivsi3.o)
                0x20000198                __aeabi_uidiv
                0x20000198                __udivsi3
                0x2000028c                __aeabi_uidivmod
 .text          0x200002ac      0x148 c:/isis/application/toolchain/bin/../lib/gcc/arm-none-eabi/4.7.4\libgcc.a(_divsi3.o)
                0x200002ac                __divsi3
                0x200002ac                __aeabi_idiv
                0x200003d4                __aeabi_idivmod
 .text          0x200003f4        0x4 c:/isis/application/toolchain/bin/../lib/gcc/arm-none-eabi/4.7.4\libgcc.a(_dvmd_tls.o)
                0x200003f4                __aeabi_idiv0
                0x200003f4                __aeabi_ldiv0
 .text          0x200003f8      0x41c c:/isis/application/toolchain/bin/../lib/gcc/arm-none-eabi/4.7.4\libgcc.a(_arm_addsubdf3.o)
                0x200003f8                __aeabi_drsub
                0x20000400                __aeabi_dsub
                0x20000400                __subdf3
                0x20000404                __aeabi_dadd
                0x20000404                __adddf3
                0x20000714                __floatunsidf
                0x20000714                __aeabi_ui2d
                0x20000738                __floatsidf
                0x20000738                __aeabi_i2d
                0x20000760                __aeabi_f2d
                0x20000760                __extendsfdf2
                0x200007a0                __floatundidf
                0x200007a0                __aeabi_ul2d
                0x200007b4                __floatdidf
                0x200007b4                __aeabi_l2d
 .text          0x20000814      0x49c c:/isis/application/toolchain/bin/../lib/gcc/arm-none-eabi/4.7.4\libgcc.a(_arm_muldivdf3.o)
                0x20000814                __aeabi_dmul
                0x20000814                __muldf3
                0x20000aa4                __divdf3
                0x20000aa4                __aeabi_ddiv
 .text          0x20000cb0      0x144 c:/isis/application/toolchain/bin/../lib/gcc/arm-none-eabi/4.7.4\libgcc.a(_arm_cmpdf2.o)
                0x20000cb0                __gtdf2
                0x20000cb0                __gedf2
                0x20000cb8                __ltdf2
                0x20000cb8                __ledf2
                0x20000cc0                __nedf2
                0x20000cc0                __eqdf2
                0x20000cc0                __cmpdf2
                0x20000d48                __aeabi_cdrcmple
                0x20000d64                __aeabi_cdcmpeq
                0x20000d64                __aeabi_cdcmple
                0x20000d7c                __aeabi_dcmpeq
                0x20000d94                __aeabi_dcmplt
                0x20000dac                __aeabi_dcmple
                0x20000dc4                __aeabi_dcmpge
                0x20000ddc                __aeabi_dcmpgt
 .text          0x20000df4       0x5c c:/isis/application/toolchain/bin/../lib/gcc/arm-none-eabi/4.7.4\libgcc.a(_arm_fixdfsi.o)
                0x20000df4                __aeabi_d2iz
                0x20000df4                __fixdfsi
 .text          0x20000e50       0x54 c:/isis/application/toolchain/bin/../lib/gcc/arm-none-eabi/4.7.4\libgcc.a(_arm_fixunsdfsi.o)
                0x20000e50                __aeabi_d2uiz
                0x20000e50                __fixunsdfsi
 .text          0x20000ea4       0xa0 c:/isis/application/toolchain/bin/../lib/gcc/arm-none-eabi/4.7.4\libgcc.a(_arm_truncdfsf2.o)
                0x20000ea4                __truncdfsf2
                0x20000ea4                __aeabi_d2f
 .text          0x20000f44      0x2ac c:/isis/application/toolchain/bin/../lib/gcc/arm-none-eabi/4.7.4\libgcc.a(_arm_addsubsf3.o)
                0x20000f44                __aeabi_frsub
                0x20000f4c                __subsf3
                0x20000f4c                __aeabi_fsub
                0x20000f50                __aeabi_fadd
                0x20000f50                __addsf3
                0x2000110c                __aeabi_ui2f
                0x2000110c                __floatunsisf
                0x20001114                __aeabi_i2f
                0x20001114                __floatsisf
                0x20001134                __aeabi_ul2f
                0x20001134                __floatundisf
                0x20001144                __aeabi_l2f
                0x20001144                __floatdisf
 .text          0x200011f0      0x2f8 c:/isis/application/toolchain/bin/../lib/gcc/arm-none-eabi/4.7.4\libgcc.a(_arm_muldivsf3.o)
                0x200011f0                __mulsf3
                0x200011f0                __aeabi_fmul
                0x20001388                __aeabi_fdiv
                0x20001388                __divsf3
 .text          0x200014e8      0x114 c:/isis/application/toolchain/bin/../lib/gcc/arm-none-eabi/4.7.4\libgcc.a(_arm_cmpsf2.o)
                0x200014e8                __gesf2
                0x200014e8                __gtsf2
                0x200014f0                __lesf2
                0x200014f0                __ltsf2
                0x200014f8                __nesf2
                0x200014f8                __eqsf2
                0x200014f8                __cmpsf2
                0x2000155c                __aeabi_cfrcmple
                0x2000156c                __aeabi_cfcmpeq
                0x2000156c                __aeabi_cfcmple
                0x20001584                __aeabi_fcmpeq
                0x2000159c                __aeabi_fcmplt
                0x200015b4                __aeabi_fcmple
                0x200015cc                __aeabi_fcmpge
                0x200015e4                __aeabi_fcmpgt
 .text          0x200015fc       0x54 c:/isis/application/toolchain/bin/../lib/gcc/arm-none-eabi/4.7.4\libgcc.a(_arm_fixunssfsi.o)
                0x200015fc                __fixunssfsi
                0x200015fc                __aeabi_f2uiz
 *(.text*)
 .text.__cvt    0x20001650      0x138 c:/isis/application/toolchain/bin/../lib/gcc/arm-none-eabi/4.7.4/../../../../arm-none-eabi/lib\libc_s.a(lib_a-vfprintf_float.o)
                0x20001650                __cvt
 .text.__exponent
                0x20001788       0xa8 c:/isis/application/toolchain/bin/../lib/gcc/arm-none-eabi/4.7.4/../../../../arm-none-eabi/lib\libc_s.a(lib_a-vfprintf_float.o)
                0x20001788                __exponent
 .text._printf_float
                0x20001830      0x7dc c:/isis/application/toolchain/bin/../lib/gcc/arm-none-eabi/4.7.4/../../../../arm-none-eabi/lib\libc_s.a(lib_a-vfprintf_float.o)
                0x20001830                _printf_float
 .text._printf_common
                0x2000200c      0x174 c:/isis/application/toolchain/bin/../lib/gcc/arm-none-eabi/4.7.4/../../../../arm-none-eabi/lib\libc_s.a(lib_a-vfprintf_i.o)
                0x2000200c                _printf_common
 .text._printf_i
                0x20002180      0x3c4 c:/isis/application/toolchain/bin/../lib/gcc/arm-none-eabi/4.7.4/../../../../arm-none-eabi/lib\libc_s.a(lib_a-vfprintf_i.o)
                0x20002180                _printf_i
 .text._scanf_float
                0x20002544      0x5f4 c:/isis/application/toolchain/bin/../lib/gcc/arm-none-eabi/4.7.4/../../../../arm-none-eabi/lib\libc_s.a(lib_a-vfscanf_float.o)
                0x20002544                _scanf_float
 .text.quorem   0x20002b38      0x1ac c:/isis/application/toolchain/bin/../lib/gcc/arm-none-eabi/4.7.4/../../../../arm-none-eabi/lib\libc_s.a(lib_a-dtoa.o)
 .text._dtoa_r  0x20002ce4     0x1268 c:/isis/application/toolchain/bin/../lib/gcc/arm-none-eabi/4.7.4/../../../../arm-none-eabi/lib\libc_s.a(lib_a-dtoa.o)
                0x20002ce4                _dtoa_r
 .text._localeconv_r
                0x20003f4c        0xc c:/isis/application/toolchain/bin/../lib/gcc/arm-none-eabi/4.7.4/../../../../arm-none-eabi/lib\libc_s.a(lib_a-locale.o)
                0x20003f4c                _localeconv_r
 .text.malloc   0x20003f58       0x20 c:/isis/application/toolchain/bin/../lib/gcc/arm-none-eabi/4.7.4/../../../../arm-none-eabi/lib\libc_s.a(lib_a-malloc.o)
                0x20003f58                malloc
 .text.free     0x20003f78       0x20 c:/isis/application/toolchain/bin/../lib/gcc/arm-none-eabi/4.7.4/../../../../arm-none-eabi/lib\libc_s.a(lib_a-malloc.o)
                0x20003f78                free
 .text._malloc_r
                0x20003f98       0xfc c:/isis/application/toolchain/bin/../lib/gcc/arm-none-eabi/4.7.4/../../../../arm-none-eabi/lib\libc_s.a(lib_a-mallocr.o)
                0x20003f98                _malloc_r
 .text.memcpy   0x20004094       0x20 c:/isis/application/toolchain/bin/../lib/gcc/arm-none-eabi/4.7.4/../../../../arm-none-eabi/lib\libc_s.a(lib_a-memcpy.o)
                0x20004094                memcpy
 .text._Balloc  0x200040b4       0xcc c:/isis/application/toolchain/bin/../lib/gcc/arm-none-eabi/4.7.4/../../../../arm-none-eabi/lib\libc_s.a(lib_a-mprec.o)
                0x200040b4                _Balloc
 .text._Bfree   0x20004180       0x5c c:/isis/application/toolchain/bin/../lib/gcc/arm-none-eabi/4.7.4/../../../../arm-none-eabi/lib\libc_s.a(lib_a-mprec.o)
                0x20004180                _Bfree
 .text.__multadd
                0x200041dc       0xbc c:/isis/application/toolchain/bin/../lib/gcc/arm-none-eabi/4.7.4/../../../../arm-none-eabi/lib\libc_s.a(lib_a-mprec.o)
                0x200041dc                __multadd
 .text.__s2b    0x20004298       0xd8 c:/isis/application/toolchain/bin/../lib/gcc/arm-none-eabi/4.7.4/../../../../arm-none-eabi/lib\libc_s.a(lib_a-mprec.o)
                0x20004298                __s2b
 .text.__hi0bits
                0x20004370       0x58 c:/isis/application/toolchain/bin/../lib/gcc/arm-none-eabi/4.7.4/../../../../arm-none-eabi/lib\libc_s.a(lib_a-mprec.o)
                0x20004370                __hi0bits
 .text.__lo0bits
                0x200043c8       0x94 c:/isis/application/toolchain/bin/../lib/gcc/arm-none-eabi/4.7.4/../../../../arm-none-eabi/lib\libc_s.a(lib_a-mprec.o)
                0x200043c8                __lo0bits
 .text.__i2b    0x2000445c       0x24 c:/isis/application/toolchain/bin/../lib/gcc/arm-none-eabi/4.7.4/../../../../arm-none-eabi/lib\libc_s.a(lib_a-mprec.o)
                0x2000445c                __i2b
 .text.__multiply
                0x20004480      0x1ac c:/isis/application/toolchain/bin/../lib/gcc/arm-none-eabi/4.7.4/../../../../arm-none-eabi/lib\libc_s.a(lib_a-mprec.o)
                0x20004480                __multiply
 .text.__pow5mult
                0x2000462c      0x10c c:/isis/application/toolchain/bin/../lib/gcc/arm-none-eabi/4.7.4/../../../../arm-none-eabi/lib\libc_s.a(lib_a-mprec.o)
                0x2000462c                __pow5mult
 .text.__lshift
                0x20004738       0xf0 c:/isis/application/toolchain/bin/../lib/gcc/arm-none-eabi/4.7.4/../../../../arm-none-eabi/lib\libc_s.a(lib_a-mprec.o)
                0x20004738                __lshift
 .text.__mcmp   0x20004828       0x60 c:/isis/application/toolchain/bin/../lib/gcc/arm-none-eabi/4.7.4/../../../../arm-none-eabi/lib\libc_s.a(lib_a-mprec.o)
                0x20004828                __mcmp
 .text.__mdiff  0x20004888      0x128 c:/isis/application/toolchain/bin/../lib/gcc/arm-none-eabi/4.7.4/../../../../arm-none-eabi/lib\libc_s.a(lib_a-mprec.o)
                0x20004888                __mdiff
 .text.__ulp    0x200049b0       0x5c c:/isis/application/toolchain/bin/../lib/gcc/arm-none-eabi/4.7.4/../../../../arm-none-eabi/lib\libc_s.a(lib_a-mprec.o)
                0x200049b0                __ulp
 .text.__b2d    0x20004a0c       0xc8 c:/isis/application/toolchain/bin/../lib/gcc/arm-none-eabi/4.7.4/../../../../arm-none-eabi/lib\libc_s.a(lib_a-mprec.o)
                0x20004a0c                __b2d
 .text.__d2b    0x20004ad4       0xfc c:/isis/application/toolchain/bin/../lib/gcc/arm-none-eabi/4.7.4/../../../../arm-none-eabi/lib\libc_s.a(lib_a-mprec.o)
                0x20004ad4                __d2b
 .text.__ratio  0x20004bd0       0x70 c:/isis/application/toolchain/bin/../lib/gcc/arm-none-eabi/4.7.4/../../../../arm-none-eabi/lib\libc_s.a(lib_a-mprec.o)
                0x20004bd0                __ratio
 .text.__copybits
                0x20004c40       0x4c c:/isis/application/toolchain/bin/../lib/gcc/arm-none-eabi/4.7.4/../../../../arm-none-eabi/lib\libc_s.a(lib_a-mprec.o)
                0x20004c40                __copybits
 .text.__any_on
                0x20004c8c       0x7c c:/isis/application/toolchain/bin/../lib/gcc/arm-none-eabi/4.7.4/../../../../arm-none-eabi/lib\libc_s.a(lib_a-mprec.o)
                0x20004c8c                __any_on
 .text.__fpclassifyd
                0x20004d08       0x6c c:/isis/application/toolchain/bin/../lib/gcc/arm-none-eabi/4.7.4/../../../../arm-none-eabi/lib\libc_s.a(lib_a-s_fpclassify.o)
                0x20004d08                __fpclassifyd
 .text._sbrk_r  0x20004d74       0x3c c:/isis/application/toolchain/bin/../lib/gcc/arm-none-eabi/4.7.4/../../../../arm-none-eabi/lib\libc_s.a(lib_a-sbrkr.o)
                0x20004d74                _sbrk_r
 .text.nanf     0x20004db0        0xc c:/isis/application/toolchain/bin/../lib/gcc/arm-none-eabi/4.7.4/../../../../arm-none-eabi/lib\libc_s.a(lib_a-sf_nan.o)
                0x20004db0                nanf
 .text.sprintf  0x20004dbc       0x6c c:/isis/application/toolchain/bin/../lib/gcc/arm-none-eabi/4.7.4/../../../../arm-none-eabi/lib\libc_s.a(lib_a-sprintf.o)
                0x20004dbc                siprintf
                0x20004dbc                sprintf
 .text.strcmp   0x20004e28       0x1c c:/isis/application/toolchain/bin/../lib/gcc/arm-none-eabi/4.7.4/../../../../arm-none-eabi/lib\libc_s.a(lib_a-strcmp.o)
                0x20004e28                strcmp
 .text.strlen   0x20004e44       0x1c c:/isis/application/toolchain/bin/../lib/gcc/arm-none-eabi/4.7.4/../../../../arm-none-eabi/lib\libc_s.a(lib_a-strlen.o)
                0x20004e44                strlen
 .text.match    0x20004e60       0x54 c:/isis/application/toolchain/bin/../lib/gcc/arm-none-eabi/4.7.4/../../../../arm-none-eabi/lib\libc_s.a(lib_a-strtod.o)
 .text._strtod_r
                0x20004eb4     0x1168 c:/isis/application/toolchain/bin/../lib/gcc/arm-none-eabi/4.7.4/../../../../arm-none-eabi/lib\libc_s.a(lib_a-strtod.o)
                0x20004eb4                _strtod_r
 .text._strtol_r
                0x2000601c      0x1b8 c:/isis/application/toolchain/bin/../lib/gcc/arm-none-eabi/4.7.4/../../../../arm-none-eabi/lib\libc_s.a(lib_a-strtol.o)
                0x2000601c                _strtol_r
 .text.__ssputc_r
                0x200061d4      0x10c c:/isis/application/toolchain/bin/../lib/gcc/arm-none-eabi/4.7.4/../../../../arm-none-eabi/lib\libc_s.a(lib_a-svfprintf.o)
                0x200061d4                __ssputc_r
 .text._svfprintf_r
                0x200062e0      0x328 c:/isis/application/toolchain/bin/../lib/gcc/arm-none-eabi/4.7.4/../../../../arm-none-eabi/lib\libc_s.a(lib_a-svfprintf.o)
                0x200062e0                _svfiprintf_r
                0x200062e0                _svfprintf_r
 .text._calloc_r
                0x20006608       0x2c c:/isis/application/toolchain/bin/../lib/gcc/arm-none-eabi/4.7.4/../../../../arm-none-eabi/lib\libc_s.a(lib_a-callocr.o)
                0x20006608                _calloc_r
 .text._free_r  0x20006634      0x108 c:/isis/application/toolchain/bin/../lib/gcc/arm-none-eabi/4.7.4/../../../../arm-none-eabi/lib\libc_s.a(lib_a-freer.o)
                0x20006634                _free_r
 .text.rshift   0x2000673c       0xb0 c:/isis/application/toolchain/bin/../lib/gcc/arm-none-eabi/4.7.4/../../../../arm-none-eabi/lib\libc_s.a(lib_a-gdtoa-gethex.o)
 .text.htinit.constprop.0
                0x200067ec       0x34 c:/isis/application/toolchain/bin/../lib/gcc/arm-none-eabi/4.7.4/../../../../arm-none-eabi/lib\libc_s.a(lib_a-gdtoa-gethex.o)
 .text.__hexdig_init
                0x20006820       0x38 c:/isis/application/toolchain/bin/../lib/gcc/arm-none-eabi/4.7.4/../../../../arm-none-eabi/lib\libc_s.a(lib_a-gdtoa-gethex.o)
                0x20006820                __hexdig_init
 .text.__gethex
                0x20006858      0x6cc c:/isis/application/toolchain/bin/../lib/gcc/arm-none-eabi/4.7.4/../../../../arm-none-eabi/lib\libc_s.a(lib_a-gdtoa-gethex.o)
                0x20006858                __gethex
 .text.L_shift  0x20006f24       0x38 c:/isis/application/toolchain/bin/../lib/gcc/arm-none-eabi/4.7.4/../../../../arm-none-eabi/lib\libc_s.a(lib_a-gdtoa-hexnan.o)
 .text.__hexnan
                0x20006f5c      0x1d8 c:/isis/application/toolchain/bin/../lib/gcc/arm-none-eabi/4.7.4/../../../../arm-none-eabi/lib\libc_s.a(lib_a-gdtoa-hexnan.o)
                0x20006f5c                __hexnan
 .text.memchr   0x20007134       0x34 c:/isis/application/toolchain/bin/../lib/gcc/arm-none-eabi/4.7.4/../../../../arm-none-eabi/lib\libc_s.a(lib_a-memchr.o)
                0x20007134                memchr
 .text.memset   0x20007168       0x1c c:/isis/application/toolchain/bin/../lib/gcc/arm-none-eabi/4.7.4/../../../../arm-none-eabi/lib\libc_s.a(lib_a-memset.o)
                0x20007168                memset
 .text._realloc_r
                0x20007184       0x80 c:/isis/application/toolchain/bin/../lib/gcc/arm-none-eabi/4.7.4/../../../../arm-none-eabi/lib\libc_s.a(lib_a-reallocr.o)
                0x20007184                _realloc_r
 .text.strncmp  0x20007204       0x64 c:/isis/application/toolchain/bin/../lib/gcc/arm-none-eabi/4.7.4/../../../../arm-none-eabi/lib\libc_s.a(lib_a-strncmp.o)
                0x20007204                strncmp
 .text._malloc_usable_size_r
                0x20007268       0x1c c:/isis/application/toolchain/bin/../lib/gcc/arm-none-eabi/4.7.4/../../../../arm-none-eabi/lib\libc_s.a(lib_a-msizer.o)
                0x20007268                _malloc_usable_size_r
 .text.cmd_mute
                0x20007284       0xc4 ./src/sub-systemCode/Main/CMD/COMM_CMD.o
                0x20007284                cmd_mute
 .text.cmd_unmute
                0x20007348       0x4c ./src/sub-systemCode/Main/CMD/COMM_CMD.o
                0x20007348                cmd_unmute
 .text.cmd_active_trans
                0x20007394       0xc0 ./src/sub-systemCode/Main/CMD/COMM_CMD.o
                0x20007394                cmd_active_trans
 .text.cmd_shut_trans
                0x20007454       0x38 ./src/sub-systemCode/Main/CMD/COMM_CMD.o
                0x20007454                cmd_shut_trans
 .text.cmd_change_trans_rssi
                0x2000748c      0x100 ./src/sub-systemCode/Main/CMD/COMM_CMD.o
                0x2000748c                cmd_change_trans_rssi
 .text.cmd_aprs_dump
                0x2000758c       0x50 ./src/sub-systemCode/Main/CMD/COMM_CMD.o
                0x2000758c                cmd_aprs_dump
 .text.cmd_stop_dump
                0x200075dc       0x38 ./src/sub-systemCode/Main/CMD/COMM_CMD.o
                0x200075dc                cmd_stop_dump
 .text.cmd_time_frequency
                0x20007614       0xc0 ./src/sub-systemCode/Main/CMD/COMM_CMD.o
                0x20007614                cmd_time_frequency
 .text.cmd_change_def_bit_rate
                0x200076d4      0x158 ./src/sub-systemCode/Main/CMD/COMM_CMD.o
                0x200076d4                cmd_change_def_bit_rate
 .text.cmd_upload_volt_logic
                0x2000782c      0x334 ./src/sub-systemCode/Main/CMD/EPS_CMD.o
                0x2000782c                cmd_upload_volt_logic
 .text.cmd_upload_volt_COMM
                0x20007b60      0x1c8 ./src/sub-systemCode/Main/CMD/EPS_CMD.o
                0x20007b60                cmd_upload_volt_COMM
 .text.cmd_heater_temp
                0x20007d28       0xc0 ./src/sub-systemCode/Main/CMD/EPS_CMD.o
                0x20007d28                cmd_heater_temp
 .text.cmd_SHUT_CAM
                0x20007de8       0x6c ./src/sub-systemCode/Main/CMD/EPS_CMD.o
                0x20007de8                cmd_SHUT_CAM
 .text.cmd_SHUT_ADCS
                0x20007e54       0x6c ./src/sub-systemCode/Main/CMD/EPS_CMD.o
                0x20007e54                cmd_SHUT_ADCS
 .text.cmd_allow_CAM
                0x20007ec0       0x6c ./src/sub-systemCode/Main/CMD/EPS_CMD.o
                0x20007ec0                cmd_allow_CAM
 .text.cmd_allow_ADCS
                0x20007f2c       0x6c ./src/sub-systemCode/Main/CMD/EPS_CMD.o
                0x20007f2c                cmd_allow_ADCS
 .text.cmd_update_alpha
                0x20007f98       0xfc ./src/sub-systemCode/Main/CMD/EPS_CMD.o
                0x20007f98                cmd_update_alpha
 .text.cmd_generic_I2C
                0x20008094       0xb4 ./src/sub-systemCode/Main/CMD/General_CMD.o
                0x20008094                cmd_generic_I2C
 .text.cmd_dump
                0x20008148       0xf0 ./src/sub-systemCode/Main/CMD/General_CMD.o
                0x20008148                cmd_dump
 .text.cmd_delete_TM
                0x20008238      0x230 ./src/sub-systemCode/Main/CMD/General_CMD.o
                0x20008238                cmd_delete_TM
 .text.cmd_reset_file
                0x20008468      0x118 ./src/sub-systemCode/Main/CMD/General_CMD.o
                0x20008468                cmd_reset_file
 .text.cmd_dummy_func
                0x20008580       0x40 ./src/sub-systemCode/Main/CMD/General_CMD.o
                0x20008580                cmd_dummy_func
 .text.cmd_reset_TLM_SD
                0x200085c0       0x4c ./src/sub-systemCode/Main/CMD/General_CMD.o
                0x200085c0                cmd_reset_TLM_SD
 .text.cmd_soft_reset_cmponent
                0x2000860c       0xac ./src/sub-systemCode/Main/CMD/General_CMD.o
                0x2000860c                cmd_soft_reset_cmponent
 .text.cmd_hard_reset_cmponent
                0x200086b8       0xac ./src/sub-systemCode/Main/CMD/General_CMD.o
                0x200086b8                cmd_hard_reset_cmponent
 .text.cmd_reset_satellite
                0x20008764       0x78 ./src/sub-systemCode/Main/CMD/General_CMD.o
                0x20008764                cmd_reset_satellite
 .text.cmd_gracefull_reset_satellite
                0x200087dc       0x78 ./src/sub-systemCode/Main/CMD/General_CMD.o
                0x200087dc                cmd_gracefull_reset_satellite
 .text.cmd_upload_time
                0x20008854       0xb0 ./src/sub-systemCode/Main/CMD/General_CMD.o
                0x20008854                cmd_upload_time
 .text.cmd_ARM_DIARM
                0x20008904       0xd4 ./src/sub-systemCode/Main/CMD/General_CMD.o
                0x20008904                cmd_ARM_DIARM
 .text.cmd_get_onlineTM
                0x200089d8      0x148 ./src/sub-systemCode/Main/CMD/General_CMD.o
                0x200089d8                cmd_get_onlineTM
 .text.cmd_reset_off_line
                0x20008b20       0x68 ./src/sub-systemCode/Main/CMD/General_CMD.o
                0x20008b20                cmd_reset_off_line
 .text.cmd_add_item_off_line
                0x20008b88       0xf4 ./src/sub-systemCode/Main/CMD/General_CMD.o
                0x20008b88                cmd_add_item_off_line
 .text.cmd_delete_item_off_line
                0x20008c7c       0x98 ./src/sub-systemCode/Main/CMD/General_CMD.o
                0x20008c7c                cmd_delete_item_off_line
 .text.cmd_get_off_line_setting
                0x20008d14      0x108 ./src/sub-systemCode/Main/CMD/General_CMD.o
                0x20008d14                cmd_get_off_line_setting
 .text.cmd_reset_delayed_command_list
                0x20008e1c       0x3c ./src/sub-systemCode/Main/CMD/SW_CMD.o
                0x20008e1c                cmd_reset_delayed_command_list
 .text.cmd_reset_APRS_list
                0x20008e58       0x3c ./src/sub-systemCode/Main/CMD/SW_CMD.o
                0x20008e58                cmd_reset_APRS_list
 .text.cmd_reset_FRAM
                0x20008e94       0xe8 ./src/sub-systemCode/Main/CMD/SW_CMD.o
                0x20008e94                cmd_reset_FRAM
 .text.ARM_ants
                0x20008f7c       0xb8 ./src/sub-systemCode/Main/Ants.o
                0x20008f7c                ARM_ants
 .text.DISARM_ants
                0x20009034       0xb8 ./src/sub-systemCode/Main/Ants.o
                0x20009034                DISARM_ants
 .text.round_vol
                0x200090ec      0x124 ./src/sub-systemCode/Main/EPS.o
                0x200090ec                round_vol
 .text.get_shut_ADCS
                0x20009210       0x48 ./src/sub-systemCode/Main/EPS.o
                0x20009210                get_shut_ADCS
 .text.shut_ADCS
                0x20009258       0x44 ./src/sub-systemCode/Main/EPS.o
                0x20009258                shut_ADCS
 .text.get_shut_CAM
                0x2000929c       0x48 ./src/sub-systemCode/Main/EPS.o
                0x2000929c                get_shut_CAM
 .text.shut_CAM
                0x200092e4       0x44 ./src/sub-systemCode/Main/EPS.o
                0x200092e4                shut_CAM
 .text.update_powerLines
                0x20009328       0xec ./src/sub-systemCode/Main/EPS.o
                0x20009328                update_powerLines
 .text.get_EPS_mode_t
                0x20009414       0x24 ./src/sub-systemCode/Main/EPS.o
                0x20009414                get_EPS_mode_t
 .text.init_enterMode
                0x20009438       0x88 ./src/sub-systemCode/Main/EPS.o
                0x20009438                init_enterMode
 .text.EPS_Init
                0x200094c0      0x1c8 ./src/sub-systemCode/Main/EPS.o
                0x200094c0                EPS_Init
 .text.reset_FRAM_EPS
                0x20009688       0xe0 ./src/sub-systemCode/Main/EPS.o
                0x20009688                reset_FRAM_EPS
 .text.reset_EPS_voltages
                0x20009768       0xbc ./src/sub-systemCode/Main/EPS.o
                0x20009768                reset_EPS_voltages
 .text.battery_downward
                0x20009824      0x114 ./src/sub-systemCode/Main/EPS.o
                0x20009824                battery_downward
 .text.battery_upward
                0x20009938      0x120 ./src/sub-systemCode/Main/EPS.o
                0x20009938                battery_upward
 .text.EPS_Conditioning
                0x20009a58      0x230 ./src/sub-systemCode/Main/EPS.o
                0x20009a58                EPS_Conditioning
 .text.overRide_ADCS
                0x20009c88       0x50 ./src/sub-systemCode/Main/EPS.o
                0x20009c88                overRide_ADCS
 .text.overRide_Camera
                0x20009cd8       0x38 ./src/sub-systemCode/Main/EPS.o
                0x20009cd8                overRide_Camera
 .text.EnterFullMode
                0x20009d10       0xfc ./src/sub-systemCode/Main/EPS.o
                0x20009d10                EnterFullMode
 .text.EnterCruiseMode
                0x20009e0c       0xec ./src/sub-systemCode/Main/EPS.o
                0x20009e0c                EnterCruiseMode
 .text.EnterSafeMode
                0x20009ef8       0xec ./src/sub-systemCode/Main/EPS.o
                0x20009ef8                EnterSafeMode
 .text.EnterCriticalMode
                0x20009fe4       0xd8 ./src/sub-systemCode/Main/EPS.o
                0x20009fe4                EnterCriticalMode
 .text.check_EPSTableCorrection
                0x2000a0bc      0x120 ./src/sub-systemCode/Main/EPS.o
                0x2000a0bc                check_EPSTableCorrection
 .text.save_ACK
                0x2000a1dc      0x11c ./src/sub-systemCode/Main/HouseKeeping.o
                0x2000a1dc                save_ACK
 .text.set_GP_EPS
                0x2000a2f8      0x10c ./src/sub-systemCode/Main/HouseKeeping.o
                0x2000a2f8                set_GP_EPS
 .text.set_GP_COMM
                0x2000a404       0x88 ./src/sub-systemCode/Main/HouseKeeping.o
                0x2000a404                set_GP_COMM
 .text.SP_HK_collect
                0x2000a48c      0x17c ./src/sub-systemCode/Main/HouseKeeping.o
                0x2000a48c                SP_HK_collect
 .text.EPS_HK_collect
                0x2000a608      0x4f8 ./src/sub-systemCode/Main/HouseKeeping.o
                0x2000a608                EPS_HK_collect
 .text.CAM_HK_collect
                0x2000ab00      0x91c ./src/sub-systemCode/Main/HouseKeeping.o
                0x2000ab00                CAM_HK_collect
 .text.COMM_HK_collect
                0x2000b41c      0x20c ./src/sub-systemCode/Main/HouseKeeping.o
                0x2000b41c                COMM_HK_collect
 .text.FS_HK_collect
                0x2000b628      0x18c ./src/sub-systemCode/Main/HouseKeeping.o
                0x2000b628                FS_HK_collect
 .text.HK_find_fileName
                0x2000b7b4       0xd0 ./src/sub-systemCode/Main/HouseKeeping.o
                0x2000b7b4                HK_find_fileName
 .text.HK_findElementSize
                0x2000b884       0x7c ./src/sub-systemCode/Main/HouseKeeping.o
                0x2000b884                HK_findElementSize
 .text.build_HK_spl_packet
                0x2000b900      0x150 ./src/sub-systemCode/Main/HouseKeeping.o
                0x2000b900                build_HK_spl_packet
 .text.test_menu
                0x2000ba50       0xd8 ./src/sub-systemCode/Main/Main_Init.o
                0x2000ba50                test_menu
 .text.numberOfRestarts
                0x2000bb28       0x94 ./src/sub-systemCode/Main/Main_Init.o
                0x2000bb28                numberOfRestarts
 .text.StartFRAM
                0x2000bbbc       0x38 ./src/sub-systemCode/Main/Main_Init.o
                0x2000bbbc                StartFRAM
 .text.StartI2C
                0x2000bbf4       0x44 ./src/sub-systemCode/Main/Main_Init.o
                0x2000bbf4                StartI2C
 .text.StartSPI
                0x2000bc38       0x40 ./src/sub-systemCode/Main/Main_Init.o
                0x2000bc38                StartSPI
 .text.StartTIME
                0x2000bc78      0x118 ./src/sub-systemCode/Main/Main_Init.o
                0x2000bc78                StartTIME
 .text.first_activation
                0x2000bd90       0x7c ./src/sub-systemCode/Main/Main_Init.o
                0x2000bd90                first_activation
 .text.InitSubsystems
                0x2000be0c       0x60 ./src/sub-systemCode/Main/Main_Init.o
                0x2000be0c                InitSubsystems
 .text.SubSystemTaskStart
                0x2000be6c       0x9c ./src/sub-systemCode/Main/Main_Init.o
                0x2000be6c                SubSystemTaskStart
 .text.save_ACK_s
                0x2000bf08       0x5c ./src/sub-systemCode/Main/commands.o
                0x2000bf08                save_ACK_s
 .text.copy_command
                0x2000bf64       0x80 ./src/sub-systemCode/Main/commands.o
                0x2000bf64                copy_command
 .text.reset_command
                0x2000bfe4       0x28 ./src/sub-systemCode/Main/commands.o
                0x2000bfe4                reset_command
 .text.init_command
                0x2000c00c       0xd4 ./src/sub-systemCode/Main/commands.o
                0x2000c00c                init_command
 .text.add_command
                0x2000c0e0      0x118 ./src/sub-systemCode/Main/commands.o
                0x2000c0e0                add_command
 .text.get_command
                0x2000c1f8      0x1ac ./src/sub-systemCode/Main/commands.o
                0x2000c1f8                get_command
 .text.act_upon_command
                0x2000c3a4      0x200 ./src/sub-systemCode/Main/commands.o
                0x2000c3a4                act_upon_command
 .text.cmd_error
                0x2000c5a4       0x38 ./src/sub-systemCode/Main/commands.o
                0x2000c5a4                cmd_error
 .text.AUC_COMM
                0x2000c5dc      0x25c ./src/sub-systemCode/Main/commands.o
                0x2000c5dc                AUC_COMM
 .text.AUC_general
                0x2000c838      0x48c ./src/sub-systemCode/Main/commands.o
                0x2000c838                AUC_general
 .text.AUC_payload
                0x2000ccc4      0x110 ./src/sub-systemCode/Main/commands.o
                0x2000ccc4                AUC_payload
 .text.AUC_EPS  0x2000cdd4      0x28c ./src/sub-systemCode/Main/commands.o
                0x2000cdd4                AUC_EPS
 .text.AUC_ADCS
                0x2000d060       0x5c ./src/sub-systemCode/Main/commands.o
                0x2000d060                AUC_ADCS
 .text.AUC_SW   0x2000d0bc       0xe4 ./src/sub-systemCode/Main/commands.o
                0x2000d0bc                AUC_SW
 .text.AUC_onlineTM
                0x2000d1a0      0x1ac ./src/sub-systemCode/Main/commands.o
                0x2000d1a0                AUC_onlineTM
 .text.AUC_special_operation
                0x2000d34c       0x8c ./src/sub-systemCode/Main/commands.o
                0x2000d34c                AUC_special_operation
 .text.check_int
                0x2000d3d8       0x3c ./src/sub-systemCode/Global/Global.o
                0x2000d3d8                check_int
 .text.check_portBASE_TYPE
                0x2000d414       0x3c ./src/sub-systemCode/Global/Global.o
                0x2000d414                check_portBASE_TYPE
 .text.soft_reset_subsystem
                0x2000d450       0xd8 ./src/sub-systemCode/Global/Global.o
                0x2000d450                soft_reset_subsystem
 .text.hard_reset_subsystem
                0x2000d528      0x104 ./src/sub-systemCode/Global/Global.o
                0x2000d528                hard_reset_subsystem
 .text.BigEnE_raw_to_uInt
                0x2000d62c       0x94 ./src/sub-systemCode/Global/Global.o
                0x2000d62c                BigEnE_raw_to_uInt
 .text.BigEnE_raw_to_uShort
                0x2000d6c0       0x50 ./src/sub-systemCode/Global/Global.o
                0x2000d6c0                BigEnE_raw_to_uShort
 .text.BigEnE_uInt_to_raw
                0x2000d710       0x78 ./src/sub-systemCode/Global/Global.o
                0x2000d710                BigEnE_uInt_to_raw
 .text.reset_FRAM_MAIN
                0x2000d788      0x19c ./src/sub-systemCode/Global/Global.o
                0x2000d788                reset_FRAM_MAIN
 .text.terminateTask
                0x2000d924       0x18 ./src/sub-systemCode/Global/Global.o
                0x2000d924                terminateTask
 .text.init_GP  0x2000d93c      0x300 ./src/sub-systemCode/Global/GlobalParam.o
                0x2000d93c                init_GP
 .text.get_system_state
                0x2000dc3c      0x254 ./src/sub-systemCode/Global/GlobalParam.o
                0x2000dc3c                get_system_state
 .text.set_system_state
                0x2000de90      0x284 ./src/sub-systemCode/Global/GlobalParam.o
                0x2000de90                set_system_state
 .text.get_systems_state_param
                0x2000e114       0x78 ./src/sub-systemCode/Global/GlobalParam.o
                0x2000e114                get_systems_state_param
 .text.get_current_global_param
                0x2000e18c      0x5b4 ./src/sub-systemCode/Global/GlobalParam.o
                0x2000e18c                get_current_global_param
 .text.set_Vbatt
                0x2000e740       0x78 ./src/sub-systemCode/Global/GlobalParam.o
                0x2000e740                set_Vbatt
 .text.get_Vbatt
                0x2000e7b8       0x78 ./src/sub-systemCode/Global/GlobalParam.o
                0x2000e7b8                get_Vbatt
 .text.set_curBat
                0x2000e830       0x78 ./src/sub-systemCode/Global/GlobalParam.o
                0x2000e830                set_curBat
 .text.set_cur3V3
                0x2000e8a8       0x78 ./src/sub-systemCode/Global/GlobalParam.o
                0x2000e8a8                set_cur3V3
 .text.set_cur5V
                0x2000e920       0x78 ./src/sub-systemCode/Global/GlobalParam.o
                0x2000e920                set_cur5V
 .text.set_tempComm_LO
                0x2000e998       0x78 ./src/sub-systemCode/Global/GlobalParam.o
                0x2000e998                set_tempComm_LO
 .text.set_tempComm_PA
                0x2000ea10       0x78 ./src/sub-systemCode/Global/GlobalParam.o
                0x2000ea10                set_tempComm_PA
 .text.set_tempEPS
                0x2000ea88       0xb4 ./src/sub-systemCode/Global/GlobalParam.o
                0x2000ea88                set_tempEPS
 .text.set_tempBatt
                0x2000eb3c       0xb4 ./src/sub-systemCode/Global/GlobalParam.o
                0x2000eb3c                set_tempBatt
 .text.set_RxDoppler
                0x2000ebf0       0x78 ./src/sub-systemCode/Global/GlobalParam.o
                0x2000ebf0                set_RxDoppler
 .text.set_RxRSSI
                0x2000ec68       0x78 ./src/sub-systemCode/Global/GlobalParam.o
                0x2000ec68                set_RxRSSI
 .text.set_TxRefl
                0x2000ece0       0x78 ./src/sub-systemCode/Global/GlobalParam.o
                0x2000ece0                set_TxRefl
 .text.set_TxForw
                0x2000ed58       0x78 ./src/sub-systemCode/Global/GlobalParam.o
                0x2000ed58                set_TxForw
 .text.get_ST   0x2000edd0       0x78 ./src/sub-systemCode/Global/GlobalParam.o
                0x2000edd0                get_ST
 .text.set_numOfAPRS
                0x2000ee48       0x78 ./src/sub-systemCode/Global/GlobalParam.o
                0x2000ee48                set_numOfAPRS
 .text.set_numOfDelayedCommand
                0x2000eec0       0x78 ./src/sub-systemCode/Global/GlobalParam.o
                0x2000eec0                set_numOfDelayedCommand
 .text.set_numOfResets
                0x2000ef38       0x98 ./src/sub-systemCode/Global/GlobalParam.o
                0x2000ef38                set_numOfResets
 .text.set_ground_conn
                0x2000efd0       0x8c ./src/sub-systemCode/Global/GlobalParam.o
                0x2000efd0                set_ground_conn
 .text.get_ground_conn
                0x2000f05c       0x8c ./src/sub-systemCode/Global/GlobalParam.o
                0x2000f05c                get_ground_conn
 .text.IsisAntS_getStatusData_sideA
                0x2000f0e8       0x3c ./src/sub-systemCode/Global/OnlineTM.o
                0x2000f0e8                IsisAntS_getStatusData_sideA
 .text.IsisAntS_getAlltelemetry_sideA
                0x2000f124       0x3c ./src/sub-systemCode/Global/OnlineTM.o
                0x2000f124                IsisAntS_getAlltelemetry_sideA
 .text.IsisAntS_getTemperature_sideA
                0x2000f160       0x3c ./src/sub-systemCode/Global/OnlineTM.o
                0x2000f160                IsisAntS_getTemperature_sideA
 .text.IsisAntS_getStatusData_sideB
                0x2000f19c       0x3c ./src/sub-systemCode/Global/OnlineTM.o
                0x2000f19c                IsisAntS_getStatusData_sideB
 .text.IsisAntS_getAlltelemetry_sideB
                0x2000f1d8       0x3c ./src/sub-systemCode/Global/OnlineTM.o
                0x2000f1d8                IsisAntS_getAlltelemetry_sideB
 .text.IsisAntS_getTemperature_sideB
                0x2000f214       0x3c ./src/sub-systemCode/Global/OnlineTM.o
                0x2000f214                IsisAntS_getTemperature_sideB
 .text.HK_collect_EPS
                0x2000f250       0x30 ./src/sub-systemCode/Global/OnlineTM.o
                0x2000f250                HK_collect_EPS
 .text.HK_collect_COMM
                0x2000f280       0x30 ./src/sub-systemCode/Global/OnlineTM.o
                0x2000f280                HK_collect_COMM
 .text.HK_collect_CAM
                0x2000f2b0       0x30 ./src/sub-systemCode/Global/OnlineTM.o
                0x2000f2b0                HK_collect_CAM
 .text.HK_collect_SP
                0x2000f2e0       0x30 ./src/sub-systemCode/Global/OnlineTM.o
                0x2000f2e0                HK_collect_SP
 .text.HK_collect_FS_A
                0x2000f310       0x34 ./src/sub-systemCode/Global/OnlineTM.o
                0x2000f310                HK_collect_FS_A
 .text.HK_collect_FS_B
                0x2000f344       0x34 ./src/sub-systemCode/Global/OnlineTM.o
                0x2000f344                HK_collect_FS_B
 .text.save_offlineSetting_FRAM
                0x2000f378      0x26c ./src/sub-systemCode/Global/OnlineTM.o
                0x2000f378                save_offlineSetting_FRAM
 .text.get_offlineSetting_FRAM
                0x2000f5e4       0x58 ./src/sub-systemCode/Global/OnlineTM.o
                0x2000f5e4                get_offlineSetting_FRAM
 .text.update_offlineSetting_FRAM
                0x2000f63c      0x360 ./src/sub-systemCode/Global/OnlineTM.o
                0x2000f63c                update_offlineSetting_FRAM
 .text.get_offlineSettingPacket
                0x2000f99c       0xc4 ./src/sub-systemCode/Global/OnlineTM.o
                0x2000f99c                get_offlineSettingPacket
 .text.get_item_by_index
                0x2000fa60       0xdc ./src/sub-systemCode/Global/OnlineTM.o
                0x2000fa60                get_item_by_index
 .text.get_pointer_item_by_index
                0x2000fb3c       0x48 ./src/sub-systemCode/Global/OnlineTM.o
                0x2000fb3c                get_pointer_item_by_index
 .text.init_onlineParam
                0x2000fb84     0x2f10 ./src/sub-systemCode/Global/OnlineTM.o
                0x2000fb84                init_onlineParam
 .text.reset_offline_TM_list
                0x20012a94      0x19c ./src/sub-systemCode/Global/OnlineTM.o
                0x20012a94                reset_offline_TM_list
 .text.get_online_packet
                0x20012c30      0x25c ./src/sub-systemCode/Global/OnlineTM.o
                0x20012c30                get_online_packet
 .text.save_onlineTM_param
                0x20012e8c      0x1b4 ./src/sub-systemCode/Global/OnlineTM.o
                0x20012e8c                save_onlineTM_param
 .text.add_onlineTM_param_to_save_list
                0x20013040      0x3d8 ./src/sub-systemCode/Global/OnlineTM.o
                0x20013040                add_onlineTM_param_to_save_list
 .text.delete_onlineTM_param_from_offline
                0x20013418      0x1a8 ./src/sub-systemCode/Global/OnlineTM.o
                0x20013418                delete_onlineTM_param_from_offline
 .text.save_onlineTM_logic
                0x200135c0      0x2a8 ./src/sub-systemCode/Global/OnlineTM.o
                0x200135c0                save_onlineTM_logic
 .text.save_onlineTM_task
                0x20013868       0xdc ./src/sub-systemCode/Global/OnlineTM.o
                0x20013868                save_onlineTM_task
 .text.delete_allTMFilesFromSD
                0x20013944      0x14c ./src/sub-systemCode/Global/TLM_management.o
                0x20013944                delete_allTMFilesFromSD
 .text.getNumOfFilesInFS
                0x20013a90       0x44 ./src/sub-systemCode/Global/TLM_management.o
 .text.setNumOfFilesInFS
                0x20013ad4       0x50 ./src/sub-systemCode/Global/TLM_management.o
 .text.f_managed_enterFS
                0x20013b24       0xa8 ./src/sub-systemCode/Global/TLM_management.o
                0x20013b24                f_managed_enterFS
 .text.f_managed_releaseFS
                0x20013bcc       0x58 ./src/sub-systemCode/Global/TLM_management.o
                0x20013bcc                f_managed_releaseFS
 .text.f_managed_open
                0x20013c24       0xe8 ./src/sub-systemCode/Global/TLM_management.o
                0x20013c24                f_managed_open
 .text.f_managed_close
                0x20013d0c       0x8c ./src/sub-systemCode/Global/TLM_management.o
                0x20013d0c                f_managed_close
 .text.createSemahores_FS
                0x20013d98       0x7c ./src/sub-systemCode/Global/TLM_management.o
                0x20013d98                createSemahores_FS
 .text.InitializeFS
                0x20013e14      0x1a8 ./src/sub-systemCode/Global/TLM_management.o
                0x20013e14                InitializeFS
 .text.c_fileCreate
                0x20013fbc       0xf4 ./src/sub-systemCode/Global/TLM_management.o
                0x20013fbc                c_fileCreate
 .text.writewithEpochtime
                0x200140b0       0x94 ./src/sub-systemCode/Global/TLM_management.o
 .text.get_C_FILE_struct
                0x20014144      0x104 ./src/sub-systemCode/Global/TLM_management.o
 .text.getFileIndex
                0x20014248       0x64 ./src/sub-systemCode/Global/TLM_management.o
 .text.get_file_name_by_index
                0x200142ac       0x54 ./src/sub-systemCode/Global/TLM_management.o
                0x200142ac                get_file_name_by_index
 .text.c_fileReset
                0x20014300      0x140 ./src/sub-systemCode/Global/TLM_management.o
                0x20014300                c_fileReset
 .text.c_fileWrite
                0x20014440      0x168 ./src/sub-systemCode/Global/TLM_management.o
                0x20014440                c_fileWrite
 .text.deleteElementsFromFile
                0x200145a8      0x188 ./src/sub-systemCode/Global/TLM_management.o
 .text.c_fileDeleteElements
                0x20014730      0x168 ./src/sub-systemCode/Global/TLM_management.o
                0x20014730                c_fileDeleteElements
 .text.c_fileRead
                0x20014898      0x2c8 ./src/sub-systemCode/Global/TLM_management.o
                0x20014898                c_fileRead
 .text.xSemaphoreGive_extended
                0x20014b60       0x48 ./src/sub-systemCode/Global/freertosExtended.o
                0x20014b60                xSemaphoreGive_extended
 .text.xSemaphoreTake_extended
                0x20014ba8       0x54 ./src/sub-systemCode/Global/freertosExtended.o
                0x20014ba8                xSemaphoreTake_extended
 .text.reset_APRS_list
                0x20014bfc       0xa4 ./src/sub-systemCode/COMM/APRS.o
                0x20014bfc                reset_APRS_list
 .text.send_APRS_Dump
                0x20014ca0      0x1c0 ./src/sub-systemCode/COMM/APRS.o
                0x20014ca0                send_APRS_Dump
 .text.get_APRS_list
                0x20014e60       0x88 ./src/sub-systemCode/COMM/APRS.o
                0x20014e60                get_APRS_list
 .text.find_CMD_in_list
                0x20014ee8       0x7c ./src/sub-systemCode/COMM/DelayedCommand_list.o
                0x20014ee8                find_CMD_in_list
 .text.find_empty_in_list
                0x20014f64       0x74 ./src/sub-systemCode/COMM/DelayedCommand_list.o
                0x20014f64                find_empty_in_list
 .text.check_delayCommandTime
                0x20014fd8       0x8c ./src/sub-systemCode/COMM/DelayedCommand_list.o
                0x20014fd8                check_delayCommandTime
 .text.execute_delayedCommand
                0x20015064       0x64 ./src/sub-systemCode/COMM/DelayedCommand_list.o
                0x20015064                execute_delayedCommand
 .text.check_delaycommand
                0x200150c8      0x17c ./src/sub-systemCode/COMM/DelayedCommand_list.o
                0x200150c8                check_delaycommand
 .text.reset_delayCommand
                0x20015244       0x8c ./src/sub-systemCode/COMM/DelayedCommand_list.o
                0x20015244                reset_delayCommand
 .text.add_delayCommand
                0x200152d0      0x1a4 ./src/sub-systemCode/COMM/DelayedCommand_list.o
                0x200152d0                add_delayCommand
 .text.get_delayCommand_list
                0x20015474       0x80 ./src/sub-systemCode/COMM/DelayedCommand_list.o
                0x20015474                get_delayCommand_list
 .text.EmptyOldestCommand
                0x200154f4       0xfc ./src/sub-systemCode/COMM/DelayedCommand_list.o
                0x200154f4                EmptyOldestCommand
 .text.decode_TCpacket
                0x200155f0      0x16c ./src/sub-systemCode/COMM/GSC.o
                0x200155f0                decode_TCpacket
 .text.encode_TCpacket
                0x2001575c      0x114 ./src/sub-systemCode/COMM/GSC.o
                0x2001575c                encode_TCpacket
 .text.encode_TMpacket
                0x20015870      0x104 ./src/sub-systemCode/COMM/GSC.o
                0x20015870                encode_TMpacket
 .text.build_raw_ACK
                0x20015974       0xbc ./src/sub-systemCode/COMM/GSC.o
                0x20015974                build_raw_ACK
 .text.build_data_field_ACK
                0x20015a30       0x74 ./src/sub-systemCode/COMM/GSC.o
                0x20015a30                build_data_field_ACK
 .text.update_FRAM_bitRate
                0x20015aa4       0xd0 ./src/sub-systemCode/COMM/TRXVU.o
                0x20015aa4                update_FRAM_bitRate
 .text.toggle_idle_state
                0x20015b74       0x94 ./src/sub-systemCode/COMM/TRXVU.o
                0x20015b74                toggle_idle_state
 .text.TRXVU_init_hardWare
                0x20015c08       0xac ./src/sub-systemCode/COMM/TRXVU.o
                0x20015c08                TRXVU_init_hardWare
 .text.TRXVU_init_softWare
                0x20015cb4      0x100 ./src/sub-systemCode/COMM/TRXVU.o
                0x20015cb4                TRXVU_init_softWare
 .text.init_trxvu
                0x20015db4       0x14 ./src/sub-systemCode/COMM/TRXVU.o
                0x20015db4                init_trxvu
 .text.TRXVU_task
                0x20015dc8       0x9c ./src/sub-systemCode/COMM/TRXVU.o
                0x20015dc8                TRXVU_task
 .text.dump_logic
                0x20015e64      0x34c ./src/sub-systemCode/COMM/TRXVU.o
                0x20015e64                dump_logic
 .text.Dump_task
                0x200161b0      0x17c ./src/sub-systemCode/COMM/TRXVU.o
                0x200161b0                Dump_task
 .text.transponder_logic
                0x2001632c       0xbc ./src/sub-systemCode/COMM/TRXVU.o
                0x2001632c                transponder_logic
 .text.Transponder_task
                0x200163e8      0x224 ./src/sub-systemCode/COMM/TRXVU.o
                0x200163e8                Transponder_task
 .text.lookForRequestToDelete_transponder
                0x2001660c       0xb4 ./src/sub-systemCode/COMM/TRXVU.o
                0x2001660c                lookForRequestToDelete_transponder
 .text.lookForRequestToDelete_dump
                0x200166c0       0x78 ./src/sub-systemCode/COMM/TRXVU.o
                0x200166c0                lookForRequestToDelete_dump
 .text.sendRequestToStop_dump
                0x20016738       0x8c ./src/sub-systemCode/COMM/TRXVU.o
                0x20016738                sendRequestToStop_dump
 .text.sendRequestToStop_transponder
                0x200167c4       0x8c ./src/sub-systemCode/COMM/TRXVU.o
                0x200167c4                sendRequestToStop_transponder
 .text.Rx_logic
                0x20016850      0x184 ./src/sub-systemCode/COMM/TRXVU.o
                0x20016850                Rx_logic
 .text.pass_above_Ground
                0x200169d4      0x104 ./src/sub-systemCode/COMM/TRXVU.o
                0x200169d4                pass_above_Ground
 .text.trxvu_logic
                0x20016ad8       0x1c ./src/sub-systemCode/COMM/TRXVU.o
                0x20016ad8                trxvu_logic
 .text.Beacon_task
                0x20016af4      0x170 ./src/sub-systemCode/COMM/TRXVU.o
                0x20016af4                Beacon_task
 .text.buildAndSend_beacon
                0x20016c64      0x604 ./src/sub-systemCode/COMM/TRXVU.o
                0x20016c64                buildAndSend_beacon
 .text.reset_FRAM_TRXVU
                0x20017268      0x160 ./src/sub-systemCode/COMM/TRXVU.o
                0x20017268                reset_FRAM_TRXVU
 .text.TRX_sendFrame
                0x200173c8      0x1ac ./src/sub-systemCode/COMM/TRXVU.o
                0x200173c8                TRX_sendFrame
 .text.TRX_getFrameData
                0x20017574      0x10c ./src/sub-systemCode/COMM/TRXVU.o
                0x20017574                TRX_getFrameData
 .text.mute_Tx  0x20017680       0x20 ./src/sub-systemCode/COMM/TRXVU.o
                0x20017680                mute_Tx
 .text.unmute_Tx
                0x200176a0       0x58 ./src/sub-systemCode/COMM/TRXVU.o
                0x200176a0                unmute_Tx
 .text.check_time_off_mute
                0x200176f8       0x88 ./src/sub-systemCode/COMM/TRXVU.o
                0x200176f8                check_time_off_mute
 .text.set_mute_time
                0x20017780       0xb4 ./src/sub-systemCode/COMM/TRXVU.o
                0x20017780                set_mute_time
 .text.change_TRXVU_state
                0x20017834       0xe0 ./src/sub-systemCode/COMM/TRXVU.o
                0x20017834                change_TRXVU_state
 .text.change_trans_RSSI
                0x20017914       0x60 ./src/sub-systemCode/COMM/TRXVU.o
                0x20017914                change_trans_RSSI
 .text.init_adcs
                0x20017974      0x104 ./src/sub-systemCode/ADCS/ADCS.o
                0x20017974                init_adcs
 .text.telemtryStart
                0x20017a78      0x16c ./src/sub-systemCode/ADCS/Stage_Table.o
                0x20017a78                telemtryStart
 .text.powerStart
                0x20017be4       0x5c ./src/sub-systemCode/ADCS/Stage_Table.o
                0x20017be4                powerStart
 .text.createTable
                0x20017c40       0xb4 ./src/sub-systemCode/ADCS/Stage_Table.o
                0x20017c40                createTable
 .text.buildControlMode
                0x20017cf4       0x60 ./src/sub-systemCode/ADCS/Stage_Table.o
                0x20017cf4                buildControlMode
 .text.Check_Table
                0x20017d54      0x178 ./src/sub-systemCode/ADCS/Stage_Table.o
                0x20017d54                Check_Table
 .text.updateTable
                0x20017ecc      0x1f0 ./src/sub-systemCode/ADCS/Stage_Table.o
                0x20017ecc                updateTable
 .text.translateCommandFULL
                0x200180bc       0x78 ./src/sub-systemCode/ADCS/Stage_Table.o
                0x200180bc                translateCommandFULL
 .text.getTableTo
                0x20018134       0x64 ./src/sub-systemCode/ADCS/Stage_Table.o
                0x20018134                getTableTo
 .text.save_time
                0x20018198       0x9c ./src/main.o
                0x20018198                save_time
 .text.Command_logic
                0x20018234       0x6c ./src/main.o
                0x20018234                Command_logic
 .text.taskMain
                0x200182a0       0x74 ./src/main.o
                0x200182a0                taskMain
 .text.main     0x20018314       0xbc ./src/main.o
                0x20018314                main
 .text.GomEpsInitialize
                0x200183d0      0x148 C:/HOOPOE3/satellite-subsystems/demo/..//satellite-subsystems/lib\libSatelliteSubsystemsD.a(GomEPS.o)
                0x200183d0                GomEpsInitialize
 .text.makeEPStransfer
                0x20018518       0x3c C:/HOOPOE3/satellite-subsystems/demo/..//satellite-subsystems/lib\libSatelliteSubsystemsD.a(GomEPS.o)
 .text.GomEpsSoftReset
                0x20018554       0xc4 C:/HOOPOE3/satellite-subsystems/demo/..//satellite-subsystems/lib\libSatelliteSubsystemsD.a(GomEPS.o)
                0x20018554                GomEpsSoftReset
 .text.GomEpsHardReset
                0x20018618       0xa8 C:/HOOPOE3/satellite-subsystems/demo/..//satellite-subsystems/lib\libSatelliteSubsystemsD.a(GomEPS.o)
                0x20018618                GomEpsHardReset
 .text.GomEpsGetHkData_param
                0x200186c0      0x29c C:/HOOPOE3/satellite-subsystems/demo/..//satellite-subsystems/lib\libSatelliteSubsystemsD.a(GomEPS.o)
                0x200186c0                GomEpsGetHkData_param
 .text.GomEpsGetHkData_general
                0x2001895c      0x45c C:/HOOPOE3/satellite-subsystems/demo/..//satellite-subsystems/lib\libSatelliteSubsystemsD.a(GomEPS.o)
                0x2001895c                GomEpsGetHkData_general
 .text.GomEpsGetHkData_vi
                0x20018db8      0x188 C:/HOOPOE3/satellite-subsystems/demo/..//satellite-subsystems/lib\libSatelliteSubsystemsD.a(GomEPS.o)
                0x20018db8                GomEpsGetHkData_vi
 .text.GomEpsGetHkData_out
                0x20018f40      0x21c C:/HOOPOE3/satellite-subsystems/demo/..//satellite-subsystems/lib\libSatelliteSubsystemsD.a(GomEPS.o)
                0x20018f40                GomEpsGetHkData_out
 .text.GomEpsGetHkData_wdt
                0x2001915c      0x2b4 C:/HOOPOE3/satellite-subsystems/demo/..//satellite-subsystems/lib\libSatelliteSubsystemsD.a(GomEPS.o)
                0x2001915c                GomEpsGetHkData_wdt
 .text.GomEpsGetHkData_basic
                0x20019410      0x22c C:/HOOPOE3/satellite-subsystems/demo/..//satellite-subsystems/lib\libSatelliteSubsystemsD.a(GomEPS.o)
                0x20019410                GomEpsGetHkData_basic
 .text.GomEpsSetOutput
                0x2001963c       0xbc C:/HOOPOE3/satellite-subsystems/demo/..//satellite-subsystems/lib\libSatelliteSubsystemsD.a(GomEPS.o)
                0x2001963c                GomEpsSetOutput
 .text.GomEpsConfigGet
                0x200196f8      0x16c C:/HOOPOE3/satellite-subsystems/demo/..//satellite-subsystems/lib\libSatelliteSubsystemsD.a(GomEPS.o)
                0x200196f8                GomEpsConfigGet
 .text.GomEpsConfigSet
                0x20019864      0x184 C:/HOOPOE3/satellite-subsystems/demo/..//satellite-subsystems/lib\libSatelliteSubsystemsD.a(GomEPS.o)
                0x20019864                GomEpsConfigSet
 .text.GomEpsConfig2Get
                0x200199e8      0x16c C:/HOOPOE3/satellite-subsystems/demo/..//satellite-subsystems/lib\libSatelliteSubsystemsD.a(GomEPS.o)
                0x200199e8                GomEpsConfig2Get
 .text.makeAntStransfer
                0x20019b54       0x4c C:/HOOPOE3/satellite-subsystems/demo/..//satellite-subsystems/lib\libSatelliteSubsystemsD.a(IsisAntS.o)
 .text.checkInputsValid
                0x20019ba0       0x7c C:/HOOPOE3/satellite-subsystems/demo/..//satellite-subsystems/lib\libSatelliteSubsystemsD.a(IsisAntS.o)
 .text.IsisAntS_setArmStatus
                0x20019c1c      0x104 C:/HOOPOE3/satellite-subsystems/demo/..//satellite-subsystems/lib\libSatelliteSubsystemsD.a(IsisAntS.o)
                0x20019c1c                IsisAntS_setArmStatus
 .text.IsisAntS_getStatusData
                0x20019d20      0x120 C:/HOOPOE3/satellite-subsystems/demo/..//satellite-subsystems/lib\libSatelliteSubsystemsD.a(IsisAntS.o)
                0x20019d20                IsisAntS_getStatusData
 .text.IsisAntS_getTemperature
                0x20019e40      0x120 C:/HOOPOE3/satellite-subsystems/demo/..//satellite-subsystems/lib\libSatelliteSubsystemsD.a(IsisAntS.o)
                0x20019e40                IsisAntS_getTemperature
 .text.IsisAntS_getAlltelemetry
                0x20019f60      0x120 C:/HOOPOE3/satellite-subsystems/demo/..//satellite-subsystems/lib\libSatelliteSubsystemsD.a(IsisAntS.o)
                0x20019f60                IsisAntS_getAlltelemetry
 .text.IsisAntS_reset
                0x2001a080      0x104 C:/HOOPOE3/satellite-subsystems/demo/..//satellite-subsystems/lib\libSatelliteSubsystemsD.a(IsisAntS.o)
                0x2001a080                IsisAntS_reset
 .text.IsisSolarPanelv2_initialize
                0x2001a184       0xb4 C:/HOOPOE3/satellite-subsystems/demo/..//satellite-subsystems/lib\libSatelliteSubsystemsD.a(IsisSolarPanelv2.o)
                0x2001a184                IsisSolarPanelv2_initialize
 .text.IsisSolarPanelv2_getTemperature
                0x2001a238       0xc8 C:/HOOPOE3/satellite-subsystems/demo/..//satellite-subsystems/lib\libSatelliteSubsystemsD.a(IsisSolarPanelv2.o)
                0x2001a238                IsisSolarPanelv2_getTemperature
 .text.IsisSolarPanelv2_sleep
                0x2001a300       0xbc C:/HOOPOE3/satellite-subsystems/demo/..//satellite-subsystems/lib\libSatelliteSubsystemsD.a(IsisSolarPanelv2.o)
                0x2001a300                IsisSolarPanelv2_sleep
 .text.IsisSolarPanelv2_wakeup
                0x2001a3bc       0x80 C:/HOOPOE3/satellite-subsystems/demo/..//satellite-subsystems/lib\libSatelliteSubsystemsD.a(IsisSolarPanelv2.o)
                0x2001a3bc                IsisSolarPanelv2_wakeup
 .text._Reset   0x2001a43c       0x20 C:/HOOPOE3/satellite-subsystems/demo/..//satellite-subsystems/lib\libSatelliteSubsystemsD.a(IsisSolarPanelv2.o)
 .text._WaitForStartup
                0x2001a45c       0x90 C:/HOOPOE3/satellite-subsystems/demo/..//satellite-subsystems/lib\libSatelliteSubsystemsD.a(IsisSolarPanelv2.o)
 .text._AssignAllChannels
                0x2001a4ec       0x90 C:/HOOPOE3/satellite-subsystems/demo/..//satellite-subsystems/lib\libSatelliteSubsystemsD.a(IsisSolarPanelv2.o)
 .text._AssignThisChannel
                0x2001a57c       0xe8 C:/HOOPOE3/satellite-subsystems/demo/..//satellite-subsystems/lib\libSatelliteSubsystemsD.a(IsisSolarPanelv2.o)
 .text._InitiateConversion
                0x2001a664       0xac C:/HOOPOE3/satellite-subsystems/demo/..//satellite-subsystems/lib\libSatelliteSubsystemsD.a(IsisSolarPanelv2.o)
 .text._WaitForConversionComplete
                0x2001a710      0x100 C:/HOOPOE3/satellite-subsystems/demo/..//satellite-subsystems/lib\libSatelliteSubsystemsD.a(IsisSolarPanelv2.o)
 .text._ReadResult
                0x2001a810      0x158 C:/HOOPOE3/satellite-subsystems/demo/..//satellite-subsystems/lib\libSatelliteSubsystemsD.a(IsisSolarPanelv2.o)
 .text._ExtractByte
                0x2001a968       0x38 C:/HOOPOE3/satellite-subsystems/demo/..//satellite-subsystems/lib\libSatelliteSubsystemsD.a(IsisSolarPanelv2.o)
 .text._ExtendSign
                0x2001a9a0       0x6c C:/HOOPOE3/satellite-subsystems/demo/..//satellite-subsystems/lib\libSatelliteSubsystemsD.a(IsisSolarPanelv2.o)
 .text._PinsInit
                0x2001aa0c       0x50 C:/HOOPOE3/satellite-subsystems/demo/..//satellite-subsystems/lib\libSatelliteSubsystemsD.a(IsisSolarPanelv2.o)
 .text._SpiWriteRead
                0x2001aa5c       0x70 C:/HOOPOE3/satellite-subsystems/demo/..//satellite-subsystems/lib\libSatelliteSubsystemsD.a(IsisSolarPanelv2.o)
 .text.IsisTrxvu_initialize
                0x2001aacc      0x2f4 C:/HOOPOE3/satellite-subsystems/demo/..//satellite-subsystems/lib\libSatelliteSubsystemsD.a(IsisTRXVU.o)
                0x2001aacc                IsisTrxvu_initialize
 .text.makeTRXVUtransfer
                0x2001adc0       0x44 C:/HOOPOE3/satellite-subsystems/demo/..//satellite-subsystems/lib\libSatelliteSubsystemsD.a(IsisTRXVU.o)
 .text.IsisTrxvu_componentSoftReset
                0x2001ae04       0x6c C:/HOOPOE3/satellite-subsystems/demo/..//satellite-subsystems/lib\libSatelliteSubsystemsD.a(IsisTRXVU.o)
                0x2001ae04                IsisTrxvu_componentSoftReset
 .text.IsisTrxvu_componentHardReset
                0x2001ae70       0xc8 C:/HOOPOE3/satellite-subsystems/demo/..//satellite-subsystems/lib\libSatelliteSubsystemsD.a(IsisTRXVU.o)
                0x2001ae70                IsisTrxvu_componentHardReset
 .text.IsisTrxvu_softReset
                0x2001af38       0x74 C:/HOOPOE3/satellite-subsystems/demo/..//satellite-subsystems/lib\libSatelliteSubsystemsD.a(IsisTRXVU.o)
                0x2001af38                IsisTrxvu_softReset
 .text.IsisTrxvu_hardReset
                0x2001afac       0x74 C:/HOOPOE3/satellite-subsystems/demo/..//satellite-subsystems/lib\libSatelliteSubsystemsD.a(IsisTRXVU.o)
                0x2001afac                IsisTrxvu_hardReset
 .text.IsisTrxvu_tcSendAX25DefClSign
                0x2001b020       0xec C:/HOOPOE3/satellite-subsystems/demo/..//satellite-subsystems/lib\libSatelliteSubsystemsD.a(IsisTRXVU.o)
                0x2001b020                IsisTrxvu_tcSendAX25DefClSign
 .text.IsisTrxvu_tcSetIdlestate
                0x2001b10c       0xa4 C:/HOOPOE3/satellite-subsystems/demo/..//satellite-subsystems/lib\libSatelliteSubsystemsD.a(IsisTRXVU.o)
                0x2001b10c                IsisTrxvu_tcSetIdlestate
 .text.IsisTrxvu_tcSetAx25Bitrate
                0x2001b1b0       0xc4 C:/HOOPOE3/satellite-subsystems/demo/..//satellite-subsystems/lib\libSatelliteSubsystemsD.a(IsisTRXVU.o)
                0x2001b1b0                IsisTrxvu_tcSetAx25Bitrate
 .text.IsisTrxvu_tcGetTelemetryAll
                0x2001b274       0xd0 C:/HOOPOE3/satellite-subsystems/demo/..//satellite-subsystems/lib\libSatelliteSubsystemsD.a(IsisTRXVU.o)
                0x2001b274                IsisTrxvu_tcGetTelemetryAll
 .text.IsisTrxvu_tcGetTelemetryAll_revC
                0x2001b344       0xd0 C:/HOOPOE3/satellite-subsystems/demo/..//satellite-subsystems/lib\libSatelliteSubsystemsD.a(IsisTRXVU.o)
                0x2001b344                IsisTrxvu_tcGetTelemetryAll_revC
 .text.IsisTrxvu_rcGetFrameCount
                0x2001b414       0xa0 C:/HOOPOE3/satellite-subsystems/demo/..//satellite-subsystems/lib\libSatelliteSubsystemsD.a(IsisTRXVU.o)
                0x2001b414                IsisTrxvu_rcGetFrameCount
 .text.IsisTrxvu_rcGetCommandFrame
                0x2001b4b4      0x2d8 C:/HOOPOE3/satellite-subsystems/demo/..//satellite-subsystems/lib\libSatelliteSubsystemsD.a(IsisTRXVU.o)
                0x2001b4b4                IsisTrxvu_rcGetCommandFrame
 .text.IsisTrxvu_rcGetTelemetryAll
                0x2001b78c       0xd0 C:/HOOPOE3/satellite-subsystems/demo/..//satellite-subsystems/lib\libSatelliteSubsystemsD.a(IsisTRXVU.o)
                0x2001b78c                IsisTrxvu_rcGetTelemetryAll
 .text.IsisTrxvu_rcGetTelemetryAll_revC
                0x2001b85c       0xec C:/HOOPOE3/satellite-subsystems/demo/..//satellite-subsystems/lib\libSatelliteSubsystemsD.a(IsisTRXVU.o)
                0x2001b85c                IsisTrxvu_rcGetTelemetryAll_revC
 .text.cspaceADCS_initialize
                0x2001b948      0x18c C:/HOOPOE3/satellite-subsystems/demo/..//satellite-subsystems/lib\libSatelliteSubsystemsD.a(cspaceADCS.o)
                0x2001b948                cspaceADCS_initialize
 .text.make_cspaceADCStransfer
                0x2001bad4      0x1b4 C:/HOOPOE3/satellite-subsystems/demo/..//satellite-subsystems/lib\libSatelliteSubsystemsD.a(cspaceADCS.o)
 .text.cspaceADCS_componentReset
                0x2001bc88       0xbc C:/HOOPOE3/satellite-subsystems/demo/..//satellite-subsystems/lib\libSatelliteSubsystemsD.a(cspaceADCS.o)
                0x2001bc88                cspaceADCS_componentReset
 .text.cspaceADCS_setRunMode
                0x2001bd44       0xbc C:/HOOPOE3/satellite-subsystems/demo/..//satellite-subsystems/lib\libSatelliteSubsystemsD.a(cspaceADCS.o)
                0x2001bd44                cspaceADCS_setRunMode
 .text.cspaceADCS_setPwrCtrlDevice
                0x2001be00       0xd0 C:/HOOPOE3/satellite-subsystems/demo/..//satellite-subsystems/lib\libSatelliteSubsystemsD.a(cspaceADCS.o)
                0x2001be00                cspaceADCS_setPwrCtrlDevice
 .text.cspaceADCS_setAttCtrlMode
                0x2001bed0       0xd0 C:/HOOPOE3/satellite-subsystems/demo/..//satellite-subsystems/lib\libSatelliteSubsystemsD.a(cspaceADCS.o)
                0x2001bed0                cspaceADCS_setAttCtrlMode
 .text.cspaceADCS_setAttEstMode
                0x2001bfa0       0xbc C:/HOOPOE3/satellite-subsystems/demo/..//satellite-subsystems/lib\libSatelliteSubsystemsD.a(cspaceADCS.o)
                0x2001bfa0                cspaceADCS_setAttEstMode
 .text.cspaceADCS_getCurrentState
                0x2001c05c       0xc4 C:/HOOPOE3/satellite-subsystems/demo/..//satellite-subsystems/lib\libSatelliteSubsystemsD.a(cspaceADCS.o)
                0x2001c05c                cspaceADCS_getCurrentState
 .text.cspaceADCS_getPowTempMeasTLM
                0x2001c120       0xc4 C:/HOOPOE3/satellite-subsystems/demo/..//satellite-subsystems/lib\libSatelliteSubsystemsD.a(cspaceADCS.o)
                0x2001c120                cspaceADCS_getPowTempMeasTLM
 .text.cspaceADCS_getPwrCtrlDevice
                0x2001c1e4       0xc4 C:/HOOPOE3/satellite-subsystems/demo/..//satellite-subsystems/lib\libSatelliteSubsystemsD.a(cspaceADCS.o)
                0x2001c1e4                cspaceADCS_getPwrCtrlDevice
 .text.GECKO_GetReg
                0x2001c2a8      0x110 C:/HOOPOE3/satellite-subsystems/demo/..//satellite-subsystems/lib\libSatelliteSubsystemsD.a(gecko_driver.o)
                0x2001c2a8                GECKO_GetReg
 .text.GECKO_GetVoltageInput5V
                0x2001c3b8       0xf4 C:/HOOPOE3/satellite-subsystems/demo/..//satellite-subsystems/lib\libSatelliteSubsystemsD.a(gecko_driver.o)
                0x2001c3b8                GECKO_GetVoltageInput5V
 .text.GECKO_GetCurrentInput5V
                0x2001c4ac      0x130 C:/HOOPOE3/satellite-subsystems/demo/..//satellite-subsystems/lib\libSatelliteSubsystemsD.a(gecko_driver.o)
                0x2001c4ac                GECKO_GetCurrentInput5V
 .text.GECKO_GetVoltageFPGA1V
                0x2001c5dc       0xd4 C:/HOOPOE3/satellite-subsystems/demo/..//satellite-subsystems/lib\libSatelliteSubsystemsD.a(gecko_driver.o)
                0x2001c5dc                GECKO_GetVoltageFPGA1V
 .text.GECKO_GetCurrentFPGA1V
                0x2001c6b0      0x130 C:/HOOPOE3/satellite-subsystems/demo/..//satellite-subsystems/lib\libSatelliteSubsystemsD.a(gecko_driver.o)
                0x2001c6b0                GECKO_GetCurrentFPGA1V
 .text.GECKO_GetVoltageFPGA1V8
                0x2001c7e0       0xd4 C:/HOOPOE3/satellite-subsystems/demo/..//satellite-subsystems/lib\libSatelliteSubsystemsD.a(gecko_driver.o)
                0x2001c7e0                GECKO_GetVoltageFPGA1V8
 .text.GECKO_GetCurrentFPGA1V8
                0x2001c8b4      0x130 C:/HOOPOE3/satellite-subsystems/demo/..//satellite-subsystems/lib\libSatelliteSubsystemsD.a(gecko_driver.o)
                0x2001c8b4                GECKO_GetCurrentFPGA1V8
 .text.GECKO_GetVoltageFPGA2V5
                0x2001c9e4       0xe8 C:/HOOPOE3/satellite-subsystems/demo/..//satellite-subsystems/lib\libSatelliteSubsystemsD.a(gecko_driver.o)
                0x2001c9e4                GECKO_GetVoltageFPGA2V5
 .text.GECKO_GetCurrentFPGA2V5
                0x2001cacc      0x130 C:/HOOPOE3/satellite-subsystems/demo/..//satellite-subsystems/lib\libSatelliteSubsystemsD.a(gecko_driver.o)
                0x2001cacc                GECKO_GetCurrentFPGA2V5
 .text.GECKO_GetVoltageFPGA3V3
                0x2001cbfc       0xe8 C:/HOOPOE3/satellite-subsystems/demo/..//satellite-subsystems/lib\libSatelliteSubsystemsD.a(gecko_driver.o)
                0x2001cbfc                GECKO_GetVoltageFPGA3V3
 .text.GECKO_GetCurrentFPGA3V3
                0x2001cce4      0x130 C:/HOOPOE3/satellite-subsystems/demo/..//satellite-subsystems/lib\libSatelliteSubsystemsD.a(gecko_driver.o)
                0x2001cce4                GECKO_GetCurrentFPGA3V3
 .text.GECKO_GetVoltageFlash1V8
                0x2001ce14       0xd4 C:/HOOPOE3/satellite-subsystems/demo/..//satellite-subsystems/lib\libSatelliteSubsystemsD.a(gecko_driver.o)
                0x2001ce14                GECKO_GetVoltageFlash1V8
 .text.GECKO_GetCurrentFlash1V8
                0x2001cee8      0x130 C:/HOOPOE3/satellite-subsystems/demo/..//satellite-subsystems/lib\libSatelliteSubsystemsD.a(gecko_driver.o)
                0x2001cee8                GECKO_GetCurrentFlash1V8
 .text.GECKO_GetVoltageFlash3V3
                0x2001d018       0xe8 C:/HOOPOE3/satellite-subsystems/demo/..//satellite-subsystems/lib\libSatelliteSubsystemsD.a(gecko_driver.o)
                0x2001d018                GECKO_GetVoltageFlash3V3
 .text.GECKO_GetCurrentFlash3V3
                0x2001d100      0x130 C:/HOOPOE3/satellite-subsystems/demo/..//satellite-subsystems/lib\libSatelliteSubsystemsD.a(gecko_driver.o)
                0x2001d100                GECKO_GetCurrentFlash3V3
 .text.GECKO_GetVoltageSNSR1V8
                0x2001d230       0xe8 C:/HOOPOE3/satellite-subsystems/demo/..//satellite-subsystems/lib\libSatelliteSubsystemsD.a(gecko_driver.o)
                0x2001d230                GECKO_GetVoltageSNSR1V8
 .text.GECKO_GetCurrentSNSR1V8
                0x2001d318      0x130 C:/HOOPOE3/satellite-subsystems/demo/..//satellite-subsystems/lib\libSatelliteSubsystemsD.a(gecko_driver.o)
                0x2001d318                GECKO_GetCurrentSNSR1V8
 .text.GECKO_GetVoltageSNSRVDDPIX
                0x2001d448       0xe8 C:/HOOPOE3/satellite-subsystems/demo/..//satellite-subsystems/lib\libSatelliteSubsystemsD.a(gecko_driver.o)
                0x2001d448                GECKO_GetVoltageSNSRVDDPIX
 .text.GECKO_GetCurrentSNSRVDDPIX
                0x2001d530      0x130 C:/HOOPOE3/satellite-subsystems/demo/..//satellite-subsystems/lib\libSatelliteSubsystemsD.a(gecko_driver.o)
                0x2001d530                GECKO_GetCurrentSNSRVDDPIX
 .text.GECKO_GetVoltageSNSR3V3
                0x2001d660       0xe8 C:/HOOPOE3/satellite-subsystems/demo/..//satellite-subsystems/lib\libSatelliteSubsystemsD.a(gecko_driver.o)
                0x2001d660                GECKO_GetVoltageSNSR3V3
 .text.GECKO_GetCurrentSNSR3V3
                0x2001d748      0x130 C:/HOOPOE3/satellite-subsystems/demo/..//satellite-subsystems/lib\libSatelliteSubsystemsD.a(gecko_driver.o)
                0x2001d748                GECKO_GetCurrentSNSR3V3
 .text.GECKO_GetVoltageFlashVTT09
                0x2001d878       0xd4 C:/HOOPOE3/satellite-subsystems/demo/..//satellite-subsystems/lib\libSatelliteSubsystemsD.a(gecko_driver.o)
                0x2001d878                GECKO_GetVoltageFlashVTT09
 .text.GECKO_GetTempSMU3AB
                0x2001d94c      0x35c C:/HOOPOE3/satellite-subsystems/demo/..//satellite-subsystems/lib\libSatelliteSubsystemsD.a(gecko_driver.o)
                0x2001d94c                GECKO_GetTempSMU3AB
 .text.GECKO_GetTempSMU3BC
                0x2001dca8      0x360 C:/HOOPOE3/satellite-subsystems/demo/..//satellite-subsystems/lib\libSatelliteSubsystemsD.a(gecko_driver.o)
                0x2001dca8                GECKO_GetTempSMU3BC
 .text.GECKO_GetTempREGU6
                0x2001e008      0x35c C:/HOOPOE3/satellite-subsystems/demo/..//satellite-subsystems/lib\libSatelliteSubsystemsD.a(gecko_driver.o)
                0x2001e008                GECKO_GetTempREGU6
 .text.GECKO_GetTempREGU8
                0x2001e364      0x360 C:/HOOPOE3/satellite-subsystems/demo/..//satellite-subsystems/lib\libSatelliteSubsystemsD.a(gecko_driver.o)
                0x2001e364                GECKO_GetTempREGU8
 .text.GECKO_GetTempFlash
                0x2001e6c4      0x360 C:/HOOPOE3/satellite-subsystems/demo/..//satellite-subsystems/lib\libSatelliteSubsystemsD.a(gecko_driver.o)
                0x2001e6c4                GECKO_GetTempFlash
 .text._SpiWriteRead
                0x2001ea24       0x70 C:/HOOPOE3/satellite-subsystems/demo/..//satellite-subsystems/lib\libSatelliteSubsystemsD.a(gecko_driver.o)
 .text.makeTRXCommonTransfer
                0x2001ea94       0x34 C:/HOOPOE3/satellite-subsystems/demo/..//satellite-subsystems/lib\libSatelliteSubsystemsD.a(IsisTRXCommon.o)
 .text.IsisTrxCommon_componentReset
                0x2001eac8       0x68 C:/HOOPOE3/satellite-subsystems/demo/..//satellite-subsystems/lib\libSatelliteSubsystemsD.a(IsisTRXCommon.o)
                0x2001eac8                IsisTrxCommon_componentReset
 .text.IsisTrxCommon_TxSendAX25DefClSign
                0x2001eb30       0xf4 C:/HOOPOE3/satellite-subsystems/demo/..//satellite-subsystems/lib\libSatelliteSubsystemsD.a(IsisTRXCommon.o)
                0x2001eb30                IsisTrxCommon_TxSendAX25DefClSign
 .text.IsisTrxCommon_TxSetIdlestate
                0x2001ec24       0x78 C:/HOOPOE3/satellite-subsystems/demo/..//satellite-subsystems/lib\libSatelliteSubsystemsD.a(IsisTRXCommon.o)
                0x2001ec24                IsisTrxCommon_TxSetIdlestate
 .text.IsisTrxCommon_TxSetAx25Bitrate
                0x2001ec9c       0x78 C:/HOOPOE3/satellite-subsystems/demo/..//satellite-subsystems/lib\libSatelliteSubsystemsD.a(IsisTRXCommon.o)
                0x2001ec9c                IsisTrxCommon_TxSetAx25Bitrate
 .text.IsisTrxCommon_RxGetFrameCount
                0x2001ed14       0x8c C:/HOOPOE3/satellite-subsystems/demo/..//satellite-subsystems/lib\libSatelliteSubsystemsD.a(IsisTRXCommon.o)
                0x2001ed14                IsisTrxCommon_RxGetFrameCount
 .text.IsisTrxCommon_RxGetTelemetryAll_revC
                0x2001eda0       0x8c C:/HOOPOE3/satellite-subsystems/demo/..//satellite-subsystems/lib\libSatelliteSubsystemsD.a(IsisTRXCommon.o)
                0x2001eda0                IsisTrxCommon_RxGetTelemetryAll_revC
 .text.log      0x2001ee2c      0x17c c:/isis/application/toolchain/bin/../lib/gcc/arm-none-eabi/4.7.4/../../../../arm-none-eabi/lib\libm.a(lib_a-w_log.o)
                0x2001ee2c                log
 .text.__ieee754_log
                0x2001efa8      0x5c0 c:/isis/application/toolchain/bin/../lib/gcc/arm-none-eabi/4.7.4/../../../../arm-none-eabi/lib\libm.a(lib_a-e_log.o)
                0x2001efa8                __ieee754_log
 .text.matherr  0x2001f568        0x8 c:/isis/application/toolchain/bin/../lib/gcc/arm-none-eabi/4.7.4/../../../../arm-none-eabi/lib\libm.a(lib_a-s_matherr.o)
                0x2001f568                matherr
 .text.nan      0x2001f570       0x10 c:/isis/application/toolchain/bin/../lib/gcc/arm-none-eabi/4.7.4/../../../../arm-none-eabi/lib\libm.a(lib_a-s_nan.o)
                0x2001f570                nan
 .text.fn_init  0x2001f580      0x2e0 C:/HOOPOE3/satellite-subsystems/demo/../..//hal/hcc/lib\libHCCD.a(fat_common.o)
                0x2001f580                fn_init
 .text._f_get16bitl
                0x2001f860       0x4c C:/HOOPOE3/satellite-subsystems/demo/../..//hal/hcc/lib\libHCCD.a(fat_common.o)
                0x2001f860                _f_get16bitl
 .text._f_set16bitl
                0x2001f8ac       0x54 C:/HOOPOE3/satellite-subsystems/demo/../..//hal/hcc/lib\libHCCD.a(fat_common.o)
                0x2001f8ac                _f_set16bitl
 .text._f_get32bitl
                0x2001f900       0x68 C:/HOOPOE3/satellite-subsystems/demo/../..//hal/hcc/lib\libHCCD.a(fat_common.o)
                0x2001f900                _f_get32bitl
 .text._f_set32bitl
                0x2001f968       0x78 C:/HOOPOE3/satellite-subsystems/demo/../..//hal/hcc/lib\libHCCD.a(fat_common.o)
                0x2001f968                _f_set32bitl
 .text._get8bit
                0x2001f9e0       0xa0 C:/HOOPOE3/satellite-subsystems/demo/../..//hal/hcc/lib\libHCCD.a(fat_common.o)
 .text._get16bitl
                0x2001fa80       0x40 C:/HOOPOE3/satellite-subsystems/demo/../..//hal/hcc/lib\libHCCD.a(fat_common.o)
 .text._get32bitl
                0x2001fac0       0x3c C:/HOOPOE3/satellite-subsystems/demo/../..//hal/hcc/lib\libHCCD.a(fat_common.o)
 .text._f_setcardremoved
                0x2001fafc       0x94 C:/HOOPOE3/satellite-subsystems/demo/../..//hal/hcc/lib\libHCCD.a(fat_common.o)
 .text._f_checkstatus
                0x2001fb90      0x104 C:/HOOPOE3/satellite-subsystems/demo/../..//hal/hcc/lib\libHCCD.a(fat_common.o)
                0x2001fb90                _f_checkstatus
 .text._f_drvgetphy
                0x2001fc94      0x114 C:/HOOPOE3/satellite-subsystems/demo/../..//hal/hcc/lib\libHCCD.a(fat_common.o)
 .text._f_drvwritesector
                0x2001fda8       0xdc C:/HOOPOE3/satellite-subsystems/demo/../..//hal/hcc/lib\libHCCD.a(fat_common.o)
 .text._f_drvreadsector
                0x2001fe84       0xa8 C:/HOOPOE3/satellite-subsystems/demo/../..//hal/hcc/lib\libHCCD.a(fat_common.o)
 .text._f_writesector
                0x2001ff2c      0x23c C:/HOOPOE3/satellite-subsystems/demo/../..//hal/hcc/lib\libHCCD.a(fat_common.o)
                0x2001ff2c                _f_writesector
 .text._f_readsector
                0x20020168      0x1dc C:/HOOPOE3/satellite-subsystems/demo/../..//hal/hcc/lib\libHCCD.a(fat_common.o)
                0x20020168                _f_readsector
 .text._f_getmaxcluster
                0x20020344       0x94 C:/HOOPOE3/satellite-subsystems/demo/../..//hal/hcc/lib\libHCCD.a(fat_common.o)
                0x20020344                _f_getmaxcluster
 .text._getsectorfromcluster
                0x200203d8       0x68 C:/HOOPOE3/satellite-subsystems/demo/../..//hal/hcc/lib\libHCCD.a(fat_common.o)
 .text._f_buildsectors
                0x20020440      0x268 C:/HOOPOE3/satellite-subsystems/demo/../..//hal/hcc/lib\libHCCD.a(fat_common.o)
 .text._f_getbootrecord
                0x200206a8      0x5e4 C:/HOOPOE3/satellite-subsystems/demo/../..//hal/hcc/lib\libHCCD.a(fat_common.o)
 .text._f_readbootrecord
                0x20020c8c      0x4f8 C:/HOOPOE3/satellite-subsystems/demo/../..//hal/hcc/lib\libHCCD.a(fat_common.o)
 .text._f_flushcffiles
                0x20021184      0x17c C:/HOOPOE3/satellite-subsystems/demo/../..//hal/hcc/lib\libHCCD.a(fat_common.o)
                0x20021184                _f_flushcffiles
 .text._f_fatcache_flush
                0x20021300      0x270 C:/HOOPOE3/satellite-subsystems/demo/../..//hal/hcc/lib\libHCCD.a(fat_common.o)
                0x20021300                _f_fatcache_flush
 .text._f_writefatsector
                0x20021570      0x100 C:/HOOPOE3/satellite-subsystems/demo/../..//hal/hcc/lib\libHCCD.a(fat_common.o)
                0x20021570                _f_writefatsector
 .text._f_getfatsector
                0x20021670      0x3bc C:/HOOPOE3/satellite-subsystems/demo/../..//hal/hcc/lib\libHCCD.a(fat_common.o)
 .text._f_setclustervalue
                0x20021a2c      0x490 C:/HOOPOE3/satellite-subsystems/demo/../..//hal/hcc/lib\libHCCD.a(fat_common.o)
                0x20021a2c                _f_setclustervalue
 .text._f_getclustervalue
                0x20021ebc      0x388 C:/HOOPOE3/satellite-subsystems/demo/../..//hal/hcc/lib\libHCCD.a(fat_common.o)
                0x20021ebc                _f_getclustervalue
 .text._f_close_drive_files
                0x20022244       0xac C:/HOOPOE3/satellite-subsystems/demo/../..//hal/hcc/lib\libHCCD.a(fat_common.o)
 .text._f_inc_mount_count
                0x200222f0       0xa4 C:/HOOPOE3/satellite-subsystems/demo/../..//hal/hcc/lib\libHCCD.a(fat_common.o)
 .text._f_getvolume
                0x20022394      0x2f8 C:/HOOPOE3/satellite-subsystems/demo/../..//hal/hcc/lib\libHCCD.a(fat_common.o)
                0x20022394                _f_getvolume
 .text.fn_createdriver
                0x2002268c      0x118 C:/HOOPOE3/satellite-subsystems/demo/../..//hal/hcc/lib\libHCCD.a(fat_common.o)
                0x2002268c                fn_createdriver
 .text.fn_initvolume
                0x200227a4      0x12c C:/HOOPOE3/satellite-subsystems/demo/../..//hal/hcc/lib\libHCCD.a(fat_common.o)
                0x200227a4                fn_initvolume
 .text.fn_initvolumepartition_sub
                0x200228d0       0xe0 C:/HOOPOE3/satellite-subsystems/demo/../..//hal/hcc/lib\libHCCD.a(fat_common.o)
 .text.fn_initvolumepartition
                0x200229b0       0xac C:/HOOPOE3/satellite-subsystems/demo/../..//hal/hcc/lib\libHCCD.a(fat_common.o)
                0x200229b0                fn_initvolumepartition
 .text._f_clustertopos
                0x20022a5c       0xf8 C:/HOOPOE3/satellite-subsystems/demo/../..//hal/hcc/lib\libHCCD.a(fat_common.o)
                0x20022a5c                _f_clustertopos
 .text._f_getcurrsector
                0x20022b54      0x6c8 C:/HOOPOE3/satellite-subsystems/demo/../..//hal/hcc/lib\libHCCD.a(fat_common.o)
                0x20022b54                _f_getcurrsector
 .text._f_getdecluster
                0x2002321c       0x90 C:/HOOPOE3/satellite-subsystems/demo/../..//hal/hcc/lib\libHCCD.a(fat_common.o)
                0x2002321c                _f_getdecluster
 .text._f_setdecluster
                0x200232ac       0x8c C:/HOOPOE3/satellite-subsystems/demo/../..//hal/hcc/lib\libHCCD.a(fat_common.o)
                0x200232ac                _f_setdecluster
 .text.fn_getdrive
                0x20023338       0x30 C:/HOOPOE3/satellite-subsystems/demo/../..//hal/hcc/lib\libHCCD.a(fat_common.o)
                0x20023338                fn_getdrive
 .text._f_getcurrenttimedate
                0x20023368      0x138 C:/HOOPOE3/satellite-subsystems/demo/../..//hal/hcc/lib\libHCCD.a(fat_common.o)
                0x20023368                _f_getcurrenttimedate
 .text._f_initentry
                0x200234a0       0xa0 C:/HOOPOE3/satellite-subsystems/demo/../..//hal/hcc/lib\libHCCD.a(fat_common.o)
                0x200234a0                _f_initentry
 .text._f_alloccluster
                0x20023540      0x344 C:/HOOPOE3/satellite-subsystems/demo/../..//hal/hcc/lib\libHCCD.a(fat_common.o)
                0x20023540                _f_alloccluster
 .text._f_dobadblock
                0x20023884      0x2cc C:/HOOPOE3/satellite-subsystems/demo/../..//hal/hcc/lib\libHCCD.a(fat_common.o)
                0x20023884                _f_dobadblock
 .text._f_checklocked
                0x20023b50       0xe4 C:/HOOPOE3/satellite-subsystems/demo/../..//hal/hcc/lib\libHCCD.a(fat_common.o)
                0x20023b50                _f_checklocked
 .text._f_checkappendlocked
                0x20023c34      0x110 C:/HOOPOE3/satellite-subsystems/demo/../..//hal/hcc/lib\libHCCD.a(fat_common.o)
                0x20023c34                _f_checkappendlocked
 .text._f_setsyncafile
                0x20023d44      0x114 C:/HOOPOE3/satellite-subsystems/demo/../..//hal/hcc/lib\libHCCD.a(fat_common.o)
                0x20023d44                _f_setsyncafile
 .text._f_syncfiles
                0x20023e58      0x128 C:/HOOPOE3/satellite-subsystems/demo/../..//hal/hcc/lib\libHCCD.a(fat_common.o)
                0x20023e58                _f_syncfiles
 .text._f_syncfilescontent
                0x20023f80      0x15c C:/HOOPOE3/satellite-subsystems/demo/../..//hal/hcc/lib\libHCCD.a(fat_common.o)
 .text.fn_getfreespace
                0x200240dc      0x4c0 C:/HOOPOE3/satellite-subsystems/demo/../..//hal/hcc/lib\libHCCD.a(fat_common.o)
                0x200240dc                fn_getfreespace
 .text._f_emptywritecache
                0x2002459c      0x4a4 C:/HOOPOE3/satellite-subsystems/demo/../..//hal/hcc/lib\libHCCD.a(fat_common.o)
 .text._f_allocnextcluster
                0x20024a40      0x54c C:/HOOPOE3/satellite-subsystems/demo/../..//hal/hcc/lib\libHCCD.a(fat_common.o)
 .text._f_emptywritebuffer
                0x20024f8c      0x20c C:/HOOPOE3/satellite-subsystems/demo/../..//hal/hcc/lib\libHCCD.a(fat_common.o)
 .text._f_writezeros
                0x20025198       0xf0 C:/HOOPOE3/satellite-subsystems/demo/../..//hal/hcc/lib\libHCCD.a(fat_common.o)
                0x20025198                _f_writezeros
 .text._f_extend_file
                0x20025288      0x570 C:/HOOPOE3/satellite-subsystems/demo/../..//hal/hcc/lib\libHCCD.a(fat_common.o)
 .text._f_fseek
                0x200257f8      0x9bc C:/HOOPOE3/satellite-subsystems/demo/../..//hal/hcc/lib\libHCCD.a(fat_common.o)
                0x200257f8                _f_fseek
 .text._f_removechain
                0x200261b4      0x104 C:/HOOPOE3/satellite-subsystems/demo/../..//hal/hcc/lib\libHCCD.a(fat_common.o)
                0x200261b4                _f_removechain
 .text._f_updatefileentry
                0x200262b8      0x1cc C:/HOOPOE3/satellite-subsystems/demo/../..//hal/hcc/lib\libHCCD.a(fat_common.o)
 .text._f_checkreadlocked
                0x20026484      0x1bc C:/HOOPOE3/satellite-subsystems/demo/../..//hal/hcc/lib\libHCCD.a(fat_common.o)
                0x20026484                _f_checkreadlocked
 .text._f_check_handle
                0x20026640       0x98 C:/HOOPOE3/satellite-subsystems/demo/../..//hal/hcc/lib\libHCCD.a(fat_common.o)
                0x20026640                _f_check_handle
 .text._f_removesyncafile
                0x200266d8      0x1ec C:/HOOPOE3/satellite-subsystems/demo/../..//hal/hcc/lib\libHCCD.a(fat_common.o)
 .text.fn_close
                0x200268c4      0x3f8 C:/HOOPOE3/satellite-subsystems/demo/../..//hal/hcc/lib\libHCCD.a(fat_common.o)
                0x200268c4                fn_close
 .text.fn_flush
                0x20026cbc      0x374 C:/HOOPOE3/satellite-subsystems/demo/../..//hal/hcc/lib\libHCCD.a(fat_common.o)
                0x20026cbc                fn_flush
 .text.fn_read  0x20027030      0x690 C:/HOOPOE3/satellite-subsystems/demo/../..//hal/hcc/lib\libHCCD.a(fat_common.o)
                0x20027030                fn_read
 .text._f_abortwrite
                0x200276c0      0x100 C:/HOOPOE3/satellite-subsystems/demo/../..//hal/hcc/lib\libHCCD.a(fat_common.o)
 .text._f_checkwritecluster
                0x200277c0       0xe4 C:/HOOPOE3/satellite-subsystems/demo/../..//hal/hcc/lib\libHCCD.a(fat_common.o)
 .text.fn_write
                0x200278a4      0x8a8 C:/HOOPOE3/satellite-subsystems/demo/../..//hal/hcc/lib\libHCCD.a(fat_common.o)
                0x200278a4                fn_write
 .text.fn_seek  0x2002814c      0x270 C:/HOOPOE3/satellite-subsystems/demo/../..//hal/hcc/lib\libHCCD.a(fat_common.o)
                0x2002814c                fn_seek
 .text.f_enterFS
                0x200283bc      0x1c0 C:/HOOPOE3/satellite-subsystems/demo/../..//hal/hcc/lib\libHCCD.a(fat_common.o)
                0x200283bc                f_enterFS
 .text.f_releaseFS
                0x2002857c       0xb0 C:/HOOPOE3/satellite-subsystems/demo/../..//hal/hcc/lib\libHCCD.a(fat_common.o)
                0x2002857c                f_releaseFS
 .text.fnGetTask
                0x2002862c       0xfc C:/HOOPOE3/satellite-subsystems/demo/../..//hal/hcc/lib\libHCCD.a(fat_common.o)
                0x2002862c                fnGetTask
 .text._f_mutex_get
                0x20028728       0x98 C:/HOOPOE3/satellite-subsystems/demo/../..//hal/hcc/lib\libHCCD.a(fat_common.o)
                0x20028728                _f_mutex_get
 .text._f_mutex_put
                0x200287c0       0x54 C:/HOOPOE3/satellite-subsystems/demo/../..//hal/hcc/lib\libHCCD.a(fat_common.o)
                0x200287c0                _f_mutex_put
 .text._fn_initseekdivisor
                0x20028814      0x158 C:/HOOPOE3/satellite-subsystems/demo/../..//hal/hcc/lib\libHCCD.a(fat_common.o)
                0x20028814                _fn_initseekdivisor
 .text._fn_updateseekpos
                0x2002896c       0xc4 C:/HOOPOE3/satellite-subsystems/demo/../..//hal/hcc/lib\libHCCD.a(fat_common.o)
 .text._f_findopensize
                0x20028a30       0x2c C:/HOOPOE3/satellite-subsystems/demo/../..//hal/hcc/lib\libHCCD.a(fat_common.o)
                0x20028a30                _f_findopensize
 .text.fn_setlasterror
                0x20028a5c       0x34 C:/HOOPOE3/satellite-subsystems/demo/../..//hal/hcc/lib\libHCCD.a(fat_common.o)
                0x20028a5c                fn_setlasterror
 .text.fn_setlasterror_noret
                0x20028a90       0x2c C:/HOOPOE3/satellite-subsystems/demo/../..//hal/hcc/lib\libHCCD.a(fat_common.o)
                0x20028a90                fn_setlasterror_noret
 .text.fm_initvolume
                0x20028abc       0x70 C:/HOOPOE3/satellite-subsystems/demo/../..//hal/hcc/lib\libHCCD.a(fat_m.o)
                0x20028abc                fm_initvolume
 .text.fm_getdrive
                0x20028b2c       0x70 C:/HOOPOE3/satellite-subsystems/demo/../..//hal/hcc/lib\libHCCD.a(fat_m.o)
                0x20028b2c                fm_getdrive
 .text.fm_getfreespace
                0x20028b9c       0x68 C:/HOOPOE3/satellite-subsystems/demo/../..//hal/hcc/lib\libHCCD.a(fat_m.o)
                0x20028b9c                fm_getfreespace
 .text.fm_findfirst
                0x20028c04       0x68 C:/HOOPOE3/satellite-subsystems/demo/../..//hal/hcc/lib\libHCCD.a(fat_m.o)
                0x20028c04                fm_findfirst
 .text.fm_findnext
                0x20028c6c       0x60 C:/HOOPOE3/satellite-subsystems/demo/../..//hal/hcc/lib\libHCCD.a(fat_m.o)
                0x20028c6c                fm_findnext
 .text.fm_rename
                0x20028ccc       0x68 C:/HOOPOE3/satellite-subsystems/demo/../..//hal/hcc/lib\libHCCD.a(fat_m.o)
                0x20028ccc                fm_rename
 .text.fm_filelength
                0x20028d34       0x60 C:/HOOPOE3/satellite-subsystems/demo/../..//hal/hcc/lib\libHCCD.a(fat_m.o)
                0x20028d34                fm_filelength
 .text.fm_close
                0x20028d94       0x60 C:/HOOPOE3/satellite-subsystems/demo/../..//hal/hcc/lib\libHCCD.a(fat_m.o)
                0x20028d94                fm_close
 .text.fm_flush
                0x20028df4       0x60 C:/HOOPOE3/satellite-subsystems/demo/../..//hal/hcc/lib\libHCCD.a(fat_m.o)
                0x20028df4                fm_flush
 .text.fm_open  0x20028e54       0x68 C:/HOOPOE3/satellite-subsystems/demo/../..//hal/hcc/lib\libHCCD.a(fat_m.o)
                0x20028e54                fm_open
 .text.fm_read  0x20028ebc       0x7c C:/HOOPOE3/satellite-subsystems/demo/../..//hal/hcc/lib\libHCCD.a(fat_m.o)
                0x20028ebc                fm_read
 .text.fm_write
                0x20028f38       0x7c C:/HOOPOE3/satellite-subsystems/demo/../..//hal/hcc/lib\libHCCD.a(fat_m.o)
                0x20028f38                fm_write
 .text.fm_seek  0x20028fb4       0x70 C:/HOOPOE3/satellite-subsystems/demo/../..//hal/hcc/lib\libHCCD.a(fat_m.o)
                0x20028fb4                fm_seek
 .text.fm_delete
                0x20029024       0x64 C:/HOOPOE3/satellite-subsystems/demo/../..//hal/hcc/lib\libHCCD.a(fat_m.o)
                0x20029024                fm_delete
 .text.fm_getlasterror
                0x20029088       0x40 C:/HOOPOE3/satellite-subsystems/demo/../..//hal/hcc/lib\libHCCD.a(fat_m.o)
                0x20029088                fm_getlasterror
 .text._s_checkzeroclusteratend
                0x200290c8       0xf8 C:/HOOPOE3/satellite-subsystems/demo/../..//hal/hcc/lib\libHCCD.a(safefat.o)
 .text._s_clearclustercontent
                0x200291c0      0x108 C:/HOOPOE3/satellite-subsystems/demo/../..//hal/hcc/lib\libHCCD.a(safefat.o)
 .text._s_clearclustercontentdir
                0x200292c8      0x19c C:/HOOPOE3/satellite-subsystems/demo/../..//hal/hcc/lib\libHCCD.a(safefat.o)
 .text._s_writedirsector
                0x20029464       0xd0 C:/HOOPOE3/satellite-subsystems/demo/../..//hal/hcc/lib\libHCCD.a(safefat.o)
 .text._s_getdirsector
                0x20029534      0x100 C:/HOOPOE3/satellite-subsystems/demo/../..//hal/hcc/lib\libHCCD.a(safefat.o)
 .text._s_addentry
                0x20029634      0x394 C:/HOOPOE3/satellite-subsystems/demo/../..//hal/hcc/lib\libHCCD.a(safefat.o)
 .text._s_findfile
                0x200299c8      0x33c C:/HOOPOE3/satellite-subsystems/demo/../..//hal/hcc/lib\libHCCD.a(safefat.o)
 .text._s_findsubdir
                0x20029d04      0x248 C:/HOOPOE3/satellite-subsystems/demo/../..//hal/hcc/lib\libHCCD.a(safefat.o)
 .text._s_createfile
                0x20029f4c      0x190 C:/HOOPOE3/satellite-subsystems/demo/../..//hal/hcc/lib\libHCCD.a(safefat.o)
 .text._s_findsaffile
                0x2002a0dc      0x1b8 C:/HOOPOE3/satellite-subsystems/demo/../..//hal/hcc/lib\libHCCD.a(safefat.o)
 .text._s_open  0x2002a294       0xe4 C:/HOOPOE3/satellite-subsystems/demo/../..//hal/hcc/lib\libHCCD.a(safefat.o)
 .text._s_open_saf
                0x2002a378       0xe8 C:/HOOPOE3/satellite-subsystems/demo/../..//hal/hcc/lib\libHCCD.a(safefat.o)
 .text._s_flush
                0x2002a460       0x84 C:/HOOPOE3/satellite-subsystems/demo/../..//hal/hcc/lib\libHCCD.a(safefat.o)
 .text._s_allocnextcluster
                0x2002a4e4      0x13c C:/HOOPOE3/satellite-subsystems/demo/../..//hal/hcc/lib\libHCCD.a(safefat.o)
 .text._s_getnextsector
                0x2002a620       0xdc C:/HOOPOE3/satellite-subsystems/demo/../..//hal/hcc/lib\libHCCD.a(safefat.o)
 .text._s_seek  0x2002a6fc      0x1e8 C:/HOOPOE3/satellite-subsystems/demo/../..//hal/hcc/lib\libHCCD.a(safefat.o)
 .text._s_read  0x2002a8e4      0x228 C:/HOOPOE3/satellite-subsystems/demo/../..//hal/hcc/lib\libHCCD.a(safefat.o)
 .text._s_write
                0x2002ab0c      0x384 C:/HOOPOE3/satellite-subsystems/demo/../..//hal/hcc/lib\libHCCD.a(safefat.o)
 .text._s_restoreclusters
                0x2002ae90      0x270 C:/HOOPOE3/satellite-subsystems/demo/../..//hal/hcc/lib\libHCCD.a(safefat.o)
                0x2002ae90                _s_restoreclusters
 .text._s_findrestore
                0x2002b100      0x18c C:/HOOPOE3/satellite-subsystems/demo/../..//hal/hcc/lib\libHCCD.a(safefat.o)
 .text._s_cmd_writede
                0x2002b28c       0xd8 C:/HOOPOE3/satellite-subsystems/demo/../..//hal/hcc/lib\libHCCD.a(safefat.o)
 .text._s_cmd_setcluster
                0x2002b364       0x88 C:/HOOPOE3/satellite-subsystems/demo/../..//hal/hcc/lib\libHCCD.a(safefat.o)
 .text._s_cmd_deletechain
                0x2002b3ec      0x100 C:/HOOPOE3/satellite-subsystems/demo/../..//hal/hcc/lib\libHCCD.a(safefat.o)
 .text._s_cmd_validatecfn
                0x2002b4ec      0x308 C:/HOOPOE3/satellite-subsystems/demo/../..//hal/hcc/lib\libHCCD.a(safefat.o)
 .text._s_cmd_seteof
                0x2002b7f4      0x3c4 C:/HOOPOE3/satellite-subsystems/demo/../..//hal/hcc/lib\libHCCD.a(safefat.o)
 .text.safe_docommands
                0x2002bbb8      0x56c C:/HOOPOE3/satellite-subsystems/demo/../..//hal/hcc/lib\libHCCD.a(safefat.o)
                0x2002bbb8                safe_docommands
 .text.safe_entercommand
                0x2002c124       0x68 C:/HOOPOE3/satellite-subsystems/demo/../..//hal/hcc/lib\libHCCD.a(safefat.o)
                0x2002c124                safe_entercommand
 .text.safe_ready
                0x2002c18c       0xf4 C:/HOOPOE3/satellite-subsystems/demo/../..//hal/hcc/lib\libHCCD.a(safefat.o)
                0x2002c18c                safe_ready
 .text.safe_copycfn
                0x2002c280       0xb8 C:/HOOPOE3/satellite-subsystems/demo/../..//hal/hcc/lib\libHCCD.a(safefat.o)
                0x2002c280                safe_copycfn
 .text.safe_cfremove
                0x2002c338       0xb8 C:/HOOPOE3/satellite-subsystems/demo/../..//hal/hcc/lib\libHCCD.a(safefat.o)
                0x2002c338                safe_cfremove
 .text.safe_writede
                0x2002c3f0      0x104 C:/HOOPOE3/satellite-subsystems/demo/../..//hal/hcc/lib\libHCCD.a(safefat.o)
                0x2002c3f0                safe_writede
 .text.safe_setcluster
                0x2002c4f4       0xcc C:/HOOPOE3/satellite-subsystems/demo/../..//hal/hcc/lib\libHCCD.a(safefat.o)
                0x2002c4f4                safe_setcluster
 .text.safe_deletechain
                0x2002c5c0      0x1c8 C:/HOOPOE3/satellite-subsystems/demo/../..//hal/hcc/lib\libHCCD.a(safefat.o)
                0x2002c5c0                safe_deletechain
 .text.safe_cfclose
                0x2002c788      0x104 C:/HOOPOE3/satellite-subsystems/demo/../..//hal/hcc/lib\libHCCD.a(safefat.o)
                0x2002c788                safe_cfclose
 .text.safe_cfflush
                0x2002c88c      0x124 C:/HOOPOE3/satellite-subsystems/demo/../..//hal/hcc/lib\libHCCD.a(safefat.o)
                0x2002c88c                safe_cfflush
 .text.safe_reset
                0x2002c9b0       0x78 C:/HOOPOE3/satellite-subsystems/demo/../..//hal/hcc/lib\libHCCD.a(safefat.o)
                0x2002c9b0                safe_reset
 .text.safe_loadcommands
                0x2002ca28       0x78 C:/HOOPOE3/satellite-subsystems/demo/../..//hal/hcc/lib\libHCCD.a(safefat.o)
                0x2002ca28                safe_loadcommands
 .text.safe_poweron
                0x2002caa0      0x1fc C:/HOOPOE3/satellite-subsystems/demo/../..//hal/hcc/lib\libHCCD.a(safefat.o)
                0x2002caa0                safe_poweron
 .text.cf_getname
                0x2002cc9c       0xc0 C:/HOOPOE3/satellite-subsystems/demo/../..//hal/hcc/lib\libHCCD.a(safefat.o)
 .text.cf_copyclusterchain
                0x2002cd5c      0x138 C:/HOOPOE3/satellite-subsystems/demo/../..//hal/hcc/lib\libHCCD.a(safefat.o)
 .text.cf_seektozero
                0x2002ce94       0x94 C:/HOOPOE3/satellite-subsystems/demo/../..//hal/hcc/lib\libHCCD.a(safefat.o)
                0x2002ce94                cf_seektozero
 .text.cf_create
                0x2002cf28      0x3a8 C:/HOOPOE3/satellite-subsystems/demo/../..//hal/hcc/lib\libHCCD.a(safefat.o)
                0x2002cf28                cf_create
 .text.cf_copyclustercontent
                0x2002d2d0      0x128 C:/HOOPOE3/satellite-subsystems/demo/../..//hal/hcc/lib\libHCCD.a(safefat.o)
                0x2002d2d0                cf_copyclustercontent
 .text.cf_copycfn
                0x2002d3f8      0x4bc C:/HOOPOE3/satellite-subsystems/demo/../..//hal/hcc/lib\libHCCD.a(safefat.o)
                0x2002d3f8                cf_copycfn
 .text.cf_remove
                0x2002d8b4      0x344 C:/HOOPOE3/satellite-subsystems/demo/../..//hal/hcc/lib\libHCCD.a(safefat.o)
                0x2002d8b4                cf_remove
 .text.cf_setclusternew
                0x2002dbf8       0xf0 C:/HOOPOE3/satellite-subsystems/demo/../..//hal/hcc/lib\libHCCD.a(safefat.o)
                0x2002dbf8                cf_setclusternew
 .text.cf_flush
                0x2002dce8       0x58 C:/HOOPOE3/satellite-subsystems/demo/../..//hal/hcc/lib\libHCCD.a(safefat.o)
                0x2002dce8                cf_flush
 .text.cf_getcluster
                0x2002dd40      0x1b4 C:/HOOPOE3/satellite-subsystems/demo/../..//hal/hcc/lib\libHCCD.a(safefat.o)
                0x2002dd40                cf_getcluster
 .text.cf_setnextcluster
                0x2002def4      0x194 C:/HOOPOE3/satellite-subsystems/demo/../..//hal/hcc/lib\libHCCD.a(safefat.o)
                0x2002def4                cf_setnextcluster
 .text.cf_getpositions
                0x2002e088       0xbc C:/HOOPOE3/satellite-subsystems/demo/../..//hal/hcc/lib\libHCCD.a(safefat.o)
                0x2002e088                cf_getpositions
 .text.cf_setpositions
                0x2002e144       0xb0 C:/HOOPOE3/satellite-subsystems/demo/../..//hal/hcc/lib\libHCCD.a(safefat.o)
                0x2002e144                cf_setpositions
 .text.cf_opensyncafile
                0x2002e1f4      0x150 C:/HOOPOE3/satellite-subsystems/demo/../..//hal/hcc/lib\libHCCD.a(safefat.o)
                0x2002e1f4                cf_opensyncafile
 .text.cf_reloadcfo
                0x2002e344       0xd8 C:/HOOPOE3/satellite-subsystems/demo/../..//hal/hcc/lib\libHCCD.a(safefat.o)
                0x2002e344                cf_reloadcfo
 .text.mcipdc_cmd
                0x2002e41c      0x22c C:/HOOPOE3/satellite-subsystems/demo/../..//hal/hcc/lib\libHCCD.a(atmel_mcipdc.o)
 .text.mcipdc_stop
                0x2002e648       0xfc C:/HOOPOE3/satellite-subsystems/demo/../..//hal/hcc/lib\libHCCD.a(atmel_mcipdc.o)
                0x2002e648                mcipdc_stop
 .text.mcipdc_read
                0x2002e744      0x27c C:/HOOPOE3/satellite-subsystems/demo/../..//hal/hcc/lib\libHCCD.a(atmel_mcipdc.o)
 .text.mcipdc_write
                0x2002e9c0      0x298 C:/HOOPOE3/satellite-subsystems/demo/../..//hal/hcc/lib\libHCCD.a(atmel_mcipdc.o)
 .text.mcipdc_readsector
                0x2002ec58       0x9c C:/HOOPOE3/satellite-subsystems/demo/../..//hal/hcc/lib\libHCCD.a(atmel_mcipdc.o)
                0x2002ec58                mcipdc_readsector
 .text.mcipdc_readmultiplesector
                0x2002ecf4      0x124 C:/HOOPOE3/satellite-subsystems/demo/../..//hal/hcc/lib\libHCCD.a(atmel_mcipdc.o)
                0x2002ecf4                mcipdc_readmultiplesector
 .text.mcipdc_writesector
                0x2002ee18       0x90 C:/HOOPOE3/satellite-subsystems/demo/../..//hal/hcc/lib\libHCCD.a(atmel_mcipdc.o)
                0x2002ee18                mcipdc_writesector
 .text.mcipdc_writemultiplesector
                0x2002eea8      0x120 C:/HOOPOE3/satellite-subsystems/demo/../..//hal/hcc/lib\libHCCD.a(atmel_mcipdc.o)
                0x2002eea8                mcipdc_writemultiplesector
 .text.mcipdc_set_speed
                0x2002efc8       0xb0 C:/HOOPOE3/satellite-subsystems/demo/../..//hal/hcc/lib\libHCCD.a(atmel_mcipdc.o)
 .text.mcipdc_get_speed
                0x2002f078       0x48 C:/HOOPOE3/satellite-subsystems/demo/../..//hal/hcc/lib\libHCCD.a(atmel_mcipdc.o)
 .text._get_csd_bits
                0x2002f0c0      0x14c C:/HOOPOE3/satellite-subsystems/demo/../..//hal/hcc/lib\libHCCD.a(atmel_mcipdc.o)
 .text.mcipdc_initcard
                0x2002f20c      0x8f4 C:/HOOPOE3/satellite-subsystems/demo/../..//hal/hcc/lib\libHCCD.a(atmel_mcipdc.o)
 .text.mcipdc_getstatus
                0x2002fb00       0xe8 C:/HOOPOE3/satellite-subsystems/demo/../..//hal/hcc/lib\libHCCD.a(atmel_mcipdc.o)
 .text.mcipdc_getphy
                0x2002fbe8       0x90 C:/HOOPOE3/satellite-subsystems/demo/../..//hal/hcc/lib\libHCCD.a(atmel_mcipdc.o)
 .text.mcipdc_release
                0x2002fc78       0x50 C:/HOOPOE3/satellite-subsystems/demo/../..//hal/hcc/lib\libHCCD.a(atmel_mcipdc.o)
 .text.atmel_mcipdc_initfunc
                0x2002fcc8      0x160 C:/HOOPOE3/satellite-subsystems/demo/../..//hal/hcc/lib\libHCCD.a(atmel_mcipdc.o)
                0x2002fcc8                atmel_mcipdc_initfunc
 .text.oal_mutex_create
                0x2002fe28       0x54 C:/HOOPOE3/satellite-subsystems/demo/../..//hal/hcc/lib\libHCCD.a(oalp_mutex.o)
                0x2002fe28                oal_mutex_create
 .text.oal_mutex_delete
                0x2002fe7c       0x30 C:/HOOPOE3/satellite-subsystems/demo/../..//hal/hcc/lib\libHCCD.a(oalp_mutex.o)
                0x2002fe7c                oal_mutex_delete
 .text.oal_mutex_get
                0x2002feac       0x58 C:/HOOPOE3/satellite-subsystems/demo/../..//hal/hcc/lib\libHCCD.a(oalp_mutex.o)
                0x2002feac                oal_mutex_get
 .text.oal_mutex_put
                0x2002ff04       0x58 C:/HOOPOE3/satellite-subsystems/demo/../..//hal/hcc/lib\libHCCD.a(oalp_mutex.o)
                0x2002ff04                oal_mutex_put
 .text.oal_task_get_id
                0x2002ff5c       0x18 C:/HOOPOE3/satellite-subsystems/demo/../..//hal/hcc/lib\libHCCD.a(oalp_task.o)
                0x2002ff5c                oal_task_get_id
 .text.mcipdc_hw_init
                0x2002ff74       0xe8 C:/HOOPOE3/satellite-subsystems/demo/../..//hal/hcc/lib\libHCCD.a(atmel_mcipdc_hw.o)
                0x2002ff74                mcipdc_hw_init
 .text.mcipdc_hw_delete
                0x2003005c       0x78 C:/HOOPOE3/satellite-subsystems/demo/../..//hal/hcc/lib\libHCCD.a(atmel_mcipdc_hw.o)
                0x2003005c                mcipdc_hw_delete
 .text.mcipdc_hw_card_plugged
                0x200300d4       0x1c C:/HOOPOE3/satellite-subsystems/demo/../..//hal/hcc/lib\libHCCD.a(atmel_mcipdc_hw.o)
                0x200300d4                mcipdc_hw_card_plugged
 .text.mcipdc_hw_card_writeprotect
                0x200300f0       0x1c C:/HOOPOE3/satellite-subsystems/demo/../..//hal/hcc/lib\libHCCD.a(atmel_mcipdc_hw.o)
                0x200300f0                mcipdc_hw_card_writeprotect
 .text.psp_getcurrenttimedate
                0x2003010c       0x8c C:/HOOPOE3/satellite-subsystems/demo/../..//hal/hcc/lib\libHCCD.a(psp_rtc.o)
                0x2003010c                psp_getcurrenttimedate
 .text._hcc_get_buf_dsc
                0x20030198       0x8c C:/HOOPOE3/satellite-subsystems/demo/../..//hal/hcc/lib\libHCCD.a(hcc_mem.o)
 .text._hcc_check_free_pages
                0x20030224      0x18c C:/HOOPOE3/satellite-subsystems/demo/../..//hal/hcc/lib\libHCCD.a(hcc_mem.o)
 .text._hcc_mark_pages
                0x200303b0      0x158 C:/HOOPOE3/satellite-subsystems/demo/../..//hal/hcc/lib\libHCCD.a(hcc_mem.o)
 .text._hcc_clear_lock_dsc
                0x20030508       0x80 C:/HOOPOE3/satellite-subsystems/demo/../..//hal/hcc/lib\libHCCD.a(hcc_mem.o)
 .text._hcc_lock_access
                0x20030588      0x128 C:/HOOPOE3/satellite-subsystems/demo/../..//hal/hcc/lib\libHCCD.a(hcc_mem.o)
 .text._hcc_unlock_access
                0x200306b0       0x30 C:/HOOPOE3/satellite-subsystems/demo/../..//hal/hcc/lib\libHCCD.a(hcc_mem.o)
 .text.hcc_mem_alloc
                0x200306e0      0x454 C:/HOOPOE3/satellite-subsystems/demo/../..//hal/hcc/lib\libHCCD.a(hcc_mem.o)
                0x200306e0                hcc_mem_alloc
 .text.hcc_mem_free
                0x20030b34      0x178 C:/HOOPOE3/satellite-subsystems/demo/../..//hal/hcc/lib\libHCCD.a(hcc_mem.o)
                0x20030b34                hcc_mem_free
 .text.hcc_mem_add
                0x20030cac      0x3b0 C:/HOOPOE3/satellite-subsystems/demo/../..//hal/hcc/lib\libHCCD.a(hcc_mem.o)
                0x20030cac                hcc_mem_add
 .text.hcc_mem_init
                0x2003105c      0x164 C:/HOOPOE3/satellite-subsystems/demo/../..//hal/hcc/lib\libHCCD.a(hcc_mem.o)
                0x2003105c                hcc_mem_init
 .text._f_invalidatedir
                0x200311c0       0x28 C:/HOOPOE3/satellite-subsystems/demo/../..//hal/hcc/lib\libHCCD.a(fat.o)
                0x200311c0                _f_invalidatedir
 .text._f_getdirsector
                0x200311e8       0x88 C:/HOOPOE3/satellite-subsystems/demo/../..//hal/hcc/lib\libHCCD.a(fat.o)
                0x200311e8                _f_getdirsector
 .text._f_writedirsector
                0x20031270       0x74 C:/HOOPOE3/satellite-subsystems/demo/../..//hal/hcc/lib\libHCCD.a(fat.o)
                0x20031270                _f_writedirsector
 .text._f_checknameinv
                0x200312e4      0x180 C:/HOOPOE3/satellite-subsystems/demo/../..//hal/hcc/lib\libHCCD.a(fat.o)
 .text._f_checkname
                0x20031464       0x7c C:/HOOPOE3/satellite-subsystems/demo/../..//hal/hcc/lib\libHCCD.a(fat.o)
 .text._f_checknamewc
                0x200314e0       0xf8 C:/HOOPOE3/satellite-subsystems/demo/../..//hal/hcc/lib\libHCCD.a(fat.o)
 .text._f_setnameext
                0x200315d8      0x300 C:/HOOPOE3/satellite-subsystems/demo/../..//hal/hcc/lib\libHCCD.a(fat.o)
 .text._f_setfsname
                0x200318d8      0x584 C:/HOOPOE3/satellite-subsystems/demo/../..//hal/hcc/lib\libHCCD.a(fat.o)
 .text._f_findfile
                0x20031e5c      0x30c C:/HOOPOE3/satellite-subsystems/demo/../..//hal/hcc/lib\libHCCD.a(fat.o)
 .text._f_cmp_wname
                0x20032168      0x274 C:/HOOPOE3/satellite-subsystems/demo/../..//hal/hcc/lib\libHCCD.a(fat.o)
 .text._f_to_string
                0x200323dc      0x130 C:/HOOPOE3/satellite-subsystems/demo/../..//hal/hcc/lib\libHCCD.a(fat.o)
 .text._f_findfilewc
                0x2003250c      0x278 C:/HOOPOE3/satellite-subsystems/demo/../..//hal/hcc/lib\libHCCD.a(fat.o)
 .text._f_getfilename
                0x20032784      0x20c C:/HOOPOE3/satellite-subsystems/demo/../..//hal/hcc/lib\libHCCD.a(fat.o)
 .text._f_findpath
                0x20032990      0x35c C:/HOOPOE3/satellite-subsystems/demo/../..//hal/hcc/lib\libHCCD.a(fat.o)
 .text.fn_getdcwd
                0x20032cec      0x1e0 C:/HOOPOE3/satellite-subsystems/demo/../..//hal/hcc/lib\libHCCD.a(fat.o)
                0x20032cec                fn_getdcwd
 .text.fn_findfirst
                0x20032ecc      0x13c C:/HOOPOE3/satellite-subsystems/demo/../..//hal/hcc/lib\libHCCD.a(fat.o)
                0x20032ecc                fn_findfirst
 .text.fn_findnext
                0x20033008      0x360 C:/HOOPOE3/satellite-subsystems/demo/../..//hal/hcc/lib\libHCCD.a(fat.o)
                0x20033008                fn_findnext
 .text.fn_move  0x20033368      0xad0 C:/HOOPOE3/satellite-subsystems/demo/../..//hal/hcc/lib\libHCCD.a(fat.o)
                0x20033368                fn_move
 .text.fn_rename
                0x20033e38      0x214 C:/HOOPOE3/satellite-subsystems/demo/../..//hal/hcc/lib\libHCCD.a(fat.o)
                0x20033e38                fn_rename
 .text._f_lock_resfile
                0x2003404c       0x6c C:/HOOPOE3/satellite-subsystems/demo/../..//hal/hcc/lib\libHCCD.a(fat.o)
 .text._f_unlock_resfile
                0x200340b8       0x40 C:/HOOPOE3/satellite-subsystems/demo/../..//hal/hcc/lib\libHCCD.a(fat.o)
 .text._f_getintfile
                0x200340f8      0x124 C:/HOOPOE3/satellite-subsystems/demo/../..//hal/hcc/lib\libHCCD.a(fat.o)
 .text._f_addentry
                0x2003421c      0x540 C:/HOOPOE3/satellite-subsystems/demo/../..//hal/hcc/lib\libHCCD.a(fat.o)
 .text.fn_filelength
                0x2003475c      0x1cc C:/HOOPOE3/satellite-subsystems/demo/../..//hal/hcc/lib\libHCCD.a(fat.o)
                0x2003475c                fn_filelength
 .text.fn_open_sub
                0x20034928     0x1698 C:/HOOPOE3/satellite-subsystems/demo/../..//hal/hcc/lib\libHCCD.a(fat.o)
 .text.fn_open  0x20035fc0       0x44 C:/HOOPOE3/satellite-subsystems/demo/../..//hal/hcc/lib\libHCCD.a(fat.o)
                0x20035fc0                fn_open
 .text.fn_delete
                0x20036004      0x490 C:/HOOPOE3/satellite-subsystems/demo/../..//hal/hcc/lib\libHCCD.a(fat.o)
                0x20036004                fn_delete
 .text.hcc_mem_buf_alloc
                0x20036494       0xe4 C:/HOOPOE3/satellite-subsystems/demo/../..//hal/hcc/lib\libHCCD.a(psp_hcc_mem.o)
                0x20036494                hcc_mem_buf_alloc
 .text.validateTransferParameters
                0x20036578      0x10c C:/HOOPOE3/satellite-subsystems/demo/../..//hal/hal/lib\libHALD.a(I2C.o)
 .text.I2C_queueTransfer
                0x20036684       0xe8 C:/HOOPOE3/satellite-subsystems/demo/../..//hal/hal/lib\libHALD.a(I2C.o)
                0x20036684                I2C_queueTransfer
 .text.I2C_internalCallback
                0x2003676c       0x64 C:/HOOPOE3/satellite-subsystems/demo/../..//hal/hal/lib\libHALD.a(I2C.o)
 .text.I2C_doBlockingTransfer
                0x200367d0      0x160 C:/HOOPOE3/satellite-subsystems/demo/../..//hal/hal/lib\libHALD.a(I2C.o)
 .text.I2C_write
                0x20036930      0x110 C:/HOOPOE3/satellite-subsystems/demo/../..//hal/hal/lib\libHALD.a(I2C.o)
                0x20036930                I2C_write
 .text.I2C_writeRead
                0x20036a40      0x180 C:/HOOPOE3/satellite-subsystems/demo/../..//hal/hal/lib\libHALD.a(I2C.o)
                0x20036a40                I2C_writeRead
 .text.I2C_start
                0x20036bc0      0x2e8 C:/HOOPOE3/satellite-subsystems/demo/../..//hal/hal/lib\libHALD.a(I2C.o)
                0x20036bc0                I2C_start
 .text.I2C_stop
                0x20036ea8      0x184 C:/HOOPOE3/satellite-subsystems/demo/../..//hal/hal/lib\libHALD.a(I2C.o)
                0x20036ea8                I2C_stop
 .text.I2C_setTransferTimeout
                0x2003702c       0x48 C:/HOOPOE3/satellite-subsystems/demo/../..//hal/hal/lib\libHALD.a(I2C.o)
                0x2003702c                I2C_setTransferTimeout
 .text.clearPDCtransfers
                0x20037074       0xdc C:/HOOPOE3/satellite-subsystems/demo/../..//hal/hal/lib\libHALD.a(SPI.o)
 .text.SPI_start
                0x20037150      0x4c0 C:/HOOPOE3/satellite-subsystems/demo/../..//hal/hal/lib\libHALD.a(SPI.o)
                0x20037150                SPI_start
 .text.SPI_stop
                0x20037610      0x22c C:/HOOPOE3/satellite-subsystems/demo/../..//hal/hal/lib\libHALD.a(SPI.o)
                0x20037610                SPI_stop
 .text.SPI_queueTransfer
                0x2003783c      0x190 C:/HOOPOE3/satellite-subsystems/demo/../..//hal/hal/lib\libHALD.a(SPI.o)
                0x2003783c                SPI_queueTransfer
 .text.SPI_internalCallback
                0x200379cc       0x64 C:/HOOPOE3/satellite-subsystems/demo/../..//hal/hal/lib\libHALD.a(SPI.o)
 .text.SPI_writeRead
                0x20037a30      0x188 C:/HOOPOE3/satellite-subsystems/demo/../..//hal/hal/lib\libHALD.a(SPI.o)
                0x20037a30                SPI_writeRead
 .text.waitForTransfer
                0x20037bb8       0x68 C:/HOOPOE3/satellite-subsystems/demo/../..//hal/hal/lib\libHALD.a(SPI.o)
 .text.SPI_getDriverState
                0x20037c20       0x58 C:/HOOPOE3/satellite-subsystems/demo/../..//hal/hal/lib\libHALD.a(SPI.o)
                0x20037c20                SPI_getDriverState
 .text.FRAM_start
                0x20037c78       0xf4 C:/HOOPOE3/satellite-subsystems/demo/../..//hal/hal/lib\libHALD.a(FRAM.o)
                0x20037c78                FRAM_start
 .text.FRAM_dummyCallback
                0x20037d6c       0x24 C:/HOOPOE3/satellite-subsystems/demo/../..//hal/hal/lib\libHALD.a(FRAM.o)
                0x20037d6c                FRAM_dummyCallback
 .text.FRAM_unlockingCallback
                0x20037d90       0x78 C:/HOOPOE3/satellite-subsystems/demo/../..//hal/hal/lib\libHALD.a(FRAM.o)
                0x20037d90                FRAM_unlockingCallback
 .text.doBlockingTransfer
                0x20037e08       0x88 C:/HOOPOE3/satellite-subsystems/demo/../..//hal/hal/lib\libHALD.a(FRAM.o)
 .text.FRAM_writePacket
                0x20037e90      0x148 C:/HOOPOE3/satellite-subsystems/demo/../..//hal/hal/lib\libHALD.a(FRAM.o)
 .text.FRAM_write
                0x20037fd8      0x1c8 C:/HOOPOE3/satellite-subsystems/demo/../..//hal/hal/lib\libHALD.a(FRAM.o)
                0x20037fd8                FRAM_write
 .text.FRAM_readPacket
                0x200381a0      0x114 C:/HOOPOE3/satellite-subsystems/demo/../..//hal/hal/lib\libHALD.a(FRAM.o)
 .text.FRAM_read
                0x200382b4      0x1d4 C:/HOOPOE3/satellite-subsystems/demo/../..//hal/hal/lib\libHALD.a(FRAM.o)
                0x200382b4                FRAM_read
 .text.FRAM_writeAndVerifyPacket
                0x20038488       0x8c C:/HOOPOE3/satellite-subsystems/demo/../..//hal/hal/lib\libHALD.a(FRAM.o)
 .text.FRAM_writeAndVerify
                0x20038514      0x1e4 C:/HOOPOE3/satellite-subsystems/demo/../..//hal/hal/lib\libHALD.a(FRAM.o)
                0x20038514                FRAM_writeAndVerify
 .text.Time_start
                0x200386f8      0x150 C:/HOOPOE3/satellite-subsystems/demo/../..//hal/hal/lib\libHALD.a(Time.o)
                0x200386f8                Time_start
 .text.taskTimeSync
                0x20038848       0x38 C:/HOOPOE3/satellite-subsystems/demo/../..//hal/hal/lib\libHALD.a(Time.o)
 .text.Time_set
                0x20038880      0x278 C:/HOOPOE3/satellite-subsystems/demo/../..//hal/hal/lib\libHALD.a(Time.o)
                0x20038880                Time_set
 .text.Time_isLeapYear
                0x20038af8       0x98 C:/HOOPOE3/satellite-subsystems/demo/../..//hal/hal/lib\libHALD.a(Time.o)
                0x20038af8                Time_isLeapYear
 .text.Time_get
                0x20038b90      0x410 C:/HOOPOE3/satellite-subsystems/demo/../..//hal/hal/lib\libHALD.a(Time.o)
                0x20038b90                Time_get
 .text.Time_getUnixEpoch
                0x20038fa0       0xf4 C:/HOOPOE3/satellite-subsystems/demo/../..//hal/hal/lib\libHALD.a(Time.o)
                0x20038fa0                Time_getUnixEpoch
 .text.secondsOfYearToTime
                0x20039094      0x328 C:/HOOPOE3/satellite-subsystems/demo/../..//hal/hal/lib\libHALD.a(Time.o)
 .text.Time_setUnixEpoch
                0x200393bc      0x100 C:/HOOPOE3/satellite-subsystems/demo/../..//hal/hal/lib\libHALD.a(Time.o)
                0x200393bc                Time_setUnixEpoch
 .text.Time_sync
                0x200394bc      0x2b8 C:/HOOPOE3/satellite-subsystems/demo/../..//hal/hal/lib\libHALD.a(Time.o)
                0x200394bc                Time_sync
 .text.Time_syncIfNeeded
                0x20039774       0x70 C:/HOOPOE3/satellite-subsystems/demo/../..//hal/hal/lib\libHALD.a(Time.o)
                0x20039774                Time_syncIfNeeded
 .text.Time_setSyncInterval
                0x200397e4       0x38 C:/HOOPOE3/satellite-subsystems/demo/../..//hal/hal/lib\libHALD.a(Time.o)
                0x200397e4                Time_setSyncInterval
 .text.WDT_start
                0x2003981c       0x48 C:/HOOPOE3/satellite-subsystems/demo/../..//hal/hal/lib\libHALD.a(WatchDogTimerNoOS.o)
                0x2003981c                WDT_start
 .text.WDT_startWatchdogKickTask
                0x20039864       0xb4 C:/HOOPOE3/satellite-subsystems/demo/../..//hal/hal/lib\libHALD.a(WatchDogTimerOS.o)
                0x20039864                WDT_startWatchdogKickTask
 .text.WDT_forceKickEveryNms
                0x20039918       0x50 C:/HOOPOE3/satellite-subsystems/demo/../..//hal/hal/lib\libHALD.a(WatchDogTimerOS.o)
                0x20039918                WDT_forceKickEveryNms
 .text.UTIL_DbguGetInteger
                0x20039968      0x124 C:/HOOPOE3/satellite-subsystems/demo/../..//hal/hal/lib\libHALD.a(util.o)
                0x20039968                UTIL_DbguGetInteger
 .text.UTIL_DbguGetIntegerMinMax
                0x20039a8c       0xa4 C:/HOOPOE3/satellite-subsystems/demo/../..//hal/hal/lib\libHALD.a(util.o)
                0x20039a8c                UTIL_DbguGetIntegerMinMax
 .text.LED_glow
                0x20039b30       0x58 C:/HOOPOE3/satellite-subsystems/demo/../..//hal/hal/lib\libHALD.a(LED.o)
                0x20039b30                LED_glow
 .text.LED_dark
                0x20039b88       0x58 C:/HOOPOE3/satellite-subsystems/demo/../..//hal/hal/lib\libHALD.a(LED.o)
                0x20039b88                LED_dark
 .text.LED_toggle
                0x20039be0       0x50 C:/HOOPOE3/satellite-subsystems/demo/../..//hal/hal/lib\libHALD.a(LED.o)
                0x20039be0                LED_toggle
 .text.RTC_start
                0x20039c30       0x3c C:/HOOPOE3/satellite-subsystems/demo/../..//hal/hal/lib\libHALD.a(RTC.o)
                0x20039c30                RTC_start
 .text.RTC_setTime
                0x20039c6c      0x2a4 C:/HOOPOE3/satellite-subsystems/demo/../..//hal/hal/lib\libHALD.a(RTC.o)
                0x20039c6c                RTC_setTime
 .text.RTC_getTime
                0x20039f10      0x224 C:/HOOPOE3/satellite-subsystems/demo/../..//hal/hal/lib\libHALD.a(RTC.o)
                0x20039f10                RTC_getTime
 .text.RTC_checkTimeValid
                0x2003a134       0xdc C:/HOOPOE3/satellite-subsystems/demo/../..//hal/hal/lib\libHALD.a(RTC.o)
                0x2003a134                RTC_checkTimeValid
 .text.RTT_start
                0x2003a210       0x24 C:/HOOPOE3/satellite-subsystems/demo/../..//hal/hal/lib\libHALD.a(RTT.o)
                0x2003a210                RTT_start
 .text.xQueueGenericReset
                0x2003a234      0x150 C:/HOOPOE3/satellite-subsystems/demo/../..//hal/freertos/lib\libFreeRTOSD.a(queue.o)
                0x2003a234                xQueueGenericReset
 .text.xQueueGenericCreate
                0x2003a384       0xfc C:/HOOPOE3/satellite-subsystems/demo/../..//hal/freertos/lib\libFreeRTOSD.a(queue.o)
                0x2003a384                xQueueGenericCreate
 .text.xQueueCreateMutex
                0x2003a480      0x110 C:/HOOPOE3/satellite-subsystems/demo/../..//hal/freertos/lib\libFreeRTOSD.a(queue.o)
                0x2003a480                xQueueCreateMutex
 .text.xQueueCreateCountingSemaphore
                0x2003a590       0x88 C:/HOOPOE3/satellite-subsystems/demo/../..//hal/freertos/lib\libFreeRTOSD.a(queue.o)
                0x2003a590                xQueueCreateCountingSemaphore
 .text.xQueueGenericSend
                0x2003a618      0x268 C:/HOOPOE3/satellite-subsystems/demo/../..//hal/freertos/lib\libFreeRTOSD.a(queue.o)
                0x2003a618                xQueueGenericSend
 .text.xQueueGenericSendFromISR
                0x2003a880      0x19c C:/HOOPOE3/satellite-subsystems/demo/../..//hal/freertos/lib\libFreeRTOSD.a(queue.o)
                0x2003a880                xQueueGenericSendFromISR
 .text.xQueueGenericReceive
                0x2003aa1c      0x2cc C:/HOOPOE3/satellite-subsystems/demo/../..//hal/freertos/lib\libFreeRTOSD.a(queue.o)
                0x2003aa1c                xQueueGenericReceive
 .text.uxQueueMessagesWaiting
                0x2003ace8       0x6c C:/HOOPOE3/satellite-subsystems/demo/../..//hal/freertos/lib\libFreeRTOSD.a(queue.o)
                0x2003ace8                uxQueueMessagesWaiting
 .text.vQueueDelete
                0x2003ad54       0x78 C:/HOOPOE3/satellite-subsystems/demo/../..//hal/freertos/lib\libFreeRTOSD.a(queue.o)
                0x2003ad54                vQueueDelete
 .text.prvCopyDataToQueue
                0x2003adcc      0x190 C:/HOOPOE3/satellite-subsystems/demo/../..//hal/freertos/lib\libFreeRTOSD.a(queue.o)
 .text.prvCopyDataFromQueue
                0x2003af5c       0x90 C:/HOOPOE3/satellite-subsystems/demo/../..//hal/freertos/lib\libFreeRTOSD.a(queue.o)
 .text.prvUnlockQueue
                0x2003afec      0x100 C:/HOOPOE3/satellite-subsystems/demo/../..//hal/freertos/lib\libFreeRTOSD.a(queue.o)
 .text.prvIsQueueEmpty
                0x2003b0ec       0x4c C:/HOOPOE3/satellite-subsystems/demo/../..//hal/freertos/lib\libFreeRTOSD.a(queue.o)
 .text.prvIsQueueFull
                0x2003b138       0x54 C:/HOOPOE3/satellite-subsystems/demo/../..//hal/freertos/lib\libFreeRTOSD.a(queue.o)
 .text.vQueueUnregisterQueue
                0x2003b18c       0x80 C:/HOOPOE3/satellite-subsystems/demo/../..//hal/freertos/lib\libFreeRTOSD.a(queue.o)
                0x2003b18c                vQueueUnregisterQueue
 .text.xTaskGenericCreate
                0x2003b20c      0x2ac C:/HOOPOE3/satellite-subsystems/demo/../..//hal/freertos/lib\libFreeRTOSD.a(tasks.o)
                0x2003b20c                xTaskGenericCreate
 .text.vTaskDelete
                0x2003b4b8       0xe8 C:/HOOPOE3/satellite-subsystems/demo/../..//hal/freertos/lib\libFreeRTOSD.a(tasks.o)
                0x2003b4b8                vTaskDelete
 .text.vTaskDelayUntil
                0x2003b5a0      0x170 C:/HOOPOE3/satellite-subsystems/demo/../..//hal/freertos/lib\libFreeRTOSD.a(tasks.o)
                0x2003b5a0                vTaskDelayUntil
 .text.vTaskDelay
                0x2003b710       0x80 C:/HOOPOE3/satellite-subsystems/demo/../..//hal/freertos/lib\libFreeRTOSD.a(tasks.o)
                0x2003b710                vTaskDelay
 .text.vTaskStartScheduler
                0x2003b790       0xd4 C:/HOOPOE3/satellite-subsystems/demo/../..//hal/freertos/lib\libFreeRTOSD.a(tasks.o)
                0x2003b790                vTaskStartScheduler
 .text.vTaskSuspendAll
                0x2003b864       0x2c C:/HOOPOE3/satellite-subsystems/demo/../..//hal/freertos/lib\libFreeRTOSD.a(tasks.o)
                0x2003b864                vTaskSuspendAll
 .text.xTaskResumeAll
                0x2003b890      0x1f4 C:/HOOPOE3/satellite-subsystems/demo/../..//hal/freertos/lib\libFreeRTOSD.a(tasks.o)
                0x2003b890                xTaskResumeAll
 .text.xTaskGetTickCount
                0x2003ba84       0x34 C:/HOOPOE3/satellite-subsystems/demo/../..//hal/freertos/lib\libFreeRTOSD.a(tasks.o)
                0x2003ba84                xTaskGetTickCount
 .text.xTaskIncrementTick
                0x2003bab8      0x298 C:/HOOPOE3/satellite-subsystems/demo/../..//hal/freertos/lib\libFreeRTOSD.a(tasks.o)
                0x2003bab8                xTaskIncrementTick
 .text.vTaskSwitchContext
                0x2003bd50      0x18c C:/HOOPOE3/satellite-subsystems/demo/../..//hal/freertos/lib\libFreeRTOSD.a(tasks.o)
                0x2003bd50                vTaskSwitchContext
 .text.vTaskPlaceOnEventList
                0x2003bedc       0xcc C:/HOOPOE3/satellite-subsystems/demo/../..//hal/freertos/lib\libFreeRTOSD.a(tasks.o)
                0x2003bedc                vTaskPlaceOnEventList
 .text.xTaskRemoveFromEventList
                0x2003bfa8      0x160 C:/HOOPOE3/satellite-subsystems/demo/../..//hal/freertos/lib\libFreeRTOSD.a(tasks.o)
                0x2003bfa8                xTaskRemoveFromEventList
 .text.vTaskSetTimeOutState
                0x2003c108       0x78 C:/HOOPOE3/satellite-subsystems/demo/../..//hal/freertos/lib\libFreeRTOSD.a(tasks.o)
                0x2003c108                vTaskSetTimeOutState
 .text.xTaskCheckForTimeOut
                0x2003c180      0x158 C:/HOOPOE3/satellite-subsystems/demo/../..//hal/freertos/lib\libFreeRTOSD.a(tasks.o)
                0x2003c180                xTaskCheckForTimeOut
 .text.vTaskMissedYield
                0x2003c2d8       0x24 C:/HOOPOE3/satellite-subsystems/demo/../..//hal/freertos/lib\libFreeRTOSD.a(tasks.o)
                0x2003c2d8                vTaskMissedYield
 .text.prvIdleTask
                0x2003c2fc       0x20 C:/HOOPOE3/satellite-subsystems/demo/../..//hal/freertos/lib\libFreeRTOSD.a(tasks.o)
 .text.prvInitialiseTCBVariables
                0x2003c31c      0x110 C:/HOOPOE3/satellite-subsystems/demo/../..//hal/freertos/lib\libFreeRTOSD.a(tasks.o)
 .text.prvInitialiseTaskLists
                0x2003c42c       0xbc C:/HOOPOE3/satellite-subsystems/demo/../..//hal/freertos/lib\libFreeRTOSD.a(tasks.o)
 .text.prvCheckTasksWaitingTermination
                0x2003c4e8       0xbc C:/HOOPOE3/satellite-subsystems/demo/../..//hal/freertos/lib\libFreeRTOSD.a(tasks.o)
 .text.prvAddCurrentTaskToDelayedList
                0x2003c5a4       0xb4 C:/HOOPOE3/satellite-subsystems/demo/../..//hal/freertos/lib\libFreeRTOSD.a(tasks.o)
 .text.prvAllocateTCBAndStack
                0x2003c658       0xb4 C:/HOOPOE3/satellite-subsystems/demo/../..//hal/freertos/lib\libFreeRTOSD.a(tasks.o)
 .text.prvDeleteTCB
                0x2003c70c       0x30 C:/HOOPOE3/satellite-subsystems/demo/../..//hal/freertos/lib\libFreeRTOSD.a(tasks.o)
 .text.xTaskGetCurrentTaskHandle
                0x2003c73c       0x30 C:/HOOPOE3/satellite-subsystems/demo/../..//hal/freertos/lib\libFreeRTOSD.a(tasks.o)
                0x2003c73c                xTaskGetCurrentTaskHandle
 .text.xTaskGetSchedulerState
                0x2003c76c       0x68 C:/HOOPOE3/satellite-subsystems/demo/../..//hal/freertos/lib\libFreeRTOSD.a(tasks.o)
                0x2003c76c                xTaskGetSchedulerState
 .text.vTaskPriorityInherit
                0x2003c7d4      0x148 C:/HOOPOE3/satellite-subsystems/demo/../..//hal/freertos/lib\libFreeRTOSD.a(tasks.o)
                0x2003c7d4                vTaskPriorityInherit
 .text.vTaskPriorityDisinherit
                0x2003c91c       0xdc C:/HOOPOE3/satellite-subsystems/demo/../..//hal/freertos/lib\libFreeRTOSD.a(tasks.o)
                0x2003c91c                vTaskPriorityDisinherit
 .text.vApplicationStackOverflowHook
                0x2003c9f8       0x4c C:/HOOPOE3/satellite-subsystems/demo/../..//hal/freertos/lib\libFreeRTOSD.a(hooks.o)
                0x2003c9f8                vApplicationStackOverflowHook
 .text.vApplicationIdleHook
                0x2003ca44       0x18 C:/HOOPOE3/satellite-subsystems/demo/../..//hal/freertos/lib\libFreeRTOSD.a(hooks.o)
                0x2003ca44                vApplicationIdleHook
 .text.pvPortMalloc
                0x2003ca5c       0x28 C:/HOOPOE3/satellite-subsystems/demo/../..//hal/freertos/lib\libFreeRTOSD.a(standardMemMang.o)
                0x2003ca5c                pvPortMalloc
 .text.vPortFree
                0x2003ca84       0x20 C:/HOOPOE3/satellite-subsystems/demo/../..//hal/freertos/lib\libFreeRTOSD.a(standardMemMang.o)
                0x2003ca84                vPortFree
 .text.pxPortInitialiseStack
                0x2003caa4      0x218 C:/HOOPOE3/satellite-subsystems/demo/../..//hal/freertos/lib\libFreeRTOSD.a(port.o)
                0x2003caa4                pxPortInitialiseStack
 .text.xPortStartScheduler
                0x2003ccbc       0x1c C:/HOOPOE3/satellite-subsystems/demo/../..//hal/freertos/lib\libFreeRTOSD.a(port.o)
                0x2003ccbc                xPortStartScheduler
 .text.prvSetupTimerInterrupt
                0x2003ccd8       0x54 C:/HOOPOE3/satellite-subsystems/demo/../..//hal/freertos/lib\libFreeRTOSD.a(port.o)
 .text.vPortISRStartFirstTask
                0x2003cd2c       0x64 C:/HOOPOE3/satellite-subsystems/demo/../..//hal/freertos/lib\libFreeRTOSD.a(port.o)
 .text.vPortEnterCritical
                0x2003cd90       0x40 C:/HOOPOE3/satellite-subsystems/demo/../..//hal/freertos/lib\libFreeRTOSD.a(port.o)
                0x2003cd90                vPortEnterCritical
 .text.vPortExitCritical
                0x2003cdd0       0x60 C:/HOOPOE3/satellite-subsystems/demo/../..//hal/freertos/lib\libFreeRTOSD.a(port.o)
                0x2003cdd0                vPortExitCritical
 .text.vListInitialise
                0x2003ce30       0x64 C:/HOOPOE3/satellite-subsystems/demo/../..//hal/freertos/lib\libFreeRTOSD.a(list.o)
                0x2003ce30                vListInitialise
 .text.vListInitialiseItem
                0x2003ce94       0x28 C:/HOOPOE3/satellite-subsystems/demo/../..//hal/freertos/lib\libFreeRTOSD.a(list.o)
                0x2003ce94                vListInitialiseItem
 .text.vListInsertEnd
                0x2003cebc       0x84 C:/HOOPOE3/satellite-subsystems/demo/../..//hal/freertos/lib\libFreeRTOSD.a(list.o)
                0x2003cebc                vListInsertEnd
 .text.vListInsert
                0x2003cf40       0xd4 C:/HOOPOE3/satellite-subsystems/demo/../..//hal/freertos/lib\libFreeRTOSD.a(list.o)
                0x2003cf40                vListInsert
 .text.uxListRemove
                0x2003d014       0xa0 C:/HOOPOE3/satellite-subsystems/demo/../..//hal/freertos/lib\libFreeRTOSD.a(list.o)
                0x2003d014                uxListRemove
 .text._read    0x2003d0b4       0xa4 C:/HOOPOE3/satellite-subsystems/demo/../..//hal/at91/lib\libAt91D.a(syscalls.o)
                0x2003d0b4                _read
 .text._write   0x2003d158       0xb8 C:/HOOPOE3/satellite-subsystems/demo/../..//hal/at91/lib\libAt91D.a(syscalls.o)
                0x2003d158                _write
 .text._lseek   0x2003d210       0x2c C:/HOOPOE3/satellite-subsystems/demo/../..//hal/at91/lib\libAt91D.a(syscalls.o)
                0x2003d210                _lseek
 .text._close   0x2003d23c       0x24 C:/HOOPOE3/satellite-subsystems/demo/../..//hal/at91/lib\libAt91D.a(syscalls.o)
                0x2003d23c                _close
 .text._fstat   0x2003d260       0x28 C:/HOOPOE3/satellite-subsystems/demo/../..//hal/at91/lib\libAt91D.a(syscalls.o)
                0x2003d260                _fstat
 .text._isatty  0x2003d288       0x38 C:/HOOPOE3/satellite-subsystems/demo/../..//hal/at91/lib\libAt91D.a(syscalls.o)
                0x2003d288                _isatty
 .text._sbrk    0x2003d2c0       0xac C:/HOOPOE3/satellite-subsystems/demo/../..//hal/at91/lib\libAt91D.a(syscalls.o)
                0x2003d2c0                _sbrk
 .text.AIC_ConfigureIT
                0x2003d36c       0x74 C:/HOOPOE3/satellite-subsystems/demo/../..//hal/at91/lib\libAt91D.a(aic.o)
                0x2003d36c                AIC_ConfigureIT
 .text.AIC_EnableIT
                0x2003d3e0       0x34 C:/HOOPOE3/satellite-subsystems/demo/../..//hal/at91/lib\libAt91D.a(aic.o)
                0x2003d3e0                AIC_EnableIT
 .text.AIC_DisableIT
                0x2003d414       0x34 C:/HOOPOE3/satellite-subsystems/demo/../..//hal/at91/lib\libAt91D.a(aic.o)
                0x2003d414                AIC_DisableIT
 .text.CP15_Enable_I_Cache
                0x2003d448       0x4c C:/HOOPOE3/satellite-subsystems/demo/../..//hal/at91/lib\libAt91D.a(cp15.o)
                0x2003d448                CP15_Enable_I_Cache
 .text.CP15_Disable_I_Cache
                0x2003d494       0x5c C:/HOOPOE3/satellite-subsystems/demo/../..//hal/at91/lib\libAt91D.a(cp15.o)
                0x2003d494                CP15_Disable_I_Cache
 .text.CP15_DisableMMU
                0x2003d4f0       0x68 C:/HOOPOE3/satellite-subsystems/demo/../..//hal/at91/lib\libAt91D.a(cp15.o)
                0x2003d4f0                CP15_DisableMMU
 .text.CP15_Disable_D_Cache
                0x2003d558       0x5c C:/HOOPOE3/satellite-subsystems/demo/../..//hal/at91/lib\libAt91D.a(cp15.o)
                0x2003d558                CP15_Disable_D_Cache
 .text.DBGU_Configure
                0x2003d5b4       0x84 C:/HOOPOE3/satellite-subsystems/demo/../..//hal/at91/lib\libAt91D.a(dbgu.o)
                0x2003d5b4                DBGU_Configure
 .text.DBGU_PutChar
                0x2003d638       0x60 C:/HOOPOE3/satellite-subsystems/demo/../..//hal/at91/lib\libAt91D.a(dbgu.o)
                0x2003d638                DBGU_PutChar
 .text.DBGU_IsRxReady
                0x2003d698       0x28 C:/HOOPOE3/satellite-subsystems/demo/../..//hal/at91/lib\libAt91D.a(dbgu.o)
                0x2003d698                DBGU_IsRxReady
 .text.DBGU_GetChar
                0x2003d6c0       0x40 C:/HOOPOE3/satellite-subsystems/demo/../..//hal/at91/lib\libAt91D.a(dbgu.o)
                0x2003d6c0                DBGU_GetChar
 .text.PIO_SetPeripheralA
                0x2003d700       0x74 C:/HOOPOE3/satellite-subsystems/demo/../..//hal/at91/lib\libAt91D.a(pio.o)
 .text.PIO_SetPeripheralB
                0x2003d774       0x74 C:/HOOPOE3/satellite-subsystems/demo/../..//hal/at91/lib\libAt91D.a(pio.o)
 .text.PIO_SetInput
                0x2003d7e8       0x9c C:/HOOPOE3/satellite-subsystems/demo/../..//hal/at91/lib\libAt91D.a(pio.o)
 .text.PIO_SetOutput
                0x2003d884       0xc4 C:/HOOPOE3/satellite-subsystems/demo/../..//hal/at91/lib\libAt91D.a(pio.o)
 .text.PIO_Configure
                0x2003d948      0x1ec C:/HOOPOE3/satellite-subsystems/demo/../..//hal/at91/lib\libAt91D.a(pio.o)
                0x2003d948                PIO_Configure
 .text.PIO_Set  0x2003db34       0x3c C:/HOOPOE3/satellite-subsystems/demo/../..//hal/at91/lib\libAt91D.a(pio.o)
                0x2003db34                PIO_Set
 .text.PIO_Clear
                0x2003db70       0x3c C:/HOOPOE3/satellite-subsystems/demo/../..//hal/at91/lib\libAt91D.a(pio.o)
                0x2003db70                PIO_Clear
 .text.PIO_Get  0x2003dbac       0x9c C:/HOOPOE3/satellite-subsystems/demo/../..//hal/at91/lib\libAt91D.a(pio.o)
                0x2003dbac                PIO_Get
 .text.PIT_Init
                0x2003dc48       0x68 C:/HOOPOE3/satellite-subsystems/demo/../..//hal/at91/lib\libAt91D.a(pit.o)
                0x2003dc48                PIT_Init
 .text.PIT_Enable
                0x2003dcb0       0x2c C:/HOOPOE3/satellite-subsystems/demo/../..//hal/at91/lib\libAt91D.a(pit.o)
                0x2003dcb0                PIT_Enable
 .text.PIT_EnableIT
                0x2003dcdc       0x2c C:/HOOPOE3/satellite-subsystems/demo/../..//hal/at91/lib\libAt91D.a(pit.o)
                0x2003dcdc                PIT_EnableIT
 .text.PMC_EnablePeripheral
                0x2003dd08       0xa4 C:/HOOPOE3/satellite-subsystems/demo/../..//hal/at91/lib\libAt91D.a(pmc.o)
                0x2003dd08                PMC_EnablePeripheral
 .text.PMC_DisablePeripheral
                0x2003ddac       0xa4 C:/HOOPOE3/satellite-subsystems/demo/../..//hal/at91/lib\libAt91D.a(pmc.o)
                0x2003ddac                PMC_DisablePeripheral
 .text.PMC_IsPeriphEnabled
                0x2003de50       0x3c C:/HOOPOE3/satellite-subsystems/demo/../..//hal/at91/lib\libAt91D.a(pmc.o)
                0x2003de50                PMC_IsPeriphEnabled
 .text.SPI_Enable
                0x2003de8c       0x28 C:/HOOPOE3/satellite-subsystems/demo/../..//hal/at91/lib\libAt91D.a(spi_at91.o)
                0x2003de8c                SPI_Enable
 .text.SPI_Disable
                0x2003deb4       0x28 C:/HOOPOE3/satellite-subsystems/demo/../..//hal/at91/lib\libAt91D.a(spi_at91.o)
                0x2003deb4                SPI_Disable
 .text.SPI_Configure
                0x2003dedc       0x6c C:/HOOPOE3/satellite-subsystems/demo/../..//hal/at91/lib\libAt91D.a(spi_at91.o)
                0x2003dedc                SPI_Configure
 .text.SPI_ConfigureNPCS
                0x2003df48       0x38 C:/HOOPOE3/satellite-subsystems/demo/../..//hal/at91/lib\libAt91D.a(spi_at91.o)
                0x2003df48                SPI_ConfigureNPCS
 .text.TWI_ConfigureMaster
                0x2003df80      0x2a0 C:/HOOPOE3/satellite-subsystems/demo/../..//hal/at91/lib\libAt91D.a(twi_at91.o)
                0x2003df80                TWI_ConfigureMaster
 .text.TWI_GetMaskedStatus
                0x2003e220       0x78 C:/HOOPOE3/satellite-subsystems/demo/../..//hal/at91/lib\libAt91D.a(twi_at91.o)
                0x2003e220                TWI_GetMaskedStatus
 .text.disableCaches
                0x2003e298       0x18 C:/HOOPOE3/satellite-subsystems/demo/../..//hal/at91/lib\libAt91D.a(ExitHandler.o)
 .text.restart  0x2003e2b0       0x28 C:/HOOPOE3/satellite-subsystems/demo/../..//hal/at91/lib\libAt91D.a(ExitHandler.o)
                0x2003e2b0                restart
 .text.restartPrefetchAbort
                0x2003e2d8       0x28 C:/HOOPOE3/satellite-subsystems/demo/../..//hal/at91/lib\libAt91D.a(ExitHandler.o)
                0x2003e2d8                restartPrefetchAbort
 .text.restartDataAbort
                0x2003e300       0x28 C:/HOOPOE3/satellite-subsystems/demo/../..//hal/at91/lib\libAt91D.a(ExitHandler.o)
                0x2003e300                restartDataAbort
 .text.defaultSpuriousHandler
                0x2003e328       0x18 C:/HOOPOE3/satellite-subsystems/demo/../..//hal/at91/lib\libAt91D.a(board_lowlevel.o)
                0x2003e328                defaultSpuriousHandler
 .text.defaultFiqHandler
                0x2003e340       0x18 C:/HOOPOE3/satellite-subsystems/demo/../..//hal/at91/lib\libAt91D.a(board_lowlevel.o)
                0x2003e340                defaultFiqHandler
 .text.defaultIrqHandler
                0x2003e358       0x18 C:/HOOPOE3/satellite-subsystems/demo/../..//hal/at91/lib\libAt91D.a(board_lowlevel.o)
                0x2003e358                defaultIrqHandler
 .text.LowLevelInit
                0x2003e370       0xf4 C:/HOOPOE3/satellite-subsystems/demo/../..//hal/at91/lib\libAt91D.a(board_lowlevel.o)
                0x2003e370                LowLevelInit
 .text.BOARD_RemapRam
                0x2003e464       0x24 C:/HOOPOE3/satellite-subsystems/demo/../..//hal/at91/lib\libAt91D.a(board_memories.o)
                0x2003e464                BOARD_RemapRam
 .text.__errno  0x2003e488       0x10 c:/isis/application/toolchain/bin/../lib/gcc/arm-none-eabi/4.7.4/../../../../arm-none-eabi/lib\libc_s.a(lib_a-errno.o)
                0x2003e488                __errno
 .text.memcmp   0x2003e498       0x3c c:/isis/application/toolchain/bin/../lib/gcc/arm-none-eabi/4.7.4/../../../../arm-none-eabi/lib\libc_s.a(lib_a-memcmp.o)
                0x2003e498                memcmp
 .text.printf   0x2003e4d4       0x50 c:/isis/application/toolchain/bin/../lib/gcc/arm-none-eabi/4.7.4/../../../../arm-none-eabi/lib\libc_s.a(lib_a-printf.o)
                0x2003e4d4                iprintf
                0x2003e4d4                printf
 .text.puts     0x2003e524       0x64 c:/isis/application/toolchain/bin/../lib/gcc/arm-none-eabi/4.7.4/../../../../arm-none-eabi/lib\libc_s.a(lib_a-puts.o)
                0x2003e524                puts
 .text.strcpy   0x2003e588       0x18 c:/isis/application/toolchain/bin/../lib/gcc/arm-none-eabi/4.7.4/../../../../arm-none-eabi/lib\libc_s.a(lib_a-strcpy.o)
                0x2003e588                strcpy
 .text.__sfputc_r
                0x2003e5a0       0x50 c:/isis/application/toolchain/bin/../lib/gcc/arm-none-eabi/4.7.4/../../../../arm-none-eabi/lib\libc_s.a(lib_a-vfprintf.o)
                0x2003e5a0                __sfputc_r
 .text._vfprintf_r
                0x2003e5f0      0x360 c:/isis/application/toolchain/bin/../lib/gcc/arm-none-eabi/4.7.4/../../../../arm-none-eabi/lib\libc_s.a(lib_a-vfprintf.o)
                0x2003e5f0                _vfprintf_r
                0x2003e5f0                _vfiprintf_r
 .text.__swbuf_r
                0x2003e950      0x138 c:/isis/application/toolchain/bin/../lib/gcc/arm-none-eabi/4.7.4/../../../../arm-none-eabi/lib\libc_s.a(lib_a-wbuf.o)
                0x2003e950                __swbuf_r
 .text.__swsetup_r
                0x2003ea88      0x154 c:/isis/application/toolchain/bin/../lib/gcc/arm-none-eabi/4.7.4/../../../../arm-none-eabi/lib\libc_s.a(lib_a-wsetup.o)
                0x2003ea88                __swsetup_r
 .text._fflush_r
                0x2003ebdc      0x244 c:/isis/application/toolchain/bin/../lib/gcc/arm-none-eabi/4.7.4/../../../../arm-none-eabi/lib\libc_s.a(lib_a-fflush.o)
                0x2003ebdc                _fflush_r
 .text._cleanup_r
                0x2003ee20       0x5c c:/isis/application/toolchain/bin/../lib/gcc/arm-none-eabi/4.7.4/../../../../arm-none-eabi/lib\libc_s.a(lib_a-findfp.o)
                0x2003ee20                _cleanup_r
 .text.std.isra.0
                0x2003ee7c       0x7c c:/isis/application/toolchain/bin/../lib/gcc/arm-none-eabi/4.7.4/../../../../arm-none-eabi/lib\libc_s.a(lib_a-findfp.o)
 .text.__sfmoreglue
                0x2003eef8       0x44 c:/isis/application/toolchain/bin/../lib/gcc/arm-none-eabi/4.7.4/../../../../arm-none-eabi/lib\libc_s.a(lib_a-findfp.o)
                0x2003eef8                __sfmoreglue
 .text.__sinit  0x2003ef3c       0x90 c:/isis/application/toolchain/bin/../lib/gcc/arm-none-eabi/4.7.4/../../../../arm-none-eabi/lib\libc_s.a(lib_a-findfp.o)
                0x2003ef3c                __sinit
 .text.__sfp    0x2003efcc       0xdc c:/isis/application/toolchain/bin/../lib/gcc/arm-none-eabi/4.7.4/../../../../arm-none-eabi/lib\libc_s.a(lib_a-findfp.o)
                0x2003efcc                __sfp
 .text.__smakebuf_r
                0x2003f0a8       0xf8 c:/isis/application/toolchain/bin/../lib/gcc/arm-none-eabi/4.7.4/../../../../arm-none-eabi/lib\libc_s.a(lib_a-makebuf.o)
                0x2003f0a8                __smakebuf_r
 .text._putc_r  0x2003f1a0       0xd0 c:/isis/application/toolchain/bin/../lib/gcc/arm-none-eabi/4.7.4/../../../../arm-none-eabi/lib\libc_s.a(lib_a-putc.o)
                0x2003f1a0                _putc_r
 .text.__sread  0x2003f270       0x34 c:/isis/application/toolchain/bin/../lib/gcc/arm-none-eabi/4.7.4/../../../../arm-none-eabi/lib\libc_s.a(lib_a-stdio.o)
                0x2003f270                __sread
 .text.__swrite
                0x2003f2a4       0x54 c:/isis/application/toolchain/bin/../lib/gcc/arm-none-eabi/4.7.4/../../../../arm-none-eabi/lib\libc_s.a(lib_a-stdio.o)
                0x2003f2a4                __swrite
 .text.__sseek  0x2003f2f8       0x34 c:/isis/application/toolchain/bin/../lib/gcc/arm-none-eabi/4.7.4/../../../../arm-none-eabi/lib\libc_s.a(lib_a-stdio.o)
                0x2003f2f8                __sseek
 .text.__sclose
                0x2003f32c       0x14 c:/isis/application/toolchain/bin/../lib/gcc/arm-none-eabi/4.7.4/../../../../arm-none-eabi/lib\libc_s.a(lib_a-stdio.o)
                0x2003f32c                __sclose
 .text._write_r
                0x2003f340       0x44 c:/isis/application/toolchain/bin/../lib/gcc/arm-none-eabi/4.7.4/../../../../arm-none-eabi/lib\libc_s.a(lib_a-writer.o)
                0x2003f340                _write_r
 .text._close_r
                0x2003f384       0x3c c:/isis/application/toolchain/bin/../lib/gcc/arm-none-eabi/4.7.4/../../../../arm-none-eabi/lib\libc_s.a(lib_a-closer.o)
                0x2003f384                _close_r
 .text._fstat_r
                0x2003f3c0       0x40 c:/isis/application/toolchain/bin/../lib/gcc/arm-none-eabi/4.7.4/../../../../arm-none-eabi/lib\libc_s.a(lib_a-fstatr.o)
                0x2003f3c0                _fstat_r
 .text._isatty_r
                0x2003f400       0x3c c:/isis/application/toolchain/bin/../lib/gcc/arm-none-eabi/4.7.4/../../../../arm-none-eabi/lib\libc_s.a(lib_a-isattyr.o)
                0x2003f400                _isatty_r
 .text._lseek_r
                0x2003f43c       0x44 c:/isis/application/toolchain/bin/../lib/gcc/arm-none-eabi/4.7.4/../../../../arm-none-eabi/lib\libc_s.a(lib_a-lseekr.o)
                0x2003f43c                _lseek_r
 .text._read_r  0x2003f480       0x44 c:/isis/application/toolchain/bin/../lib/gcc/arm-none-eabi/4.7.4/../../../../arm-none-eabi/lib\libc_s.a(lib_a-readr.o)
                0x2003f480                _read_r
 *fill*         0x2003f4c4        0x4 00
 .text._read_r.stub
                0x2003f4c8       0x10 linker stubs
 *(.rodata)
 .rodata        0x2003f4d8       0x90 ./src/sub-systemCode/Main/CMD/COMM_CMD.o
 .rodata        0x2003f568      0x17c ./src/sub-systemCode/Main/CMD/EPS_CMD.o
 .rodata        0x2003f6e4       0x98 ./src/sub-systemCode/Main/CMD/General_CMD.o
 .rodata        0x2003f77c      0x190 ./src/sub-systemCode/Main/Ants.o
 .rodata        0x2003f90c      0x338 ./src/sub-systemCode/Main/EPS.o
 .rodata        0x2003fc44      0x15c ./src/sub-systemCode/Main/HouseKeeping.o
 .rodata        0x2003fda0      0x1d4 ./src/sub-systemCode/Main/Main_Init.o
 .rodata        0x2003ff74       0xa4 ./src/sub-systemCode/Main/commands.o
 .rodata        0x20040018      0x1e8 ./src/sub-systemCode/Global/Global.o
 .rodata        0x20040200      0x4c4 ./src/sub-systemCode/Global/GlobalParam.o
 .rodata        0x200406c4      0x170 ./src/sub-systemCode/Global/OnlineTM.o
 .rodata        0x20040834      0x354 ./src/sub-systemCode/Global/TLM_management.o
 .rodata        0x20040b88       0xbc ./src/sub-systemCode/COMM/APRS.o
 .rodata        0x20040c44      0x1ac ./src/sub-systemCode/COMM/DelayedCommand_list.o
 .rodata        0x20040df0      0x6c4 ./src/sub-systemCode/COMM/TRXVU.o
 .rodata        0x200414b4       0x10 ./src/sub-systemCode/ADCS/ADCS.o
 .rodata        0x200414c4       0x80 ./src/main.o
 .rodata        0x20041544       0x20 C:/HOOPOE3/satellite-subsystems/demo/..//satellite-subsystems/lib\libSatelliteSubsystemsD.a(GomEPS.o)
 .rodata        0x20041564       0x50 C:/HOOPOE3/satellite-subsystems/demo/..//satellite-subsystems/lib\libSatelliteSubsystemsD.a(IsisSolarPanelv2.o)
 .rodata        0x200415b4       0x88 C:/HOOPOE3/satellite-subsystems/demo/..//satellite-subsystems/lib\libSatelliteSubsystemsD.a(gecko_driver.o)
 .rodata        0x2004163c       0x60 C:/HOOPOE3/satellite-subsystems/demo/../..//hal/hcc/lib\libHCCD.a(safefat.o)
 .rodata        0x2004169c       0x30 C:/HOOPOE3/satellite-subsystems/demo/../..//hal/hcc/lib\libHCCD.a(atmel_mcipdc.o)
 .rodata        0x200416cc       0x54 C:/HOOPOE3/satellite-subsystems/demo/../..//hal/hcc/lib\libHCCD.a(atmel_mcipdc_hw.o)
 .rodata        0x20041720       0xf4 C:/HOOPOE3/satellite-subsystems/demo/../..//hal/hal/lib\libHALD.a(I2C.o)
 .rodata        0x20041814      0x324 C:/HOOPOE3/satellite-subsystems/demo/../..//hal/hal/lib\libHALD.a(SPI.o)
 .rodata        0x20041b38       0x98 C:/HOOPOE3/satellite-subsystems/demo/../..//hal/hal/lib\libHALD.a(Time.o)
 .rodata        0x20041bd0        0xc C:/HOOPOE3/satellite-subsystems/demo/../..//hal/hal/lib\libHALD.a(WatchDogTimerNoOS.o)
 .rodata        0x20041bdc       0x14 C:/HOOPOE3/satellite-subsystems/demo/../..//hal/hal/lib\libHALD.a(WatchDogTimerOS.o)
 .rodata        0x20041bf0       0xcc C:/HOOPOE3/satellite-subsystems/demo/../..//hal/hal/lib\libHALD.a(util.o)
 .rodata        0x20041cbc       0x30 C:/HOOPOE3/satellite-subsystems/demo/../..//hal/hal/lib\libHALD.a(LED.o)
 .rodata        0x20041cec       0x40 C:/HOOPOE3/satellite-subsystems/demo/../..//hal/freertos/lib\libFreeRTOSD.a(queue.o)
 .rodata        0x20041d2c       0x48 C:/HOOPOE3/satellite-subsystems/demo/../..//hal/freertos/lib\libFreeRTOSD.a(tasks.o)
 .rodata        0x20041d74       0x58 C:/HOOPOE3/satellite-subsystems/demo/../..//hal/freertos/lib\libFreeRTOSD.a(hooks.o)
 .rodata        0x20041dcc       0x3c C:/HOOPOE3/satellite-subsystems/demo/../..//hal/at91/lib\libAt91D.a(syscalls.o)
 .rodata        0x20041e08      0x158 C:/HOOPOE3/satellite-subsystems/demo/../..//hal/at91/lib\libAt91D.a(cp15.o)
 .rodata        0x20041f60      0x118 C:/HOOPOE3/satellite-subsystems/demo/../..//hal/at91/lib\libAt91D.a(pmc.o)
 .rodata        0x20042078       0x98 C:/HOOPOE3/satellite-subsystems/demo/../..//hal/at91/lib\libAt91D.a(twi_at91.o)
 .rodata        0x20042110       0x8c C:/HOOPOE3/satellite-subsystems/demo/../..//hal/at91/lib\libAt91D.a(ExitHandler.o)
 .rodata        0x2004219c       0xa8 C:/HOOPOE3/satellite-subsystems/demo/../..//hal/at91/lib\libAt91D.a(board_lowlevel.o)
 *(.rodata*)
 .rodata.str1.1
                0x20042244       0x10 c:/isis/application/toolchain/bin/../lib/gcc/arm-none-eabi/4.7.4/../../../../arm-none-eabi/lib\libc_s.a(lib_a-vfprintf_float.o)
 .rodata.str1.1
                0x20042254       0x22 c:/isis/application/toolchain/bin/../lib/gcc/arm-none-eabi/4.7.4/../../../../arm-none-eabi/lib\libc_s.a(lib_a-vfprintf_i.o)
 .rodata.str1.1
                0x20042276        0x5 c:/isis/application/toolchain/bin/../lib/gcc/arm-none-eabi/4.7.4/../../../../arm-none-eabi/lib\libc_s.a(lib_a-vfscanf_float.o)
 .rodata.str1.1
                0x2004227b        0xf c:/isis/application/toolchain/bin/../lib/gcc/arm-none-eabi/4.7.4/../../../../arm-none-eabi/lib\libc_s.a(lib_a-dtoa.o)
 .rodata.str1.1
                0x2004228a        0xa c:/isis/application/toolchain/bin/../lib/gcc/arm-none-eabi/4.7.4/../../../../arm-none-eabi/lib\libc_s.a(lib_a-locale.o)
                                  0xb (size before relaxing)
 *fill*         0x20042294        0x4 00
 .rodata.__mprec_tens
                0x20042298       0xc8 c:/isis/application/toolchain/bin/../lib/gcc/arm-none-eabi/4.7.4/../../../../arm-none-eabi/lib\libc_s.a(lib_a-mprec.o)
                0x20042298                __mprec_tens
 .rodata.p05.5252
                0x20042360        0xc c:/isis/application/toolchain/bin/../lib/gcc/arm-none-eabi/4.7.4/../../../../arm-none-eabi/lib\libc_s.a(lib_a-mprec.o)
 *fill*         0x2004236c        0x4 00
 .rodata.__mprec_bigtens
                0x20042370       0x28 c:/isis/application/toolchain/bin/../lib/gcc/arm-none-eabi/4.7.4/../../../../arm-none-eabi/lib\libc_s.a(lib_a-mprec.o)
                0x20042370                __mprec_bigtens
 .rodata.str1.1
                0x00000000        0xa c:/isis/application/toolchain/bin/../lib/gcc/arm-none-eabi/4.7.4/../../../../arm-none-eabi/lib\libc_s.a(lib_a-strtod.o)
                                  0xc (size before relaxing)
 .rodata.tinytens
                0x20042398       0x28 c:/isis/application/toolchain/bin/../lib/gcc/arm-none-eabi/4.7.4/../../../../arm-none-eabi/lib\libc_s.a(lib_a-strtod.o)
 .rodata.str1.1
                0x200423c0       0x11 c:/isis/application/toolchain/bin/../lib/gcc/arm-none-eabi/4.7.4/../../../../arm-none-eabi/lib\libc_s.a(lib_a-svfprintf.o)
 .rodata._ctype_
                0x200423d1      0x101 c:/isis/application/toolchain/bin/../lib/gcc/arm-none-eabi/4.7.4/../../../../arm-none-eabi/lib\libc_s.a(lib_a-ctype_.o)
                0x200423d1                _ctype_
 .rodata.str1.1
                0x200424d2        0xb c:/isis/application/toolchain/bin/../lib/gcc/arm-none-eabi/4.7.4/../../../../arm-none-eabi/lib\libc_s.a(lib_a-gdtoa-gethex.o)
                                 0x19 (size before relaxing)
 .rodata.str1.1
                0x00000000        0x2 c:/isis/application/toolchain/bin/../lib/gcc/arm-none-eabi/4.7.4/../../../../arm-none-eabi/lib\libc_s.a(lib_a-impure.o)
 *fill*         0x200424dd        0x3 00
 .rodata._global_impure_ptr
                0x200424e0        0x4 c:/isis/application/toolchain/bin/../lib/gcc/arm-none-eabi/4.7.4/../../../../arm-none-eabi/lib\libc_s.a(lib_a-impure.o)
                0x200424e0                _global_impure_ptr
 .rodata.str1.4
                0x200424e4        0x8 c:/isis/application/toolchain/bin/../lib/gcc/arm-none-eabi/4.7.4/../../../../arm-none-eabi/lib\libm.a(lib_a-w_log.o)
 .rodata.str1.1
                0x00000000       0x11 c:/isis/application/toolchain/bin/../lib/gcc/arm-none-eabi/4.7.4/../../../../arm-none-eabi/lib\libc_s.a(lib_a-vfprintf.o)
 .rodata.__sf_fake_stdin
                0x200424ec       0x20 c:/isis/application/toolchain/bin/../lib/gcc/arm-none-eabi/4.7.4/../../../../arm-none-eabi/lib\libc_s.a(lib_a-findfp.o)
                0x200424ec                __sf_fake_stdin
 .rodata.__sf_fake_stdout
                0x2004250c       0x20 c:/isis/application/toolchain/bin/../lib/gcc/arm-none-eabi/4.7.4/../../../../arm-none-eabi/lib\libc_s.a(lib_a-findfp.o)
                0x2004250c                __sf_fake_stdout
 .rodata.__sf_fake_stderr
                0x2004252c       0x20 c:/isis/application/toolchain/bin/../lib/gcc/arm-none-eabi/4.7.4/../../../../arm-none-eabi/lib\libc_s.a(lib_a-findfp.o)
                0x2004252c                __sf_fake_stderr
 *(.rodata.*)
 *(.glue_7)
 .glue_7        0x00000000        0x0 linker stubs
 *(.glue_7t)
 .glue_7t       0x00000000        0x0 linker stubs
 *(.vfp11_veneer)
 .vfp11_veneer  0x00000000        0x0 linker stubs
 *(.v4_bx)
 .v4_bx         0x00000000        0x0 linker stubs
 *(.data)
 .data          0x2004254c        0x4 ./src/sub-systemCode/Main/EPS.o
                0x2004254c                alpha
 .data          0x20042550       0x28 C:/HOOPOE3/satellite-subsystems/demo/..//satellite-subsystems/lib\libSatelliteSubsystemsD.a(IsisSolarPanelv2.o)
 .data          0x20042578       0x10 C:/HOOPOE3/satellite-subsystems/demo/..//satellite-subsystems/lib\libSatelliteSubsystemsD.a(gecko_driver.o)
 .data          0x20042588       0x20 C:/HOOPOE3/satellite-subsystems/demo/../..//hal/hcc/lib\libHCCD.a(safefat.o)
                0x20042588                s_subdir
 .data          0x200425a8        0x8 C:/HOOPOE3/satellite-subsystems/demo/../..//hal/hal/lib\libHALD.a(I2C.o)
 .data          0x200425b0        0xc C:/HOOPOE3/satellite-subsystems/demo/../..//hal/hal/lib\libHALD.a(SPI.o)
 .data          0x200425bc       0x10 C:/HOOPOE3/satellite-subsystems/demo/../..//hal/hal/lib\libHALD.a(FRAM.o)
 .data          0x200425cc        0x4 C:/HOOPOE3/satellite-subsystems/demo/../..//hal/hal/lib\libHALD.a(Time.o)
 .data          0x200425d0       0x10 C:/HOOPOE3/satellite-subsystems/demo/../..//hal/hal/lib\libHALD.a(RTC.o)
 .data          0x200425e0        0x4 C:/HOOPOE3/satellite-subsystems/demo/../..//hal/freertos/lib\libFreeRTOSD.a(tasks.o)
 .data          0x200425e4        0x4 C:/HOOPOE3/satellite-subsystems/demo/../..//hal/freertos/lib\libFreeRTOSD.a(port.o)
                0x200425e4                ulCriticalNesting
 *(.data.*)
 .data.lconv    0x200425e8       0x38 c:/isis/application/toolchain/bin/../lib/gcc/arm-none-eabi/4.7.4/../../../../arm-none-eabi/lib\libc_s.a(lib_a-locale.o)
 .data.fpi.5208
                0x20042620       0x14 c:/isis/application/toolchain/bin/../lib/gcc/arm-none-eabi/4.7.4/../../../../arm-none-eabi/lib\libc_s.a(lib_a-strtod.o)
 .data.fpinan.5244
                0x20042634       0x14 c:/isis/application/toolchain/bin/../lib/gcc/arm-none-eabi/4.7.4/../../../../arm-none-eabi/lib\libc_s.a(lib_a-strtod.o)
 .data.__ctype_ptr__
                0x20042648        0x4 c:/isis/application/toolchain/bin/../lib/gcc/arm-none-eabi/4.7.4/../../../../arm-none-eabi/lib\libc_s.a(lib_a-ctype_.o)
                0x20042648                __ctype_ptr__
 .data.impure_data
                0x2004264c       0x64 c:/isis/application/toolchain/bin/../lib/gcc/arm-none-eabi/4.7.4/../../../../arm-none-eabi/lib\libc_s.a(lib_a-impure.o)
 .data._impure_ptr
                0x200426b0        0x4 c:/isis/application/toolchain/bin/../lib/gcc/arm-none-eabi/4.7.4/../../../../arm-none-eabi/lib\libc_s.a(lib_a-impure.o)
                0x200426b0                _impure_ptr
 .data.__fdlib_version
                0x200426b4        0x1 c:/isis/application/toolchain/bin/../lib/gcc/arm-none-eabi/4.7.4/../../../../arm-none-eabi/lib\libm.a(lib_a-s_lib_ver.o)
                0x200426b4                __fdlib_version
 *(.dyn)
 *(.iplt)
 .iplt          0x00000000        0x0 c:/isis/application/toolchain/bin/../lib/gcc/arm-none-eabi/4.7.4/../../../../arm-none-eabi/lib\libc_s.a(lib_a-vfprintf_float.o)
 *(.igot)
 *(.igot.plt)
 .igot.plt      0x00000000        0x0 c:/isis/application/toolchain/bin/../lib/gcc/arm-none-eabi/4.7.4/../../../../arm-none-eabi/lib\libc_s.a(lib_a-vfprintf_float.o)
 *(.rel.dyn)
 *(.rel.iplt)
 .rel.iplt      0x00000000        0x0 c:/isis/application/toolchain/bin/../lib/gcc/arm-none-eabi/4.7.4/../../../../arm-none-eabi/lib\libc_s.a(lib_a-vfprintf_float.o)
                0x200426b8                . = ALIGN (0x4)
 *fill*         0x200426b5        0x3 00
                0x200426b8                _efixed = .

.ARM.exidx      0x200426b8        0x0
 *(.ARM.exidx)
                0x200426b8                _eexidx = .

.ARM.extab      0x200426b8        0x0
 *(.ARM.extab)
                0x200426b8                _eextab = .

.prerelocate    0x00000000        0x0 load address 0x200426b8
                0x00000000                . = ALIGN (0x4)
                0x00000000                _sprerelocate = .
                0x00000000                . = ALIGN (0x4)
                0x00000000                _eprerelocate = .

.postrelocate   0x00200000     0x1c28 load address 0x200426b8
                0x00200000                . = ALIGN (0x4)
                0x00200000                _spostrelocate = .
 *(.vectors)
 .vectors       0x00200000       0xd4 C:/HOOPOE3/satellite-subsystems/demo/../..//hal/at91/lib\libAt91D.a(board_cstartup.o)
 *(.sramfunc)
 .sramfunc      0x002000d4      0xe1c C:/HOOPOE3/satellite-subsystems/demo/../..//hal/hal/lib\libHALD.a(I2C.o)
                0x0020098c                ISR_I2Cmaster
                0x00200d3c                taskI2Cregulator
 .sramfunc      0x00200ef0      0xa58 C:/HOOPOE3/satellite-subsystems/demo/../..//hal/hal/lib\libHALD.a(SPI.o)
                0x00200ef0                taskSPI0regulator
                0x00201398                taskSPI1regulator
                0x0020171c                ISR_SPI0master
                0x002017dc                ISR_SPI1master
 .sramfunc      0x00201948       0x98 C:/HOOPOE3/satellite-subsystems/demo/../..//hal/hal/lib\libHALD.a(WatchDogTimerNoOS.o)
                0x00201948                WDT_kickEveryNcalls
                0x00201990                WDT_forceKick
 .sramfunc      0x002019e0       0x50 C:/HOOPOE3/satellite-subsystems/demo/../..//hal/hal/lib\libHALD.a(WatchDogTimerOS.o)
                0x002019e0                taskWatchdogKick
 .sramfunc      0x00201a30       0xf0 C:/HOOPOE3/satellite-subsystems/demo/../..//hal/freertos/lib\libFreeRTOSD.a(port.o)
                0x00201a30                vPortTickISR
                0x00201a6c                vPortYieldProcessor
 .sramfunc      0x00201b20       0x48 C:/HOOPOE3/satellite-subsystems/demo/../..//hal/at91/lib\libAt91D.a(ExitHandler.o)
                0x00201b20                gracefulReset
 .sramfunc.stub
                0x00201b68       0xc0 linker stubs
 *(.ramfunc)
                0x00201c28                . = ALIGN (0x4)
                0x00201c28                _epostrelocate = .

.sramdata       0x00300000        0xc load address 0x200442e0
                0x00300000                . = ALIGN (0x4)
                0x00300000                _ssramdata = .
 *(.sramdata)
 .sramdata      0x00300000        0x4 C:/HOOPOE3/satellite-subsystems/demo/../..//hal/hal/lib\libHALD.a(WatchDogTimerNoOS.o)
 .sramdata      0x00300004        0x8 C:/HOOPOE3/satellite-subsystems/demo/../..//hal/hal/lib\libHALD.a(WatchDogTimerOS.o)
                0x0030000c                . = ALIGN (0x4)
                0x0030000c                _esramdata = .

.srambss        0x0030000c        0x0
                0x0030000c                . = ALIGN (0x4)
                0x0030000c                _ssrambss = .
 *(.srambss)
                0x0030000c                . = ALIGN (0x4)
                0x0030000c                _esrambss = .

.bss            0x200426b8    0x68ae4
                0x200426b8                _szero = .
 *(.bss)
 .bss           0x200426b8        0x8 ./src/sub-systemCode/Main/commands.o
                0x200426b8                xCTE
                0x200426bc                place_in_list
 .bss           0x200426c0        0x4 ./src/sub-systemCode/Global/GlobalParam.o
                0x200426c0                xCGP_semaphore
 .bss           0x200426c4      0x168 ./src/sub-systemCode/COMM/APRS.o
 .bss           0x2004282c     0x4e20 ./src/sub-systemCode/COMM/DelayedCommand_list.o
 .bss           0x2004764c    0x186a8 ./src/sub-systemCode/COMM/TRXVU.o
 .bss           0x2005fcf4        0x8 C:/HOOPOE3/satellite-subsystems/demo/..//satellite-subsystems/lib\libSatelliteSubsystemsD.a(GomEPS.o)
 .bss           0x2005fcfc        0x8 C:/HOOPOE3/satellite-subsystems/demo/..//satellite-subsystems/lib\libSatelliteSubsystemsD.a(IsisAntS.o)
 .bss           0x2005fd04        0x1 C:/HOOPOE3/satellite-subsystems/demo/..//satellite-subsystems/lib\libSatelliteSubsystemsD.a(IsisSolarPanelv2.o)
 *fill*         0x2005fd05        0x3 00
 .bss           0x2005fd08        0x8 C:/HOOPOE3/satellite-subsystems/demo/..//satellite-subsystems/lib\libSatelliteSubsystemsD.a(IsisTRXVU.o)
 .bss           0x2005fd10        0x8 C:/HOOPOE3/satellite-subsystems/demo/..//satellite-subsystems/lib\libSatelliteSubsystemsD.a(cspaceADCS.o)
 .bss           0x2005fd18    0x44780 C:/HOOPOE3/satellite-subsystems/demo/../..//hal/hcc/lib\libHCCD.a(fat_common.o)
                0x200a4494                p_filesystem
 .bss           0x200a4498       0x60 C:/HOOPOE3/satellite-subsystems/demo/../..//hal/hcc/lib\libHCCD.a(atmel_mcipdc.o)
                0x200a44f4                mmcsd_dma_buf
 .bss           0x200a44f8       0x90 C:/HOOPOE3/satellite-subsystems/demo/../..//hal/hcc/lib\libHCCD.a(hcc_mem.o)
 .bss           0x200a4588     0x4024 C:/HOOPOE3/satellite-subsystems/demo/../..//hal/hcc/lib\libHCCD.a(psp_hcc_mem.o)
 .bss           0x200a85ac       0x54 C:/HOOPOE3/satellite-subsystems/demo/../..//hal/hal/lib\libHALD.a(I2C.o)
                0x200a85b4                RescheduleFlag
 .bss           0x200a8600       0x50 C:/HOOPOE3/satellite-subsystems/demo/../..//hal/hal/lib\libHALD.a(SPI.o)
 .bss           0x200a8650      0x214 C:/HOOPOE3/satellite-subsystems/demo/../..//hal/hal/lib\libHALD.a(FRAM.o)
 .bss           0x200a8864       0x18 C:/HOOPOE3/satellite-subsystems/demo/../..//hal/hal/lib\libHALD.a(Time.o)
 .bss           0x200a887c        0x8 C:/HOOPOE3/satellite-subsystems/demo/../..//hal/hal/lib\libHALD.a(WatchDogTimerOS.o)
 .bss           0x200a8884       0x10 C:/HOOPOE3/satellite-subsystems/demo/../..//hal/hal/lib\libHALD.a(LED.o)
 .bss           0x200a8894       0xfc C:/HOOPOE3/satellite-subsystems/demo/../..//hal/freertos/lib\libFreeRTOSD.a(tasks.o)
                0x200a8894                pxCurrentTCB
 .bss           0x200a8990        0x4 C:/HOOPOE3/satellite-subsystems/demo/../..//hal/at91/lib\libAt91D.a(syscalls.o)
 *(.bss.*)
 .bss.__malloc_free_list
                0x200a8994        0x4 c:/isis/application/toolchain/bin/../lib/gcc/arm-none-eabi/4.7.4/../../../../arm-none-eabi/lib\libc_s.a(lib_a-mallocr.o)
                0x200a8994                __malloc_free_list
 *(COMMON)
 COMMON         0x200a8998      0x100 c:/isis/application/toolchain/bin/../lib/gcc/arm-none-eabi/4.7.4/../../../../arm-none-eabi/lib\libc_s.a(lib_a-gdtoa-gethex.o)
                0x200a8998                __hexdig
 COMMON         0x200a8a98        0x4 c:/isis/application/toolchain/bin/../lib/gcc/arm-none-eabi/4.7.4/../../../../arm-none-eabi/lib\libc_s.a(lib_a-reent.o)
                0x200a8a98                errno
 COMMON         0x200a8a9c       0x10 ./src/sub-systemCode/Main/CMD/COMM_CMD.o
                0x200a8a9c                xDumpQueue
                0x200a8aa0                xTransponderHandle
                0x200a8aa4                xTransponderQueue
                0x200a8aa8                xDumpHandle
 COMMON         0x200a8aac       0x28 ./src/sub-systemCode/Main/EPS.o
                0x200a8aac                VBatt_previous
                0x200a8ab0                switches_states
                0x200a8ab1                batteryLastMode
                0x200a8ab4                enterMode
 COMMON         0x200a8ad4      0xfa0 ./src/sub-systemCode/Main/commands.o
                0x200a8ad4                command_to_execute
 COMMON         0x200a9a74       0x3a ./src/sub-systemCode/Global/GlobalParam.o
                0x200a9a74                current_global_param
 *fill*         0x200a9aae        0x2 00
 COMMON         0x200a9ab0      0x25e ./src/sub-systemCode/Global/OnlineTM.o
                0x200a9ab0                onlineTM_list
                0x200a9c8c                offline_TM_list
 *fill*         0x200a9d0e        0x2 00
 COMMON         0x200a9d10      0x2d7 ./src/sub-systemCode/Global/TLM_management.o
                0x200a9d10                allocked_write_element
                0x200a9e00                allocked_read_element
                0x200a9ef0                xFileOpenHandler
                0x200a9ef4                xEnterTaskFS
                0x200a9ef8                allocked_delete_element
 *fill*         0x200a9fe7        0x1 00
 COMMON         0x200a9fe8        0xc ./src/sub-systemCode/COMM/TRXVU.o
                0x200a9fe8                allow_transponder
                0x200a9fec                xBeaconTask
                0x200a9ff0                xIsTransmitting
 COMMON         0x200a9ff4     0x10a8 C:/HOOPOE3/satellite-subsystems/demo/../..//hal/hcc/lib\libHCCD.a(fat_common.o)
                0x200a9ff4                g_fatmutex
                0x200a9ff8                g_multi
                0x200ab098                f_format_progress
 COMMON         0x200ab09c      0x100 C:/HOOPOE3/satellite-subsystems/demo/../..//hal/freertos/lib\libFreeRTOSD.a(queue.o)
                0x200ab09c                xQueueRegistry
 *(COMMON.*)
                0x200ab19c                . = ALIGN (0x4)
                0x200ab19c                _ezero = .
                0x200ab19c                _sheap_ = .
                0x21700000                _eheap_ = 0x21700000
                0x21fffc00                _sstack = 0x21fffc00
                0x200ab19c                end = .
OUTPUT(Hoopoe3.elf elf32-littlearm)

.ARM.attributes
                0x00000000       0x30
 .ARM.attributes
                0x00000000       0x30 c:/isis/application/toolchain/bin/../lib/gcc/arm-none-eabi/4.7.4/../../../../arm-none-eabi/lib\libc_s.a(lib_a-vfprintf_float.o)
 .ARM.attributes
                0x00000030       0x30 c:/isis/application/toolchain/bin/../lib/gcc/arm-none-eabi/4.7.4/../../../../arm-none-eabi/lib\libc_s.a(lib_a-vfprintf_i.o)
 .ARM.attributes
                0x00000060       0x30 c:/isis/application/toolchain/bin/../lib/gcc/arm-none-eabi/4.7.4/../../../../arm-none-eabi/lib\libc_s.a(lib_a-vfscanf_float.o)
 .ARM.attributes
                0x00000090       0x30 c:/isis/application/toolchain/bin/../lib/gcc/arm-none-eabi/4.7.4/../../../../arm-none-eabi/lib\libc_s.a(lib_a-dtoa.o)
 .ARM.attributes
                0x000000c0       0x30 c:/isis/application/toolchain/bin/../lib/gcc/arm-none-eabi/4.7.4/../../../../arm-none-eabi/lib\libc_s.a(lib_a-locale.o)
 .ARM.attributes
                0x000000f0       0x30 c:/isis/application/toolchain/bin/../lib/gcc/arm-none-eabi/4.7.4/../../../../arm-none-eabi/lib\libc_s.a(lib_a-malloc.o)
 .ARM.attributes
                0x00000120       0x30 c:/isis/application/toolchain/bin/../lib/gcc/arm-none-eabi/4.7.4/../../../../arm-none-eabi/lib\libc_s.a(lib_a-mallocr.o)
 .ARM.attributes
                0x00000150       0x30 c:/isis/application/toolchain/bin/../lib/gcc/arm-none-eabi/4.7.4/../../../../arm-none-eabi/lib\libc_s.a(lib_a-memcpy.o)
 .ARM.attributes
                0x00000180       0x30 c:/isis/application/toolchain/bin/../lib/gcc/arm-none-eabi/4.7.4/../../../../arm-none-eabi/lib\libc_s.a(lib_a-mprec.o)
 .ARM.attributes
                0x000001b0       0x30 c:/isis/application/toolchain/bin/../lib/gcc/arm-none-eabi/4.7.4/../../../../arm-none-eabi/lib\libc_s.a(lib_a-s_fpclassify.o)
 .ARM.attributes
                0x000001e0       0x30 c:/isis/application/toolchain/bin/../lib/gcc/arm-none-eabi/4.7.4/../../../../arm-none-eabi/lib\libc_s.a(lib_a-sbrkr.o)
 .ARM.attributes
                0x00000210       0x30 c:/isis/application/toolchain/bin/../lib/gcc/arm-none-eabi/4.7.4/../../../../arm-none-eabi/lib\libc_s.a(lib_a-sf_nan.o)
 .ARM.attributes
                0x00000240       0x30 c:/isis/application/toolchain/bin/../lib/gcc/arm-none-eabi/4.7.4/../../../../arm-none-eabi/lib\libc_s.a(lib_a-sprintf.o)
 .ARM.attributes
                0x00000270       0x30 c:/isis/application/toolchain/bin/../lib/gcc/arm-none-eabi/4.7.4/../../../../arm-none-eabi/lib\libc_s.a(lib_a-strcmp.o)
 .ARM.attributes
                0x000002a0       0x30 c:/isis/application/toolchain/bin/../lib/gcc/arm-none-eabi/4.7.4/../../../../arm-none-eabi/lib\libc_s.a(lib_a-strlen.o)
 .ARM.attributes
                0x000002d0       0x30 c:/isis/application/toolchain/bin/../lib/gcc/arm-none-eabi/4.7.4/../../../../arm-none-eabi/lib\libc_s.a(lib_a-strtod.o)
 .ARM.attributes
                0x00000300       0x30 c:/isis/application/toolchain/bin/../lib/gcc/arm-none-eabi/4.7.4/../../../../arm-none-eabi/lib\libc_s.a(lib_a-strtol.o)
 .ARM.attributes
                0x00000330       0x30 c:/isis/application/toolchain/bin/../lib/gcc/arm-none-eabi/4.7.4/../../../../arm-none-eabi/lib\libc_s.a(lib_a-svfprintf.o)
 .ARM.attributes
                0x00000360       0x30 c:/isis/application/toolchain/bin/../lib/gcc/arm-none-eabi/4.7.4/../../../../arm-none-eabi/lib\libc_s.a(lib_a-callocr.o)
 .ARM.attributes
                0x00000390       0x30 c:/isis/application/toolchain/bin/../lib/gcc/arm-none-eabi/4.7.4/../../../../arm-none-eabi/lib\libc_s.a(lib_a-ctype_.o)
 .ARM.attributes
                0x000003c0       0x30 c:/isis/application/toolchain/bin/../lib/gcc/arm-none-eabi/4.7.4/../../../../arm-none-eabi/lib\libc_s.a(lib_a-freer.o)
 .ARM.attributes
                0x000003f0       0x30 c:/isis/application/toolchain/bin/../lib/gcc/arm-none-eabi/4.7.4/../../../../arm-none-eabi/lib\libc_s.a(lib_a-gdtoa-gethex.o)
 .ARM.attributes
                0x00000420       0x30 c:/isis/application/toolchain/bin/../lib/gcc/arm-none-eabi/4.7.4/../../../../arm-none-eabi/lib\libc_s.a(lib_a-gdtoa-hexnan.o)
 .ARM.attributes
                0x00000450       0x30 c:/isis/application/toolchain/bin/../lib/gcc/arm-none-eabi/4.7.4/../../../../arm-none-eabi/lib\libc_s.a(lib_a-impure.o)
 .ARM.attributes
                0x00000480       0x30 c:/isis/application/toolchain/bin/../lib/gcc/arm-none-eabi/4.7.4/../../../../arm-none-eabi/lib\libc_s.a(lib_a-memchr.o)
 .ARM.attributes
                0x000004b0       0x30 c:/isis/application/toolchain/bin/../lib/gcc/arm-none-eabi/4.7.4/../../../../arm-none-eabi/lib\libc_s.a(lib_a-memset.o)
 .ARM.attributes
                0x000004e0       0x30 c:/isis/application/toolchain/bin/../lib/gcc/arm-none-eabi/4.7.4/../../../../arm-none-eabi/lib\libc_s.a(lib_a-reallocr.o)
 .ARM.attributes
                0x00000510       0x30 c:/isis/application/toolchain/bin/../lib/gcc/arm-none-eabi/4.7.4/../../../../arm-none-eabi/lib\libc_s.a(lib_a-reent.o)
 .ARM.attributes
                0x00000540       0x30 c:/isis/application/toolchain/bin/../lib/gcc/arm-none-eabi/4.7.4/../../../../arm-none-eabi/lib\libc_s.a(lib_a-strncmp.o)
 .ARM.attributes
                0x00000570       0x30 c:/isis/application/toolchain/bin/../lib/gcc/arm-none-eabi/4.7.4/../../../../arm-none-eabi/lib\libc_s.a(lib_a-msizer.o)
 .ARM.attributes
                0x000005a0       0x32 ./src/sub-systemCode/Main/CMD/COMM_CMD.o
 .ARM.attributes
                0x000005d2       0x32 ./src/sub-systemCode/Main/CMD/EPS_CMD.o
 .ARM.attributes
                0x00000604       0x32 ./src/sub-systemCode/Main/CMD/General_CMD.o
 .ARM.attributes
                0x00000636       0x32 ./src/sub-systemCode/Main/CMD/SW_CMD.o
 .ARM.attributes
                0x00000668       0x32 ./src/sub-systemCode/Main/Ants.o
 .ARM.attributes
                0x0000069a       0x32 ./src/sub-systemCode/Main/EPS.o
 .ARM.attributes
                0x000006cc       0x32 ./src/sub-systemCode/Main/HouseKeeping.o
 .ARM.attributes
                0x000006fe       0x32 ./src/sub-systemCode/Main/Main_Init.o
 .ARM.attributes
                0x00000730       0x32 ./src/sub-systemCode/Main/commands.o
 .ARM.attributes
                0x00000762       0x32 ./src/sub-systemCode/Global/Global.o
 .ARM.attributes
                0x00000794       0x32 ./src/sub-systemCode/Global/GlobalParam.o
 .ARM.attributes
                0x000007c6       0x32 ./src/sub-systemCode/Global/OnlineTM.o
 .ARM.attributes
                0x000007f8       0x32 ./src/sub-systemCode/Global/TLM_management.o
 .ARM.attributes
                0x0000082a       0x32 ./src/sub-systemCode/Global/freertosExtended.o
 .ARM.attributes
                0x0000085c       0x32 ./src/sub-systemCode/COMM/APRS.o
 .ARM.attributes
                0x0000088e       0x32 ./src/sub-systemCode/COMM/DelayedCommand_list.o
 .ARM.attributes
                0x000008c0       0x32 ./src/sub-systemCode/COMM/GSC.o
 .ARM.attributes
                0x000008f2       0x32 ./src/sub-systemCode/COMM/TRXVU.o
 .ARM.attributes
                0x00000924       0x32 ./src/sub-systemCode/ADCS/ADCS.o
 .ARM.attributes
                0x00000956       0x32 ./src/sub-systemCode/ADCS/Stage_Table.o
 .ARM.attributes
                0x00000988       0x32 ./src/main.o
 .ARM.attributes
                0x000009ba       0x32 C:/HOOPOE3/satellite-subsystems/demo/..//satellite-subsystems/lib\libSatelliteSubsystemsD.a(GomEPS.o)
 .ARM.attributes
                0x000009ec       0x32 C:/HOOPOE3/satellite-subsystems/demo/..//satellite-subsystems/lib\libSatelliteSubsystemsD.a(IsisAntS.o)
 .ARM.attributes
                0x00000a1e       0x32 C:/HOOPOE3/satellite-subsystems/demo/..//satellite-subsystems/lib\libSatelliteSubsystemsD.a(IsisSolarPanelv2.o)
 .ARM.attributes
                0x00000a50       0x32 C:/HOOPOE3/satellite-subsystems/demo/..//satellite-subsystems/lib\libSatelliteSubsystemsD.a(IsisTRXVU.o)
 .ARM.attributes
                0x00000a82       0x32 C:/HOOPOE3/satellite-subsystems/demo/..//satellite-subsystems/lib\libSatelliteSubsystemsD.a(cspaceADCS.o)
 .ARM.attributes
                0x00000ab4       0x32 C:/HOOPOE3/satellite-subsystems/demo/..//satellite-subsystems/lib\libSatelliteSubsystemsD.a(gecko_driver.o)
 .ARM.attributes
                0x00000ae6       0x32 C:/HOOPOE3/satellite-subsystems/demo/..//satellite-subsystems/lib\libSatelliteSubsystemsD.a(IsisTRXCommon.o)
 .ARM.attributes
                0x00000b18       0x30 c:/isis/application/toolchain/bin/../lib/gcc/arm-none-eabi/4.7.4/../../../../arm-none-eabi/lib\libm.a(lib_a-w_log.o)
 .ARM.attributes
                0x00000b48       0x30 c:/isis/application/toolchain/bin/../lib/gcc/arm-none-eabi/4.7.4/../../../../arm-none-eabi/lib\libm.a(lib_a-e_log.o)
 .ARM.attributes
                0x00000b78       0x30 c:/isis/application/toolchain/bin/../lib/gcc/arm-none-eabi/4.7.4/../../../../arm-none-eabi/lib\libm.a(lib_a-s_lib_ver.o)
 .ARM.attributes
                0x00000ba8       0x30 c:/isis/application/toolchain/bin/../lib/gcc/arm-none-eabi/4.7.4/../../../../arm-none-eabi/lib\libm.a(lib_a-s_matherr.o)
 .ARM.attributes
                0x00000bd8       0x30 c:/isis/application/toolchain/bin/../lib/gcc/arm-none-eabi/4.7.4/../../../../arm-none-eabi/lib\libm.a(lib_a-s_nan.o)
 .ARM.attributes
                0x00000c08       0x32 C:/HOOPOE3/satellite-subsystems/demo/../..//hal/hcc/lib\libHCCD.a(fat_common.o)
 .ARM.attributes
                0x00000c3a       0x32 C:/HOOPOE3/satellite-subsystems/demo/../..//hal/hcc/lib\libHCCD.a(fat_m.o)
 .ARM.attributes
                0x00000c6c       0x32 C:/HOOPOE3/satellite-subsystems/demo/../..//hal/hcc/lib\libHCCD.a(safefat.o)
 .ARM.attributes
                0x00000c9e       0x32 C:/HOOPOE3/satellite-subsystems/demo/../..//hal/hcc/lib\libHCCD.a(atmel_mcipdc.o)
 .ARM.attributes
                0x00000cd0       0x32 C:/HOOPOE3/satellite-subsystems/demo/../..//hal/hcc/lib\libHCCD.a(oalp_mutex.o)
 .ARM.attributes
                0x00000d02       0x32 C:/HOOPOE3/satellite-subsystems/demo/../..//hal/hcc/lib\libHCCD.a(oalp_task.o)
 .ARM.attributes
                0x00000d34       0x32 C:/HOOPOE3/satellite-subsystems/demo/../..//hal/hcc/lib\libHCCD.a(atmel_mcipdc_hw.o)
 .ARM.attributes
                0x00000d66       0x32 C:/HOOPOE3/satellite-subsystems/demo/../..//hal/hcc/lib\libHCCD.a(psp_rtc.o)
 .ARM.attributes
                0x00000d98       0x32 C:/HOOPOE3/satellite-subsystems/demo/../..//hal/hcc/lib\libHCCD.a(hcc_mem.o)
 .ARM.attributes
                0x00000dca       0x32 C:/HOOPOE3/satellite-subsystems/demo/../..//hal/hcc/lib\libHCCD.a(fat.o)
 .ARM.attributes
                0x00000dfc       0x32 C:/HOOPOE3/satellite-subsystems/demo/../..//hal/hcc/lib\libHCCD.a(psp_hcc_mem.o)
 .ARM.attributes
                0x00000e2e       0x32 C:/HOOPOE3/satellite-subsystems/demo/../..//hal/hal/lib\libHALD.a(I2C.o)
 .ARM.attributes
                0x00000e60       0x32 C:/HOOPOE3/satellite-subsystems/demo/../..//hal/hal/lib\libHALD.a(SPI.o)
 .ARM.attributes
                0x00000e92       0x32 C:/HOOPOE3/satellite-subsystems/demo/../..//hal/hal/lib\libHALD.a(FRAM.o)
 .ARM.attributes
                0x00000ec4       0x32 C:/HOOPOE3/satellite-subsystems/demo/../..//hal/hal/lib\libHALD.a(Time.o)
 .ARM.attributes
                0x00000ef6       0x32 C:/HOOPOE3/satellite-subsystems/demo/../..//hal/hal/lib\libHALD.a(WatchDogTimerNoOS.o)
 .ARM.attributes
                0x00000f28       0x32 C:/HOOPOE3/satellite-subsystems/demo/../..//hal/hal/lib\libHALD.a(WatchDogTimerOS.o)
 .ARM.attributes
                0x00000f5a       0x32 C:/HOOPOE3/satellite-subsystems/demo/../..//hal/hal/lib\libHALD.a(util.o)
 .ARM.attributes
                0x00000f8c       0x32 C:/HOOPOE3/satellite-subsystems/demo/../..//hal/hal/lib\libHALD.a(LED.o)
 .ARM.attributes
                0x00000fbe       0x32 C:/HOOPOE3/satellite-subsystems/demo/../..//hal/hal/lib\libHALD.a(RTC.o)
 .ARM.attributes
                0x00000ff0       0x32 C:/HOOPOE3/satellite-subsystems/demo/../..//hal/hal/lib\libHALD.a(RTT.o)
 .ARM.attributes
                0x00001022       0x32 C:/HOOPOE3/satellite-subsystems/demo/../..//hal/freertos/lib\libFreeRTOSD.a(queue.o)
 .ARM.attributes
                0x00001054       0x32 C:/HOOPOE3/satellite-subsystems/demo/../..//hal/freertos/lib\libFreeRTOSD.a(tasks.o)
 .ARM.attributes
                0x00001086       0x32 C:/HOOPOE3/satellite-subsystems/demo/../..//hal/freertos/lib\libFreeRTOSD.a(hooks.o)
 .ARM.attributes
                0x000010b8       0x32 C:/HOOPOE3/satellite-subsystems/demo/../..//hal/freertos/lib\libFreeRTOSD.a(standardMemMang.o)
 .ARM.attributes
                0x000010ea       0x32 C:/HOOPOE3/satellite-subsystems/demo/../..//hal/freertos/lib\libFreeRTOSD.a(port.o)
 .ARM.attributes
                0x0000111c       0x32 C:/HOOPOE3/satellite-subsystems/demo/../..//hal/freertos/lib\libFreeRTOSD.a(list.o)
 .ARM.attributes
                0x0000114e       0x32 C:/HOOPOE3/satellite-subsystems/demo/../..//hal/at91/lib\libAt91D.a(syscalls.o)
 .ARM.attributes
                0x00001180       0x32 C:/HOOPOE3/satellite-subsystems/demo/../..//hal/at91/lib\libAt91D.a(aic.o)
 .ARM.attributes
                0x000011b2       0x32 C:/HOOPOE3/satellite-subsystems/demo/../..//hal/at91/lib\libAt91D.a(cp15.o)
 .ARM.attributes
                0x000011e4       0x32 C:/HOOPOE3/satellite-subsystems/demo/../..//hal/at91/lib\libAt91D.a(dbgu.o)
 .ARM.attributes
                0x00001216       0x32 C:/HOOPOE3/satellite-subsystems/demo/../..//hal/at91/lib\libAt91D.a(pio.o)
 .ARM.attributes
                0x00001248       0x32 C:/HOOPOE3/satellite-subsystems/demo/../..//hal/at91/lib\libAt91D.a(pit.o)
 .ARM.attributes
                0x0000127a       0x32 C:/HOOPOE3/satellite-subsystems/demo/../..//hal/at91/lib\libAt91D.a(pmc.o)
 .ARM.attributes
                0x000012ac       0x32 C:/HOOPOE3/satellite-subsystems/demo/../..//hal/at91/lib\libAt91D.a(spi_at91.o)
 .ARM.attributes
                0x000012de       0x32 C:/HOOPOE3/satellite-subsystems/demo/../..//hal/at91/lib\libAt91D.a(twi_at91.o)
 .ARM.attributes
                0x00001310       0x32 C:/HOOPOE3/satellite-subsystems/demo/../..//hal/at91/lib\libAt91D.a(ExitHandler.o)
 .ARM.attributes
                0x00001342       0x22 C:/HOOPOE3/satellite-subsystems/demo/../..//hal/at91/lib\libAt91D.a(board_cstartup.o)
 .ARM.attributes
                0x00001364       0x22 C:/HOOPOE3/satellite-subsystems/demo/../..//hal/at91/lib\libAt91D.a(cp15_asm.o)
 .ARM.attributes
                0x00001386       0x32 C:/HOOPOE3/satellite-subsystems/demo/../..//hal/at91/lib\libAt91D.a(board_lowlevel.o)
 .ARM.attributes
                0x000013b8       0x32 C:/HOOPOE3/satellite-subsystems/demo/../..//hal/at91/lib\libAt91D.a(board_memories.o)
 .ARM.attributes
                0x000013ea       0x18 c:/isis/application/toolchain/bin/../lib/gcc/arm-none-eabi/4.7.4\libgcc.a(_udivsi3.o)
 .ARM.attributes
                0x00001402       0x18 c:/isis/application/toolchain/bin/../lib/gcc/arm-none-eabi/4.7.4\libgcc.a(_divsi3.o)
 .ARM.attributes
                0x0000141a       0x18 c:/isis/application/toolchain/bin/../lib/gcc/arm-none-eabi/4.7.4\libgcc.a(_dvmd_tls.o)
 .ARM.attributes
                0x00001432       0x18 c:/isis/application/toolchain/bin/../lib/gcc/arm-none-eabi/4.7.4\libgcc.a(_arm_addsubdf3.o)
 .ARM.attributes
                0x0000144a       0x18 c:/isis/application/toolchain/bin/../lib/gcc/arm-none-eabi/4.7.4\libgcc.a(_arm_muldivdf3.o)
 .ARM.attributes
                0x00001462       0x18 c:/isis/application/toolchain/bin/../lib/gcc/arm-none-eabi/4.7.4\libgcc.a(_arm_cmpdf2.o)
 .ARM.attributes
                0x0000147a       0x18 c:/isis/application/toolchain/bin/../lib/gcc/arm-none-eabi/4.7.4\libgcc.a(_arm_fixdfsi.o)
 .ARM.attributes
                0x00001492       0x18 c:/isis/application/toolchain/bin/../lib/gcc/arm-none-eabi/4.7.4\libgcc.a(_arm_fixunsdfsi.o)
 .ARM.attributes
                0x000014aa       0x18 c:/isis/application/toolchain/bin/../lib/gcc/arm-none-eabi/4.7.4\libgcc.a(_arm_truncdfsf2.o)
 .ARM.attributes
                0x000014c2       0x18 c:/isis/application/toolchain/bin/../lib/gcc/arm-none-eabi/4.7.4\libgcc.a(_arm_addsubsf3.o)
 .ARM.attributes
                0x000014da       0x18 c:/isis/application/toolchain/bin/../lib/gcc/arm-none-eabi/4.7.4\libgcc.a(_arm_muldivsf3.o)
 .ARM.attributes
                0x000014f2       0x18 c:/isis/application/toolchain/bin/../lib/gcc/arm-none-eabi/4.7.4\libgcc.a(_arm_cmpsf2.o)
 .ARM.attributes
                0x0000150a       0x18 c:/isis/application/toolchain/bin/../lib/gcc/arm-none-eabi/4.7.4\libgcc.a(_arm_fixunssfsi.o)
 .ARM.attributes
                0x00001522       0x30 c:/isis/application/toolchain/bin/../lib/gcc/arm-none-eabi/4.7.4/../../../../arm-none-eabi/lib\libc_s.a(lib_a-errno.o)
 .ARM.attributes
                0x00001552       0x30 c:/isis/application/toolchain/bin/../lib/gcc/arm-none-eabi/4.7.4/../../../../arm-none-eabi/lib\libc_s.a(lib_a-memcmp.o)
 .ARM.attributes
                0x00001582       0x30 c:/isis/application/toolchain/bin/../lib/gcc/arm-none-eabi/4.7.4/../../../../arm-none-eabi/lib\libc_s.a(lib_a-printf.o)
 .ARM.attributes
                0x000015b2       0x30 c:/isis/application/toolchain/bin/../lib/gcc/arm-none-eabi/4.7.4/../../../../arm-none-eabi/lib\libc_s.a(lib_a-puts.o)
 .ARM.attributes
                0x000015e2       0x30 c:/isis/application/toolchain/bin/../lib/gcc/arm-none-eabi/4.7.4/../../../../arm-none-eabi/lib\libc_s.a(lib_a-strcpy.o)
 .ARM.attributes
                0x00001612       0x30 c:/isis/application/toolchain/bin/../lib/gcc/arm-none-eabi/4.7.4/../../../../arm-none-eabi/lib\libc_s.a(lib_a-vfprintf.o)
 .ARM.attributes
                0x00001642       0x30 c:/isis/application/toolchain/bin/../lib/gcc/arm-none-eabi/4.7.4/../../../../arm-none-eabi/lib\libc_s.a(lib_a-wbuf.o)
 .ARM.attributes
                0x00001672       0x30 c:/isis/application/toolchain/bin/../lib/gcc/arm-none-eabi/4.7.4/../../../../arm-none-eabi/lib\libc_s.a(lib_a-wsetup.o)
 .ARM.attributes
                0x000016a2       0x30 c:/isis/application/toolchain/bin/../lib/gcc/arm-none-eabi/4.7.4/../../../../arm-none-eabi/lib\libc_s.a(lib_a-fflush.o)
 .ARM.attributes
                0x000016d2       0x30 c:/isis/application/toolchain/bin/../lib/gcc/arm-none-eabi/4.7.4/../../../../arm-none-eabi/lib\libc_s.a(lib_a-findfp.o)
 .ARM.attributes
                0x00001702       0x30 c:/isis/application/toolchain/bin/../lib/gcc/arm-none-eabi/4.7.4/../../../../arm-none-eabi/lib\libc_s.a(lib_a-makebuf.o)
 .ARM.attributes
                0x00001732       0x30 c:/isis/application/toolchain/bin/../lib/gcc/arm-none-eabi/4.7.4/../../../../arm-none-eabi/lib\libc_s.a(lib_a-putc.o)
 .ARM.attributes
                0x00001762       0x30 c:/isis/application/toolchain/bin/../lib/gcc/arm-none-eabi/4.7.4/../../../../arm-none-eabi/lib\libc_s.a(lib_a-stdio.o)
 .ARM.attributes
                0x00001792       0x30 c:/isis/application/toolchain/bin/../lib/gcc/arm-none-eabi/4.7.4/../../../../arm-none-eabi/lib\libc_s.a(lib_a-writer.o)
 .ARM.attributes
                0x000017c2       0x30 c:/isis/application/toolchain/bin/../lib/gcc/arm-none-eabi/4.7.4/../../../../arm-none-eabi/lib\libc_s.a(lib_a-closer.o)
 .ARM.attributes
                0x000017f2       0x30 c:/isis/application/toolchain/bin/../lib/gcc/arm-none-eabi/4.7.4/../../../../arm-none-eabi/lib\libc_s.a(lib_a-fstatr.o)
 .ARM.attributes
                0x00001822       0x30 c:/isis/application/toolchain/bin/../lib/gcc/arm-none-eabi/4.7.4/../../../../arm-none-eabi/lib\libc_s.a(lib_a-isattyr.o)
 .ARM.attributes
                0x00001852       0x30 c:/isis/application/toolchain/bin/../lib/gcc/arm-none-eabi/4.7.4/../../../../arm-none-eabi/lib\libc_s.a(lib_a-lseekr.o)
 .ARM.attributes
                0x00001882       0x30 c:/isis/application/toolchain/bin/../lib/gcc/arm-none-eabi/4.7.4/../../../../arm-none-eabi/lib\libc_s.a(lib_a-readr.o)

.comment        0x00000000       0x70
 .comment       0x00000000       0x70 ./src/sub-systemCode/Main/CMD/COMM_CMD.o
                                 0x71 (size before relaxing)
 .comment       0x00000000       0x71 ./src/sub-systemCode/Main/CMD/EPS_CMD.o
 .comment       0x00000000       0x71 ./src/sub-systemCode/Main/CMD/General_CMD.o
 .comment       0x00000000       0x71 ./src/sub-systemCode/Main/CMD/SW_CMD.o
 .comment       0x00000000       0x71 ./src/sub-systemCode/Main/Ants.o
 .comment       0x00000000       0x71 ./src/sub-systemCode/Main/EPS.o
 .comment       0x00000000       0x71 ./src/sub-systemCode/Main/HouseKeeping.o
 .comment       0x00000000       0x71 ./src/sub-systemCode/Main/Main_Init.o
 .comment       0x00000000       0x71 ./src/sub-systemCode/Main/commands.o
 .comment       0x00000000       0x71 ./src/sub-systemCode/Global/Global.o
 .comment       0x00000000       0x71 ./src/sub-systemCode/Global/GlobalParam.o
 .comment       0x00000000       0x71 ./src/sub-systemCode/Global/OnlineTM.o
 .comment       0x00000000       0x71 ./src/sub-systemCode/Global/TLM_management.o
 .comment       0x00000000       0x71 ./src/sub-systemCode/Global/freertosExtended.o
 .comment       0x00000000       0x71 ./src/sub-systemCode/COMM/APRS.o
 .comment       0x00000000       0x71 ./src/sub-systemCode/COMM/DelayedCommand_list.o
 .comment       0x00000000       0x71 ./src/sub-systemCode/COMM/GSC.o
 .comment       0x00000000       0x71 ./src/sub-systemCode/COMM/TRXVU.o
 .comment       0x00000000       0x71 ./src/sub-systemCode/ADCS/ADCS.o
 .comment       0x00000000       0x71 ./src/sub-systemCode/ADCS/Stage_Table.o
 .comment       0x00000000       0x71 ./src/main.o
 .comment       0x00000000       0x71 C:/HOOPOE3/satellite-subsystems/demo/..//satellite-subsystems/lib\libSatelliteSubsystemsD.a(GomEPS.o)
 .comment       0x00000000       0x71 C:/HOOPOE3/satellite-subsystems/demo/..//satellite-subsystems/lib\libSatelliteSubsystemsD.a(IsisAntS.o)
 .comment       0x00000000       0x71 C:/HOOPOE3/satellite-subsystems/demo/..//satellite-subsystems/lib\libSatelliteSubsystemsD.a(IsisSolarPanelv2.o)
 .comment       0x00000000       0x71 C:/HOOPOE3/satellite-subsystems/demo/..//satellite-subsystems/lib\libSatelliteSubsystemsD.a(IsisTRXVU.o)
 .comment       0x00000000       0x71 C:/HOOPOE3/satellite-subsystems/demo/..//satellite-subsystems/lib\libSatelliteSubsystemsD.a(cspaceADCS.o)
 .comment       0x00000000       0x71 C:/HOOPOE3/satellite-subsystems/demo/..//satellite-subsystems/lib\libSatelliteSubsystemsD.a(gecko_driver.o)
 .comment       0x00000000       0x71 C:/HOOPOE3/satellite-subsystems/demo/..//satellite-subsystems/lib\libSatelliteSubsystemsD.a(IsisTRXCommon.o)
 .comment       0x00000000       0x71 C:/HOOPOE3/satellite-subsystems/demo/../..//hal/hcc/lib\libHCCD.a(fat_common.o)
 .comment       0x00000000       0x71 C:/HOOPOE3/satellite-subsystems/demo/../..//hal/hcc/lib\libHCCD.a(fat_m.o)
 .comment       0x00000000       0x71 C:/HOOPOE3/satellite-subsystems/demo/../..//hal/hcc/lib\libHCCD.a(safefat.o)
 .comment       0x00000000       0x71 C:/HOOPOE3/satellite-subsystems/demo/../..//hal/hcc/lib\libHCCD.a(atmel_mcipdc.o)
 .comment       0x00000000       0x71 C:/HOOPOE3/satellite-subsystems/demo/../..//hal/hcc/lib\libHCCD.a(oalp_mutex.o)
 .comment       0x00000000       0x71 C:/HOOPOE3/satellite-subsystems/demo/../..//hal/hcc/lib\libHCCD.a(oalp_task.o)
 .comment       0x00000000       0x71 C:/HOOPOE3/satellite-subsystems/demo/../..//hal/hcc/lib\libHCCD.a(atmel_mcipdc_hw.o)
 .comment       0x00000000       0x71 C:/HOOPOE3/satellite-subsystems/demo/../..//hal/hcc/lib\libHCCD.a(psp_rtc.o)
 .comment       0x00000000       0x71 C:/HOOPOE3/satellite-subsystems/demo/../..//hal/hcc/lib\libHCCD.a(hcc_mem.o)
 .comment       0x00000000       0x71 C:/HOOPOE3/satellite-subsystems/demo/../..//hal/hcc/lib\libHCCD.a(fat.o)
 .comment       0x00000000       0x71 C:/HOOPOE3/satellite-subsystems/demo/../..//hal/hcc/lib\libHCCD.a(psp_hcc_mem.o)
 .comment       0x00000000       0x71 C:/HOOPOE3/satellite-subsystems/demo/../..//hal/hal/lib\libHALD.a(I2C.o)
 .comment       0x00000000       0x71 C:/HOOPOE3/satellite-subsystems/demo/../..//hal/hal/lib\libHALD.a(SPI.o)
 .comment       0x00000000       0x71 C:/HOOPOE3/satellite-subsystems/demo/../..//hal/hal/lib\libHALD.a(FRAM.o)
 .comment       0x00000000       0x71 C:/HOOPOE3/satellite-subsystems/demo/../..//hal/hal/lib\libHALD.a(Time.o)
 .comment       0x00000000       0x71 C:/HOOPOE3/satellite-subsystems/demo/../..//hal/hal/lib\libHALD.a(WatchDogTimerNoOS.o)
 .comment       0x00000000       0x71 C:/HOOPOE3/satellite-subsystems/demo/../..//hal/hal/lib\libHALD.a(WatchDogTimerOS.o)
 .comment       0x00000000       0x71 C:/HOOPOE3/satellite-subsystems/demo/../..//hal/hal/lib\libHALD.a(util.o)
 .comment       0x00000000       0x71 C:/HOOPOE3/satellite-subsystems/demo/../..//hal/hal/lib\libHALD.a(LED.o)
 .comment       0x00000000       0x71 C:/HOOPOE3/satellite-subsystems/demo/../..//hal/hal/lib\libHALD.a(RTC.o)
 .comment       0x00000000       0x71 C:/HOOPOE3/satellite-subsystems/demo/../..//hal/hal/lib\libHALD.a(RTT.o)
 .comment       0x00000000       0x71 C:/HOOPOE3/satellite-subsystems/demo/../..//hal/freertos/lib\libFreeRTOSD.a(queue.o)
 .comment       0x00000000       0x71 C:/HOOPOE3/satellite-subsystems/demo/../..//hal/freertos/lib\libFreeRTOSD.a(tasks.o)
 .comment       0x00000000       0x71 C:/HOOPOE3/satellite-subsystems/demo/../..//hal/freertos/lib\libFreeRTOSD.a(hooks.o)
 .comment       0x00000000       0x71 C:/HOOPOE3/satellite-subsystems/demo/../..//hal/freertos/lib\libFreeRTOSD.a(standardMemMang.o)
 .comment       0x00000000       0x71 C:/HOOPOE3/satellite-subsystems/demo/../..//hal/freertos/lib\libFreeRTOSD.a(port.o)
 .comment       0x00000000       0x71 C:/HOOPOE3/satellite-subsystems/demo/../..//hal/freertos/lib\libFreeRTOSD.a(list.o)
 .comment       0x00000000       0x71 C:/HOOPOE3/satellite-subsystems/demo/../..//hal/at91/lib\libAt91D.a(syscalls.o)
 .comment       0x00000000       0x71 C:/HOOPOE3/satellite-subsystems/demo/../..//hal/at91/lib\libAt91D.a(aic.o)
 .comment       0x00000000       0x71 C:/HOOPOE3/satellite-subsystems/demo/../..//hal/at91/lib\libAt91D.a(cp15.o)
 .comment       0x00000000       0x71 C:/HOOPOE3/satellite-subsystems/demo/../..//hal/at91/lib\libAt91D.a(dbgu.o)
 .comment       0x00000000       0x71 C:/HOOPOE3/satellite-subsystems/demo/../..//hal/at91/lib\libAt91D.a(pio.o)
 .comment       0x00000000       0x71 C:/HOOPOE3/satellite-subsystems/demo/../..//hal/at91/lib\libAt91D.a(pit.o)
 .comment       0x00000000       0x71 C:/HOOPOE3/satellite-subsystems/demo/../..//hal/at91/lib\libAt91D.a(pmc.o)
 .comment       0x00000000       0x71 C:/HOOPOE3/satellite-subsystems/demo/../..//hal/at91/lib\libAt91D.a(spi_at91.o)
 .comment       0x00000000       0x71 C:/HOOPOE3/satellite-subsystems/demo/../..//hal/at91/lib\libAt91D.a(twi_at91.o)
 .comment       0x00000000       0x71 C:/HOOPOE3/satellite-subsystems/demo/../..//hal/at91/lib\libAt91D.a(ExitHandler.o)
 .comment       0x00000000       0x71 C:/HOOPOE3/satellite-subsystems/demo/../..//hal/at91/lib\libAt91D.a(board_lowlevel.o)
 .comment       0x00000000       0x71 C:/HOOPOE3/satellite-subsystems/demo/../..//hal/at91/lib\libAt91D.a(board_memories.o)

.debug_frame    0x00000000     0x900c
 .debug_frame   0x00000000       0x80 c:/isis/application/toolchain/bin/../lib/gcc/arm-none-eabi/4.7.4/../../../../arm-none-eabi/lib\libc_s.a(lib_a-vfprintf_float.o)
 .debug_frame   0x00000080       0x5c c:/isis/application/toolchain/bin/../lib/gcc/arm-none-eabi/4.7.4/../../../../arm-none-eabi/lib\libc_s.a(lib_a-vfprintf_i.o)
 .debug_frame   0x000000dc       0x38 c:/isis/application/toolchain/bin/../lib/gcc/arm-none-eabi/4.7.4/../../../../arm-none-eabi/lib\libc_s.a(lib_a-vfscanf_float.o)
 .debug_frame   0x00000114       0x64 c:/isis/application/toolchain/bin/../lib/gcc/arm-none-eabi/4.7.4/../../../../arm-none-eabi/lib\libc_s.a(lib_a-dtoa.o)
 .debug_frame   0x00000178       0x98 c:/isis/application/toolchain/bin/../lib/gcc/arm-none-eabi/4.7.4/../../../../arm-none-eabi/lib\libc_s.a(lib_a-locale.o)
 .debug_frame   0x00000210       0x40 c:/isis/application/toolchain/bin/../lib/gcc/arm-none-eabi/4.7.4/../../../../arm-none-eabi/lib\libc_s.a(lib_a-malloc.o)
 .debug_frame   0x00000250       0x2c c:/isis/application/toolchain/bin/../lib/gcc/arm-none-eabi/4.7.4/../../../../arm-none-eabi/lib\libc_s.a(lib_a-mallocr.o)
 .debug_frame   0x0000027c       0x20 c:/isis/application/toolchain/bin/../lib/gcc/arm-none-eabi/4.7.4/../../../../arm-none-eabi/lib\libc_s.a(lib_a-memcpy.o)
 .debug_frame   0x0000029c      0x22c c:/isis/application/toolchain/bin/../lib/gcc/arm-none-eabi/4.7.4/../../../../arm-none-eabi/lib\libc_s.a(lib_a-mprec.o)
 .debug_frame   0x000004c8       0x20 c:/isis/application/toolchain/bin/../lib/gcc/arm-none-eabi/4.7.4/../../../../arm-none-eabi/lib\libc_s.a(lib_a-s_fpclassify.o)
 .debug_frame   0x000004e8       0x2c c:/isis/application/toolchain/bin/../lib/gcc/arm-none-eabi/4.7.4/../../../../arm-none-eabi/lib\libc_s.a(lib_a-sbrkr.o)
 .debug_frame   0x00000514       0x20 c:/isis/application/toolchain/bin/../lib/gcc/arm-none-eabi/4.7.4/../../../../arm-none-eabi/lib\libc_s.a(lib_a-sf_nan.o)
 .debug_frame   0x00000534       0x54 c:/isis/application/toolchain/bin/../lib/gcc/arm-none-eabi/4.7.4/../../../../arm-none-eabi/lib\libc_s.a(lib_a-sprintf.o)
 .debug_frame   0x00000588       0x20 c:/isis/application/toolchain/bin/../lib/gcc/arm-none-eabi/4.7.4/../../../../arm-none-eabi/lib\libc_s.a(lib_a-strcmp.o)
 .debug_frame   0x000005a8       0x20 c:/isis/application/toolchain/bin/../lib/gcc/arm-none-eabi/4.7.4/../../../../arm-none-eabi/lib\libc_s.a(lib_a-strlen.o)
 .debug_frame   0x000005c8       0x80 c:/isis/application/toolchain/bin/../lib/gcc/arm-none-eabi/4.7.4/../../../../arm-none-eabi/lib\libc_s.a(lib_a-strtod.o)
 .debug_frame   0x00000648       0x54 c:/isis/application/toolchain/bin/../lib/gcc/arm-none-eabi/4.7.4/../../../../arm-none-eabi/lib\libc_s.a(lib_a-strtol.o)
 .debug_frame   0x0000069c       0x88 c:/isis/application/toolchain/bin/../lib/gcc/arm-none-eabi/4.7.4/../../../../arm-none-eabi/lib\libc_s.a(lib_a-svfprintf.o)
 .debug_frame   0x00000724       0x2c c:/isis/application/toolchain/bin/../lib/gcc/arm-none-eabi/4.7.4/../../../../arm-none-eabi/lib\libc_s.a(lib_a-callocr.o)
 .debug_frame   0x00000750       0x28 c:/isis/application/toolchain/bin/../lib/gcc/arm-none-eabi/4.7.4/../../../../arm-none-eabi/lib\libc_s.a(lib_a-freer.o)
 .debug_frame   0x00000778       0x84 c:/isis/application/toolchain/bin/../lib/gcc/arm-none-eabi/4.7.4/../../../../arm-none-eabi/lib\libc_s.a(lib_a-gdtoa-gethex.o)
 .debug_frame   0x000007fc       0x54 c:/isis/application/toolchain/bin/../lib/gcc/arm-none-eabi/4.7.4/../../../../arm-none-eabi/lib\libc_s.a(lib_a-gdtoa-hexnan.o)
 .debug_frame   0x00000850       0x20 c:/isis/application/toolchain/bin/../lib/gcc/arm-none-eabi/4.7.4/../../../../arm-none-eabi/lib\libc_s.a(lib_a-memchr.o)
 .debug_frame   0x00000870       0x20 c:/isis/application/toolchain/bin/../lib/gcc/arm-none-eabi/4.7.4/../../../../arm-none-eabi/lib\libc_s.a(lib_a-memset.o)
 .debug_frame   0x00000890       0x30 c:/isis/application/toolchain/bin/../lib/gcc/arm-none-eabi/4.7.4/../../../../arm-none-eabi/lib\libc_s.a(lib_a-reallocr.o)
 .debug_frame   0x000008c0       0x64 c:/isis/application/toolchain/bin/../lib/gcc/arm-none-eabi/4.7.4/../../../../arm-none-eabi/lib\libc_s.a(lib_a-reent.o)
 .debug_frame   0x00000924       0x28 c:/isis/application/toolchain/bin/../lib/gcc/arm-none-eabi/4.7.4/../../../../arm-none-eabi/lib\libc_s.a(lib_a-strncmp.o)
 .debug_frame   0x0000094c       0x20 c:/isis/application/toolchain/bin/../lib/gcc/arm-none-eabi/4.7.4/../../../../arm-none-eabi/lib\libc_s.a(lib_a-msizer.o)
 .debug_frame   0x0000096c      0x120 ./src/sub-systemCode/Main/CMD/COMM_CMD.o
 .debug_frame   0x00000a8c      0x110 ./src/sub-systemCode/Main/CMD/EPS_CMD.o
 .debug_frame   0x00000b9c      0x240 ./src/sub-systemCode/Main/CMD/General_CMD.o
 .debug_frame   0x00000ddc       0x68 ./src/sub-systemCode/Main/CMD/SW_CMD.o
 .debug_frame   0x00000e44       0xb8 ./src/sub-systemCode/Main/Ants.o
 .debug_frame   0x00000efc      0x290 ./src/sub-systemCode/Main/EPS.o
 .debug_frame   0x0000118c      0x150 ./src/sub-systemCode/Main/HouseKeeping.o
 .debug_frame   0x000012dc      0x128 ./src/sub-systemCode/Main/Main_Init.o
 .debug_frame   0x00001404      0x248 ./src/sub-systemCode/Main/commands.o
 .debug_frame   0x0000164c      0x1b0 ./src/sub-systemCode/Global/Global.o
 .debug_frame   0x000017fc      0x4e0 ./src/sub-systemCode/Global/GlobalParam.o
 .debug_frame   0x00001cdc      0x2e4 ./src/sub-systemCode/Global/OnlineTM.o
 .debug_frame   0x00001fc0      0x294 ./src/sub-systemCode/Global/TLM_management.o
 .debug_frame   0x00002254       0x48 ./src/sub-systemCode/Global/freertosExtended.o
 .debug_frame   0x0000229c       0x84 ./src/sub-systemCode/COMM/APRS.o
 .debug_frame   0x00002320      0x10c ./src/sub-systemCode/COMM/DelayedCommand_list.o
 .debug_frame   0x0000242c       0xe4 ./src/sub-systemCode/COMM/GSC.o
 .debug_frame   0x00002510      0x344 ./src/sub-systemCode/COMM/TRXVU.o
 .debug_frame   0x00002854       0x2c ./src/sub-systemCode/ADCS/ADCS.o
 .debug_frame   0x00002880      0x390 ./src/sub-systemCode/ADCS/Stage_Table.o
 .debug_frame   0x00002c10       0x80 ./src/main.o
 .debug_frame   0x00002c90      0x2b4 C:/HOOPOE3/satellite-subsystems/demo/..//satellite-subsystems/lib\libSatelliteSubsystemsD.a(GomEPS.o)
 .debug_frame   0x00002f44      0x198 C:/HOOPOE3/satellite-subsystems/demo/..//satellite-subsystems/lib\libSatelliteSubsystemsD.a(IsisAntS.o)
 .debug_frame   0x000030dc      0x1c4 C:/HOOPOE3/satellite-subsystems/demo/..//satellite-subsystems/lib\libSatelliteSubsystemsD.a(IsisSolarPanelv2.o)
 .debug_frame   0x000032a0      0x30c C:/HOOPOE3/satellite-subsystems/demo/..//satellite-subsystems/lib\libSatelliteSubsystemsD.a(IsisTRXVU.o)
 .debug_frame   0x000035ac      0x848 C:/HOOPOE3/satellite-subsystems/demo/..//satellite-subsystems/lib\libSatelliteSubsystemsD.a(cspaceADCS.o)
 .debug_frame   0x00003df4      0x830 C:/HOOPOE3/satellite-subsystems/demo/..//satellite-subsystems/lib\libSatelliteSubsystemsD.a(gecko_driver.o)
 .debug_frame   0x00004624      0x1b4 C:/HOOPOE3/satellite-subsystems/demo/..//satellite-subsystems/lib\libSatelliteSubsystemsD.a(IsisTRXCommon.o)
 .debug_frame   0x000047d8       0x34 c:/isis/application/toolchain/bin/../lib/gcc/arm-none-eabi/4.7.4/../../../../arm-none-eabi/lib\libm.a(lib_a-w_log.o)
 .debug_frame   0x0000480c       0x38 c:/isis/application/toolchain/bin/../lib/gcc/arm-none-eabi/4.7.4/../../../../arm-none-eabi/lib\libm.a(lib_a-e_log.o)
 .debug_frame   0x00004844       0x20 c:/isis/application/toolchain/bin/../lib/gcc/arm-none-eabi/4.7.4/../../../../arm-none-eabi/lib\libm.a(lib_a-s_matherr.o)
 .debug_frame   0x00004864       0x20 c:/isis/application/toolchain/bin/../lib/gcc/arm-none-eabi/4.7.4/../../../../arm-none-eabi/lib\libm.a(lib_a-s_nan.o)
 .debug_frame   0x00004884      0xc40 C:/HOOPOE3/satellite-subsystems/demo/../..//hal/hcc/lib\libHCCD.a(fat_common.o)
 .debug_frame   0x000054c4      0x614 C:/HOOPOE3/satellite-subsystems/demo/../..//hal/hcc/lib\libHCCD.a(fat_m.o)
 .debug_frame   0x00005ad8      0x638 C:/HOOPOE3/satellite-subsystems/demo/../..//hal/hcc/lib\libHCCD.a(safefat.o)
 .debug_frame   0x00006110      0x1c4 C:/HOOPOE3/satellite-subsystems/demo/../..//hal/hcc/lib\libHCCD.a(atmel_mcipdc.o)
 .debug_frame   0x000062d4       0x80 C:/HOOPOE3/satellite-subsystems/demo/../..//hal/hcc/lib\libHCCD.a(oalp_mutex.o)
 .debug_frame   0x00006354       0x2c C:/HOOPOE3/satellite-subsystems/demo/../..//hal/hcc/lib\libHCCD.a(oalp_task.o)
 .debug_frame   0x00006380       0x80 C:/HOOPOE3/satellite-subsystems/demo/../..//hal/hcc/lib\libHCCD.a(atmel_mcipdc_hw.o)
 .debug_frame   0x00006400       0x2c C:/HOOPOE3/satellite-subsystems/demo/../..//hal/hcc/lib\libHCCD.a(psp_rtc.o)
 .debug_frame   0x0000642c      0x228 C:/HOOPOE3/satellite-subsystems/demo/../..//hal/hcc/lib\libHCCD.a(hcc_mem.o)
 .debug_frame   0x00006654      0x47c C:/HOOPOE3/satellite-subsystems/demo/../..//hal/hcc/lib\libHCCD.a(fat.o)
 .debug_frame   0x00006ad0       0x40 C:/HOOPOE3/satellite-subsystems/demo/../..//hal/hcc/lib\libHCCD.a(psp_hcc_mem.o)
 .debug_frame   0x00006b10      0x264 C:/HOOPOE3/satellite-subsystems/demo/../..//hal/hal/lib\libHALD.a(I2C.o)
 .debug_frame   0x00006d74      0x160 C:/HOOPOE3/satellite-subsystems/demo/../..//hal/hal/lib\libHALD.a(SPI.o)
 .debug_frame   0x00006ed4      0x194 C:/HOOPOE3/satellite-subsystems/demo/../..//hal/hal/lib\libHALD.a(FRAM.o)
 .debug_frame   0x00007068      0x18c C:/HOOPOE3/satellite-subsystems/demo/../..//hal/hal/lib\libHALD.a(Time.o)
 .debug_frame   0x000071f4       0x64 C:/HOOPOE3/satellite-subsystems/demo/../..//hal/hal/lib\libHALD.a(WatchDogTimerNoOS.o)
 .debug_frame   0x00007258       0x80 C:/HOOPOE3/satellite-subsystems/demo/../..//hal/hal/lib\libHALD.a(WatchDogTimerOS.o)
 .debug_frame   0x000072d8       0xd8 C:/HOOPOE3/satellite-subsystems/demo/../..//hal/hal/lib\libHALD.a(util.o)
 .debug_frame   0x000073b0       0xd0 C:/HOOPOE3/satellite-subsystems/demo/../..//hal/hal/lib\libHALD.a(LED.o)
 .debug_frame   0x00007480      0x11c C:/HOOPOE3/satellite-subsystems/demo/../..//hal/hal/lib\libHALD.a(RTC.o)
 .debug_frame   0x0000759c       0x8c C:/HOOPOE3/satellite-subsystems/demo/../..//hal/hal/lib\libHALD.a(RTT.o)
 .debug_frame   0x00007628      0x2b0 C:/HOOPOE3/satellite-subsystems/demo/../..//hal/freertos/lib\libFreeRTOSD.a(queue.o)
 .debug_frame   0x000078d8      0x404 C:/HOOPOE3/satellite-subsystems/demo/../..//hal/freertos/lib\libFreeRTOSD.a(tasks.o)
 .debug_frame   0x00007cdc       0x44 C:/HOOPOE3/satellite-subsystems/demo/../..//hal/freertos/lib\libFreeRTOSD.a(hooks.o)
 .debug_frame   0x00007d20       0x78 C:/HOOPOE3/satellite-subsystems/demo/../..//hal/freertos/lib\libFreeRTOSD.a(standardMemMang.o)
 .debug_frame   0x00007d98      0x10c C:/HOOPOE3/satellite-subsystems/demo/../..//hal/freertos/lib\libFreeRTOSD.a(port.o)
 .debug_frame   0x00007ea4       0x88 C:/HOOPOE3/satellite-subsystems/demo/../..//hal/freertos/lib\libFreeRTOSD.a(list.o)
 .debug_frame   0x00007f2c      0x1e0 C:/HOOPOE3/satellite-subsystems/demo/../..//hal/at91/lib\libAt91D.a(syscalls.o)
 .debug_frame   0x0000810c       0x58 C:/HOOPOE3/satellite-subsystems/demo/../..//hal/at91/lib\libAt91D.a(aic.o)
 .debug_frame   0x00008164      0x10c C:/HOOPOE3/satellite-subsystems/demo/../..//hal/at91/lib\libAt91D.a(cp15.o)
 .debug_frame   0x00008270       0xcc C:/HOOPOE3/satellite-subsystems/demo/../..//hal/at91/lib\libAt91D.a(dbgu.o)
 .debug_frame   0x0000833c      0x104 C:/HOOPOE3/satellite-subsystems/demo/../..//hal/at91/lib\libAt91D.a(pio.o)
 .debug_frame   0x00008440       0xe8 C:/HOOPOE3/satellite-subsystems/demo/../..//hal/at91/lib\libAt91D.a(pit.o)
 .debug_frame   0x00008528       0xe4 C:/HOOPOE3/satellite-subsystems/demo/../..//hal/at91/lib\libAt91D.a(pmc.o)
 .debug_frame   0x0000860c       0xe8 C:/HOOPOE3/satellite-subsystems/demo/../..//hal/at91/lib\libAt91D.a(spi_at91.o)
 .debug_frame   0x000086f4      0x1a8 C:/HOOPOE3/satellite-subsystems/demo/../..//hal/at91/lib\libAt91D.a(twi_at91.o)
 .debug_frame   0x0000889c       0x9c C:/HOOPOE3/satellite-subsystems/demo/../..//hal/at91/lib\libAt91D.a(ExitHandler.o)
 .debug_frame   0x00008938       0x98 C:/HOOPOE3/satellite-subsystems/demo/../..//hal/at91/lib\libAt91D.a(board_lowlevel.o)
 .debug_frame   0x000089d0       0x74 C:/HOOPOE3/satellite-subsystems/demo/../..//hal/at91/lib\libAt91D.a(board_memories.o)
 .debug_frame   0x00008a44       0x20 c:/isis/application/toolchain/bin/../lib/gcc/arm-none-eabi/4.7.4\libgcc.a(_udivsi3.o)
 .debug_frame   0x00008a64       0x20 c:/isis/application/toolchain/bin/../lib/gcc/arm-none-eabi/4.7.4\libgcc.a(_divsi3.o)
 .debug_frame   0x00008a84       0x20 c:/isis/application/toolchain/bin/../lib/gcc/arm-none-eabi/4.7.4/../../../../arm-none-eabi/lib\libc_s.a(lib_a-errno.o)
 .debug_frame   0x00008aa4       0x28 c:/isis/application/toolchain/bin/../lib/gcc/arm-none-eabi/4.7.4/../../../../arm-none-eabi/lib\libc_s.a(lib_a-memcmp.o)
 .debug_frame   0x00008acc       0x60 c:/isis/application/toolchain/bin/../lib/gcc/arm-none-eabi/4.7.4/../../../../arm-none-eabi/lib\libc_s.a(lib_a-printf.o)
 .debug_frame   0x00008b2c       0x48 c:/isis/application/toolchain/bin/../lib/gcc/arm-none-eabi/4.7.4/../../../../arm-none-eabi/lib\libc_s.a(lib_a-puts.o)
 .debug_frame   0x00008b74       0x20 c:/isis/application/toolchain/bin/../lib/gcc/arm-none-eabi/4.7.4/../../../../arm-none-eabi/lib\libc_s.a(lib_a-strcpy.o)
 .debug_frame   0x00008b94       0x8c c:/isis/application/toolchain/bin/../lib/gcc/arm-none-eabi/4.7.4/../../../../arm-none-eabi/lib\libc_s.a(lib_a-vfprintf.o)
 .debug_frame   0x00008c20       0x3c c:/isis/application/toolchain/bin/../lib/gcc/arm-none-eabi/4.7.4/../../../../arm-none-eabi/lib\libc_s.a(lib_a-wbuf.o)
 .debug_frame   0x00008c5c       0x2c c:/isis/application/toolchain/bin/../lib/gcc/arm-none-eabi/4.7.4/../../../../arm-none-eabi/lib\libc_s.a(lib_a-wsetup.o)
 .debug_frame   0x00008c88       0x48 c:/isis/application/toolchain/bin/../lib/gcc/arm-none-eabi/4.7.4/../../../../arm-none-eabi/lib\libc_s.a(lib_a-fflush.o)
 .debug_frame   0x00008cd0      0x140 c:/isis/application/toolchain/bin/../lib/gcc/arm-none-eabi/4.7.4/../../../../arm-none-eabi/lib\libc_s.a(lib_a-findfp.o)
 .debug_frame   0x00008e10       0x30 c:/isis/application/toolchain/bin/../lib/gcc/arm-none-eabi/4.7.4/../../../../arm-none-eabi/lib\libc_s.a(lib_a-makebuf.o)
 .debug_frame   0x00008e40       0x3c c:/isis/application/toolchain/bin/../lib/gcc/arm-none-eabi/4.7.4/../../../../arm-none-eabi/lib\libc_s.a(lib_a-putc.o)
 .debug_frame   0x00008e7c       0x88 c:/isis/application/toolchain/bin/../lib/gcc/arm-none-eabi/4.7.4/../../../../arm-none-eabi/lib\libc_s.a(lib_a-stdio.o)
 .debug_frame   0x00008f04       0x2c c:/isis/application/toolchain/bin/../lib/gcc/arm-none-eabi/4.7.4/../../../../arm-none-eabi/lib\libc_s.a(lib_a-writer.o)
 .debug_frame   0x00008f30       0x2c c:/isis/application/toolchain/bin/../lib/gcc/arm-none-eabi/4.7.4/../../../../arm-none-eabi/lib\libc_s.a(lib_a-closer.o)
 .debug_frame   0x00008f5c       0x2c c:/isis/application/toolchain/bin/../lib/gcc/arm-none-eabi/4.7.4/../../../../arm-none-eabi/lib\libc_s.a(lib_a-fstatr.o)
 .debug_frame   0x00008f88       0x2c c:/isis/application/toolchain/bin/../lib/gcc/arm-none-eabi/4.7.4/../../../../arm-none-eabi/lib\libc_s.a(lib_a-isattyr.o)
 .debug_frame   0x00008fb4       0x2c c:/isis/application/toolchain/bin/../lib/gcc/arm-none-eabi/4.7.4/../../../../arm-none-eabi/lib\libc_s.a(lib_a-lseekr.o)
 .debug_frame   0x00008fe0       0x2c c:/isis/application/toolchain/bin/../lib/gcc/arm-none-eabi/4.7.4/../../../../arm-none-eabi/lib\libc_s.a(lib_a-readr.o)

.debug_info     0x00000000    0x2d6f0
 .debug_info    0x00000000      0x6a0 ./src/sub-systemCode/Main/CMD/COMM_CMD.o
 .debug_info    0x000006a0      0x7d9 ./src/sub-systemCode/Main/CMD/EPS_CMD.o
 .debug_info    0x00000e79      0xc9f ./src/sub-systemCode/Main/CMD/General_CMD.o
 .debug_info    0x00001b18      0x48f ./src/sub-systemCode/Main/CMD/SW_CMD.o
 .debug_info    0x00001fa7      0x4e3 ./src/sub-systemCode/Main/Ants.o
 .debug_info    0x0000248a      0xac8 ./src/sub-systemCode/Main/EPS.o
 .debug_info    0x00002f52     0x11b8 ./src/sub-systemCode/Main/HouseKeeping.o
 .debug_info    0x0000410a      0x5d1 ./src/sub-systemCode/Main/Main_Init.o
 .debug_info    0x000046db      0x859 ./src/sub-systemCode/Main/commands.o
 .debug_info    0x00004f34      0x689 ./src/sub-systemCode/Global/Global.o
 .debug_info    0x000055bd      0xefb ./src/sub-systemCode/Global/GlobalParam.o
 .debug_info    0x000064b8      0xccb ./src/sub-systemCode/Global/OnlineTM.o
 .debug_info    0x00007183     0x10c5 ./src/sub-systemCode/Global/TLM_management.o
 .debug_info    0x00008248      0x105 ./src/sub-systemCode/Global/freertosExtended.o
 .debug_info    0x0000834d      0x353 ./src/sub-systemCode/COMM/APRS.o
 .debug_info    0x000086a0      0x42d ./src/sub-systemCode/COMM/DelayedCommand_list.o
 .debug_info    0x00008acd      0x5d6 ./src/sub-systemCode/COMM/GSC.o
 .debug_info    0x000090a3     0x14d8 ./src/sub-systemCode/COMM/TRXVU.o
 .debug_info    0x0000a57b      0x15c ./src/sub-systemCode/ADCS/ADCS.o
 .debug_info    0x0000a6d7      0xffa ./src/sub-systemCode/ADCS/Stage_Table.o
 .debug_info    0x0000b6d1      0x531 ./src/main.o
 .debug_info    0x0000bc02     0x16bc C:/HOOPOE3/satellite-subsystems/demo/..//satellite-subsystems/lib\libSatelliteSubsystemsD.a(GomEPS.o)
 .debug_info    0x0000d2be      0xa44 C:/HOOPOE3/satellite-subsystems/demo/..//satellite-subsystems/lib\libSatelliteSubsystemsD.a(IsisAntS.o)
 .debug_info    0x0000dd02      0xbd2 C:/HOOPOE3/satellite-subsystems/demo/..//satellite-subsystems/lib\libSatelliteSubsystemsD.a(IsisSolarPanelv2.o)
 .debug_info    0x0000e8d4     0x1059 C:/HOOPOE3/satellite-subsystems/demo/..//satellite-subsystems/lib\libSatelliteSubsystemsD.a(IsisTRXVU.o)
 .debug_info    0x0000f92d     0x4647 C:/HOOPOE3/satellite-subsystems/demo/..//satellite-subsystems/lib\libSatelliteSubsystemsD.a(cspaceADCS.o)
 .debug_info    0x00013f74     0x1533 C:/HOOPOE3/satellite-subsystems/demo/..//satellite-subsystems/lib\libSatelliteSubsystemsD.a(gecko_driver.o)
 .debug_info    0x000154a7      0x72c C:/HOOPOE3/satellite-subsystems/demo/..//satellite-subsystems/lib\libSatelliteSubsystemsD.a(IsisTRXCommon.o)
 .debug_info    0x00015bd3     0x4751 C:/HOOPOE3/satellite-subsystems/demo/../..//hal/hcc/lib\libHCCD.a(fat_common.o)
 .debug_info    0x0001a324     0x19f9 C:/HOOPOE3/satellite-subsystems/demo/../..//hal/hcc/lib\libHCCD.a(fat_m.o)
 .debug_info    0x0001bd1d     0x2750 C:/HOOPOE3/satellite-subsystems/demo/../..//hal/hcc/lib\libHCCD.a(safefat.o)
 .debug_info    0x0001e46d      0xd43 C:/HOOPOE3/satellite-subsystems/demo/../..//hal/hcc/lib\libHCCD.a(atmel_mcipdc.o)
 .debug_info    0x0001f1b0      0x1aa C:/HOOPOE3/satellite-subsystems/demo/../..//hal/hcc/lib\libHCCD.a(oalp_mutex.o)
 .debug_info    0x0001f35a       0xb0 C:/HOOPOE3/satellite-subsystems/demo/../..//hal/hcc/lib\libHCCD.a(oalp_task.o)
 .debug_info    0x0001f40a      0x4c6 C:/HOOPOE3/satellite-subsystems/demo/../..//hal/hcc/lib\libHCCD.a(atmel_mcipdc_hw.o)
 .debug_info    0x0001f8d0      0x1ba C:/HOOPOE3/satellite-subsystems/demo/../..//hal/hcc/lib\libHCCD.a(psp_rtc.o)
 .debug_info    0x0001fa8a      0xd35 C:/HOOPOE3/satellite-subsystems/demo/../..//hal/hcc/lib\libHCCD.a(hcc_mem.o)
 .debug_info    0x000207bf     0x28dd C:/HOOPOE3/satellite-subsystems/demo/../..//hal/hcc/lib\libHCCD.a(fat.o)
 .debug_info    0x0002309c      0x1ad C:/HOOPOE3/satellite-subsystems/demo/../..//hal/hcc/lib\libHCCD.a(psp_hcc_mem.o)
 .debug_info    0x00023249     0x106f C:/HOOPOE3/satellite-subsystems/demo/../..//hal/hal/lib\libHALD.a(I2C.o)
 .debug_info    0x000242b8      0xdf5 C:/HOOPOE3/satellite-subsystems/demo/../..//hal/hal/lib\libHALD.a(SPI.o)
 .debug_info    0x000250ad      0x832 C:/HOOPOE3/satellite-subsystems/demo/../..//hal/hal/lib\libHALD.a(FRAM.o)
 .debug_info    0x000258df      0x5cf C:/HOOPOE3/satellite-subsystems/demo/../..//hal/hal/lib\libHALD.a(Time.o)
 .debug_info    0x00025eae      0x3f1 C:/HOOPOE3/satellite-subsystems/demo/../..//hal/hal/lib\libHALD.a(WatchDogTimerNoOS.o)
 .debug_info    0x0002629f      0x1ab C:/HOOPOE3/satellite-subsystems/demo/../..//hal/hal/lib\libHALD.a(WatchDogTimerOS.o)
 .debug_info    0x0002644a      0x2b4 C:/HOOPOE3/satellite-subsystems/demo/../..//hal/hal/lib\libHALD.a(util.o)
 .debug_info    0x000266fe      0x506 C:/HOOPOE3/satellite-subsystems/demo/../..//hal/hal/lib\libHALD.a(LED.o)
 .debug_info    0x00026c04      0x654 C:/HOOPOE3/satellite-subsystems/demo/../..//hal/hal/lib\libHALD.a(RTC.o)
 .debug_info    0x00027258      0x185 C:/HOOPOE3/satellite-subsystems/demo/../..//hal/hal/lib\libHALD.a(RTT.o)
 .debug_info    0x000273dd      0xadf C:/HOOPOE3/satellite-subsystems/demo/../..//hal/freertos/lib\libFreeRTOSD.a(queue.o)
 .debug_info    0x00027ebc      0xede C:/HOOPOE3/satellite-subsystems/demo/../..//hal/freertos/lib\libFreeRTOSD.a(tasks.o)
 .debug_info    0x00028d9a       0xde C:/HOOPOE3/satellite-subsystems/demo/../..//hal/freertos/lib\libFreeRTOSD.a(hooks.o)
 .debug_info    0x00028e78      0x110 C:/HOOPOE3/satellite-subsystems/demo/../..//hal/freertos/lib\libFreeRTOSD.a(standardMemMang.o)
 .debug_info    0x00028f88      0x330 C:/HOOPOE3/satellite-subsystems/demo/../..//hal/freertos/lib\libFreeRTOSD.a(port.o)
 .debug_info    0x000292b8      0x2aa C:/HOOPOE3/satellite-subsystems/demo/../..//hal/freertos/lib\libFreeRTOSD.a(list.o)
 .debug_info    0x00029562      0x628 C:/HOOPOE3/satellite-subsystems/demo/../..//hal/at91/lib\libAt91D.a(syscalls.o)
 .debug_info    0x00029b8a      0x287 C:/HOOPOE3/satellite-subsystems/demo/../..//hal/at91/lib\libAt91D.a(aic.o)
 .debug_info    0x00029e11      0x1f7 C:/HOOPOE3/satellite-subsystems/demo/../..//hal/at91/lib\libAt91D.a(cp15.o)
 .debug_info    0x0002a008      0xc6e C:/HOOPOE3/satellite-subsystems/demo/../..//hal/at91/lib\libAt91D.a(dbgu.o)
 .debug_info    0x0002ac76      0x734 C:/HOOPOE3/satellite-subsystems/demo/../..//hal/at91/lib\libAt91D.a(pio.o)
 .debug_info    0x0002b3aa      0x1ae C:/HOOPOE3/satellite-subsystems/demo/../..//hal/at91/lib\libAt91D.a(pit.o)
 .debug_info    0x0002b558      0x2fd C:/HOOPOE3/satellite-subsystems/demo/../..//hal/at91/lib\libAt91D.a(pmc.o)
 .debug_info    0x0002b855      0x576 C:/HOOPOE3/satellite-subsystems/demo/../..//hal/at91/lib\libAt91D.a(spi_at91.o)
 .debug_info    0x0002bdcb      0x63d C:/HOOPOE3/satellite-subsystems/demo/../..//hal/at91/lib\libAt91D.a(twi_at91.o)
 .debug_info    0x0002c408      0x22e C:/HOOPOE3/satellite-subsystems/demo/../..//hal/at91/lib\libAt91D.a(ExitHandler.o)
 .debug_info    0x0002c636       0x92 C:/HOOPOE3/satellite-subsystems/demo/../..//hal/at91/lib\libAt91D.a(board_cstartup.o)
 .debug_info    0x0002c6c8       0x81 C:/HOOPOE3/satellite-subsystems/demo/../..//hal/at91/lib\libAt91D.a(cp15_asm.o)
 .debug_info    0x0002c749      0x651 C:/HOOPOE3/satellite-subsystems/demo/../..//hal/at91/lib\libAt91D.a(board_lowlevel.o)
 .debug_info    0x0002cd9a      0x956 C:/HOOPOE3/satellite-subsystems/demo/../..//hal/at91/lib\libAt91D.a(board_memories.o)

.debug_abbrev   0x00000000     0x65bc
 .debug_abbrev  0x00000000      0x12a ./src/sub-systemCode/Main/CMD/COMM_CMD.o
 .debug_abbrev  0x0000012a      0x160 ./src/sub-systemCode/Main/CMD/EPS_CMD.o
 .debug_abbrev  0x0000028a      0x1a1 ./src/sub-systemCode/Main/CMD/General_CMD.o
 .debug_abbrev  0x0000042b      0x110 ./src/sub-systemCode/Main/CMD/SW_CMD.o
 .debug_abbrev  0x0000053b      0x155 ./src/sub-systemCode/Main/Ants.o
 .debug_abbrev  0x00000690      0x29e ./src/sub-systemCode/Main/EPS.o
 .debug_abbrev  0x0000092e      0x233 ./src/sub-systemCode/Main/HouseKeeping.o
 .debug_abbrev  0x00000b61      0x14d ./src/sub-systemCode/Main/Main_Init.o
 .debug_abbrev  0x00000cae      0x1ce ./src/sub-systemCode/Main/commands.o
 .debug_abbrev  0x00000e7c      0x1f9 ./src/sub-systemCode/Global/Global.o
 .debug_abbrev  0x00001075      0x224 ./src/sub-systemCode/Global/GlobalParam.o
 .debug_abbrev  0x00001299      0x22e ./src/sub-systemCode/Global/OnlineTM.o
 .debug_abbrev  0x000014c7      0x292 ./src/sub-systemCode/Global/TLM_management.o
 .debug_abbrev  0x00001759       0x85 ./src/sub-systemCode/Global/freertosExtended.o
 .debug_abbrev  0x000017de      0x131 ./src/sub-systemCode/COMM/APRS.o
 .debug_abbrev  0x0000190f      0x146 ./src/sub-systemCode/COMM/DelayedCommand_list.o
 .debug_abbrev  0x00001a55      0x121 ./src/sub-systemCode/COMM/GSC.o
 .debug_abbrev  0x00001b76      0x2bd ./src/sub-systemCode/COMM/TRXVU.o
 .debug_abbrev  0x00001e33       0xba ./src/sub-systemCode/ADCS/ADCS.o
 .debug_abbrev  0x00001eed      0x297 ./src/sub-systemCode/ADCS/Stage_Table.o
 .debug_abbrev  0x00002184      0x12d ./src/main.o
 .debug_abbrev  0x000022b1      0x1bc C:/HOOPOE3/satellite-subsystems/demo/..//satellite-subsystems/lib\libSatelliteSubsystemsD.a(GomEPS.o)
 .debug_abbrev  0x0000246d      0x1b8 C:/HOOPOE3/satellite-subsystems/demo/..//satellite-subsystems/lib\libSatelliteSubsystemsD.a(IsisAntS.o)
 .debug_abbrev  0x00002625      0x22b C:/HOOPOE3/satellite-subsystems/demo/..//satellite-subsystems/lib\libSatelliteSubsystemsD.a(IsisSolarPanelv2.o)
 .debug_abbrev  0x00002850      0x19e C:/HOOPOE3/satellite-subsystems/demo/..//satellite-subsystems/lib\libSatelliteSubsystemsD.a(IsisTRXVU.o)
 .debug_abbrev  0x000029ee      0x221 C:/HOOPOE3/satellite-subsystems/demo/..//satellite-subsystems/lib\libSatelliteSubsystemsD.a(cspaceADCS.o)
 .debug_abbrev  0x00002c0f      0x1aa C:/HOOPOE3/satellite-subsystems/demo/..//satellite-subsystems/lib\libSatelliteSubsystemsD.a(gecko_driver.o)
 .debug_abbrev  0x00002db9      0x16d C:/HOOPOE3/satellite-subsystems/demo/..//satellite-subsystems/lib\libSatelliteSubsystemsD.a(IsisTRXCommon.o)
 .debug_abbrev  0x00002f26      0x2c0 C:/HOOPOE3/satellite-subsystems/demo/../..//hal/hcc/lib\libHCCD.a(fat_common.o)
 .debug_abbrev  0x000031e6      0x1c9 C:/HOOPOE3/satellite-subsystems/demo/../..//hal/hcc/lib\libHCCD.a(fat_m.o)
 .debug_abbrev  0x000033af      0x265 C:/HOOPOE3/satellite-subsystems/demo/../..//hal/hcc/lib\libHCCD.a(safefat.o)
 .debug_abbrev  0x00003614      0x22f C:/HOOPOE3/satellite-subsystems/demo/../..//hal/hcc/lib\libHCCD.a(atmel_mcipdc.o)
 .debug_abbrev  0x00003843       0xb3 C:/HOOPOE3/satellite-subsystems/demo/../..//hal/hcc/lib\libHCCD.a(oalp_mutex.o)
 .debug_abbrev  0x000038f6       0x5a C:/HOOPOE3/satellite-subsystems/demo/../..//hal/hcc/lib\libHCCD.a(oalp_task.o)
 .debug_abbrev  0x00003950      0x13e C:/HOOPOE3/satellite-subsystems/demo/../..//hal/hcc/lib\libHCCD.a(atmel_mcipdc_hw.o)
 .debug_abbrev  0x00003a8e       0xb4 C:/HOOPOE3/satellite-subsystems/demo/../..//hal/hcc/lib\libHCCD.a(psp_rtc.o)
 .debug_abbrev  0x00003b42      0x1fb C:/HOOPOE3/satellite-subsystems/demo/../..//hal/hcc/lib\libHCCD.a(hcc_mem.o)
 .debug_abbrev  0x00003d3d      0x2ce C:/HOOPOE3/satellite-subsystems/demo/../..//hal/hcc/lib\libHCCD.a(fat.o)
 .debug_abbrev  0x0000400b       0xb3 C:/HOOPOE3/satellite-subsystems/demo/../..//hal/hcc/lib\libHCCD.a(psp_hcc_mem.o)
 .debug_abbrev  0x000040be      0x2e0 C:/HOOPOE3/satellite-subsystems/demo/../..//hal/hal/lib\libHALD.a(I2C.o)
 .debug_abbrev  0x0000439e      0x242 C:/HOOPOE3/satellite-subsystems/demo/../..//hal/hal/lib\libHALD.a(SPI.o)
 .debug_abbrev  0x000045e0      0x257 C:/HOOPOE3/satellite-subsystems/demo/../..//hal/hal/lib\libHALD.a(FRAM.o)
 .debug_abbrev  0x00004837      0x1ed C:/HOOPOE3/satellite-subsystems/demo/../..//hal/hal/lib\libHALD.a(Time.o)
 .debug_abbrev  0x00004a24       0xf6 C:/HOOPOE3/satellite-subsystems/demo/../..//hal/hal/lib\libHALD.a(WatchDogTimerNoOS.o)
 .debug_abbrev  0x00004b1a       0xd3 C:/HOOPOE3/satellite-subsystems/demo/../..//hal/hal/lib\libHALD.a(WatchDogTimerOS.o)
 .debug_abbrev  0x00004bed       0xd9 C:/HOOPOE3/satellite-subsystems/demo/../..//hal/hal/lib\libHALD.a(util.o)
 .debug_abbrev  0x00004cc6      0x163 C:/HOOPOE3/satellite-subsystems/demo/../..//hal/hal/lib\libHALD.a(LED.o)
 .debug_abbrev  0x00004e29      0x180 C:/HOOPOE3/satellite-subsystems/demo/../..//hal/hal/lib\libHALD.a(RTC.o)
 .debug_abbrev  0x00004fa9       0xf6 C:/HOOPOE3/satellite-subsystems/demo/../..//hal/hal/lib\libHALD.a(RTT.o)
 .debug_abbrev  0x0000509f      0x1af C:/HOOPOE3/satellite-subsystems/demo/../..//hal/freertos/lib\libFreeRTOSD.a(queue.o)
 .debug_abbrev  0x0000524e      0x1e9 C:/HOOPOE3/satellite-subsystems/demo/../..//hal/freertos/lib\libFreeRTOSD.a(tasks.o)
 .debug_abbrev  0x00005437       0x8a C:/HOOPOE3/satellite-subsystems/demo/../..//hal/freertos/lib\libFreeRTOSD.a(hooks.o)
 .debug_abbrev  0x000054c1       0xc6 C:/HOOPOE3/satellite-subsystems/demo/../..//hal/freertos/lib\libFreeRTOSD.a(standardMemMang.o)
 .debug_abbrev  0x00005587      0x1dc C:/HOOPOE3/satellite-subsystems/demo/../..//hal/freertos/lib\libFreeRTOSD.a(port.o)
 .debug_abbrev  0x00005763       0xc0 C:/HOOPOE3/satellite-subsystems/demo/../..//hal/freertos/lib\libFreeRTOSD.a(list.o)
 .debug_abbrev  0x00005823      0x152 C:/HOOPOE3/satellite-subsystems/demo/../..//hal/at91/lib\libAt91D.a(syscalls.o)
 .debug_abbrev  0x00005975       0xc3 C:/HOOPOE3/satellite-subsystems/demo/../..//hal/at91/lib\libAt91D.a(aic.o)
 .debug_abbrev  0x00005a38       0x89 C:/HOOPOE3/satellite-subsystems/demo/../..//hal/at91/lib\libAt91D.a(cp15.o)
 .debug_abbrev  0x00005ac1      0x1f7 C:/HOOPOE3/satellite-subsystems/demo/../..//hal/at91/lib\libAt91D.a(dbgu.o)
 .debug_abbrev  0x00005cb8      0x185 C:/HOOPOE3/satellite-subsystems/demo/../..//hal/at91/lib\libAt91D.a(pio.o)
 .debug_abbrev  0x00005e3d       0xd3 C:/HOOPOE3/satellite-subsystems/demo/../..//hal/at91/lib\libAt91D.a(pit.o)
 .debug_abbrev  0x00005f10      0x115 C:/HOOPOE3/satellite-subsystems/demo/../..//hal/at91/lib\libAt91D.a(pmc.o)
 .debug_abbrev  0x00006025       0xff C:/HOOPOE3/satellite-subsystems/demo/../..//hal/at91/lib\libAt91D.a(spi_at91.o)
 .debug_abbrev  0x00006124      0x180 C:/HOOPOE3/satellite-subsystems/demo/../..//hal/at91/lib\libAt91D.a(twi_at91.o)
 .debug_abbrev  0x000062a4       0xbf C:/HOOPOE3/satellite-subsystems/demo/../..//hal/at91/lib\libAt91D.a(ExitHandler.o)
 .debug_abbrev  0x00006363       0x12 C:/HOOPOE3/satellite-subsystems/demo/../..//hal/at91/lib\libAt91D.a(board_cstartup.o)
 .debug_abbrev  0x00006375       0x14 C:/HOOPOE3/satellite-subsystems/demo/../..//hal/at91/lib\libAt91D.a(cp15_asm.o)
 .debug_abbrev  0x00006389       0xea C:/HOOPOE3/satellite-subsystems/demo/../..//hal/at91/lib\libAt91D.a(board_lowlevel.o)
 .debug_abbrev  0x00006473      0x149 C:/HOOPOE3/satellite-subsystems/demo/../..//hal/at91/lib\libAt91D.a(board_memories.o)

.debug_loc      0x00000000     0xc720
 .debug_loc     0x00000000      0x1c8 ./src/sub-systemCode/Main/CMD/COMM_CMD.o
 .debug_loc     0x000001c8      0x1c0 ./src/sub-systemCode/Main/CMD/EPS_CMD.o
 .debug_loc     0x00000388      0x3b4 ./src/sub-systemCode/Main/CMD/General_CMD.o
 .debug_loc     0x0000073c       0x90 ./src/sub-systemCode/Main/CMD/SW_CMD.o
 .debug_loc     0x000007cc      0x108 ./src/sub-systemCode/Main/Ants.o
 .debug_loc     0x000008d4      0x400 ./src/sub-systemCode/Main/EPS.o
 .debug_loc     0x00000cd4      0x1f0 ./src/sub-systemCode/Main/HouseKeeping.o
 .debug_loc     0x00000ec4      0x1b8 ./src/sub-systemCode/Main/Main_Init.o
 .debug_loc     0x0000107c      0x3a8 ./src/sub-systemCode/Main/commands.o
 .debug_loc     0x00001424      0x2c0 ./src/sub-systemCode/Global/Global.o
 .debug_loc     0x000016e4      0x790 ./src/sub-systemCode/Global/GlobalParam.o
 .debug_loc     0x00001e74      0x478 ./src/sub-systemCode/Global/OnlineTM.o
 .debug_loc     0x000022ec      0x3f4 ./src/sub-systemCode/Global/TLM_management.o
 .debug_loc     0x000026e0       0x58 ./src/sub-systemCode/Global/freertosExtended.o
 .debug_loc     0x00002738       0xb0 ./src/sub-systemCode/COMM/APRS.o
 .debug_loc     0x000027e8      0x198 ./src/sub-systemCode/COMM/DelayedCommand_list.o
 .debug_loc     0x00002980      0x158 ./src/sub-systemCode/COMM/GSC.o
 .debug_loc     0x00002ad8      0x4fc ./src/sub-systemCode/COMM/TRXVU.o
 .debug_loc     0x00002fd4       0x2c ./src/sub-systemCode/ADCS/ADCS.o
 .debug_loc     0x00003000      0x630 ./src/sub-systemCode/ADCS/Stage_Table.o
 .debug_loc     0x00003630       0xb0 ./src/main.o
 .debug_loc     0x000036e0      0x420 C:/HOOPOE3/satellite-subsystems/demo/..//satellite-subsystems/lib\libSatelliteSubsystemsD.a(GomEPS.o)
 .debug_loc     0x00003b00      0x268 C:/HOOPOE3/satellite-subsystems/demo/..//satellite-subsystems/lib\libSatelliteSubsystemsD.a(IsisAntS.o)
 .debug_loc     0x00003d68      0x2c0 C:/HOOPOE3/satellite-subsystems/demo/..//satellite-subsystems/lib\libSatelliteSubsystemsD.a(IsisSolarPanelv2.o)
 .debug_loc     0x00004028      0x4a4 C:/HOOPOE3/satellite-subsystems/demo/..//satellite-subsystems/lib\libSatelliteSubsystemsD.a(IsisTRXVU.o)
 .debug_loc     0x000044cc      0xce4 C:/HOOPOE3/satellite-subsystems/demo/..//satellite-subsystems/lib\libSatelliteSubsystemsD.a(cspaceADCS.o)
 .debug_loc     0x000051b0      0xc8c C:/HOOPOE3/satellite-subsystems/demo/..//satellite-subsystems/lib\libSatelliteSubsystemsD.a(gecko_driver.o)
 .debug_loc     0x00005e3c      0x294 C:/HOOPOE3/satellite-subsystems/demo/..//satellite-subsystems/lib\libSatelliteSubsystemsD.a(IsisTRXCommon.o)
 .debug_loc     0x000060d0     0x1398 C:/HOOPOE3/satellite-subsystems/demo/../..//hal/hcc/lib\libHCCD.a(fat_common.o)
 .debug_loc     0x00007468      0x974 C:/HOOPOE3/satellite-subsystems/demo/../..//hal/hcc/lib\libHCCD.a(fat_m.o)
 .debug_loc     0x00007ddc      0x9cc C:/HOOPOE3/satellite-subsystems/demo/../..//hal/hcc/lib\libHCCD.a(safefat.o)
 .debug_loc     0x000087a8      0x2c0 C:/HOOPOE3/satellite-subsystems/demo/../..//hal/hcc/lib\libHCCD.a(atmel_mcipdc.o)
 .debug_loc     0x00008a68       0xb0 C:/HOOPOE3/satellite-subsystems/demo/../..//hal/hcc/lib\libHCCD.a(oalp_mutex.o)
 .debug_loc     0x00008b18       0x2c C:/HOOPOE3/satellite-subsystems/demo/../..//hal/hcc/lib\libHCCD.a(oalp_task.o)
 .debug_loc     0x00008b44       0xb0 C:/HOOPOE3/satellite-subsystems/demo/../..//hal/hcc/lib\libHCCD.a(atmel_mcipdc_hw.o)
 .debug_loc     0x00008bf4       0x2c C:/HOOPOE3/satellite-subsystems/demo/../..//hal/hcc/lib\libHCCD.a(psp_rtc.o)
 .debug_loc     0x00008c20      0x370 C:/HOOPOE3/satellite-subsystems/demo/../..//hal/hcc/lib\libHCCD.a(hcc_mem.o)
 .debug_loc     0x00008f90      0x70c C:/HOOPOE3/satellite-subsystems/demo/../..//hal/hcc/lib\libHCCD.a(fat.o)
 .debug_loc     0x0000969c       0x58 C:/HOOPOE3/satellite-subsystems/demo/../..//hal/hcc/lib\libHCCD.a(psp_hcc_mem.o)
 .debug_loc     0x000096f4      0x3c8 C:/HOOPOE3/satellite-subsystems/demo/../..//hal/hal/lib\libHALD.a(I2C.o)
 .debug_loc     0x00009abc      0x210 C:/HOOPOE3/satellite-subsystems/demo/../..//hal/hal/lib\libHALD.a(SPI.o)
 .debug_loc     0x00009ccc      0x268 C:/HOOPOE3/satellite-subsystems/demo/../..//hal/hal/lib\libHALD.a(FRAM.o)
 .debug_loc     0x00009f34      0x268 C:/HOOPOE3/satellite-subsystems/demo/../..//hal/hal/lib\libHALD.a(Time.o)
 .debug_loc     0x0000a19c       0x84 C:/HOOPOE3/satellite-subsystems/demo/../..//hal/hal/lib\libHALD.a(WatchDogTimerNoOS.o)
 .debug_loc     0x0000a220       0xb0 C:/HOOPOE3/satellite-subsystems/demo/../..//hal/hal/lib\libHALD.a(WatchDogTimerOS.o)
 .debug_loc     0x0000a2d0      0x134 C:/HOOPOE3/satellite-subsystems/demo/../..//hal/hal/lib\libHALD.a(util.o)
 .debug_loc     0x0000a404      0x134 C:/HOOPOE3/satellite-subsystems/demo/../..//hal/hal/lib\libHALD.a(LED.o)
 .debug_loc     0x0000a538      0x1b8 C:/HOOPOE3/satellite-subsystems/demo/../..//hal/hal/lib\libHALD.a(RTC.o)
 .debug_loc     0x0000a6f0       0xdc C:/HOOPOE3/satellite-subsystems/demo/../..//hal/hal/lib\libHALD.a(RTT.o)
 .debug_loc     0x0000a7cc      0x420 C:/HOOPOE3/satellite-subsystems/demo/../..//hal/freertos/lib\libFreeRTOSD.a(queue.o)
 .debug_loc     0x0000abec      0x65c C:/HOOPOE3/satellite-subsystems/demo/../..//hal/freertos/lib\libFreeRTOSD.a(tasks.o)
 .debug_loc     0x0000b248       0x58 C:/HOOPOE3/satellite-subsystems/demo/../..//hal/freertos/lib\libFreeRTOSD.a(hooks.o)
 .debug_loc     0x0000b2a0       0xb0 C:/HOOPOE3/satellite-subsystems/demo/../..//hal/freertos/lib\libFreeRTOSD.a(standardMemMang.o)
 .debug_loc     0x0000b350      0x160 C:/HOOPOE3/satellite-subsystems/demo/../..//hal/freertos/lib\libFreeRTOSD.a(port.o)
 .debug_loc     0x0000b4b0       0xdc C:/HOOPOE3/satellite-subsystems/demo/../..//hal/freertos/lib\libFreeRTOSD.a(list.o)
 .debug_loc     0x0000b58c      0x324 C:/HOOPOE3/satellite-subsystems/demo/../..//hal/at91/lib\libAt91D.a(syscalls.o)
 .debug_loc     0x0000b8b0       0x84 C:/HOOPOE3/satellite-subsystems/demo/../..//hal/at91/lib\libAt91D.a(aic.o)
 .debug_loc     0x0000b934      0x18c C:/HOOPOE3/satellite-subsystems/demo/../..//hal/at91/lib\libAt91D.a(cp15.o)
 .debug_loc     0x0000bac0      0x134 C:/HOOPOE3/satellite-subsystems/demo/../..//hal/at91/lib\libAt91D.a(dbgu.o)
 .debug_loc     0x0000bbf4      0x1b8 C:/HOOPOE3/satellite-subsystems/demo/../..//hal/at91/lib\libAt91D.a(pio.o)
 .debug_loc     0x0000bdac      0x18c C:/HOOPOE3/satellite-subsystems/demo/../..//hal/at91/lib\libAt91D.a(pit.o)
 .debug_loc     0x0000bf38      0x160 C:/HOOPOE3/satellite-subsystems/demo/../..//hal/at91/lib\libAt91D.a(pmc.o)
 .debug_loc     0x0000c098      0x18c C:/HOOPOE3/satellite-subsystems/demo/../..//hal/at91/lib\libAt91D.a(spi_at91.o)
 .debug_loc     0x0000c224      0x294 C:/HOOPOE3/satellite-subsystems/demo/../..//hal/at91/lib\libAt91D.a(twi_at91.o)
 .debug_loc     0x0000c4b8       0xdc C:/HOOPOE3/satellite-subsystems/demo/../..//hal/at91/lib\libAt91D.a(ExitHandler.o)
 .debug_loc     0x0000c594       0xdc C:/HOOPOE3/satellite-subsystems/demo/../..//hal/at91/lib\libAt91D.a(board_lowlevel.o)
 .debug_loc     0x0000c670       0xb0 C:/HOOPOE3/satellite-subsystems/demo/../..//hal/at91/lib\libAt91D.a(board_memories.o)

.debug_aranges  0x00000000     0x2a78
 .debug_aranges
                0x00000000       0x60 ./src/sub-systemCode/Main/CMD/COMM_CMD.o
 .debug_aranges
                0x00000060       0x58 ./src/sub-systemCode/Main/CMD/EPS_CMD.o
 .debug_aranges
                0x000000b8       0xa8 ./src/sub-systemCode/Main/CMD/General_CMD.o
 .debug_aranges
                0x00000160       0x30 ./src/sub-systemCode/Main/CMD/SW_CMD.o
 .debug_aranges
                0x00000190       0x48 ./src/sub-systemCode/Main/Ants.o
 .debug_aranges
                0x000001d8       0xd0 ./src/sub-systemCode/Main/EPS.o
 .debug_aranges
                0x000002a8       0x70 ./src/sub-systemCode/Main/HouseKeeping.o
 .debug_aranges
                0x00000318       0x68 ./src/sub-systemCode/Main/Main_Init.o
 .debug_aranges
                0x00000380       0xa8 ./src/sub-systemCode/Main/commands.o
 .debug_aranges
                0x00000428       0x98 ./src/sub-systemCode/Global/Global.o
 .debug_aranges
                0x000004c0      0x178 ./src/sub-systemCode/Global/GlobalParam.o
 .debug_aranges
                0x00000638       0xe8 ./src/sub-systemCode/Global/OnlineTM.o
 .debug_aranges
                0x00000720       0xd0 ./src/sub-systemCode/Global/TLM_management.o
 .debug_aranges
                0x000007f0       0x28 ./src/sub-systemCode/Global/freertosExtended.o
 .debug_aranges
                0x00000818       0x38 ./src/sub-systemCode/COMM/APRS.o
 .debug_aranges
                0x00000850       0x60 ./src/sub-systemCode/COMM/DelayedCommand_list.o
 .debug_aranges
                0x000008b0       0x50 ./src/sub-systemCode/COMM/GSC.o
 .debug_aranges
                0x00000900      0x100 ./src/sub-systemCode/COMM/TRXVU.o
 .debug_aranges
                0x00000a00       0x20 ./src/sub-systemCode/ADCS/ADCS.o
 .debug_aranges
                0x00000a20      0x138 ./src/sub-systemCode/ADCS/Stage_Table.o
 .debug_aranges
                0x00000b58       0x38 ./src/main.o
 .debug_aranges
                0x00000b90       0xd8 C:/HOOPOE3/satellite-subsystems/demo/..//satellite-subsystems/lib\libSatelliteSubsystemsD.a(GomEPS.o)
 .debug_aranges
                0x00000c68       0x88 C:/HOOPOE3/satellite-subsystems/demo/..//satellite-subsystems/lib\libSatelliteSubsystemsD.a(IsisAntS.o)
 .debug_aranges
                0x00000cf0       0x98 C:/HOOPOE3/satellite-subsystems/demo/..//satellite-subsystems/lib\libSatelliteSubsystemsD.a(IsisSolarPanelv2.o)
 .debug_aranges
                0x00000d88       0xf0 C:/HOOPOE3/satellite-subsystems/demo/..//satellite-subsystems/lib\libSatelliteSubsystemsD.a(IsisTRXVU.o)
 .debug_aranges
                0x00000e78      0x270 C:/HOOPOE3/satellite-subsystems/demo/..//satellite-subsystems/lib\libSatelliteSubsystemsD.a(cspaceADCS.o)
 .debug_aranges
                0x000010e8      0x260 C:/HOOPOE3/satellite-subsystems/demo/..//satellite-subsystems/lib\libSatelliteSubsystemsD.a(gecko_driver.o)
 .debug_aranges
                0x00001348       0x90 C:/HOOPOE3/satellite-subsystems/demo/..//satellite-subsystems/lib\libSatelliteSubsystemsD.a(IsisTRXCommon.o)
 .debug_aranges
                0x000013d8      0x3a8 C:/HOOPOE3/satellite-subsystems/demo/../..//hal/hcc/lib\libHCCD.a(fat_common.o)
 .debug_aranges
                0x00001780      0x1d0 C:/HOOPOE3/satellite-subsystems/demo/../..//hal/hcc/lib\libHCCD.a(fat_m.o)
 .debug_aranges
                0x00001950      0x1e0 C:/HOOPOE3/satellite-subsystems/demo/../..//hal/hcc/lib\libHCCD.a(safefat.o)
 .debug_aranges
                0x00001b30       0x98 C:/HOOPOE3/satellite-subsystems/demo/../..//hal/hcc/lib\libHCCD.a(atmel_mcipdc.o)
 .debug_aranges
                0x00001bc8       0x38 C:/HOOPOE3/satellite-subsystems/demo/../..//hal/hcc/lib\libHCCD.a(oalp_mutex.o)
 .debug_aranges
                0x00001c00       0x20 C:/HOOPOE3/satellite-subsystems/demo/../..//hal/hcc/lib\libHCCD.a(oalp_task.o)
 .debug_aranges
                0x00001c20       0x38 C:/HOOPOE3/satellite-subsystems/demo/../..//hal/hcc/lib\libHCCD.a(atmel_mcipdc_hw.o)
 .debug_aranges
                0x00001c58       0x20 C:/HOOPOE3/satellite-subsystems/demo/../..//hal/hcc/lib\libHCCD.a(psp_rtc.o)
 .debug_aranges
                0x00001c78       0xb8 C:/HOOPOE3/satellite-subsystems/demo/../..//hal/hcc/lib\libHCCD.a(hcc_mem.o)
 .debug_aranges
                0x00001d30      0x160 C:/HOOPOE3/satellite-subsystems/demo/../..//hal/hcc/lib\libHCCD.a(fat.o)
 .debug_aranges
                0x00001e90       0x28 C:/HOOPOE3/satellite-subsystems/demo/../..//hal/hcc/lib\libHCCD.a(psp_hcc_mem.o)
 .debug_aranges
                0x00001eb8       0xc8 C:/HOOPOE3/satellite-subsystems/demo/../..//hal/hal/lib\libHALD.a(I2C.o)
 .debug_aranges
                0x00001f80       0x78 C:/HOOPOE3/satellite-subsystems/demo/../..//hal/hal/lib\libHALD.a(SPI.o)
 .debug_aranges
                0x00001ff8       0x88 C:/HOOPOE3/satellite-subsystems/demo/../..//hal/hal/lib\libHALD.a(FRAM.o)
 .debug_aranges
                0x00002080       0x88 C:/HOOPOE3/satellite-subsystems/demo/../..//hal/hal/lib\libHALD.a(Time.o)
 .debug_aranges
                0x00002108       0x30 C:/HOOPOE3/satellite-subsystems/demo/../..//hal/hal/lib\libHALD.a(WatchDogTimerNoOS.o)
 .debug_aranges
                0x00002138       0x38 C:/HOOPOE3/satellite-subsystems/demo/../..//hal/hal/lib\libHALD.a(WatchDogTimerOS.o)
 .debug_aranges
                0x00002170       0x50 C:/HOOPOE3/satellite-subsystems/demo/../..//hal/hal/lib\libHALD.a(util.o)
 .debug_aranges
                0x000021c0       0x50 C:/HOOPOE3/satellite-subsystems/demo/../..//hal/hal/lib\libHALD.a(LED.o)
 .debug_aranges
                0x00002210       0x68 C:/HOOPOE3/satellite-subsystems/demo/../..//hal/hal/lib\libHALD.a(RTC.o)
 .debug_aranges
                0x00002278       0x40 C:/HOOPOE3/satellite-subsystems/demo/../..//hal/hal/lib\libHALD.a(RTT.o)
 .debug_aranges
                0x000022b8       0xd8 C:/HOOPOE3/satellite-subsystems/demo/../..//hal/freertos/lib\libFreeRTOSD.a(queue.o)
 .debug_aranges
                0x00002390      0x140 C:/HOOPOE3/satellite-subsystems/demo/../..//hal/freertos/lib\libFreeRTOSD.a(tasks.o)
 .debug_aranges
                0x000024d0       0x28 C:/HOOPOE3/satellite-subsystems/demo/../..//hal/freertos/lib\libFreeRTOSD.a(hooks.o)
 .debug_aranges
                0x000024f8       0x38 C:/HOOPOE3/satellite-subsystems/demo/../..//hal/freertos/lib\libFreeRTOSD.a(standardMemMang.o)
 .debug_aranges
                0x00002530       0x70 C:/HOOPOE3/satellite-subsystems/demo/../..//hal/freertos/lib\libFreeRTOSD.a(port.o)
 .debug_aranges
                0x000025a0       0x40 C:/HOOPOE3/satellite-subsystems/demo/../..//hal/freertos/lib\libFreeRTOSD.a(list.o)
 .debug_aranges
                0x000025e0       0xa8 C:/HOOPOE3/satellite-subsystems/demo/../..//hal/at91/lib\libAt91D.a(syscalls.o)
 .debug_aranges
                0x00002688       0x30 C:/HOOPOE3/satellite-subsystems/demo/../..//hal/at91/lib\libAt91D.a(aic.o)
 .debug_aranges
                0x000026b8       0x60 C:/HOOPOE3/satellite-subsystems/demo/../..//hal/at91/lib\libAt91D.a(cp15.o)
 .debug_aranges
                0x00002718       0x50 C:/HOOPOE3/satellite-subsystems/demo/../..//hal/at91/lib\libAt91D.a(dbgu.o)
 .debug_aranges
                0x00002768       0x68 C:/HOOPOE3/satellite-subsystems/demo/../..//hal/at91/lib\libAt91D.a(pio.o)
 .debug_aranges
                0x000027d0       0x60 C:/HOOPOE3/satellite-subsystems/demo/../..//hal/at91/lib\libAt91D.a(pit.o)
 .debug_aranges
                0x00002830       0x58 C:/HOOPOE3/satellite-subsystems/demo/../..//hal/at91/lib\libAt91D.a(pmc.o)
 .debug_aranges
                0x00002888       0x60 C:/HOOPOE3/satellite-subsystems/demo/../..//hal/at91/lib\libAt91D.a(spi_at91.o)
 .debug_aranges
                0x000028e8       0x90 C:/HOOPOE3/satellite-subsystems/demo/../..//hal/at91/lib\libAt91D.a(twi_at91.o)
 .debug_aranges
                0x00002978       0x40 C:/HOOPOE3/satellite-subsystems/demo/../..//hal/at91/lib\libAt91D.a(ExitHandler.o)
 .debug_aranges
                0x000029b8       0x28 C:/HOOPOE3/satellite-subsystems/demo/../..//hal/at91/lib\libAt91D.a(board_cstartup.o)
 .debug_aranges
                0x000029e0       0x20 C:/HOOPOE3/satellite-subsystems/demo/../..//hal/at91/lib\libAt91D.a(cp15_asm.o)
 .debug_aranges
                0x00002a00       0x40 C:/HOOPOE3/satellite-subsystems/demo/../..//hal/at91/lib\libAt91D.a(board_lowlevel.o)
 .debug_aranges
                0x00002a40       0x38 C:/HOOPOE3/satellite-subsystems/demo/../..//hal/at91/lib\libAt91D.a(board_memories.o)

.debug_ranges   0x00000000     0x2728
 .debug_ranges  0x00000000       0x50 ./src/sub-systemCode/Main/CMD/COMM_CMD.o
 .debug_ranges  0x00000050       0x48 ./src/sub-systemCode/Main/CMD/EPS_CMD.o
 .debug_ranges  0x00000098       0x98 ./src/sub-systemCode/Main/CMD/General_CMD.o
 .debug_ranges  0x00000130       0x20 ./src/sub-systemCode/Main/CMD/SW_CMD.o
 .debug_ranges  0x00000150       0x38 ./src/sub-systemCode/Main/Ants.o
 .debug_ranges  0x00000188       0xc0 ./src/sub-systemCode/Main/EPS.o
 .debug_ranges  0x00000248       0x60 ./src/sub-systemCode/Main/HouseKeeping.o
 .debug_ranges  0x000002a8       0x58 ./src/sub-systemCode/Main/Main_Init.o
 .debug_ranges  0x00000300       0x98 ./src/sub-systemCode/Main/commands.o
 .debug_ranges  0x00000398       0x88 ./src/sub-systemCode/Global/Global.o
 .debug_ranges  0x00000420      0x168 ./src/sub-systemCode/Global/GlobalParam.o
 .debug_ranges  0x00000588       0xd8 ./src/sub-systemCode/Global/OnlineTM.o
 .debug_ranges  0x00000660       0xf0 ./src/sub-systemCode/Global/TLM_management.o
 .debug_ranges  0x00000750       0x18 ./src/sub-systemCode/Global/freertosExtended.o
 .debug_ranges  0x00000768       0x28 ./src/sub-systemCode/COMM/APRS.o
 .debug_ranges  0x00000790       0x50 ./src/sub-systemCode/COMM/DelayedCommand_list.o
 .debug_ranges  0x000007e0       0x40 ./src/sub-systemCode/COMM/GSC.o
 .debug_ranges  0x00000820       0xf0 ./src/sub-systemCode/COMM/TRXVU.o
 .debug_ranges  0x00000910       0x10 ./src/sub-systemCode/ADCS/ADCS.o
 .debug_ranges  0x00000920      0x128 ./src/sub-systemCode/ADCS/Stage_Table.o
 .debug_ranges  0x00000a48       0x28 ./src/main.o
 .debug_ranges  0x00000a70       0xc8 C:/HOOPOE3/satellite-subsystems/demo/..//satellite-subsystems/lib\libSatelliteSubsystemsD.a(GomEPS.o)
 .debug_ranges  0x00000b38       0x78 C:/HOOPOE3/satellite-subsystems/demo/..//satellite-subsystems/lib\libSatelliteSubsystemsD.a(IsisAntS.o)
 .debug_ranges  0x00000bb0       0x88 C:/HOOPOE3/satellite-subsystems/demo/..//satellite-subsystems/lib\libSatelliteSubsystemsD.a(IsisSolarPanelv2.o)
 .debug_ranges  0x00000c38       0xe0 C:/HOOPOE3/satellite-subsystems/demo/..//satellite-subsystems/lib\libSatelliteSubsystemsD.a(IsisTRXVU.o)
 .debug_ranges  0x00000d18      0x260 C:/HOOPOE3/satellite-subsystems/demo/..//satellite-subsystems/lib\libSatelliteSubsystemsD.a(cspaceADCS.o)
 .debug_ranges  0x00000f78      0x250 C:/HOOPOE3/satellite-subsystems/demo/..//satellite-subsystems/lib\libSatelliteSubsystemsD.a(gecko_driver.o)
 .debug_ranges  0x000011c8       0x80 C:/HOOPOE3/satellite-subsystems/demo/..//satellite-subsystems/lib\libSatelliteSubsystemsD.a(IsisTRXCommon.o)
 .debug_ranges  0x00001248      0x3b0 C:/HOOPOE3/satellite-subsystems/demo/../..//hal/hcc/lib\libHCCD.a(fat_common.o)
 .debug_ranges  0x000015f8      0x1c0 C:/HOOPOE3/satellite-subsystems/demo/../..//hal/hcc/lib\libHCCD.a(fat_m.o)
 .debug_ranges  0x000017b8      0x1e8 C:/HOOPOE3/satellite-subsystems/demo/../..//hal/hcc/lib\libHCCD.a(safefat.o)
 .debug_ranges  0x000019a0       0x88 C:/HOOPOE3/satellite-subsystems/demo/../..//hal/hcc/lib\libHCCD.a(atmel_mcipdc.o)
 .debug_ranges  0x00001a28       0x28 C:/HOOPOE3/satellite-subsystems/demo/../..//hal/hcc/lib\libHCCD.a(oalp_mutex.o)
 .debug_ranges  0x00001a50       0x10 C:/HOOPOE3/satellite-subsystems/demo/../..//hal/hcc/lib\libHCCD.a(oalp_task.o)
 .debug_ranges  0x00001a60       0x28 C:/HOOPOE3/satellite-subsystems/demo/../..//hal/hcc/lib\libHCCD.a(atmel_mcipdc_hw.o)
 .debug_ranges  0x00001a88       0x10 C:/HOOPOE3/satellite-subsystems/demo/../..//hal/hcc/lib\libHCCD.a(psp_rtc.o)
 .debug_ranges  0x00001a98       0xc0 C:/HOOPOE3/satellite-subsystems/demo/../..//hal/hcc/lib\libHCCD.a(hcc_mem.o)
 .debug_ranges  0x00001b58      0x1c8 C:/HOOPOE3/satellite-subsystems/demo/../..//hal/hcc/lib\libHCCD.a(fat.o)
 .debug_ranges  0x00001d20       0x18 C:/HOOPOE3/satellite-subsystems/demo/../..//hal/hcc/lib\libHCCD.a(psp_hcc_mem.o)
 .debug_ranges  0x00001d38       0xb8 C:/HOOPOE3/satellite-subsystems/demo/../..//hal/hal/lib\libHALD.a(I2C.o)
 .debug_ranges  0x00001df0       0x68 C:/HOOPOE3/satellite-subsystems/demo/../..//hal/hal/lib\libHALD.a(SPI.o)
 .debug_ranges  0x00001e58       0x78 C:/HOOPOE3/satellite-subsystems/demo/../..//hal/hal/lib\libHALD.a(FRAM.o)
 .debug_ranges  0x00001ed0       0x78 C:/HOOPOE3/satellite-subsystems/demo/../..//hal/hal/lib\libHALD.a(Time.o)
 .debug_ranges  0x00001f48       0x20 C:/HOOPOE3/satellite-subsystems/demo/../..//hal/hal/lib\libHALD.a(WatchDogTimerNoOS.o)
 .debug_ranges  0x00001f68       0x28 C:/HOOPOE3/satellite-subsystems/demo/../..//hal/hal/lib\libHALD.a(WatchDogTimerOS.o)
 .debug_ranges  0x00001f90       0x40 C:/HOOPOE3/satellite-subsystems/demo/../..//hal/hal/lib\libHALD.a(util.o)
 .debug_ranges  0x00001fd0       0x40 C:/HOOPOE3/satellite-subsystems/demo/../..//hal/hal/lib\libHALD.a(LED.o)
 .debug_ranges  0x00002010       0x58 C:/HOOPOE3/satellite-subsystems/demo/../..//hal/hal/lib\libHALD.a(RTC.o)
 .debug_ranges  0x00002068       0x30 C:/HOOPOE3/satellite-subsystems/demo/../..//hal/hal/lib\libHALD.a(RTT.o)
 .debug_ranges  0x00002098       0xc8 C:/HOOPOE3/satellite-subsystems/demo/../..//hal/freertos/lib\libFreeRTOSD.a(queue.o)
 .debug_ranges  0x00002160      0x148 C:/HOOPOE3/satellite-subsystems/demo/../..//hal/freertos/lib\libFreeRTOSD.a(tasks.o)
 .debug_ranges  0x000022a8       0x18 C:/HOOPOE3/satellite-subsystems/demo/../..//hal/freertos/lib\libFreeRTOSD.a(hooks.o)
 .debug_ranges  0x000022c0       0x28 C:/HOOPOE3/satellite-subsystems/demo/../..//hal/freertos/lib\libFreeRTOSD.a(standardMemMang.o)
 .debug_ranges  0x000022e8       0x60 C:/HOOPOE3/satellite-subsystems/demo/../..//hal/freertos/lib\libFreeRTOSD.a(port.o)
 .debug_ranges  0x00002348       0x30 C:/HOOPOE3/satellite-subsystems/demo/../..//hal/freertos/lib\libFreeRTOSD.a(list.o)
 .debug_ranges  0x00002378       0x98 C:/HOOPOE3/satellite-subsystems/demo/../..//hal/at91/lib\libAt91D.a(syscalls.o)
 .debug_ranges  0x00002410       0x20 C:/HOOPOE3/satellite-subsystems/demo/../..//hal/at91/lib\libAt91D.a(aic.o)
 .debug_ranges  0x00002430       0x50 C:/HOOPOE3/satellite-subsystems/demo/../..//hal/at91/lib\libAt91D.a(cp15.o)
 .debug_ranges  0x00002480       0x40 C:/HOOPOE3/satellite-subsystems/demo/../..//hal/at91/lib\libAt91D.a(dbgu.o)
 .debug_ranges  0x000024c0       0x58 C:/HOOPOE3/satellite-subsystems/demo/../..//hal/at91/lib\libAt91D.a(pio.o)
 .debug_ranges  0x00002518       0x50 C:/HOOPOE3/satellite-subsystems/demo/../..//hal/at91/lib\libAt91D.a(pit.o)
 .debug_ranges  0x00002568       0x48 C:/HOOPOE3/satellite-subsystems/demo/../..//hal/at91/lib\libAt91D.a(pmc.o)
 .debug_ranges  0x000025b0       0x50 C:/HOOPOE3/satellite-subsystems/demo/../..//hal/at91/lib\libAt91D.a(spi_at91.o)
 .debug_ranges  0x00002600       0x80 C:/HOOPOE3/satellite-subsystems/demo/../..//hal/at91/lib\libAt91D.a(twi_at91.o)
 .debug_ranges  0x00002680       0x30 C:/HOOPOE3/satellite-subsystems/demo/../..//hal/at91/lib\libAt91D.a(ExitHandler.o)
 .debug_ranges  0x000026b0       0x20 C:/HOOPOE3/satellite-subsystems/demo/../..//hal/at91/lib\libAt91D.a(board_cstartup.o)
 .debug_ranges  0x000026d0       0x30 C:/HOOPOE3/satellite-subsystems/demo/../..//hal/at91/lib\libAt91D.a(board_lowlevel.o)
 .debug_ranges  0x00002700       0x28 C:/HOOPOE3/satellite-subsystems/demo/../..//hal/at91/lib\libAt91D.a(board_memories.o)

.debug_line     0x00000000    0x10c35
 .debug_line    0x00000000      0x36b ./src/sub-systemCode/Main/CMD/COMM_CMD.o
 .debug_line    0x0000036b      0x2de ./src/sub-systemCode/Main/CMD/EPS_CMD.o
 .debug_line    0x00000649      0x4e9 ./src/sub-systemCode/Main/CMD/General_CMD.o
 .debug_line    0x00000b32      0x208 ./src/sub-systemCode/Main/CMD/SW_CMD.o
 .debug_line    0x00000d3a      0x236 ./src/sub-systemCode/Main/Ants.o
 .debug_line    0x00000f70      0x46e ./src/sub-systemCode/Main/EPS.o
 .debug_line    0x000013de      0x45c ./src/sub-systemCode/Main/HouseKeeping.o
 .debug_line    0x0000183a      0x393 ./src/sub-systemCode/Main/Main_Init.o
 .debug_line    0x00001bcd      0x47c ./src/sub-systemCode/Main/commands.o
 .debug_line    0x00002049      0x334 ./src/sub-systemCode/Global/Global.o
 .debug_line    0x0000237d      0x758 ./src/sub-systemCode/Global/GlobalParam.o
 .debug_line    0x00002ad5      0x77c ./src/sub-systemCode/Global/OnlineTM.o
 .debug_line    0x00003251      0x636 ./src/sub-systemCode/Global/TLM_management.o
 .debug_line    0x00003887      0x14f ./src/sub-systemCode/Global/freertosExtended.o
 .debug_line    0x000039d6      0x272 ./src/sub-systemCode/COMM/APRS.o
 .debug_line    0x00003c48      0x268 ./src/sub-systemCode/COMM/DelayedCommand_list.o
 .debug_line    0x00003eb0      0x1d8 ./src/sub-systemCode/COMM/GSC.o
 .debug_line    0x00004088      0x8b1 ./src/sub-systemCode/COMM/TRXVU.o
 .debug_line    0x00004939      0x18f ./src/sub-systemCode/ADCS/ADCS.o
 .debug_line    0x00004ac8      0x430 ./src/sub-systemCode/ADCS/Stage_Table.o
 .debug_line    0x00004ef8      0x2b2 ./src/main.o
 .debug_line    0x000051aa      0x67c C:/HOOPOE3/satellite-subsystems/demo/..//satellite-subsystems/lib\libSatelliteSubsystemsD.a(GomEPS.o)
 .debug_line    0x00005826      0x310 C:/HOOPOE3/satellite-subsystems/demo/..//satellite-subsystems/lib\libSatelliteSubsystemsD.a(IsisAntS.o)
 .debug_line    0x00005b36      0x466 C:/HOOPOE3/satellite-subsystems/demo/..//satellite-subsystems/lib\libSatelliteSubsystemsD.a(IsisSolarPanelv2.o)
 .debug_line    0x00005f9c      0x48a C:/HOOPOE3/satellite-subsystems/demo/..//satellite-subsystems/lib\libSatelliteSubsystemsD.a(IsisTRXVU.o)
 .debug_line    0x00006426      0x9d2 C:/HOOPOE3/satellite-subsystems/demo/..//satellite-subsystems/lib\libSatelliteSubsystemsD.a(cspaceADCS.o)
 .debug_line    0x00006df8      0xb96 C:/HOOPOE3/satellite-subsystems/demo/..//satellite-subsystems/lib\libSatelliteSubsystemsD.a(gecko_driver.o)
 .debug_line    0x0000798e      0x279 C:/HOOPOE3/satellite-subsystems/demo/..//satellite-subsystems/lib\libSatelliteSubsystemsD.a(IsisTRXCommon.o)
 .debug_line    0x00007c07     0x1b99 C:/HOOPOE3/satellite-subsystems/demo/../..//hal/hcc/lib\libHCCD.a(fat_common.o)
 .debug_line    0x000097a0      0x637 C:/HOOPOE3/satellite-subsystems/demo/../..//hal/hcc/lib\libHCCD.a(fat_m.o)
 .debug_line    0x00009dd7      0xcb9 C:/HOOPOE3/satellite-subsystems/demo/../..//hal/hcc/lib\libHCCD.a(safefat.o)
 .debug_line    0x0000aa90      0x574 C:/HOOPOE3/satellite-subsystems/demo/../..//hal/hcc/lib\libHCCD.a(atmel_mcipdc.o)
 .debug_line    0x0000b004      0x14d C:/HOOPOE3/satellite-subsystems/demo/../..//hal/hcc/lib\libHCCD.a(oalp_mutex.o)
 .debug_line    0x0000b151       0x92 C:/HOOPOE3/satellite-subsystems/demo/../..//hal/hcc/lib\libHCCD.a(oalp_task.o)
 .debug_line    0x0000b1e3      0x18b C:/HOOPOE3/satellite-subsystems/demo/../..//hal/hcc/lib\libHCCD.a(atmel_mcipdc_hw.o)
 .debug_line    0x0000b36e      0x132 C:/HOOPOE3/satellite-subsystems/demo/../..//hal/hcc/lib\libHCCD.a(psp_rtc.o)
 .debug_line    0x0000b4a0      0x5b7 C:/HOOPOE3/satellite-subsystems/demo/../..//hal/hcc/lib\libHCCD.a(hcc_mem.o)
 .debug_line    0x0000ba57     0x1081 C:/HOOPOE3/satellite-subsystems/demo/../..//hal/hcc/lib\libHCCD.a(fat.o)
 .debug_line    0x0000cad8      0x133 C:/HOOPOE3/satellite-subsystems/demo/../..//hal/hcc/lib\libHCCD.a(psp_hcc_mem.o)
 .debug_line    0x0000cc0b      0x4fa C:/HOOPOE3/satellite-subsystems/demo/../..//hal/hal/lib\libHALD.a(I2C.o)
 .debug_line    0x0000d105      0x3d7 C:/HOOPOE3/satellite-subsystems/demo/../..//hal/hal/lib\libHALD.a(SPI.o)
 .debug_line    0x0000d4dc      0x352 C:/HOOPOE3/satellite-subsystems/demo/../..//hal/hal/lib\libHALD.a(FRAM.o)
 .debug_line    0x0000d82e      0x379 C:/HOOPOE3/satellite-subsystems/demo/../..//hal/hal/lib\libHALD.a(Time.o)
 .debug_line    0x0000dba7       0xe3 C:/HOOPOE3/satellite-subsystems/demo/../..//hal/hal/lib\libHALD.a(WatchDogTimerNoOS.o)
 .debug_line    0x0000dc8a      0x147 C:/HOOPOE3/satellite-subsystems/demo/../..//hal/hal/lib\libHALD.a(WatchDogTimerOS.o)
 .debug_line    0x0000ddd1      0x1e1 C:/HOOPOE3/satellite-subsystems/demo/../..//hal/hal/lib\libHALD.a(util.o)
 .debug_line    0x0000dfb2      0x1fa C:/HOOPOE3/satellite-subsystems/demo/../..//hal/hal/lib\libHALD.a(LED.o)
 .debug_line    0x0000e1ac      0x26f C:/HOOPOE3/satellite-subsystems/demo/../..//hal/hal/lib\libHALD.a(RTC.o)
 .debug_line    0x0000e41b       0xe8 C:/HOOPOE3/satellite-subsystems/demo/../..//hal/hal/lib\libHALD.a(RTT.o)
 .debug_line    0x0000e503      0x5ae C:/HOOPOE3/satellite-subsystems/demo/../..//hal/freertos/lib\libFreeRTOSD.a(queue.o)
 .debug_line    0x0000eab1      0x82a C:/HOOPOE3/satellite-subsystems/demo/../..//hal/freertos/lib\libFreeRTOSD.a(tasks.o)
 .debug_line    0x0000f2db       0x77 C:/HOOPOE3/satellite-subsystems/demo/../..//hal/freertos/lib\libFreeRTOSD.a(hooks.o)
 .debug_line    0x0000f352       0xf9 C:/HOOPOE3/satellite-subsystems/demo/../..//hal/freertos/lib\libFreeRTOSD.a(standardMemMang.o)
 .debug_line    0x0000f44b      0x1ea C:/HOOPOE3/satellite-subsystems/demo/../..//hal/freertos/lib\libFreeRTOSD.a(port.o)
 .debug_line    0x0000f635      0x10e C:/HOOPOE3/satellite-subsystems/demo/../..//hal/freertos/lib\libFreeRTOSD.a(list.o)
 .debug_line    0x0000f743      0x356 C:/HOOPOE3/satellite-subsystems/demo/../..//hal/at91/lib\libAt91D.a(syscalls.o)
 .debug_line    0x0000fa99       0xb2 C:/HOOPOE3/satellite-subsystems/demo/../..//hal/at91/lib\libAt91D.a(aic.o)
 .debug_line    0x0000fb4b      0x101 C:/HOOPOE3/satellite-subsystems/demo/../..//hal/at91/lib\libAt91D.a(cp15.o)
 .debug_line    0x0000fc4c      0x2cc C:/HOOPOE3/satellite-subsystems/demo/../..//hal/at91/lib\libAt91D.a(dbgu.o)
 .debug_line    0x0000ff18      0x1b7 C:/HOOPOE3/satellite-subsystems/demo/../..//hal/at91/lib\libAt91D.a(pio.o)
 .debug_line    0x000100cf      0x136 C:/HOOPOE3/satellite-subsystems/demo/../..//hal/at91/lib\libAt91D.a(pit.o)
 .debug_line    0x00010205      0x145 C:/HOOPOE3/satellite-subsystems/demo/../..//hal/at91/lib\libAt91D.a(pmc.o)
 .debug_line    0x0001034a      0x14e C:/HOOPOE3/satellite-subsystems/demo/../..//hal/at91/lib\libAt91D.a(spi_at91.o)
 .debug_line    0x00010498      0x2e9 C:/HOOPOE3/satellite-subsystems/demo/../..//hal/at91/lib\libAt91D.a(twi_at91.o)
 .debug_line    0x00010781       0xda C:/HOOPOE3/satellite-subsystems/demo/../..//hal/at91/lib\libAt91D.a(ExitHandler.o)
 .debug_line    0x0001085b      0x109 C:/HOOPOE3/satellite-subsystems/demo/../..//hal/at91/lib\libAt91D.a(board_cstartup.o)
 .debug_line    0x00010964       0x6f C:/HOOPOE3/satellite-subsystems/demo/../..//hal/at91/lib\libAt91D.a(cp15_asm.o)
 .debug_line    0x000109d3      0x122 C:/HOOPOE3/satellite-subsystems/demo/../..//hal/at91/lib\libAt91D.a(board_lowlevel.o)
 .debug_line    0x00010af5      0x140 C:/HOOPOE3/satellite-subsystems/demo/../..//hal/at91/lib\libAt91D.a(board_memories.o)

.debug_str      0x00000000     0xd45c
 .debug_str     0x00000000      0x759 ./src/sub-systemCode/Main/CMD/COMM_CMD.o
                                0x7ca (size before relaxing)
 .debug_str     0x00000759      0x1a5 ./src/sub-systemCode/Main/CMD/EPS_CMD.o
                                0x7e1 (size before relaxing)
 .debug_str     0x000008fe      0x5b2 ./src/sub-systemCode/Main/CMD/General_CMD.o
                                0xc71 (size before relaxing)
 .debug_str     0x00000eb0       0x6a ./src/sub-systemCode/Main/CMD/SW_CMD.o
                                0x714 (size before relaxing)
 .debug_str     0x00000f1a      0x27f ./src/sub-systemCode/Main/Ants.o
                                0x401 (size before relaxing)
 .debug_str     0x00001199      0x3cb ./src/sub-systemCode/Main/EPS.o
                                0x6a1 (size before relaxing)
 .debug_str     0x00001564      0x3b0 ./src/sub-systemCode/Main/HouseKeeping.o
                                0xf2a (size before relaxing)
 .debug_str     0x00001914      0x198 ./src/sub-systemCode/Main/Main_Init.o
                                0x3eb (size before relaxing)
 .debug_str     0x00001aac      0x14c ./src/sub-systemCode/Main/commands.o
                                0x7f4 (size before relaxing)
 .debug_str     0x00001bf8      0x1b1 ./src/sub-systemCode/Global/Global.o
                                0x405 (size before relaxing)
 .debug_str     0x00001da9      0x2ea ./src/sub-systemCode/Global/GlobalParam.o
                                0x63c (size before relaxing)
 .debug_str     0x00002093      0x363 ./src/sub-systemCode/Global/OnlineTM.o
                                0xa37 (size before relaxing)
 .debug_str     0x000023f6      0x3e1 ./src/sub-systemCode/Global/TLM_management.o
                                0x800 (size before relaxing)
 .debug_str     0x000027d7       0x7d ./src/sub-systemCode/Global/freertosExtended.o
                                0x1ae (size before relaxing)
 .debug_str     0x00002854       0xbd ./src/sub-systemCode/COMM/APRS.o
                                0x2af (size before relaxing)
 .debug_str     0x00002911      0x140 ./src/sub-systemCode/COMM/DelayedCommand_list.o
                                0x2eb (size before relaxing)
 .debug_str     0x00002a51       0xaf ./src/sub-systemCode/COMM/GSC.o
                                0x712 (size before relaxing)
 .debug_str     0x00002b00      0x50e ./src/sub-systemCode/COMM/TRXVU.o
                               0x10f1 (size before relaxing)
 .debug_str     0x0000300e       0x84 ./src/sub-systemCode/ADCS/ADCS.o
                                0x1e7 (size before relaxing)
 .debug_str     0x00003092      0xc53 ./src/sub-systemCode/ADCS/Stage_Table.o
                                0xe28 (size before relaxing)
 .debug_str     0x00003ce5      0x19e ./src/main.o
                                0x359 (size before relaxing)
 .debug_str     0x00003e83      0x61a C:/HOOPOE3/satellite-subsystems/demo/..//satellite-subsystems/lib\libSatelliteSubsystemsD.a(GomEPS.o)
                                0xafc (size before relaxing)
 .debug_str     0x0000449d      0x27a C:/HOOPOE3/satellite-subsystems/demo/..//satellite-subsystems/lib\libSatelliteSubsystemsD.a(IsisAntS.o)
                                0x6bd (size before relaxing)
 .debug_str     0x00004717      0x4a8 C:/HOOPOE3/satellite-subsystems/demo/..//satellite-subsystems/lib\libSatelliteSubsystemsD.a(IsisSolarPanelv2.o)
                                0x8dd (size before relaxing)
 .debug_str     0x00004bbf      0x530 C:/HOOPOE3/satellite-subsystems/demo/..//satellite-subsystems/lib\libSatelliteSubsystemsD.a(IsisTRXVU.o)
                                0xa97 (size before relaxing)
 .debug_str     0x000050ef     0x23e7 C:/HOOPOE3/satellite-subsystems/demo/..//satellite-subsystems/lib\libSatelliteSubsystemsD.a(cspaceADCS.o)
                               0x33a2 (size before relaxing)
 .debug_str     0x000074d6      0x686 C:/HOOPOE3/satellite-subsystems/demo/..//satellite-subsystems/lib\libSatelliteSubsystemsD.a(gecko_driver.o)
                                0xa12 (size before relaxing)
 .debug_str     0x00007b5c      0x1ee C:/HOOPOE3/satellite-subsystems/demo/..//satellite-subsystems/lib\libSatelliteSubsystemsD.a(IsisTRXCommon.o)
                                0x436 (size before relaxing)
 .debug_str     0x00007d4a     0x1205 C:/HOOPOE3/satellite-subsystems/demo/../..//hal/hcc/lib\libHCCD.a(fat_common.o)
                               0x1610 (size before relaxing)
 .debug_str     0x00008f4f      0x2f7 C:/HOOPOE3/satellite-subsystems/demo/../..//hal/hcc/lib\libHCCD.a(fat_m.o)
                                0x7fd (size before relaxing)
 .debug_str     0x00009246      0x540 C:/HOOPOE3/satellite-subsystems/demo/../..//hal/hcc/lib\libHCCD.a(safefat.o)
                                0xdcf (size before relaxing)
 .debug_str     0x00009786      0x34d C:/HOOPOE3/satellite-subsystems/demo/../..//hal/hcc/lib\libHCCD.a(atmel_mcipdc.o)
                                0x643 (size before relaxing)
 .debug_str     0x00009ad3       0x8d C:/HOOPOE3/satellite-subsystems/demo/../..//hal/hcc/lib\libHCCD.a(oalp_mutex.o)
                                0x1df (size before relaxing)
 .debug_str     0x00009b60       0x27 C:/HOOPOE3/satellite-subsystems/demo/../..//hal/hcc/lib\libHCCD.a(oalp_task.o)
                                0x154 (size before relaxing)
 .debug_str     0x00009b87       0xc0 C:/HOOPOE3/satellite-subsystems/demo/../..//hal/hcc/lib\libHCCD.a(atmel_mcipdc_hw.o)
                                0x3bb (size before relaxing)
 .debug_str     0x00009c47       0x34 C:/HOOPOE3/satellite-subsystems/demo/../..//hal/hcc/lib\libHCCD.a(psp_rtc.o)
                                0x1b2 (size before relaxing)
 .debug_str     0x00009c7b      0x2eb C:/HOOPOE3/satellite-subsystems/demo/../..//hal/hcc/lib\libHCCD.a(hcc_mem.o)
                                0x4fa (size before relaxing)
 .debug_str     0x00009f66      0x2e4 C:/HOOPOE3/satellite-subsystems/demo/../..//hal/hcc/lib\libHCCD.a(fat.o)
                                0xd16 (size before relaxing)
 .debug_str     0x0000a24a       0x7a C:/HOOPOE3/satellite-subsystems/demo/../..//hal/hcc/lib\libHCCD.a(psp_hcc_mem.o)
                                0x1d7 (size before relaxing)
 .debug_str     0x0000a2c4      0x5f3 C:/HOOPOE3/satellite-subsystems/demo/../..//hal/hal/lib\libHALD.a(I2C.o)
                                0xa1c (size before relaxing)
 .debug_str     0x0000a8b7      0x369 C:/HOOPOE3/satellite-subsystems/demo/../..//hal/hal/lib\libHALD.a(SPI.o)
                                0x8be (size before relaxing)
 .debug_str     0x0000ac20      0x197 C:/HOOPOE3/satellite-subsystems/demo/../..//hal/hal/lib\libHALD.a(FRAM.o)
                                0x58b (size before relaxing)
 .debug_str     0x0000adb7      0x1ee C:/HOOPOE3/satellite-subsystems/demo/../..//hal/hal/lib\libHALD.a(Time.o)
                                0x398 (size before relaxing)
 .debug_str     0x0000afa5       0x6b C:/HOOPOE3/satellite-subsystems/demo/../..//hal/hal/lib\libHALD.a(WatchDogTimerNoOS.o)
                                0x2f3 (size before relaxing)
 .debug_str     0x0000b010       0xef C:/HOOPOE3/satellite-subsystems/demo/../..//hal/hal/lib\libHALD.a(WatchDogTimerOS.o)
                                0x22e (size before relaxing)
 .debug_str     0x0000b0ff       0xc4 C:/HOOPOE3/satellite-subsystems/demo/../..//hal/hal/lib\libHALD.a(util.o)
                                0x1e2 (size before relaxing)
 .debug_str     0x0000b1c3       0x6c C:/HOOPOE3/satellite-subsystems/demo/../..//hal/hal/lib\libHALD.a(LED.o)
                                0x31d (size before relaxing)
 .debug_str     0x0000b22f       0xfc C:/HOOPOE3/satellite-subsystems/demo/../..//hal/hal/lib\libHALD.a(RTC.o)
                                0x4eb (size before relaxing)
 .debug_str     0x0000b32b       0x4b C:/HOOPOE3/satellite-subsystems/demo/../..//hal/hal/lib\libHALD.a(RTT.o)
                                0x1b5 (size before relaxing)
 .debug_str     0x0000b376      0x50b C:/HOOPOE3/satellite-subsystems/demo/../..//hal/freertos/lib\libFreeRTOSD.a(queue.o)
                                0x643 (size before relaxing)
 .debug_str     0x0000b881      0x734 C:/HOOPOE3/satellite-subsystems/demo/../..//hal/freertos/lib\libFreeRTOSD.a(tasks.o)
                                0x96e (size before relaxing)
 .debug_str     0x0000bfb5       0x3a C:/HOOPOE3/satellite-subsystems/demo/../..//hal/freertos/lib\libFreeRTOSD.a(hooks.o)
                                0x17e (size before relaxing)
 .debug_str     0x0000bfef       0x6f C:/HOOPOE3/satellite-subsystems/demo/../..//hal/freertos/lib\libFreeRTOSD.a(standardMemMang.o)
                                0x18e (size before relaxing)
 .debug_str     0x0000c05e      0x155 C:/HOOPOE3/satellite-subsystems/demo/../..//hal/freertos/lib\libFreeRTOSD.a(port.o)
                                0x2f6 (size before relaxing)
 .debug_str     0x0000c1b3       0xa1 C:/HOOPOE3/satellite-subsystems/demo/../..//hal/freertos/lib\libFreeRTOSD.a(list.o)
                                0x257 (size before relaxing)
 .debug_str     0x0000c254      0x1b7 C:/HOOPOE3/satellite-subsystems/demo/../..//hal/at91/lib\libAt91D.a(syscalls.o)
                                0x30e (size before relaxing)
 .debug_str     0x0000c40b       0xfd C:/HOOPOE3/satellite-subsystems/demo/../..//hal/at91/lib\libAt91D.a(aic.o)
                                0x1be (size before relaxing)
 .debug_str     0x0000c508       0xcd C:/HOOPOE3/satellite-subsystems/demo/../..//hal/at91/lib\libAt91D.a(cp15.o)
                                0x1e9 (size before relaxing)
 .debug_str     0x0000c5d5      0x4c2 C:/HOOPOE3/satellite-subsystems/demo/../..//hal/at91/lib\libAt91D.a(dbgu.o)
                                0x65a (size before relaxing)
 .debug_str     0x0000ca97       0xde C:/HOOPOE3/satellite-subsystems/demo/../..//hal/at91/lib\libAt91D.a(pio.o)
                                0x408 (size before relaxing)
 .debug_str     0x0000cb75       0x94 C:/HOOPOE3/satellite-subsystems/demo/../..//hal/at91/lib\libAt91D.a(pit.o)
                                0x17c (size before relaxing)
 .debug_str     0x0000cc09       0xcf C:/HOOPOE3/satellite-subsystems/demo/../..//hal/at91/lib\libAt91D.a(pmc.o)
                                0x2ac (size before relaxing)
 .debug_str     0x0000ccd8       0xaf C:/HOOPOE3/satellite-subsystems/demo/../..//hal/at91/lib\libAt91D.a(spi_at91.o)
                                0x2f4 (size before relaxing)
 .debug_str     0x0000cd87      0x161 C:/HOOPOE3/satellite-subsystems/demo/../..//hal/at91/lib\libAt91D.a(twi_at91.o)
                                0x3b0 (size before relaxing)
 .debug_str     0x0000cee8      0x127 C:/HOOPOE3/satellite-subsystems/demo/../..//hal/at91/lib\libAt91D.a(ExitHandler.o)
                                0x24e (size before relaxing)
 .debug_str     0x0000d00f      0x23d C:/HOOPOE3/satellite-subsystems/demo/../..//hal/at91/lib\libAt91D.a(board_lowlevel.o)
                                0x4c6 (size before relaxing)
 .debug_str     0x0000d24c      0x210 C:/HOOPOE3/satellite-subsystems/demo/../..//hal/at91/lib\libAt91D.a(board_memories.o)
                                0x641 (size before relaxing)
