Archive member included because of file (symbol)

c:/isis/application/toolchain/bin/../lib/gcc/arm-none-eabi/4.7.4/../../../../arm-none-eabi/lib\libc_s.a(lib_a-vfprintf_float.o)
                              (_printf_float)
c:/isis/application/toolchain/bin/../lib/gcc/arm-none-eabi/4.7.4/../../../../arm-none-eabi/lib\libc_s.a(lib_a-vfprintf_i.o)
                              c:/isis/application/toolchain/bin/../lib/gcc/arm-none-eabi/4.7.4/../../../../arm-none-eabi/lib\libc_s.a(lib_a-vfprintf_float.o) (_printf_common)
c:/isis/application/toolchain/bin/../lib/gcc/arm-none-eabi/4.7.4/../../../../arm-none-eabi/lib\libc_s.a(lib_a-vfscanf_float.o)
                              (_scanf_float)
c:/isis/application/toolchain/bin/../lib/gcc/arm-none-eabi/4.7.4/../../../../arm-none-eabi/lib\libc_s.a(lib_a-dtoa.o)
                              c:/isis/application/toolchain/bin/../lib/gcc/arm-none-eabi/4.7.4/../../../../arm-none-eabi/lib\libc_s.a(lib_a-vfprintf_float.o) (_dtoa_r)
c:/isis/application/toolchain/bin/../lib/gcc/arm-none-eabi/4.7.4/../../../../arm-none-eabi/lib\libc_s.a(lib_a-locale.o)
                              c:/isis/application/toolchain/bin/../lib/gcc/arm-none-eabi/4.7.4/../../../../arm-none-eabi/lib\libc_s.a(lib_a-vfprintf_float.o) (_localeconv_r)
c:/isis/application/toolchain/bin/../lib/gcc/arm-none-eabi/4.7.4/../../../../arm-none-eabi/lib\libc_s.a(lib_a-malloc.o)
                              c:/isis/application/toolchain/bin/../lib/gcc/arm-none-eabi/4.7.4/../../../../arm-none-eabi/lib\libc_s.a(lib_a-dtoa.o) (malloc)
c:/isis/application/toolchain/bin/../lib/gcc/arm-none-eabi/4.7.4/../../../../arm-none-eabi/lib\libc_s.a(lib_a-mallocr.o)
                              c:/isis/application/toolchain/bin/../lib/gcc/arm-none-eabi/4.7.4/../../../../arm-none-eabi/lib\libc_s.a(lib_a-malloc.o) (_malloc_r)
c:/isis/application/toolchain/bin/../lib/gcc/arm-none-eabi/4.7.4/../../../../arm-none-eabi/lib\libc_s.a(lib_a-memcpy.o)
                              c:/isis/application/toolchain/bin/../lib/gcc/arm-none-eabi/4.7.4/../../../../arm-none-eabi/lib\libc_s.a(lib_a-dtoa.o) (memcpy)
c:/isis/application/toolchain/bin/../lib/gcc/arm-none-eabi/4.7.4/../../../../arm-none-eabi/lib\libc_s.a(lib_a-mprec.o)
                              c:/isis/application/toolchain/bin/../lib/gcc/arm-none-eabi/4.7.4/../../../../arm-none-eabi/lib\libc_s.a(lib_a-dtoa.o) (_Balloc)
c:/isis/application/toolchain/bin/../lib/gcc/arm-none-eabi/4.7.4/../../../../arm-none-eabi/lib\libc_s.a(lib_a-s_fpclassify.o)
                              c:/isis/application/toolchain/bin/../lib/gcc/arm-none-eabi/4.7.4/../../../../arm-none-eabi/lib\libc_s.a(lib_a-vfprintf_float.o) (__fpclassifyd)
c:/isis/application/toolchain/bin/../lib/gcc/arm-none-eabi/4.7.4/../../../../arm-none-eabi/lib\libc_s.a(lib_a-sbrkr.o)
                              c:/isis/application/toolchain/bin/../lib/gcc/arm-none-eabi/4.7.4/../../../../arm-none-eabi/lib\libc_s.a(lib_a-mallocr.o) (_sbrk_r)
c:/isis/application/toolchain/bin/../lib/gcc/arm-none-eabi/4.7.4/../../../../arm-none-eabi/lib\libc_s.a(lib_a-sf_nan.o)
                              c:/isis/application/toolchain/bin/../lib/gcc/arm-none-eabi/4.7.4/../../../../arm-none-eabi/lib\libc_s.a(lib_a-vfscanf_float.o) (nanf)
c:/isis/application/toolchain/bin/../lib/gcc/arm-none-eabi/4.7.4/../../../../arm-none-eabi/lib\libc_s.a(lib_a-sprintf.o)
                              c:/isis/application/toolchain/bin/../lib/gcc/arm-none-eabi/4.7.4/../../../../arm-none-eabi/lib\libc_s.a(lib_a-vfscanf_float.o) (sprintf)
c:/isis/application/toolchain/bin/../lib/gcc/arm-none-eabi/4.7.4/../../../../arm-none-eabi/lib\libc_s.a(lib_a-strcmp.o)
                              c:/isis/application/toolchain/bin/../lib/gcc/arm-none-eabi/4.7.4/../../../../arm-none-eabi/lib\libc_s.a(lib_a-locale.o) (strcmp)
c:/isis/application/toolchain/bin/../lib/gcc/arm-none-eabi/4.7.4/../../../../arm-none-eabi/lib\libc_s.a(lib_a-strlen.o)
                              c:/isis/application/toolchain/bin/../lib/gcc/arm-none-eabi/4.7.4/../../../../arm-none-eabi/lib\libc_s.a(lib_a-vfprintf_float.o) (strlen)
c:/isis/application/toolchain/bin/../lib/gcc/arm-none-eabi/4.7.4/../../../../arm-none-eabi/lib\libc_s.a(lib_a-strtod.o)
                              c:/isis/application/toolchain/bin/../lib/gcc/arm-none-eabi/4.7.4/../../../../arm-none-eabi/lib\libc_s.a(lib_a-vfscanf_float.o) (_strtod_r)
c:/isis/application/toolchain/bin/../lib/gcc/arm-none-eabi/4.7.4/../../../../arm-none-eabi/lib\libc_s.a(lib_a-strtol.o)
                              c:/isis/application/toolchain/bin/../lib/gcc/arm-none-eabi/4.7.4/../../../../arm-none-eabi/lib\libc_s.a(lib_a-vfscanf_float.o) (_strtol_r)
c:/isis/application/toolchain/bin/../lib/gcc/arm-none-eabi/4.7.4/../../../../arm-none-eabi/lib\libc_s.a(lib_a-svfprintf.o)
                              c:/isis/application/toolchain/bin/../lib/gcc/arm-none-eabi/4.7.4/../../../../arm-none-eabi/lib\libc_s.a(lib_a-sprintf.o) (_svfprintf_r)
c:/isis/application/toolchain/bin/../lib/gcc/arm-none-eabi/4.7.4/../../../../arm-none-eabi/lib\libc_s.a(lib_a-callocr.o)
                              c:/isis/application/toolchain/bin/../lib/gcc/arm-none-eabi/4.7.4/../../../../arm-none-eabi/lib\libc_s.a(lib_a-mprec.o) (_calloc_r)
c:/isis/application/toolchain/bin/../lib/gcc/arm-none-eabi/4.7.4/../../../../arm-none-eabi/lib\libc_s.a(lib_a-ctype_.o)
                              c:/isis/application/toolchain/bin/../lib/gcc/arm-none-eabi/4.7.4/../../../../arm-none-eabi/lib\libc_s.a(lib_a-strtol.o) (__ctype_ptr__)
c:/isis/application/toolchain/bin/../lib/gcc/arm-none-eabi/4.7.4/../../../../arm-none-eabi/lib\libc_s.a(lib_a-freer.o)
                              c:/isis/application/toolchain/bin/../lib/gcc/arm-none-eabi/4.7.4/../../../../arm-none-eabi/lib\libc_s.a(lib_a-malloc.o) (_free_r)
c:/isis/application/toolchain/bin/../lib/gcc/arm-none-eabi/4.7.4/../../../../arm-none-eabi/lib\libc_s.a(lib_a-gdtoa-gethex.o)
                              c:/isis/application/toolchain/bin/../lib/gcc/arm-none-eabi/4.7.4/../../../../arm-none-eabi/lib\libc_s.a(lib_a-strtod.o) (__gethex)
c:/isis/application/toolchain/bin/../lib/gcc/arm-none-eabi/4.7.4/../../../../arm-none-eabi/lib\libc_s.a(lib_a-gdtoa-hexnan.o)
                              c:/isis/application/toolchain/bin/../lib/gcc/arm-none-eabi/4.7.4/../../../../arm-none-eabi/lib\libc_s.a(lib_a-strtod.o) (__hexnan)
c:/isis/application/toolchain/bin/../lib/gcc/arm-none-eabi/4.7.4/../../../../arm-none-eabi/lib\libc_s.a(lib_a-impure.o)
                              c:/isis/application/toolchain/bin/../lib/gcc/arm-none-eabi/4.7.4/../../../../arm-none-eabi/lib\libc_s.a(lib_a-locale.o) (_impure_ptr)
c:/isis/application/toolchain/bin/../lib/gcc/arm-none-eabi/4.7.4/../../../../arm-none-eabi/lib\libc_s.a(lib_a-memchr.o)
                              c:/isis/application/toolchain/bin/../lib/gcc/arm-none-eabi/4.7.4/../../../../arm-none-eabi/lib\libc_s.a(lib_a-svfprintf.o) (memchr)
c:/isis/application/toolchain/bin/../lib/gcc/arm-none-eabi/4.7.4/../../../../arm-none-eabi/lib\libc_s.a(lib_a-memmove.o)
                              c:/isis/application/toolchain/bin/../lib/gcc/arm-none-eabi/4.7.4/../../../../arm-none-eabi/lib\libc_s.a(lib_a-svfprintf.o) (memmove)
c:/isis/application/toolchain/bin/../lib/gcc/arm-none-eabi/4.7.4/../../../../arm-none-eabi/lib\libc_s.a(lib_a-memset.o)
                              c:/isis/application/toolchain/bin/../lib/gcc/arm-none-eabi/4.7.4/../../../../arm-none-eabi/lib\libc_s.a(lib_a-callocr.o) (memset)
c:/isis/application/toolchain/bin/../lib/gcc/arm-none-eabi/4.7.4/../../../../arm-none-eabi/lib\libc_s.a(lib_a-reallocr.o)
                              c:/isis/application/toolchain/bin/../lib/gcc/arm-none-eabi/4.7.4/../../../../arm-none-eabi/lib\libc_s.a(lib_a-svfprintf.o) (_realloc_r)
c:/isis/application/toolchain/bin/../lib/gcc/arm-none-eabi/4.7.4/../../../../arm-none-eabi/lib\libc_s.a(lib_a-reent.o)
                              c:/isis/application/toolchain/bin/../lib/gcc/arm-none-eabi/4.7.4/../../../../arm-none-eabi/lib\libc_s.a(lib_a-sbrkr.o) (errno)
c:/isis/application/toolchain/bin/../lib/gcc/arm-none-eabi/4.7.4/../../../../arm-none-eabi/lib\libc_s.a(lib_a-strncmp.o)
                              c:/isis/application/toolchain/bin/../lib/gcc/arm-none-eabi/4.7.4/../../../../arm-none-eabi/lib\libc_s.a(lib_a-strtod.o) (strncmp)
c:/isis/application/toolchain/bin/../lib/gcc/arm-none-eabi/4.7.4/../../../../arm-none-eabi/lib\libc_s.a(lib_a-msizer.o)
                              c:/isis/application/toolchain/bin/../lib/gcc/arm-none-eabi/4.7.4/../../../../arm-none-eabi/lib\libc_s.a(lib_a-reallocr.o) (_malloc_usable_size_r)
C:/Hoopoe3/satellite-subsystems/demo/..//satellite-subsystems/lib\libSatelliteSubsystemsD.a(GomEPS.o)
                              ./src/sub-systemCode/Main/EPS.o (GomEpsInitialize)
C:/Hoopoe3/satellite-subsystems/demo/..//satellite-subsystems/lib\libSatelliteSubsystemsD.a(IsisAntS.o)
                              ./src/sub-systemCode/Main/Ants.o (IsisAntS_initialize)
C:/Hoopoe3/satellite-subsystems/demo/..//satellite-subsystems/lib\libSatelliteSubsystemsD.a(IsisSolarPanelv2.o)
                              ./src/sub-systemCode/Main/EPS.o (IsisSolarPanelv2_initialize)
C:/Hoopoe3/satellite-subsystems/demo/..//satellite-subsystems/lib\libSatelliteSubsystemsD.a(IsisTRXVU.o)
                              ./src/sub-systemCode/COMM/TRXVU.o (IsisTrxvu_initialize)
C:/Hoopoe3/satellite-subsystems/demo/..//satellite-subsystems/lib\libSatelliteSubsystemsD.a(cspaceADCS.o)
                              ./src/sub-systemCode/ADCS/ADCS.o (cspaceADCS_initialize)
C:/Hoopoe3/satellite-subsystems/demo/..//satellite-subsystems/lib\libSatelliteSubsystemsD.a(gecko_driver.o)
                              ./src/sub-systemCode/Main/HouseKeeping.o (GECKO_GetVoltageInput5V)
C:/Hoopoe3/satellite-subsystems/demo/..//satellite-subsystems/lib\libSatelliteSubsystemsD.a(IsisTRXCommon.o)
                              C:/Hoopoe3/satellite-subsystems/demo/..//satellite-subsystems/lib\libSatelliteSubsystemsD.a(IsisTRXVU.o) (IsisTrxCommon_componentReset)
c:/isis/application/toolchain/bin/../lib/gcc/arm-none-eabi/4.7.4/../../../../arm-none-eabi/lib\libm.a(lib_a-w_log.o)
                              C:/Hoopoe3/satellite-subsystems/demo/..//satellite-subsystems/lib\libSatelliteSubsystemsD.a(gecko_driver.o) (log)
c:/isis/application/toolchain/bin/../lib/gcc/arm-none-eabi/4.7.4/../../../../arm-none-eabi/lib\libm.a(lib_a-e_log.o)
                              c:/isis/application/toolchain/bin/../lib/gcc/arm-none-eabi/4.7.4/../../../../arm-none-eabi/lib\libm.a(lib_a-w_log.o) (__ieee754_log)
c:/isis/application/toolchain/bin/../lib/gcc/arm-none-eabi/4.7.4/../../../../arm-none-eabi/lib\libm.a(lib_a-s_lib_ver.o)
                              c:/isis/application/toolchain/bin/../lib/gcc/arm-none-eabi/4.7.4/../../../../arm-none-eabi/lib\libm.a(lib_a-w_log.o) (__fdlib_version)
c:/isis/application/toolchain/bin/../lib/gcc/arm-none-eabi/4.7.4/../../../../arm-none-eabi/lib\libm.a(lib_a-s_matherr.o)
                              c:/isis/application/toolchain/bin/../lib/gcc/arm-none-eabi/4.7.4/../../../../arm-none-eabi/lib\libm.a(lib_a-w_log.o) (matherr)
c:/isis/application/toolchain/bin/../lib/gcc/arm-none-eabi/4.7.4/../../../../arm-none-eabi/lib\libm.a(lib_a-s_nan.o)
                              c:/isis/application/toolchain/bin/../lib/gcc/arm-none-eabi/4.7.4/../../../../arm-none-eabi/lib\libm.a(lib_a-w_log.o) (nan)
C:/Hoopoe3/satellite-subsystems/demo/../..//hal/hcc/lib\libHCCD.a(fat_common.o)
                              ./src/sub-systemCode/Global/TM_managment.o (fn_init)
C:/Hoopoe3/satellite-subsystems/demo/../..//hal/hcc/lib\libHCCD.a(fat_m.o)
                              ./src/sub-systemCode/Global/TM_managment.o (fm_initvolume)
C:/Hoopoe3/satellite-subsystems/demo/../..//hal/hcc/lib\libHCCD.a(safefat.o)
                              C:/Hoopoe3/satellite-subsystems/demo/../..//hal/hcc/lib\libHCCD.a(fat_common.o) (safe_fix_filelengths)
C:/Hoopoe3/satellite-subsystems/demo/../..//hal/hcc/lib\libHCCD.a(atmel_mcipdc.o)
                              ./src/sub-systemCode/Global/TM_managment.o (atmel_mcipdc_initfunc)
C:/Hoopoe3/satellite-subsystems/demo/../..//hal/hcc/lib\libHCCD.a(oalp_mutex.o)
                              C:/Hoopoe3/satellite-subsystems/demo/../..//hal/hcc/lib\libHCCD.a(fat_common.o) (oal_mutex_create)
C:/Hoopoe3/satellite-subsystems/demo/../..//hal/hcc/lib\libHCCD.a(oalp_task.o)
                              C:/Hoopoe3/satellite-subsystems/demo/../..//hal/hcc/lib\libHCCD.a(fat_common.o) (oal_task_get_id)
C:/Hoopoe3/satellite-subsystems/demo/../..//hal/hcc/lib\libHCCD.a(atmel_mcipdc_hw.o)
                              C:/Hoopoe3/satellite-subsystems/demo/../..//hal/hcc/lib\libHCCD.a(atmel_mcipdc.o) (mcipdc_hw_init)
C:/Hoopoe3/satellite-subsystems/demo/../..//hal/hcc/lib\libHCCD.a(psp_rand.o)
                              C:/Hoopoe3/satellite-subsystems/demo/../..//hal/hcc/lib\libHCCD.a(fat_common.o) (psp_getrand)
C:/Hoopoe3/satellite-subsystems/demo/../..//hal/hcc/lib\libHCCD.a(psp_rtc.o)
                              C:/Hoopoe3/satellite-subsystems/demo/../..//hal/hcc/lib\libHCCD.a(fat_common.o) (psp_getcurrenttimedate)
C:/Hoopoe3/satellite-subsystems/demo/../..//hal/hcc/lib\libHCCD.a(hcc_mem.o)
                              C:/Hoopoe3/satellite-subsystems/demo/../..//hal/hcc/lib\libHCCD.a(atmel_mcipdc.o) (hcc_mem_alloc)
C:/Hoopoe3/satellite-subsystems/demo/../..//hal/hcc/lib\libHCCD.a(fat.o)
                              C:/Hoopoe3/satellite-subsystems/demo/../..//hal/hcc/lib\libHCCD.a(fat_common.o) (_f_getdirsector)
C:/Hoopoe3/satellite-subsystems/demo/../..//hal/hcc/lib\libHCCD.a(psp_hcc_mem.o)
                              C:/Hoopoe3/satellite-subsystems/demo/../..//hal/hcc/lib\libHCCD.a(hcc_mem.o) (hcc_mem_buf_alloc)
C:/Hoopoe3/satellite-subsystems/demo/../..//hal/hal/lib\libHALD.a(I2C.o)
                              ./src/sub-systemCode/Main/CMD/General_CMD.o (I2C_write)
C:/Hoopoe3/satellite-subsystems/demo/../..//hal/hal/lib\libHALD.a(SPI.o)
                              ./src/sub-systemCode/Main/Main_Init.o (SPI_start)
C:/Hoopoe3/satellite-subsystems/demo/../..//hal/hal/lib\libHALD.a(FRAM.o)
                              ./src/sub-systemCode/Main/Main_Init.o (FRAM_start)
C:/Hoopoe3/satellite-subsystems/demo/../..//hal/hal/lib\libHALD.a(Time.o)
                              ./src/sub-systemCode/Main/Main_Init.o (Time_start)
C:/Hoopoe3/satellite-subsystems/demo/../..//hal/hal/lib\libHALD.a(WatchDogTimerNoOS.o)
                              ./src/main.o (WDT_start)
C:/Hoopoe3/satellite-subsystems/demo/../..//hal/hal/lib\libHALD.a(WatchDogTimerOS.o)
                              ./src/main.o (WDT_startWatchdogKickTask)
C:/Hoopoe3/satellite-subsystems/demo/../..//hal/hal/lib\libHALD.a(util.o)
                              ./src/sub-systemCode/Main/Main_Init.o (UTIL_DbguGetIntegerMinMax)
C:/Hoopoe3/satellite-subsystems/demo/../..//hal/hal/lib\libHALD.a(LED.o)
                              C:/Hoopoe3/satellite-subsystems/demo/../..//hal/hal/lib\libHALD.a(WatchDogTimerOS.o) (LED_toggle)
C:/Hoopoe3/satellite-subsystems/demo/../..//hal/hal/lib\libHALD.a(RTC.o)
                              C:/Hoopoe3/satellite-subsystems/demo/../..//hal/hal/lib\libHALD.a(Time.o) (RTC_getTime)
C:/Hoopoe3/satellite-subsystems/demo/../..//hal/hal/lib\libHALD.a(RTT.o)
                              C:/Hoopoe3/satellite-subsystems/demo/../..//hal/hal/lib\libHALD.a(Time.o) (RTT_start)
C:/Hoopoe3/satellite-subsystems/demo/../..//hal/freertos/lib\libFreeRTOSD.a(queue.o)
                              ./src/sub-systemCode/COMM/TRXVU.o (xQueueGenericReset)
C:/Hoopoe3/satellite-subsystems/demo/../..//hal/freertos/lib\libFreeRTOSD.a(tasks.o)
                              ./src/sub-systemCode/Main/CMD/COMM_CMD.o (xTaskGenericCreate)
C:/Hoopoe3/satellite-subsystems/demo/../..//hal/freertos/lib\libFreeRTOSD.a(hooks.o)
                              C:/Hoopoe3/satellite-subsystems/demo/../..//hal/freertos/lib\libFreeRTOSD.a(tasks.o) (vApplicationStackOverflowHook)
C:/Hoopoe3/satellite-subsystems/demo/../..//hal/freertos/lib\libFreeRTOSD.a(standardMemMang.o)
                              C:/Hoopoe3/satellite-subsystems/demo/../..//hal/freertos/lib\libFreeRTOSD.a(queue.o) (pvPortMalloc)
C:/Hoopoe3/satellite-subsystems/demo/../..//hal/freertos/lib\libFreeRTOSD.a(port.o)
                              C:/Hoopoe3/satellite-subsystems/demo/../..//hal/freertos/lib\libFreeRTOSD.a(tasks.o) (pxPortInitialiseStack)
C:/Hoopoe3/satellite-subsystems/demo/../..//hal/freertos/lib\libFreeRTOSD.a(list.o)
                              C:/Hoopoe3/satellite-subsystems/demo/../..//hal/freertos/lib\libFreeRTOSD.a(queue.o) (vListInitialise)
C:/Hoopoe3/satellite-subsystems/demo/../..//hal/at91/lib\libAt91D.a(syscalls.o)
                              c:/isis/application/toolchain/bin/../lib/gcc/arm-none-eabi/4.7.4/../../../../arm-none-eabi/lib\libc_s.a(lib_a-sbrkr.o) (_sbrk)
C:/Hoopoe3/satellite-subsystems/demo/../..//hal/at91/lib\libAt91D.a(aic.o)
                              C:/Hoopoe3/satellite-subsystems/demo/../..//hal/hal/lib\libHALD.a(I2C.o) (AIC_ConfigureIT)
C:/Hoopoe3/satellite-subsystems/demo/../..//hal/at91/lib\libAt91D.a(cp15.o)
                              ./src/main.o (CP15_Enable_I_Cache)
C:/Hoopoe3/satellite-subsystems/demo/../..//hal/at91/lib\libAt91D.a(dbgu.o)
                              ./src/main.o (DBGU_Configure)
C:/Hoopoe3/satellite-subsystems/demo/../..//hal/at91/lib\libAt91D.a(pio.o)
                              ./src/main.o (PIO_Configure)
C:/Hoopoe3/satellite-subsystems/demo/../..//hal/at91/lib\libAt91D.a(pit.o)
                              C:/Hoopoe3/satellite-subsystems/demo/../..//hal/freertos/lib\libFreeRTOSD.a(port.o) (PIT_Init)
C:/Hoopoe3/satellite-subsystems/demo/../..//hal/at91/lib\libAt91D.a(pmc.o)
                              C:/Hoopoe3/satellite-subsystems/demo/../..//hal/hcc/lib\libHCCD.a(atmel_mcipdc_hw.o) (PMC_EnablePeripheral)
C:/Hoopoe3/satellite-subsystems/demo/../..//hal/at91/lib\libAt91D.a(spi_at91.o)
                              C:/Hoopoe3/satellite-subsystems/demo/../..//hal/hal/lib\libHALD.a(SPI.o) (SPI_Enable)
C:/Hoopoe3/satellite-subsystems/demo/../..//hal/at91/lib\libAt91D.a(twi_at91.o)
                              C:/Hoopoe3/satellite-subsystems/demo/../..//hal/hal/lib\libHALD.a(I2C.o) (TWI_ConfigureMaster)
C:/Hoopoe3/satellite-subsystems/demo/../..//hal/at91/lib\libAt91D.a(ExitHandler.o)
                              C:/Hoopoe3/satellite-subsystems/demo/../..//hal/freertos/lib\libFreeRTOSD.a(hooks.o) (restart)
C:/Hoopoe3/satellite-subsystems/demo/../..//hal/at91/lib\libAt91D.a(board_cstartup.o)
                              (entry)
C:/Hoopoe3/satellite-subsystems/demo/../..//hal/at91/lib\libAt91D.a(cp15_asm.o)
                              C:/Hoopoe3/satellite-subsystems/demo/../..//hal/at91/lib\libAt91D.a(cp15.o) (_readControlRegister)
C:/Hoopoe3/satellite-subsystems/demo/../..//hal/at91/lib\libAt91D.a(board_lowlevel.o)
                              C:/Hoopoe3/satellite-subsystems/demo/../..//hal/at91/lib\libAt91D.a(board_cstartup.o) (LowLevelInit)
C:/Hoopoe3/satellite-subsystems/demo/../..//hal/at91/lib\libAt91D.a(board_memories.o)
                              C:/Hoopoe3/satellite-subsystems/demo/../..//hal/at91/lib\libAt91D.a(board_lowlevel.o) (BOARD_RemapRam)
c:/isis/application/toolchain/bin/../lib/gcc/arm-none-eabi/4.7.4\libgcc.a(_udivsi3.o)
                              c:/isis/application/toolchain/bin/../lib/gcc/arm-none-eabi/4.7.4/../../../../arm-none-eabi/lib\libc_s.a(lib_a-vfprintf_i.o) (__aeabi_uidiv)
c:/isis/application/toolchain/bin/../lib/gcc/arm-none-eabi/4.7.4\libgcc.a(_divsi3.o)
                              c:/isis/application/toolchain/bin/../lib/gcc/arm-none-eabi/4.7.4/../../../../arm-none-eabi/lib\libc_s.a(lib_a-vfprintf_float.o) (__aeabi_idiv)
c:/isis/application/toolchain/bin/../lib/gcc/arm-none-eabi/4.7.4\libgcc.a(_dvmd_tls.o)
                              c:/isis/application/toolchain/bin/../lib/gcc/arm-none-eabi/4.7.4\libgcc.a(_udivsi3.o) (__aeabi_idiv0)
c:/isis/application/toolchain/bin/../lib/gcc/arm-none-eabi/4.7.4\libgcc.a(_arm_addsubdf3.o)
                              c:/isis/application/toolchain/bin/../lib/gcc/arm-none-eabi/4.7.4/../../../../arm-none-eabi/lib\libc_s.a(lib_a-dtoa.o) (__aeabi_dsub)
c:/isis/application/toolchain/bin/../lib/gcc/arm-none-eabi/4.7.4\libgcc.a(_arm_muldivdf3.o)
                              c:/isis/application/toolchain/bin/../lib/gcc/arm-none-eabi/4.7.4/../../../../arm-none-eabi/lib\libc_s.a(lib_a-dtoa.o) (__aeabi_dmul)
c:/isis/application/toolchain/bin/../lib/gcc/arm-none-eabi/4.7.4\libgcc.a(_arm_cmpdf2.o)
                              c:/isis/application/toolchain/bin/../lib/gcc/arm-none-eabi/4.7.4/../../../../arm-none-eabi/lib\libc_s.a(lib_a-vfprintf_float.o) (__aeabi_dcmpeq)
c:/isis/application/toolchain/bin/../lib/gcc/arm-none-eabi/4.7.4\libgcc.a(_arm_fixdfsi.o)
                              c:/isis/application/toolchain/bin/../lib/gcc/arm-none-eabi/4.7.4/../../../../arm-none-eabi/lib\libc_s.a(lib_a-dtoa.o) (__aeabi_d2iz)
c:/isis/application/toolchain/bin/../lib/gcc/arm-none-eabi/4.7.4\libgcc.a(_arm_fixunsdfsi.o)
                              c:/isis/application/toolchain/bin/../lib/gcc/arm-none-eabi/4.7.4/../../../../arm-none-eabi/lib\libc_s.a(lib_a-strtod.o) (__aeabi_d2uiz)
c:/isis/application/toolchain/bin/../lib/gcc/arm-none-eabi/4.7.4\libgcc.a(_arm_truncdfsf2.o)
                              c:/isis/application/toolchain/bin/../lib/gcc/arm-none-eabi/4.7.4/../../../../arm-none-eabi/lib\libc_s.a(lib_a-vfscanf_float.o) (__aeabi_d2f)
c:/isis/application/toolchain/bin/../lib/gcc/arm-none-eabi/4.7.4\libgcc.a(_arm_addsubsf3.o)
                              C:/Hoopoe3/satellite-subsystems/demo/..//satellite-subsystems/lib\libSatelliteSubsystemsD.a(IsisTRXVU.o) (__aeabi_fadd)
c:/isis/application/toolchain/bin/../lib/gcc/arm-none-eabi/4.7.4\libgcc.a(_arm_muldivsf3.o)
                              ./src/sub-systemCode/Main/HouseKeeping.o (__aeabi_fmul)
c:/isis/application/toolchain/bin/../lib/gcc/arm-none-eabi/4.7.4\libgcc.a(_arm_fixsfsi.o)
                              ./src/sub-systemCode/Global/GlobalParam.o (__aeabi_f2iz)
c:/isis/application/toolchain/bin/../lib/gcc/arm-none-eabi/4.7.4\libgcc.a(_arm_fixunssfsi.o)
                              ./src/sub-systemCode/Main/HouseKeeping.o (__aeabi_f2uiz)
c:/isis/application/toolchain/bin/../lib/gcc/arm-none-eabi/4.7.4/../../../../arm-none-eabi/lib\libc_s.a(lib_a-errno.o)
                              c:/isis/application/toolchain/bin/../lib/gcc/arm-none-eabi/4.7.4/../../../../arm-none-eabi/lib\libm.a(lib_a-w_log.o) (__errno)
c:/isis/application/toolchain/bin/../lib/gcc/arm-none-eabi/4.7.4/../../../../arm-none-eabi/lib\libc_s.a(lib_a-memcmp.o)
                              ./src/sub-systemCode/Global/TM_managment.o (memcmp)
c:/isis/application/toolchain/bin/../lib/gcc/arm-none-eabi/4.7.4/../../../../arm-none-eabi/lib\libc_s.a(lib_a-printf.o)
                              ./src/sub-systemCode/Main/Ants.o (printf)
c:/isis/application/toolchain/bin/../lib/gcc/arm-none-eabi/4.7.4/../../../../arm-none-eabi/lib\libc_s.a(lib_a-puts.o)
                              ./src/sub-systemCode/Main/CMD/General_CMD.o (puts)
c:/isis/application/toolchain/bin/../lib/gcc/arm-none-eabi/4.7.4/../../../../arm-none-eabi/lib\libc_s.a(lib_a-strcpy.o)
                              ./src/sub-systemCode/Global/TM_managment.o (strcpy)
c:/isis/application/toolchain/bin/../lib/gcc/arm-none-eabi/4.7.4/../../../../arm-none-eabi/lib\libc_s.a(lib_a-vfprintf.o)
                              c:/isis/application/toolchain/bin/../lib/gcc/arm-none-eabi/4.7.4/../../../../arm-none-eabi/lib\libc_s.a(lib_a-printf.o) (_vfprintf_r)
c:/isis/application/toolchain/bin/../lib/gcc/arm-none-eabi/4.7.4/../../../../arm-none-eabi/lib\libc_s.a(lib_a-wbuf.o)
                              c:/isis/application/toolchain/bin/../lib/gcc/arm-none-eabi/4.7.4/../../../../arm-none-eabi/lib\libc_s.a(lib_a-vfprintf.o) (__swbuf_r)
c:/isis/application/toolchain/bin/../lib/gcc/arm-none-eabi/4.7.4/../../../../arm-none-eabi/lib\libc_s.a(lib_a-wsetup.o)
                              c:/isis/application/toolchain/bin/../lib/gcc/arm-none-eabi/4.7.4/../../../../arm-none-eabi/lib\libc_s.a(lib_a-vfprintf.o) (__swsetup_r)
c:/isis/application/toolchain/bin/../lib/gcc/arm-none-eabi/4.7.4/../../../../arm-none-eabi/lib\libc_s.a(lib_a-fflush.o)
                              c:/isis/application/toolchain/bin/../lib/gcc/arm-none-eabi/4.7.4/../../../../arm-none-eabi/lib\libc_s.a(lib_a-wbuf.o) (_fflush_r)
c:/isis/application/toolchain/bin/../lib/gcc/arm-none-eabi/4.7.4/../../../../arm-none-eabi/lib\libc_s.a(lib_a-findfp.o)
                              c:/isis/application/toolchain/bin/../lib/gcc/arm-none-eabi/4.7.4/../../../../arm-none-eabi/lib\libc_s.a(lib_a-printf.o) (__sinit)
c:/isis/application/toolchain/bin/../lib/gcc/arm-none-eabi/4.7.4/../../../../arm-none-eabi/lib\libc_s.a(lib_a-fputwc.o)
                              c:/isis/application/toolchain/bin/../lib/gcc/arm-none-eabi/4.7.4/../../../../arm-none-eabi/lib\libc_s.a(lib_a-vfprintf.o) (_fputwc_r)
c:/isis/application/toolchain/bin/../lib/gcc/arm-none-eabi/4.7.4/../../../../arm-none-eabi/lib\libc_s.a(lib_a-fvwrite.o)
                              c:/isis/application/toolchain/bin/../lib/gcc/arm-none-eabi/4.7.4/../../../../arm-none-eabi/lib\libc_s.a(lib_a-vfprintf.o) (__sfvwrite_r)
c:/isis/application/toolchain/bin/../lib/gcc/arm-none-eabi/4.7.4/../../../../arm-none-eabi/lib\libc_s.a(lib_a-fwalk.o)
                              c:/isis/application/toolchain/bin/../lib/gcc/arm-none-eabi/4.7.4/../../../../arm-none-eabi/lib\libc_s.a(lib_a-findfp.o) (_fwalk)
c:/isis/application/toolchain/bin/../lib/gcc/arm-none-eabi/4.7.4/../../../../arm-none-eabi/lib\libc_s.a(lib_a-makebuf.o)
                              c:/isis/application/toolchain/bin/../lib/gcc/arm-none-eabi/4.7.4/../../../../arm-none-eabi/lib\libc_s.a(lib_a-wsetup.o) (__smakebuf_r)
c:/isis/application/toolchain/bin/../lib/gcc/arm-none-eabi/4.7.4/../../../../arm-none-eabi/lib\libc_s.a(lib_a-putc.o)
                              c:/isis/application/toolchain/bin/../lib/gcc/arm-none-eabi/4.7.4/../../../../arm-none-eabi/lib\libc_s.a(lib_a-puts.o) (_putc_r)
c:/isis/application/toolchain/bin/../lib/gcc/arm-none-eabi/4.7.4/../../../../arm-none-eabi/lib\libc_s.a(lib_a-stdio.o)
                              c:/isis/application/toolchain/bin/../lib/gcc/arm-none-eabi/4.7.4/../../../../arm-none-eabi/lib\libc_s.a(lib_a-findfp.o) (__sread)
c:/isis/application/toolchain/bin/../lib/gcc/arm-none-eabi/4.7.4/../../../../arm-none-eabi/lib\libc_s.a(lib_a-wcrtomb.o)
                              c:/isis/application/toolchain/bin/../lib/gcc/arm-none-eabi/4.7.4/../../../../arm-none-eabi/lib\libc_s.a(lib_a-fputwc.o) (_wcrtomb_r)
c:/isis/application/toolchain/bin/../lib/gcc/arm-none-eabi/4.7.4/../../../../arm-none-eabi/lib\libc_s.a(lib_a-wctomb_r.o)
                              c:/isis/application/toolchain/bin/../lib/gcc/arm-none-eabi/4.7.4/../../../../arm-none-eabi/lib\libc_s.a(lib_a-wcrtomb.o) (__wctomb)
c:/isis/application/toolchain/bin/../lib/gcc/arm-none-eabi/4.7.4/../../../../arm-none-eabi/lib\libc_s.a(lib_a-writer.o)
                              c:/isis/application/toolchain/bin/../lib/gcc/arm-none-eabi/4.7.4/../../../../arm-none-eabi/lib\libc_s.a(lib_a-stdio.o) (_write_r)
c:/isis/application/toolchain/bin/../lib/gcc/arm-none-eabi/4.7.4/../../../../arm-none-eabi/lib\libc_s.a(lib_a-closer.o)
                              c:/isis/application/toolchain/bin/../lib/gcc/arm-none-eabi/4.7.4/../../../../arm-none-eabi/lib\libc_s.a(lib_a-stdio.o) (_close_r)
c:/isis/application/toolchain/bin/../lib/gcc/arm-none-eabi/4.7.4/../../../../arm-none-eabi/lib\libc_s.a(lib_a-fstatr.o)
                              c:/isis/application/toolchain/bin/../lib/gcc/arm-none-eabi/4.7.4/../../../../arm-none-eabi/lib\libc_s.a(lib_a-makebuf.o) (_fstat_r)
c:/isis/application/toolchain/bin/../lib/gcc/arm-none-eabi/4.7.4/../../../../arm-none-eabi/lib\libc_s.a(lib_a-isattyr.o)
                              c:/isis/application/toolchain/bin/../lib/gcc/arm-none-eabi/4.7.4/../../../../arm-none-eabi/lib\libc_s.a(lib_a-makebuf.o) (_isatty_r)
c:/isis/application/toolchain/bin/../lib/gcc/arm-none-eabi/4.7.4/../../../../arm-none-eabi/lib\libc_s.a(lib_a-lseekr.o)
                              c:/isis/application/toolchain/bin/../lib/gcc/arm-none-eabi/4.7.4/../../../../arm-none-eabi/lib\libc_s.a(lib_a-stdio.o) (_lseek_r)
c:/isis/application/toolchain/bin/../lib/gcc/arm-none-eabi/4.7.4/../../../../arm-none-eabi/lib\libc_s.a(lib_a-readr.o)
                              c:/isis/application/toolchain/bin/../lib/gcc/arm-none-eabi/4.7.4/../../../../arm-none-eabi/lib\libc_s.a(lib_a-stdio.o) (_read_r)

Allocating common symbols
Common symbol       size              file

g_fatmutex          0x4               C:/Hoopoe3/satellite-subsystems/demo/../..//hal/hcc/lib\libHCCD.a(fat_common.o)
onlineTM_list       0x156             ./src/sub-systemCode/Global/OnlineTM.o
ST                  0x4               ./src/sub-systemCode/Main/Main_Init.o
current_global_param
                    0x3a              ./src/sub-systemCode/Global/GlobalParam.o
errno               0x4               c:/isis/application/toolchain/bin/../lib/gcc/arm-none-eabi/4.7.4/../../../../arm-none-eabi/lib\libc_s.a(lib_a-reent.o)
not_first_activation
                    0x4               ./src/sub-systemCode/Global/Global.o
g_multi             0x10a0            C:/Hoopoe3/satellite-subsystems/demo/../..//hal/hcc/lib\libHCCD.a(fat_common.o)
xQueueRegistry      0x100             C:/Hoopoe3/satellite-subsystems/demo/../..//hal/freertos/lib\libFreeRTOSD.a(queue.o)
__hexdig            0x100             c:/isis/application/toolchain/bin/../lib/gcc/arm-none-eabi/4.7.4/../../../../arm-none-eabi/lib\libc_s.a(lib_a-gdtoa-gethex.o)
allow_transponder   0x4               ./src/sub-systemCode/COMM/TRXVU.o
onlineTM_save_list  0x4               ./src/sub-systemCode/Global/OnlineTM.o
xBeaconTask         0x4               ./src/sub-systemCode/COMM/TRXVU.o
xDumpQueue          0x4               ./src/sub-systemCode/Main/CMD/COMM_CMD.o
f_format_progress   0x4               C:/Hoopoe3/satellite-subsystems/demo/../..//hal/hcc/lib\libHCCD.a(fat_common.o)
command_to_execute  0xfa0             ./src/sub-systemCode/Main/commands.o
VBatt_previous      0x2               ./src/sub-systemCode/Main/EPS.o
xIsTransmitting     0x4               ./src/sub-systemCode/COMM/TRXVU.o
switches_states     0x1               ./src/sub-systemCode/Main/EPS.o
batteryLastMode     0x1               ./src/sub-systemCode/Main/EPS.o
enterMode           0x20              ./src/sub-systemCode/Main/EPS.o
xTransponderHandle  0x4               ./src/sub-systemCode/Main/CMD/COMM_CMD.o
xTransponderQueue   0x4               ./src/sub-systemCode/Main/CMD/COMM_CMD.o
xDumpHandle         0x4               ./src/sub-systemCode/Main/CMD/COMM_CMD.o

Discarded input sections

 .text          0x00000000        0x0 c:/isis/application/toolchain/bin/../lib/gcc/arm-none-eabi/4.7.4/../../../../arm-none-eabi/lib\libc_s.a(lib_a-vfprintf_float.o)
 .data          0x00000000        0x0 c:/isis/application/toolchain/bin/../lib/gcc/arm-none-eabi/4.7.4/../../../../arm-none-eabi/lib\libc_s.a(lib_a-vfprintf_float.o)
 .bss           0x00000000        0x0 c:/isis/application/toolchain/bin/../lib/gcc/arm-none-eabi/4.7.4/../../../../arm-none-eabi/lib\libc_s.a(lib_a-vfprintf_float.o)
 .text          0x00000000        0x0 c:/isis/application/toolchain/bin/../lib/gcc/arm-none-eabi/4.7.4/../../../../arm-none-eabi/lib\libc_s.a(lib_a-vfprintf_i.o)
 .data          0x00000000        0x0 c:/isis/application/toolchain/bin/../lib/gcc/arm-none-eabi/4.7.4/../../../../arm-none-eabi/lib\libc_s.a(lib_a-vfprintf_i.o)
 .bss           0x00000000        0x0 c:/isis/application/toolchain/bin/../lib/gcc/arm-none-eabi/4.7.4/../../../../arm-none-eabi/lib\libc_s.a(lib_a-vfprintf_i.o)
 .text          0x00000000        0x0 c:/isis/application/toolchain/bin/../lib/gcc/arm-none-eabi/4.7.4/../../../../arm-none-eabi/lib\libc_s.a(lib_a-vfscanf_float.o)
 .data          0x00000000        0x0 c:/isis/application/toolchain/bin/../lib/gcc/arm-none-eabi/4.7.4/../../../../arm-none-eabi/lib\libc_s.a(lib_a-vfscanf_float.o)
 .bss           0x00000000        0x0 c:/isis/application/toolchain/bin/../lib/gcc/arm-none-eabi/4.7.4/../../../../arm-none-eabi/lib\libc_s.a(lib_a-vfscanf_float.o)
 .text          0x00000000        0x0 c:/isis/application/toolchain/bin/../lib/gcc/arm-none-eabi/4.7.4/../../../../arm-none-eabi/lib\libc_s.a(lib_a-dtoa.o)
 .data          0x00000000        0x0 c:/isis/application/toolchain/bin/../lib/gcc/arm-none-eabi/4.7.4/../../../../arm-none-eabi/lib\libc_s.a(lib_a-dtoa.o)
 .bss           0x00000000        0x0 c:/isis/application/toolchain/bin/../lib/gcc/arm-none-eabi/4.7.4/../../../../arm-none-eabi/lib\libc_s.a(lib_a-dtoa.o)
 .text          0x00000000        0x0 c:/isis/application/toolchain/bin/../lib/gcc/arm-none-eabi/4.7.4/../../../../arm-none-eabi/lib\libc_s.a(lib_a-locale.o)
 .data          0x00000000        0x0 c:/isis/application/toolchain/bin/../lib/gcc/arm-none-eabi/4.7.4/../../../../arm-none-eabi/lib\libc_s.a(lib_a-locale.o)
 .bss           0x00000000        0x0 c:/isis/application/toolchain/bin/../lib/gcc/arm-none-eabi/4.7.4/../../../../arm-none-eabi/lib\libc_s.a(lib_a-locale.o)
 .text._setlocale_r
                0x00000000       0x6c c:/isis/application/toolchain/bin/../lib/gcc/arm-none-eabi/4.7.4/../../../../arm-none-eabi/lib\libc_s.a(lib_a-locale.o)
 .text.__locale_charset
                0x00000000        0xc c:/isis/application/toolchain/bin/../lib/gcc/arm-none-eabi/4.7.4/../../../../arm-none-eabi/lib\libc_s.a(lib_a-locale.o)
 .text.__locale_mb_cur_max
                0x00000000       0x10 c:/isis/application/toolchain/bin/../lib/gcc/arm-none-eabi/4.7.4/../../../../arm-none-eabi/lib\libc_s.a(lib_a-locale.o)
 .text.__locale_msgcharset
                0x00000000        0xc c:/isis/application/toolchain/bin/../lib/gcc/arm-none-eabi/4.7.4/../../../../arm-none-eabi/lib\libc_s.a(lib_a-locale.o)
 .text.__locale_cjk_lang
                0x00000000        0x8 c:/isis/application/toolchain/bin/../lib/gcc/arm-none-eabi/4.7.4/../../../../arm-none-eabi/lib\libc_s.a(lib_a-locale.o)
 .text.setlocale
                0x00000000       0x1c c:/isis/application/toolchain/bin/../lib/gcc/arm-none-eabi/4.7.4/../../../../arm-none-eabi/lib\libc_s.a(lib_a-locale.o)
 .text.localeconv
                0x00000000        0xc c:/isis/application/toolchain/bin/../lib/gcc/arm-none-eabi/4.7.4/../../../../arm-none-eabi/lib\libc_s.a(lib_a-locale.o)
 .data.lc_message_charset
                0x00000000       0x20 c:/isis/application/toolchain/bin/../lib/gcc/arm-none-eabi/4.7.4/../../../../arm-none-eabi/lib\libc_s.a(lib_a-locale.o)
 .bss._PathLocale
                0x00000000        0x4 c:/isis/application/toolchain/bin/../lib/gcc/arm-none-eabi/4.7.4/../../../../arm-none-eabi/lib\libc_s.a(lib_a-locale.o)
 .bss.__nlocale_changed
                0x00000000        0x4 c:/isis/application/toolchain/bin/../lib/gcc/arm-none-eabi/4.7.4/../../../../arm-none-eabi/lib\libc_s.a(lib_a-locale.o)
 .bss.__mlocale_changed
                0x00000000        0x4 c:/isis/application/toolchain/bin/../lib/gcc/arm-none-eabi/4.7.4/../../../../arm-none-eabi/lib\libc_s.a(lib_a-locale.o)
 .data.lc_ctype_charset
                0x00000000       0x20 c:/isis/application/toolchain/bin/../lib/gcc/arm-none-eabi/4.7.4/../../../../arm-none-eabi/lib\libc_s.a(lib_a-locale.o)
 .data.__mb_cur_max
                0x00000000        0x4 c:/isis/application/toolchain/bin/../lib/gcc/arm-none-eabi/4.7.4/../../../../arm-none-eabi/lib\libc_s.a(lib_a-locale.o)
 .text          0x00000000        0x0 c:/isis/application/toolchain/bin/../lib/gcc/arm-none-eabi/4.7.4/../../../../arm-none-eabi/lib\libc_s.a(lib_a-malloc.o)
 .data          0x00000000        0x0 c:/isis/application/toolchain/bin/../lib/gcc/arm-none-eabi/4.7.4/../../../../arm-none-eabi/lib\libc_s.a(lib_a-malloc.o)
 .bss           0x00000000        0x0 c:/isis/application/toolchain/bin/../lib/gcc/arm-none-eabi/4.7.4/../../../../arm-none-eabi/lib\libc_s.a(lib_a-malloc.o)
 .text          0x00000000        0x0 c:/isis/application/toolchain/bin/../lib/gcc/arm-none-eabi/4.7.4/../../../../arm-none-eabi/lib\libc_s.a(lib_a-mallocr.o)
 .data          0x00000000        0x0 c:/isis/application/toolchain/bin/../lib/gcc/arm-none-eabi/4.7.4/../../../../arm-none-eabi/lib\libc_s.a(lib_a-mallocr.o)
 .bss           0x00000000        0x0 c:/isis/application/toolchain/bin/../lib/gcc/arm-none-eabi/4.7.4/../../../../arm-none-eabi/lib\libc_s.a(lib_a-mallocr.o)
 .text          0x00000000        0x0 c:/isis/application/toolchain/bin/../lib/gcc/arm-none-eabi/4.7.4/../../../../arm-none-eabi/lib\libc_s.a(lib_a-memcpy.o)
 .data          0x00000000        0x0 c:/isis/application/toolchain/bin/../lib/gcc/arm-none-eabi/4.7.4/../../../../arm-none-eabi/lib\libc_s.a(lib_a-memcpy.o)
 .bss           0x00000000        0x0 c:/isis/application/toolchain/bin/../lib/gcc/arm-none-eabi/4.7.4/../../../../arm-none-eabi/lib\libc_s.a(lib_a-memcpy.o)
 .text          0x00000000        0x0 c:/isis/application/toolchain/bin/../lib/gcc/arm-none-eabi/4.7.4/../../../../arm-none-eabi/lib\libc_s.a(lib_a-mprec.o)
 .data          0x00000000        0x0 c:/isis/application/toolchain/bin/../lib/gcc/arm-none-eabi/4.7.4/../../../../arm-none-eabi/lib\libc_s.a(lib_a-mprec.o)
 .bss           0x00000000        0x0 c:/isis/application/toolchain/bin/../lib/gcc/arm-none-eabi/4.7.4/../../../../arm-none-eabi/lib\libc_s.a(lib_a-mprec.o)
 .text._mprec_log10
                0x00000000       0x4c c:/isis/application/toolchain/bin/../lib/gcc/arm-none-eabi/4.7.4/../../../../arm-none-eabi/lib\libc_s.a(lib_a-mprec.o)
 .rodata.__mprec_tinytens
                0x00000000       0x28 c:/isis/application/toolchain/bin/../lib/gcc/arm-none-eabi/4.7.4/../../../../arm-none-eabi/lib\libc_s.a(lib_a-mprec.o)
 .text          0x00000000        0x0 c:/isis/application/toolchain/bin/../lib/gcc/arm-none-eabi/4.7.4/../../../../arm-none-eabi/lib\libc_s.a(lib_a-s_fpclassify.o)
 .data          0x00000000        0x0 c:/isis/application/toolchain/bin/../lib/gcc/arm-none-eabi/4.7.4/../../../../arm-none-eabi/lib\libc_s.a(lib_a-s_fpclassify.o)
 .bss           0x00000000        0x0 c:/isis/application/toolchain/bin/../lib/gcc/arm-none-eabi/4.7.4/../../../../arm-none-eabi/lib\libc_s.a(lib_a-s_fpclassify.o)
 .text          0x00000000        0x0 c:/isis/application/toolchain/bin/../lib/gcc/arm-none-eabi/4.7.4/../../../../arm-none-eabi/lib\libc_s.a(lib_a-sbrkr.o)
 .data          0x00000000        0x0 c:/isis/application/toolchain/bin/../lib/gcc/arm-none-eabi/4.7.4/../../../../arm-none-eabi/lib\libc_s.a(lib_a-sbrkr.o)
 .bss           0x00000000        0x0 c:/isis/application/toolchain/bin/../lib/gcc/arm-none-eabi/4.7.4/../../../../arm-none-eabi/lib\libc_s.a(lib_a-sbrkr.o)
 .text          0x00000000        0x0 c:/isis/application/toolchain/bin/../lib/gcc/arm-none-eabi/4.7.4/../../../../arm-none-eabi/lib\libc_s.a(lib_a-sf_nan.o)
 .data          0x00000000        0x0 c:/isis/application/toolchain/bin/../lib/gcc/arm-none-eabi/4.7.4/../../../../arm-none-eabi/lib\libc_s.a(lib_a-sf_nan.o)
 .bss           0x00000000        0x0 c:/isis/application/toolchain/bin/../lib/gcc/arm-none-eabi/4.7.4/../../../../arm-none-eabi/lib\libc_s.a(lib_a-sf_nan.o)
 .text          0x00000000        0x0 c:/isis/application/toolchain/bin/../lib/gcc/arm-none-eabi/4.7.4/../../../../arm-none-eabi/lib\libc_s.a(lib_a-sprintf.o)
 .data          0x00000000        0x0 c:/isis/application/toolchain/bin/../lib/gcc/arm-none-eabi/4.7.4/../../../../arm-none-eabi/lib\libc_s.a(lib_a-sprintf.o)
 .bss           0x00000000        0x0 c:/isis/application/toolchain/bin/../lib/gcc/arm-none-eabi/4.7.4/../../../../arm-none-eabi/lib\libc_s.a(lib_a-sprintf.o)
 .text._sprintf_r
                0x00000000       0x60 c:/isis/application/toolchain/bin/../lib/gcc/arm-none-eabi/4.7.4/../../../../arm-none-eabi/lib\libc_s.a(lib_a-sprintf.o)
 .text          0x00000000        0x0 c:/isis/application/toolchain/bin/../lib/gcc/arm-none-eabi/4.7.4/../../../../arm-none-eabi/lib\libc_s.a(lib_a-strcmp.o)
 .data          0x00000000        0x0 c:/isis/application/toolchain/bin/../lib/gcc/arm-none-eabi/4.7.4/../../../../arm-none-eabi/lib\libc_s.a(lib_a-strcmp.o)
 .bss           0x00000000        0x0 c:/isis/application/toolchain/bin/../lib/gcc/arm-none-eabi/4.7.4/../../../../arm-none-eabi/lib\libc_s.a(lib_a-strcmp.o)
 .text          0x00000000        0x0 c:/isis/application/toolchain/bin/../lib/gcc/arm-none-eabi/4.7.4/../../../../arm-none-eabi/lib\libc_s.a(lib_a-strlen.o)
 .data          0x00000000        0x0 c:/isis/application/toolchain/bin/../lib/gcc/arm-none-eabi/4.7.4/../../../../arm-none-eabi/lib\libc_s.a(lib_a-strlen.o)
 .bss           0x00000000        0x0 c:/isis/application/toolchain/bin/../lib/gcc/arm-none-eabi/4.7.4/../../../../arm-none-eabi/lib\libc_s.a(lib_a-strlen.o)
 .text          0x00000000        0x0 c:/isis/application/toolchain/bin/../lib/gcc/arm-none-eabi/4.7.4/../../../../arm-none-eabi/lib\libc_s.a(lib_a-strtod.o)
 .data          0x00000000        0x0 c:/isis/application/toolchain/bin/../lib/gcc/arm-none-eabi/4.7.4/../../../../arm-none-eabi/lib\libc_s.a(lib_a-strtod.o)
 .bss           0x00000000        0x0 c:/isis/application/toolchain/bin/../lib/gcc/arm-none-eabi/4.7.4/../../../../arm-none-eabi/lib\libc_s.a(lib_a-strtod.o)
 .text.strtod   0x00000000       0x1c c:/isis/application/toolchain/bin/../lib/gcc/arm-none-eabi/4.7.4/../../../../arm-none-eabi/lib\libc_s.a(lib_a-strtod.o)
 .text.strtof   0x00000000       0x50 c:/isis/application/toolchain/bin/../lib/gcc/arm-none-eabi/4.7.4/../../../../arm-none-eabi/lib\libc_s.a(lib_a-strtod.o)
 .text          0x00000000        0x0 c:/isis/application/toolchain/bin/../lib/gcc/arm-none-eabi/4.7.4/../../../../arm-none-eabi/lib\libc_s.a(lib_a-strtol.o)
 .data          0x00000000        0x0 c:/isis/application/toolchain/bin/../lib/gcc/arm-none-eabi/4.7.4/../../../../arm-none-eabi/lib\libc_s.a(lib_a-strtol.o)
 .bss           0x00000000        0x0 c:/isis/application/toolchain/bin/../lib/gcc/arm-none-eabi/4.7.4/../../../../arm-none-eabi/lib\libc_s.a(lib_a-strtol.o)
 .text.strtol   0x00000000       0x2c c:/isis/application/toolchain/bin/../lib/gcc/arm-none-eabi/4.7.4/../../../../arm-none-eabi/lib\libc_s.a(lib_a-strtol.o)
 .text          0x00000000        0x0 c:/isis/application/toolchain/bin/../lib/gcc/arm-none-eabi/4.7.4/../../../../arm-none-eabi/lib\libc_s.a(lib_a-svfprintf.o)
 .data          0x00000000        0x0 c:/isis/application/toolchain/bin/../lib/gcc/arm-none-eabi/4.7.4/../../../../arm-none-eabi/lib\libc_s.a(lib_a-svfprintf.o)
 .bss           0x00000000        0x0 c:/isis/application/toolchain/bin/../lib/gcc/arm-none-eabi/4.7.4/../../../../arm-none-eabi/lib\libc_s.a(lib_a-svfprintf.o)
 .text.__ssprint_r
                0x00000000      0x184 c:/isis/application/toolchain/bin/../lib/gcc/arm-none-eabi/4.7.4/../../../../arm-none-eabi/lib\libc_s.a(lib_a-svfprintf.o)
 .text          0x00000000        0x0 c:/isis/application/toolchain/bin/../lib/gcc/arm-none-eabi/4.7.4/../../../../arm-none-eabi/lib\libc_s.a(lib_a-callocr.o)
 .data          0x00000000        0x0 c:/isis/application/toolchain/bin/../lib/gcc/arm-none-eabi/4.7.4/../../../../arm-none-eabi/lib\libc_s.a(lib_a-callocr.o)
 .bss           0x00000000        0x0 c:/isis/application/toolchain/bin/../lib/gcc/arm-none-eabi/4.7.4/../../../../arm-none-eabi/lib\libc_s.a(lib_a-callocr.o)
 .text          0x00000000        0x0 c:/isis/application/toolchain/bin/../lib/gcc/arm-none-eabi/4.7.4/../../../../arm-none-eabi/lib\libc_s.a(lib_a-ctype_.o)
 .data          0x00000000        0x0 c:/isis/application/toolchain/bin/../lib/gcc/arm-none-eabi/4.7.4/../../../../arm-none-eabi/lib\libc_s.a(lib_a-ctype_.o)
 .bss           0x00000000        0x0 c:/isis/application/toolchain/bin/../lib/gcc/arm-none-eabi/4.7.4/../../../../arm-none-eabi/lib\libc_s.a(lib_a-ctype_.o)
 .text          0x00000000        0x0 c:/isis/application/toolchain/bin/../lib/gcc/arm-none-eabi/4.7.4/../../../../arm-none-eabi/lib\libc_s.a(lib_a-freer.o)
 .data          0x00000000        0x0 c:/isis/application/toolchain/bin/../lib/gcc/arm-none-eabi/4.7.4/../../../../arm-none-eabi/lib\libc_s.a(lib_a-freer.o)
 .bss           0x00000000        0x0 c:/isis/application/toolchain/bin/../lib/gcc/arm-none-eabi/4.7.4/../../../../arm-none-eabi/lib\libc_s.a(lib_a-freer.o)
 .text          0x00000000        0x0 c:/isis/application/toolchain/bin/../lib/gcc/arm-none-eabi/4.7.4/../../../../arm-none-eabi/lib\libc_s.a(lib_a-gdtoa-gethex.o)
 .data          0x00000000        0x0 c:/isis/application/toolchain/bin/../lib/gcc/arm-none-eabi/4.7.4/../../../../arm-none-eabi/lib\libc_s.a(lib_a-gdtoa-gethex.o)
 .bss           0x00000000        0x0 c:/isis/application/toolchain/bin/../lib/gcc/arm-none-eabi/4.7.4/../../../../arm-none-eabi/lib\libc_s.a(lib_a-gdtoa-gethex.o)
 .text          0x00000000        0x0 c:/isis/application/toolchain/bin/../lib/gcc/arm-none-eabi/4.7.4/../../../../arm-none-eabi/lib\libc_s.a(lib_a-gdtoa-hexnan.o)
 .data          0x00000000        0x0 c:/isis/application/toolchain/bin/../lib/gcc/arm-none-eabi/4.7.4/../../../../arm-none-eabi/lib\libc_s.a(lib_a-gdtoa-hexnan.o)
 .bss           0x00000000        0x0 c:/isis/application/toolchain/bin/../lib/gcc/arm-none-eabi/4.7.4/../../../../arm-none-eabi/lib\libc_s.a(lib_a-gdtoa-hexnan.o)
 .text          0x00000000        0x0 c:/isis/application/toolchain/bin/../lib/gcc/arm-none-eabi/4.7.4/../../../../arm-none-eabi/lib\libc_s.a(lib_a-impure.o)
 .data          0x00000000        0x0 c:/isis/application/toolchain/bin/../lib/gcc/arm-none-eabi/4.7.4/../../../../arm-none-eabi/lib\libc_s.a(lib_a-impure.o)
 .bss           0x00000000        0x0 c:/isis/application/toolchain/bin/../lib/gcc/arm-none-eabi/4.7.4/../../../../arm-none-eabi/lib\libc_s.a(lib_a-impure.o)
 .text          0x00000000        0x0 c:/isis/application/toolchain/bin/../lib/gcc/arm-none-eabi/4.7.4/../../../../arm-none-eabi/lib\libc_s.a(lib_a-memchr.o)
 .data          0x00000000        0x0 c:/isis/application/toolchain/bin/../lib/gcc/arm-none-eabi/4.7.4/../../../../arm-none-eabi/lib\libc_s.a(lib_a-memchr.o)
 .bss           0x00000000        0x0 c:/isis/application/toolchain/bin/../lib/gcc/arm-none-eabi/4.7.4/../../../../arm-none-eabi/lib\libc_s.a(lib_a-memchr.o)
 .text          0x00000000        0x0 c:/isis/application/toolchain/bin/../lib/gcc/arm-none-eabi/4.7.4/../../../../arm-none-eabi/lib\libc_s.a(lib_a-memmove.o)
 .data          0x00000000        0x0 c:/isis/application/toolchain/bin/../lib/gcc/arm-none-eabi/4.7.4/../../../../arm-none-eabi/lib\libc_s.a(lib_a-memmove.o)
 .bss           0x00000000        0x0 c:/isis/application/toolchain/bin/../lib/gcc/arm-none-eabi/4.7.4/../../../../arm-none-eabi/lib\libc_s.a(lib_a-memmove.o)
 .text.memmove  0x00000000       0x64 c:/isis/application/toolchain/bin/../lib/gcc/arm-none-eabi/4.7.4/../../../../arm-none-eabi/lib\libc_s.a(lib_a-memmove.o)
 .ARM.attributes
                0x00000000       0x30 c:/isis/application/toolchain/bin/../lib/gcc/arm-none-eabi/4.7.4/../../../../arm-none-eabi/lib\libc_s.a(lib_a-memmove.o)
 .debug_frame   0x00000000       0x28 c:/isis/application/toolchain/bin/../lib/gcc/arm-none-eabi/4.7.4/../../../../arm-none-eabi/lib\libc_s.a(lib_a-memmove.o)
 .text          0x00000000        0x0 c:/isis/application/toolchain/bin/../lib/gcc/arm-none-eabi/4.7.4/../../../../arm-none-eabi/lib\libc_s.a(lib_a-memset.o)
 .data          0x00000000        0x0 c:/isis/application/toolchain/bin/../lib/gcc/arm-none-eabi/4.7.4/../../../../arm-none-eabi/lib\libc_s.a(lib_a-memset.o)
 .bss           0x00000000        0x0 c:/isis/application/toolchain/bin/../lib/gcc/arm-none-eabi/4.7.4/../../../../arm-none-eabi/lib\libc_s.a(lib_a-memset.o)
 .text          0x00000000        0x0 c:/isis/application/toolchain/bin/../lib/gcc/arm-none-eabi/4.7.4/../../../../arm-none-eabi/lib\libc_s.a(lib_a-reallocr.o)
 .data          0x00000000        0x0 c:/isis/application/toolchain/bin/../lib/gcc/arm-none-eabi/4.7.4/../../../../arm-none-eabi/lib\libc_s.a(lib_a-reallocr.o)
 .bss           0x00000000        0x0 c:/isis/application/toolchain/bin/../lib/gcc/arm-none-eabi/4.7.4/../../../../arm-none-eabi/lib\libc_s.a(lib_a-reallocr.o)
 .text          0x00000000        0x0 c:/isis/application/toolchain/bin/../lib/gcc/arm-none-eabi/4.7.4/../../../../arm-none-eabi/lib\libc_s.a(lib_a-reent.o)
 .data          0x00000000        0x0 c:/isis/application/toolchain/bin/../lib/gcc/arm-none-eabi/4.7.4/../../../../arm-none-eabi/lib\libc_s.a(lib_a-reent.o)
 .bss           0x00000000        0x0 c:/isis/application/toolchain/bin/../lib/gcc/arm-none-eabi/4.7.4/../../../../arm-none-eabi/lib\libc_s.a(lib_a-reent.o)
 .text.cleanup_glue
                0x00000000       0x2c c:/isis/application/toolchain/bin/../lib/gcc/arm-none-eabi/4.7.4/../../../../arm-none-eabi/lib\libc_s.a(lib_a-reent.o)
 .text._reclaim_reent
                0x00000000      0x13c c:/isis/application/toolchain/bin/../lib/gcc/arm-none-eabi/4.7.4/../../../../arm-none-eabi/lib\libc_s.a(lib_a-reent.o)
 .text._wrapup_reent
                0x00000000       0x5c c:/isis/application/toolchain/bin/../lib/gcc/arm-none-eabi/4.7.4/../../../../arm-none-eabi/lib\libc_s.a(lib_a-reent.o)
 .text          0x00000000        0x0 c:/isis/application/toolchain/bin/../lib/gcc/arm-none-eabi/4.7.4/../../../../arm-none-eabi/lib\libc_s.a(lib_a-strncmp.o)
 .data          0x00000000        0x0 c:/isis/application/toolchain/bin/../lib/gcc/arm-none-eabi/4.7.4/../../../../arm-none-eabi/lib\libc_s.a(lib_a-strncmp.o)
 .bss           0x00000000        0x0 c:/isis/application/toolchain/bin/../lib/gcc/arm-none-eabi/4.7.4/../../../../arm-none-eabi/lib\libc_s.a(lib_a-strncmp.o)
 .text          0x00000000        0x0 c:/isis/application/toolchain/bin/../lib/gcc/arm-none-eabi/4.7.4/../../../../arm-none-eabi/lib\libc_s.a(lib_a-msizer.o)
 .data          0x00000000        0x0 c:/isis/application/toolchain/bin/../lib/gcc/arm-none-eabi/4.7.4/../../../../arm-none-eabi/lib\libc_s.a(lib_a-msizer.o)
 .bss           0x00000000        0x0 c:/isis/application/toolchain/bin/../lib/gcc/arm-none-eabi/4.7.4/../../../../arm-none-eabi/lib\libc_s.a(lib_a-msizer.o)
 .text          0x00000000        0x0 ./src/sub-systemCode/Main/CMD/COMM_CMD.o
 .data          0x00000000        0x0 ./src/sub-systemCode/Main/CMD/COMM_CMD.o
 .bss           0x00000000        0x0 ./src/sub-systemCode/Main/CMD/COMM_CMD.o
 .text          0x00000000        0x0 ./src/sub-systemCode/Main/CMD/EPS_CMD.o
 .data          0x00000000        0x0 ./src/sub-systemCode/Main/CMD/EPS_CMD.o
 .bss           0x00000000        0x0 ./src/sub-systemCode/Main/CMD/EPS_CMD.o
 .text          0x00000000        0x0 ./src/sub-systemCode/Main/CMD/General_CMD.o
 .data          0x00000000        0x0 ./src/sub-systemCode/Main/CMD/General_CMD.o
 .bss           0x00000000        0x0 ./src/sub-systemCode/Main/CMD/General_CMD.o
 .text.cmd_deploy_ants
                0x00000000       0x20 ./src/sub-systemCode/Main/CMD/General_CMD.o
 .text          0x00000000        0x0 ./src/sub-systemCode/Main/CMD/SW_CMD.o
 .data          0x00000000        0x0 ./src/sub-systemCode/Main/CMD/SW_CMD.o
 .bss           0x00000000        0x0 ./src/sub-systemCode/Main/CMD/SW_CMD.o
 .text          0x00000000        0x0 ./src/sub-systemCode/Main/CMD/payload_CMD.o
 .data          0x00000000        0x0 ./src/sub-systemCode/Main/CMD/payload_CMD.o
 .bss           0x00000000        0x0 ./src/sub-systemCode/Main/CMD/payload_CMD.o
 .debug_line    0x00000000        0x0 ./src/sub-systemCode/Main/CMD/payload_CMD.o
 .comment       0x00000000       0x71 ./src/sub-systemCode/Main/CMD/payload_CMD.o
 .ARM.attributes
                0x00000000       0x32 ./src/sub-systemCode/Main/CMD/payload_CMD.o
 .text          0x00000000        0x0 ./src/sub-systemCode/Main/Ants.o
 .data          0x00000000        0x0 ./src/sub-systemCode/Main/Ants.o
 .bss           0x00000000        0x0 ./src/sub-systemCode/Main/Ants.o
 .text.init_Ants
                0x00000000       0x50 ./src/sub-systemCode/Main/Ants.o
 .text.deploye_ants
                0x00000000       0x34 ./src/sub-systemCode/Main/Ants.o
 .text.time_out_before_deploy
                0x00000000      0x16c ./src/sub-systemCode/Main/Ants.o
 .text.Auto_Deploy
                0x00000000       0x90 ./src/sub-systemCode/Main/Ants.o
 .text          0x00000000        0x0 ./src/sub-systemCode/Main/EPS.o
 .bss           0x00000000        0x0 ./src/sub-systemCode/Main/EPS.o
 .text.WriteCurrentTelemetry
                0x00000000      0x104 ./src/sub-systemCode/Main/EPS.o
 .text.convert_raw_voltage
                0x00000000       0xd8 ./src/sub-systemCode/Main/EPS.o
 .text          0x00000000        0x0 ./src/sub-systemCode/Main/HouseKeeping.o
 .data          0x00000000        0x0 ./src/sub-systemCode/Main/HouseKeeping.o
 .bss           0x00000000        0x0 ./src/sub-systemCode/Main/HouseKeeping.o
 .text.ADCS_HK_collect
                0x00000000       0x40 ./src/sub-systemCode/Main/HouseKeeping.o
 .text.ADCS_create_file
                0x00000000       0x54 ./src/sub-systemCode/Main/HouseKeeping.o
 .text.save_ADCS_HK
                0x00000000       0x84 ./src/sub-systemCode/Main/HouseKeeping.o
 .text.SP_HK_raw_BiEnE
                0x00000000      0x194 ./src/sub-systemCode/Main/HouseKeeping.o
 .text          0x00000000        0x0 ./src/sub-systemCode/Main/Main_Init.o
 .data          0x00000000        0x0 ./src/sub-systemCode/Main/Main_Init.o
 .bss           0x00000000        0x0 ./src/sub-systemCode/Main/Main_Init.o
 .text.resetSD  0x00000000       0xc4 ./src/sub-systemCode/Main/Main_Init.o
 COMMON         0x00000000        0x4 ./src/sub-systemCode/Main/Main_Init.o
 .text          0x00000000        0x0 ./src/sub-systemCode/Main/commands.o
 .data          0x00000000        0x0 ./src/sub-systemCode/Main/commands.o
 .text.check_number_commands
                0x00000000       0x24 ./src/sub-systemCode/Main/commands.o
 .text.AUC_test
                0x00000000       0x6c ./src/sub-systemCode/Main/commands.o
 .text          0x00000000        0x0 ./src/sub-systemCode/Global/Global.o
 .data          0x00000000        0x0 ./src/sub-systemCode/Global/Global.o
 .bss           0x00000000        0x0 ./src/sub-systemCode/Global/Global.o
 .text.print_array
                0x00000000       0x70 ./src/sub-systemCode/Global/Global.o
 .text.switch_endian
                0x00000000       0xc4 ./src/sub-systemCode/Global/Global.o
 .text.double_little_endian
                0x00000000       0x98 ./src/sub-systemCode/Global/Global.o
 .text.BigEnE_raw_value
                0x00000000       0xb8 ./src/sub-systemCode/Global/Global.o
 .text.fram_byte_fix
                0x00000000      0x16c ./src/sub-systemCode/Global/Global.o
 .text.comapre_string
                0x00000000       0x84 ./src/sub-systemCode/Global/Global.o
 .text.getBitValueByIndex
                0x00000000       0xd0 ./src/sub-systemCode/Global/Global.o
 COMMON         0x00000000        0x4 ./src/sub-systemCode/Global/Global.o
 .text          0x00000000        0x0 ./src/sub-systemCode/Global/GlobalParam.o
 .data          0x00000000        0x0 ./src/sub-systemCode/Global/GlobalParam.o
 .text.get_curBat
                0x00000000       0x94 ./src/sub-systemCode/Global/GlobalParam.o
 .text.get_cur3V3
                0x00000000       0x94 ./src/sub-systemCode/Global/GlobalParam.o
 .text.get_cur5V
                0x00000000       0x94 ./src/sub-systemCode/Global/GlobalParam.o
 .text.get_tempComm_LO
                0x00000000      0x108 ./src/sub-systemCode/Global/GlobalParam.o
 .text.get_tempComm_PA
                0x00000000      0x108 ./src/sub-systemCode/Global/GlobalParam.o
 .text.get_tempEPS
                0x00000000       0xe8 ./src/sub-systemCode/Global/GlobalParam.o
 .text.get_tempBatt
                0x00000000       0xe8 ./src/sub-systemCode/Global/GlobalParam.o
 .text.get_RxDoppler
                0x00000000       0x94 ./src/sub-systemCode/Global/GlobalParam.o
 .text.get_RxRSSI
                0x00000000       0x94 ./src/sub-systemCode/Global/GlobalParam.o
 .text.get_TxRefl
                0x00000000       0x94 ./src/sub-systemCode/Global/GlobalParam.o
 .text.get_TxForw
                0x00000000       0x94 ./src/sub-systemCode/Global/GlobalParam.o
 .text.get_Attitude
                0x00000000      0x128 ./src/sub-systemCode/Global/GlobalParam.o
 .text.set_Attitude
                0x00000000       0xe8 ./src/sub-systemCode/Global/GlobalParam.o
 .text.get_numOfPics
                0x00000000       0x94 ./src/sub-systemCode/Global/GlobalParam.o
 .text.set_numOfPics
                0x00000000       0x8c ./src/sub-systemCode/Global/GlobalParam.o
 .text.get_numOfAPRS
                0x00000000       0x94 ./src/sub-systemCode/Global/GlobalParam.o
 .text.get_numOfDelayedCommand
                0x00000000       0x94 ./src/sub-systemCode/Global/GlobalParam.o
 .text.get_numOfResets
                0x00000000       0xa4 ./src/sub-systemCode/Global/GlobalParam.o
 .text.set_lastReset
                0x00000000       0xac ./src/sub-systemCode/Global/GlobalParam.o
 .text.get_lastReset
                0x00000000       0xa4 ./src/sub-systemCode/Global/GlobalParam.o
 .text          0x00000000        0x0 ./src/sub-systemCode/Global/OnlineTM.o
 .data          0x00000000        0x0 ./src/sub-systemCode/Global/OnlineTM.o
 .bss           0x00000000        0x0 ./src/sub-systemCode/Global/OnlineTM.o
 .text.IsisAntS_getStatusData_sideA
                0x00000000       0x3c ./src/sub-systemCode/Global/OnlineTM.o
 .text.IsisAntS_getAlltelemetry_sideA
                0x00000000       0x3c ./src/sub-systemCode/Global/OnlineTM.o
 .text.IsisAntS_getTemperature_sideA
                0x00000000       0x3c ./src/sub-systemCode/Global/OnlineTM.o
 .text.IsisAntS_getStatusData_sideB
                0x00000000       0x3c ./src/sub-systemCode/Global/OnlineTM.o
 .text.IsisAntS_getAlltelemetry_sideB
                0x00000000       0x3c ./src/sub-systemCode/Global/OnlineTM.o
 .text.IsisAntS_getTemperature_sideB
                0x00000000       0x3c ./src/sub-systemCode/Global/OnlineTM.o
 .rodata        0x00000000       0x34 ./src/sub-systemCode/Global/OnlineTM.o
 .text.init_onlineParam
                0x00000000      0xc4c ./src/sub-systemCode/Global/OnlineTM.o
 .text.get_online_packet
                0x00000000      0x254 ./src/sub-systemCode/Global/OnlineTM.o
 .debug_info    0x00000000      0x5a1 ./src/sub-systemCode/Global/OnlineTM.o
 .debug_abbrev  0x00000000      0x15e ./src/sub-systemCode/Global/OnlineTM.o
 .debug_loc     0x00000000      0x160 ./src/sub-systemCode/Global/OnlineTM.o
 .debug_aranges
                0x00000000       0x58 ./src/sub-systemCode/Global/OnlineTM.o
 .debug_ranges  0x00000000       0x48 ./src/sub-systemCode/Global/OnlineTM.o
 .debug_line    0x00000000      0x287 ./src/sub-systemCode/Global/OnlineTM.o
 .debug_str     0x00000000      0x450 ./src/sub-systemCode/Global/OnlineTM.o
 .comment       0x00000000       0x71 ./src/sub-systemCode/Global/OnlineTM.o
 .ARM.attributes
                0x00000000       0x32 ./src/sub-systemCode/Global/OnlineTM.o
 .debug_frame   0x00000000       0xf0 ./src/sub-systemCode/Global/OnlineTM.o
 COMMON         0x00000000      0x15c ./src/sub-systemCode/Global/OnlineTM.o
 .text          0x00000000        0x0 ./src/sub-systemCode/Global/TM_managment.o
 .data          0x00000000        0x0 ./src/sub-systemCode/Global/TM_managment.o
 .bss           0x00000000        0x0 ./src/sub-systemCode/Global/TM_managment.o
 .text.fileWrite
                0x00000000       0x6c ./src/sub-systemCode/Global/TM_managment.o
 .text.fileRead
                0x00000000      0x198 ./src/sub-systemCode/Global/TM_managment.o
 .text.print_file
                0x00000000      0x1bc ./src/sub-systemCode/Global/TM_managment.o
 .text.DeInitializeFS
                0x00000000       0xe0 ./src/sub-systemCode/Global/TM_managment.o
 .text          0x00000000        0x0 ./src/sub-systemCode/COMM/APRS.o
 .data          0x00000000        0x0 ./src/sub-systemCode/COMM/APRS.o
 .text          0x00000000        0x0 ./src/sub-systemCode/COMM/DelayedCommand_list.o
 .data          0x00000000        0x0 ./src/sub-systemCode/COMM/DelayedCommand_list.o
 .text          0x00000000        0x0 ./src/sub-systemCode/COMM/GSC.o
 .data          0x00000000        0x0 ./src/sub-systemCode/COMM/GSC.o
 .bss           0x00000000        0x0 ./src/sub-systemCode/COMM/GSC.o
 .text.decode_TMpacket
                0x00000000       0xfc ./src/sub-systemCode/COMM/GSC.o
 .text          0x00000000        0x0 ./src/sub-systemCode/COMM/TRXVU.o
 .data          0x00000000        0x0 ./src/sub-systemCode/COMM/TRXVU.o
 .text.check_Tx_temp
                0x00000000       0xcc ./src/sub-systemCode/COMM/TRXVU.o
 .text          0x00000000        0x0 ./src/sub-systemCode/ADCS/ADCS.o
 .data          0x00000000        0x0 ./src/sub-systemCode/ADCS/ADCS.o
 .bss           0x00000000        0x0 ./src/sub-systemCode/ADCS/ADCS.o
 .text          0x00000000        0x0 ./src/sub-systemCode/ADCS/Stage_Table.o
 .data          0x00000000        0x0 ./src/sub-systemCode/ADCS/Stage_Table.o
 .bss           0x00000000        0x0 ./src/sub-systemCode/ADCS/Stage_Table.o
 .text.GetDelay
                0x00000000       0x48 ./src/sub-systemCode/ADCS/Stage_Table.o
 .rodata        0x00000000        0x4 ./src/sub-systemCode/ADCS/Stage_Table.o
 .text.translateCommandDelay
                0x00000000       0x80 ./src/sub-systemCode/ADCS/Stage_Table.o
 .text.translateCommandControlMode
                0x00000000       0x3c ./src/sub-systemCode/ADCS/Stage_Table.o
 .text.translateCommandPower
                0x00000000       0x3c ./src/sub-systemCode/ADCS/Stage_Table.o
 .text.translateCommandEstimationMode
                0x00000000       0x3c ./src/sub-systemCode/ADCS/Stage_Table.o
 .text.translateCommandTelemtry
                0x00000000       0x64 ./src/sub-systemCode/ADCS/Stage_Table.o
 .text.checkEstimatedAttitudeAngles
                0x00000000       0x30 ./src/sub-systemCode/ADCS/Stage_Table.o
 .text.checkEstimatedAngularRates
                0x00000000       0x34 ./src/sub-systemCode/ADCS/Stage_Table.o
 .text.checkSatellitePositionECI
                0x00000000       0x34 ./src/sub-systemCode/ADCS/Stage_Table.o
 .text.checkSatelliteVelocityECI
                0x00000000       0x34 ./src/sub-systemCode/ADCS/Stage_Table.o
 .text.checkSatellitePositionLLH
                0x00000000       0x34 ./src/sub-systemCode/ADCS/Stage_Table.o
 .text.checkMagneticFieldVector
                0x00000000       0x34 ./src/sub-systemCode/ADCS/Stage_Table.o
 .text.checkCoarseSunVector
                0x00000000       0x34 ./src/sub-systemCode/ADCS/Stage_Table.o
 .text.checkRateSensorRates
                0x00000000       0x30 ./src/sub-systemCode/ADCS/Stage_Table.o
 .text.checkWheelSpeedcheck
                0x00000000       0x30 ./src/sub-systemCode/ADCS/Stage_Table.o
 .text.checkMagnetorquercmd
                0x00000000       0x34 ./src/sub-systemCode/ADCS/Stage_Table.o
 .text.checkWheelSpeedcmd
                0x00000000       0x34 ./src/sub-systemCode/ADCS/Stage_Table.o
 .text.checkIGRFModelledMagneticFieldVector
                0x00000000       0x34 ./src/sub-systemCode/ADCS/Stage_Table.o
 .text.checkEstimatedGyroBiascheck
                0x00000000       0x34 ./src/sub-systemCode/ADCS/Stage_Table.o
 .text.checkEstimationInnovationVector
                0x00000000       0x34 ./src/sub-systemCode/ADCS/Stage_Table.o
 .text.checkQuaternionErrorVector
                0x00000000       0x34 ./src/sub-systemCode/ADCS/Stage_Table.o
 .text.checkQuaternionCovariance
                0x00000000       0x30 ./src/sub-systemCode/ADCS/Stage_Table.o
 .text.checkAngularRateCovariance
                0x00000000       0x30 ./src/sub-systemCode/ADCS/Stage_Table.o
 .text.checkRawCSS
                0x00000000       0x34 ./src/sub-systemCode/ADCS/Stage_Table.o
 .text.checkRawMagnetometer
                0x00000000       0x34 ./src/sub-systemCode/ADCS/Stage_Table.o
 .text.checkEstimatedQuaternion
                0x00000000       0x34 ./src/sub-systemCode/ADCS/Stage_Table.o
 .text.checkECEFPosition
                0x00000000       0x34 ./src/sub-systemCode/ADCS/Stage_Table.o
 .text.checkSunModelle
                0x00000000       0x34 ./src/sub-systemCode/ADCS/Stage_Table.o
 .text          0x00000000        0x0 ./src/main.o
 .data          0x00000000        0x0 ./src/main.o
 .bss           0x00000000        0x0 ./src/main.o
 .text          0x00000000        0x0 C:/Hoopoe3/satellite-subsystems/demo/..//satellite-subsystems/lib\libSatelliteSubsystemsD.a(GomEPS.o)
 .data          0x00000000        0x0 C:/Hoopoe3/satellite-subsystems/demo/..//satellite-subsystems/lib\libSatelliteSubsystemsD.a(GomEPS.o)
 .text.GomEpsPing
                0x00000000       0xf8 C:/Hoopoe3/satellite-subsystems/demo/..//satellite-subsystems/lib\libSatelliteSubsystemsD.a(GomEPS.o)
 .text.GomEpsGetHkData_param
                0x00000000      0x29c C:/Hoopoe3/satellite-subsystems/demo/..//satellite-subsystems/lib\libSatelliteSubsystemsD.a(GomEPS.o)
 .text.GomEpsGetHkData_vi
                0x00000000      0x188 C:/Hoopoe3/satellite-subsystems/demo/..//satellite-subsystems/lib\libSatelliteSubsystemsD.a(GomEPS.o)
 .text.GomEpsGetHkData_out
                0x00000000      0x21c C:/Hoopoe3/satellite-subsystems/demo/..//satellite-subsystems/lib\libSatelliteSubsystemsD.a(GomEPS.o)
 .text.GomEpsGetHkData_wdt
                0x00000000      0x2b4 C:/Hoopoe3/satellite-subsystems/demo/..//satellite-subsystems/lib\libSatelliteSubsystemsD.a(GomEPS.o)
 .text.GomEpsSetSingleOutput
                0x00000000       0xe4 C:/Hoopoe3/satellite-subsystems/demo/..//satellite-subsystems/lib\libSatelliteSubsystemsD.a(GomEPS.o)
 .text.GomEpsSetPhotovoltaicInputs
                0x00000000      0x11c C:/Hoopoe3/satellite-subsystems/demo/..//satellite-subsystems/lib\libSatelliteSubsystemsD.a(GomEPS.o)
 .text.GomEpsSetPptMode
                0x00000000       0xc0 C:/Hoopoe3/satellite-subsystems/demo/..//satellite-subsystems/lib\libSatelliteSubsystemsD.a(GomEPS.o)
 .text.GomEpsSetHeaterAutoMode
                0x00000000       0xe8 C:/Hoopoe3/satellite-subsystems/demo/..//satellite-subsystems/lib\libSatelliteSubsystemsD.a(GomEPS.o)
 .text.GomEpsResetCounters
                0x00000000       0xc4 C:/Hoopoe3/satellite-subsystems/demo/..//satellite-subsystems/lib\libSatelliteSubsystemsD.a(GomEPS.o)
 .text.GomEpsResetWDT
                0x00000000       0xc4 C:/Hoopoe3/satellite-subsystems/demo/..//satellite-subsystems/lib\libSatelliteSubsystemsD.a(GomEPS.o)
 .text.GomEpsConfigCMD
                0x00000000       0xb8 C:/Hoopoe3/satellite-subsystems/demo/..//satellite-subsystems/lib\libSatelliteSubsystemsD.a(GomEPS.o)
 .text.GomEpsConfigGet
                0x00000000      0x16c C:/Hoopoe3/satellite-subsystems/demo/..//satellite-subsystems/lib\libSatelliteSubsystemsD.a(GomEPS.o)
 .text.GomEpsConfig2CMD
                0x00000000       0xb8 C:/Hoopoe3/satellite-subsystems/demo/..//satellite-subsystems/lib\libSatelliteSubsystemsD.a(GomEPS.o)
 .text.GomEpsConfig2Get
                0x00000000      0x16c C:/Hoopoe3/satellite-subsystems/demo/..//satellite-subsystems/lib\libSatelliteSubsystemsD.a(GomEPS.o)
 .text.GomEpsConfig2Set
                0x00000000      0x184 C:/Hoopoe3/satellite-subsystems/demo/..//satellite-subsystems/lib\libSatelliteSubsystemsD.a(GomEPS.o)
 .text          0x00000000        0x0 C:/Hoopoe3/satellite-subsystems/demo/..//satellite-subsystems/lib\libSatelliteSubsystemsD.a(IsisAntS.o)
 .data          0x00000000        0x0 C:/Hoopoe3/satellite-subsystems/demo/..//satellite-subsystems/lib\libSatelliteSubsystemsD.a(IsisAntS.o)
 .text.IsisAntS_initialize
                0x00000000      0x26c C:/Hoopoe3/satellite-subsystems/demo/..//satellite-subsystems/lib\libSatelliteSubsystemsD.a(IsisAntS.o)
 .text.IsisAntS_attemptDeployment
                0x00000000      0x168 C:/Hoopoe3/satellite-subsystems/demo/..//satellite-subsystems/lib\libSatelliteSubsystemsD.a(IsisAntS.o)
 .text.IsisAntS_getStatusData
                0x00000000      0x120 C:/Hoopoe3/satellite-subsystems/demo/..//satellite-subsystems/lib\libSatelliteSubsystemsD.a(IsisAntS.o)
 .text.IsisAntS_getTemperature
                0x00000000      0x120 C:/Hoopoe3/satellite-subsystems/demo/..//satellite-subsystems/lib\libSatelliteSubsystemsD.a(IsisAntS.o)
 .text.IsisAntS_getUptime
                0x00000000      0x120 C:/Hoopoe3/satellite-subsystems/demo/..//satellite-subsystems/lib\libSatelliteSubsystemsD.a(IsisAntS.o)
 .text.IsisAntS_getAlltelemetry
                0x00000000      0x120 C:/Hoopoe3/satellite-subsystems/demo/..//satellite-subsystems/lib\libSatelliteSubsystemsD.a(IsisAntS.o)
 .text.IsisAntS_getActivationCount
                0x00000000      0x138 C:/Hoopoe3/satellite-subsystems/demo/..//satellite-subsystems/lib\libSatelliteSubsystemsD.a(IsisAntS.o)
 .text.IsisAntS_getActivationTime
                0x00000000      0x138 C:/Hoopoe3/satellite-subsystems/demo/..//satellite-subsystems/lib\libSatelliteSubsystemsD.a(IsisAntS.o)
 .text.IsisAntS_cancelDeployment
                0x00000000      0x104 C:/Hoopoe3/satellite-subsystems/demo/..//satellite-subsystems/lib\libSatelliteSubsystemsD.a(IsisAntS.o)
 .text.IsisAntS_autoDeployment
                0x00000000      0x114 C:/Hoopoe3/satellite-subsystems/demo/..//satellite-subsystems/lib\libSatelliteSubsystemsD.a(IsisAntS.o)
 .text          0x00000000        0x0 C:/Hoopoe3/satellite-subsystems/demo/..//satellite-subsystems/lib\libSatelliteSubsystemsD.a(IsisSolarPanelv2.o)
 .text.IsisSolarPanelv2_getState
                0x00000000       0x24 C:/Hoopoe3/satellite-subsystems/demo/..//satellite-subsystems/lib\libSatelliteSubsystemsD.a(IsisSolarPanelv2.o)
 .text          0x00000000        0x0 C:/Hoopoe3/satellite-subsystems/demo/..//satellite-subsystems/lib\libSatelliteSubsystemsD.a(IsisTRXVU.o)
 .data          0x00000000        0x0 C:/Hoopoe3/satellite-subsystems/demo/..//satellite-subsystems/lib\libSatelliteSubsystemsD.a(IsisTRXVU.o)
 .text.IsisTrxvu_tcSendAX25OvrClSign
                0x00000000      0x10c C:/Hoopoe3/satellite-subsystems/demo/..//satellite-subsystems/lib\libSatelliteSubsystemsD.a(IsisTRXVU.o)
 .text.IsisTrxvu_tcSetAx25BeaconDefClSign
                0x00000000       0xe4 C:/Hoopoe3/satellite-subsystems/demo/..//satellite-subsystems/lib\libSatelliteSubsystemsD.a(IsisTRXVU.o)
 .text.IsisTrxvu_tcSetAx25BeaconOvrClSign
                0x00000000      0x10c C:/Hoopoe3/satellite-subsystems/demo/..//satellite-subsystems/lib\libSatelliteSubsystemsD.a(IsisTRXVU.o)
 .text.IsisTrxvu_tcClearBeacon
                0x00000000       0x80 C:/Hoopoe3/satellite-subsystems/demo/..//satellite-subsystems/lib\libSatelliteSubsystemsD.a(IsisTRXVU.o)
 .text.IsisTrxvu_tcSetDefToClSign
                0x00000000       0x9c C:/Hoopoe3/satellite-subsystems/demo/..//satellite-subsystems/lib\libSatelliteSubsystemsD.a(IsisTRXVU.o)
 .text.IsisTrxvu_tcSetDefFromClSign
                0x00000000       0x9c C:/Hoopoe3/satellite-subsystems/demo/..//satellite-subsystems/lib\libSatelliteSubsystemsD.a(IsisTRXVU.o)
 .text.IsisTrxvu_tcGetUptime
                0x00000000       0xa0 C:/Hoopoe3/satellite-subsystems/demo/..//satellite-subsystems/lib\libSatelliteSubsystemsD.a(IsisTRXVU.o)
 .text.IsisTrxvu_tcGetState
                0x00000000       0xd0 C:/Hoopoe3/satellite-subsystems/demo/..//satellite-subsystems/lib\libSatelliteSubsystemsD.a(IsisTRXVU.o)
 .text.IsisTrxvu_tcGetTelemetryAll
                0x00000000       0xd0 C:/Hoopoe3/satellite-subsystems/demo/..//satellite-subsystems/lib\libSatelliteSubsystemsD.a(IsisTRXVU.o)
 .text.IsisTrxvu_tcGetLastTxTelemetry
                0x00000000       0xe4 C:/Hoopoe3/satellite-subsystems/demo/..//satellite-subsystems/lib\libSatelliteSubsystemsD.a(IsisTRXVU.o)
 .text.IsisTrxvu_tcGetLastTxTelemetry_revC
                0x00000000       0xe4 C:/Hoopoe3/satellite-subsystems/demo/..//satellite-subsystems/lib\libSatelliteSubsystemsD.a(IsisTRXVU.o)
 .text.IsisTrxvu_tcEstimateTransmissionTime
                0x00000000      0x14c C:/Hoopoe3/satellite-subsystems/demo/..//satellite-subsystems/lib\libSatelliteSubsystemsD.a(IsisTRXVU.o)
 .text.IsisTrxvu_rcGetTelemetryAll
                0x00000000       0xd0 C:/Hoopoe3/satellite-subsystems/demo/..//satellite-subsystems/lib\libSatelliteSubsystemsD.a(IsisTRXVU.o)
 .text.IsisTrxvu_rcGetUptime
                0x00000000       0xa0 C:/Hoopoe3/satellite-subsystems/demo/..//satellite-subsystems/lib\libSatelliteSubsystemsD.a(IsisTRXVU.o)
 .text          0x00000000        0x0 C:/Hoopoe3/satellite-subsystems/demo/..//satellite-subsystems/lib\libSatelliteSubsystemsD.a(cspaceADCS.o)
 .data          0x00000000        0x0 C:/Hoopoe3/satellite-subsystems/demo/..//satellite-subsystems/lib\libSatelliteSubsystemsD.a(cspaceADCS.o)
 .text.cspaceADCS_setCurrentTime
                0x00000000       0xd0 C:/Hoopoe3/satellite-subsystems/demo/..//satellite-subsystems/lib\libSatelliteSubsystemsD.a(cspaceADCS.o)
 .text.cspaceADCS_cacheStateADCS
                0x00000000       0xd0 C:/Hoopoe3/satellite-subsystems/demo/..//satellite-subsystems/lib\libSatelliteSubsystemsD.a(cspaceADCS.o)
 .text.cspaceADCS_deployMagBoomADCS
                0x00000000       0xbc C:/Hoopoe3/satellite-subsystems/demo/..//satellite-subsystems/lib\libSatelliteSubsystemsD.a(cspaceADCS.o)
 .text.cspaceADCS_clearErrors
                0x00000000       0xb8 C:/Hoopoe3/satellite-subsystems/demo/..//satellite-subsystems/lib\libSatelliteSubsystemsD.a(cspaceADCS.o)
 .text.cspaceADCS_setMagOutput
                0x00000000       0xd0 C:/Hoopoe3/satellite-subsystems/demo/..//satellite-subsystems/lib\libSatelliteSubsystemsD.a(cspaceADCS.o)
 .text.cspaceADCS_setWheelSpeed
                0x00000000       0xd0 C:/Hoopoe3/satellite-subsystems/demo/..//satellite-subsystems/lib\libSatelliteSubsystemsD.a(cspaceADCS.o)
 .text.cspaceADCS_setCam1SensorConfig
                0x00000000       0xd0 C:/Hoopoe3/satellite-subsystems/demo/..//satellite-subsystems/lib\libSatelliteSubsystemsD.a(cspaceADCS.o)
 .text.cspaceADCS_setCam2SensorConfig
                0x00000000       0xd0 C:/Hoopoe3/satellite-subsystems/demo/..//satellite-subsystems/lib\libSatelliteSubsystemsD.a(cspaceADCS.o)
 .text.cspaceADCS_setMagMountConfig
                0x00000000       0xd0 C:/Hoopoe3/satellite-subsystems/demo/..//satellite-subsystems/lib\libSatelliteSubsystemsD.a(cspaceADCS.o)
 .text.cspaceADCS_setMagOffsetScalingConfig
                0x00000000       0xd0 C:/Hoopoe3/satellite-subsystems/demo/..//satellite-subsystems/lib\libSatelliteSubsystemsD.a(cspaceADCS.o)
 .text.cspaceADCS_setMagSensConfig
                0x00000000       0xd0 C:/Hoopoe3/satellite-subsystems/demo/..//satellite-subsystems/lib\libSatelliteSubsystemsD.a(cspaceADCS.o)
 .text.cspaceADCS_setRateSensorConfig
                0x00000000       0xd0 C:/Hoopoe3/satellite-subsystems/demo/..//satellite-subsystems/lib\libSatelliteSubsystemsD.a(cspaceADCS.o)
 .text.cspaceADCS_setStarTrackerConfig
                0x00000000       0xd0 C:/Hoopoe3/satellite-subsystems/demo/..//satellite-subsystems/lib\libSatelliteSubsystemsD.a(cspaceADCS.o)
 .text.cspaceADCS_setEstimationParam1
                0x00000000       0xd0 C:/Hoopoe3/satellite-subsystems/demo/..//satellite-subsystems/lib\libSatelliteSubsystemsD.a(cspaceADCS.o)
 .text.cspaceADCS_setEstimationParam2
                0x00000000       0xd0 C:/Hoopoe3/satellite-subsystems/demo/..//satellite-subsystems/lib\libSatelliteSubsystemsD.a(cspaceADCS.o)
 .text.cspaceADCS_setSGP4OrbitParameters
                0x00000000       0xcc C:/Hoopoe3/satellite-subsystems/demo/..//satellite-subsystems/lib\libSatelliteSubsystemsD.a(cspaceADCS.o)
 .text.cspaceADCS_setMagnetometerMode
                0x00000000       0xb8 C:/Hoopoe3/satellite-subsystems/demo/..//satellite-subsystems/lib\libSatelliteSubsystemsD.a(cspaceADCS.o)
 .text.cspaceADCS_saveConfig
                0x00000000       0xac C:/Hoopoe3/satellite-subsystems/demo/..//satellite-subsystems/lib\libSatelliteSubsystemsD.a(cspaceADCS.o)
 .text.cspaceADCS_saveOrbitParam
                0x00000000       0xac C:/Hoopoe3/satellite-subsystems/demo/..//satellite-subsystems/lib\libSatelliteSubsystemsD.a(cspaceADCS.o)
 .text.cspaceADCS_saveImage
                0x00000000       0xd8 C:/Hoopoe3/satellite-subsystems/demo/..//satellite-subsystems/lib\libSatelliteSubsystemsD.a(cspaceADCS.o)
 .text.cspaceADCS_BLSetBootIndex
                0x00000000      0x124 C:/Hoopoe3/satellite-subsystems/demo/..//satellite-subsystems/lib\libSatelliteSubsystemsD.a(cspaceADCS.o)
 .text.cspaceADCS_BLRunSelectedProgram
                0x00000000      0x114 C:/Hoopoe3/satellite-subsystems/demo/..//satellite-subsystems/lib\libSatelliteSubsystemsD.a(cspaceADCS.o)
 .text.cspaceADCS_getGeneralInfo
                0x00000000       0xc4 C:/Hoopoe3/satellite-subsystems/demo/..//satellite-subsystems/lib\libSatelliteSubsystemsD.a(cspaceADCS.o)
 .text.cspaceADCS_getBootProgramInfo
                0x00000000       0xc4 C:/Hoopoe3/satellite-subsystems/demo/..//satellite-subsystems/lib\libSatelliteSubsystemsD.a(cspaceADCS.o)
 .text.cspaceADCS_getSRAMLatchupCounters
                0x00000000       0xc4 C:/Hoopoe3/satellite-subsystems/demo/..//satellite-subsystems/lib\libSatelliteSubsystemsD.a(cspaceADCS.o)
 .text.cspaceADCS_getEDACCounters
                0x00000000       0xc4 C:/Hoopoe3/satellite-subsystems/demo/..//satellite-subsystems/lib\libSatelliteSubsystemsD.a(cspaceADCS.o)
 .text.cspaceADCS_getCurrentTime
                0x00000000       0xc4 C:/Hoopoe3/satellite-subsystems/demo/..//satellite-subsystems/lib\libSatelliteSubsystemsD.a(cspaceADCS.o)
 .text.cspaceADCS_getCommStatus
                0x00000000       0xc4 C:/Hoopoe3/satellite-subsystems/demo/..//satellite-subsystems/lib\libSatelliteSubsystemsD.a(cspaceADCS.o)
 .text.cspaceADCS_getMagneticFieldVec
                0x00000000       0xc4 C:/Hoopoe3/satellite-subsystems/demo/..//satellite-subsystems/lib\libSatelliteSubsystemsD.a(cspaceADCS.o)
 .text.cspaceADCS_getCoarseSunVec
                0x00000000       0xc4 C:/Hoopoe3/satellite-subsystems/demo/..//satellite-subsystems/lib\libSatelliteSubsystemsD.a(cspaceADCS.o)
 .text.cspaceADCS_getFineSunVec
                0x00000000       0xc4 C:/Hoopoe3/satellite-subsystems/demo/..//satellite-subsystems/lib\libSatelliteSubsystemsD.a(cspaceADCS.o)
 .text.cspaceADCS_getNadirVector
                0x00000000       0xc4 C:/Hoopoe3/satellite-subsystems/demo/..//satellite-subsystems/lib\libSatelliteSubsystemsD.a(cspaceADCS.o)
 .text.cspaceADCS_getSensorRates
                0x00000000       0xc4 C:/Hoopoe3/satellite-subsystems/demo/..//satellite-subsystems/lib\libSatelliteSubsystemsD.a(cspaceADCS.o)
 .text.cspaceADCS_getWheelSpeed
                0x00000000       0xc4 C:/Hoopoe3/satellite-subsystems/demo/..//satellite-subsystems/lib\libSatelliteSubsystemsD.a(cspaceADCS.o)
 .text.cspaceADCS_getMagnetorquerCmd
                0x00000000       0xc4 C:/Hoopoe3/satellite-subsystems/demo/..//satellite-subsystems/lib\libSatelliteSubsystemsD.a(cspaceADCS.o)
 .text.cspaceADCS_getWheelSpeedCmd
                0x00000000       0xc4 C:/Hoopoe3/satellite-subsystems/demo/..//satellite-subsystems/lib\libSatelliteSubsystemsD.a(cspaceADCS.o)
 .text.cspaceADCS_getRawCam2Sensor
                0x00000000       0xc4 C:/Hoopoe3/satellite-subsystems/demo/..//satellite-subsystems/lib\libSatelliteSubsystemsD.a(cspaceADCS.o)
 .text.cspaceADCS_getRawCam1Sensor
                0x00000000       0xc4 C:/Hoopoe3/satellite-subsystems/demo/..//satellite-subsystems/lib\libSatelliteSubsystemsD.a(cspaceADCS.o)
 .text.cspaceADCS_getRawCss1_6Measurements
                0x00000000       0xc4 C:/Hoopoe3/satellite-subsystems/demo/..//satellite-subsystems/lib\libSatelliteSubsystemsD.a(cspaceADCS.o)
 .text.cspaceADCS_getRawCss7_10Measurements
                0x00000000       0xc4 C:/Hoopoe3/satellite-subsystems/demo/..//satellite-subsystems/lib\libSatelliteSubsystemsD.a(cspaceADCS.o)
 .text.cspaceADCS_getRawMagnetometerMeas
                0x00000000       0xc4 C:/Hoopoe3/satellite-subsystems/demo/..//satellite-subsystems/lib\libSatelliteSubsystemsD.a(cspaceADCS.o)
 .text.cspaceADCS_getCSenseCurrentMeasurements
                0x00000000       0xc4 C:/Hoopoe3/satellite-subsystems/demo/..//satellite-subsystems/lib\libSatelliteSubsystemsD.a(cspaceADCS.o)
 .text.cspaceADCS_getCControlCurrentMeasurements
                0x00000000       0xc4 C:/Hoopoe3/satellite-subsystems/demo/..//satellite-subsystems/lib\libSatelliteSubsystemsD.a(cspaceADCS.o)
 .text.cspaceADCS_getWheelCurrentsTlm
                0x00000000       0xc4 C:/Hoopoe3/satellite-subsystems/demo/..//satellite-subsystems/lib\libSatelliteSubsystemsD.a(cspaceADCS.o)
 .text.cspaceADCS_getADCSTemperatureTlm
                0x00000000       0xc4 C:/Hoopoe3/satellite-subsystems/demo/..//satellite-subsystems/lib\libSatelliteSubsystemsD.a(cspaceADCS.o)
 .text.cspaceADCS_getRateSensorTempTlm
                0x00000000       0xc4 C:/Hoopoe3/satellite-subsystems/demo/..//satellite-subsystems/lib\libSatelliteSubsystemsD.a(cspaceADCS.o)
 .text.cspaceADCS_getRawGpsStatus
                0x00000000       0xc4 C:/Hoopoe3/satellite-subsystems/demo/..//satellite-subsystems/lib\libSatelliteSubsystemsD.a(cspaceADCS.o)
 .text.cspaceADCS_getRawGpsTime
                0x00000000       0xc4 C:/Hoopoe3/satellite-subsystems/demo/..//satellite-subsystems/lib\libSatelliteSubsystemsD.a(cspaceADCS.o)
 .text.cspaceADCS_getRawGpsX
                0x00000000       0xc4 C:/Hoopoe3/satellite-subsystems/demo/..//satellite-subsystems/lib\libSatelliteSubsystemsD.a(cspaceADCS.o)
 .text.cspaceADCS_getRawGpsY
                0x00000000       0xc4 C:/Hoopoe3/satellite-subsystems/demo/..//satellite-subsystems/lib\libSatelliteSubsystemsD.a(cspaceADCS.o)
 .text.cspaceADCS_getRawGpsZ
                0x00000000       0xc4 C:/Hoopoe3/satellite-subsystems/demo/..//satellite-subsystems/lib\libSatelliteSubsystemsD.a(cspaceADCS.o)
 .text.cspaceADCS_getStateTlm
                0x00000000       0xc4 C:/Hoopoe3/satellite-subsystems/demo/..//satellite-subsystems/lib\libSatelliteSubsystemsD.a(cspaceADCS.o)
 .text.cspaceADCS_getADCSMeasurements
                0x00000000       0xc4 C:/Hoopoe3/satellite-subsystems/demo/..//satellite-subsystems/lib\libSatelliteSubsystemsD.a(cspaceADCS.o)
 .text.cspaceADCS_getActuatorsCmds
                0x00000000       0xc4 C:/Hoopoe3/satellite-subsystems/demo/..//satellite-subsystems/lib\libSatelliteSubsystemsD.a(cspaceADCS.o)
 .text.cspaceADCS_getEstimationMetadata
                0x00000000       0xc4 C:/Hoopoe3/satellite-subsystems/demo/..//satellite-subsystems/lib\libSatelliteSubsystemsD.a(cspaceADCS.o)
 .text.cspaceADCS_getStartrackerTLM
                0x00000000       0xc4 C:/Hoopoe3/satellite-subsystems/demo/..//satellite-subsystems/lib\libSatelliteSubsystemsD.a(cspaceADCS.o)
 .text.cspaceADCS_getRawSensorMeasurements
                0x00000000       0xc4 C:/Hoopoe3/satellite-subsystems/demo/..//satellite-subsystems/lib\libSatelliteSubsystemsD.a(cspaceADCS.o)
 .text.cspaceADCS_getPowTempMeasTLM
                0x00000000       0xc4 C:/Hoopoe3/satellite-subsystems/demo/..//satellite-subsystems/lib\libSatelliteSubsystemsD.a(cspaceADCS.o)
 .text.cspaceADCS_getADCSExcTimes
                0x00000000       0xc4 C:/Hoopoe3/satellite-subsystems/demo/..//satellite-subsystems/lib\libSatelliteSubsystemsD.a(cspaceADCS.o)
 .text.cspaceADCS_getMiscCurrentMeas
                0x00000000       0xc4 C:/Hoopoe3/satellite-subsystems/demo/..//satellite-subsystems/lib\libSatelliteSubsystemsD.a(cspaceADCS.o)
 .text.cspaceADCS_getCommandedAttitudeAngles
                0x00000000       0xc4 C:/Hoopoe3/satellite-subsystems/demo/..//satellite-subsystems/lib\libSatelliteSubsystemsD.a(cspaceADCS.o)
 .text.cspaceADCS_getADCSRawGPSMeas
                0x00000000       0xc4 C:/Hoopoe3/satellite-subsystems/demo/..//satellite-subsystems/lib\libSatelliteSubsystemsD.a(cspaceADCS.o)
 .text.cspaceADCS_getADCRawRedMag
                0x00000000       0xc4 C:/Hoopoe3/satellite-subsystems/demo/..//satellite-subsystems/lib\libSatelliteSubsystemsD.a(cspaceADCS.o)
 .text.cspaceADCS_getACPExecutionState
                0x00000000       0xc4 C:/Hoopoe3/satellite-subsystems/demo/..//satellite-subsystems/lib\libSatelliteSubsystemsD.a(cspaceADCS.o)
 .text.cspaceADCS_getADCSConfiguration
                0x00000000       0xc4 C:/Hoopoe3/satellite-subsystems/demo/..//satellite-subsystems/lib\libSatelliteSubsystemsD.a(cspaceADCS.o)
 .text.cspaceADCS_getSGP4OrbitParameters
                0x00000000       0xc4 C:/Hoopoe3/satellite-subsystems/demo/..//satellite-subsystems/lib\libSatelliteSubsystemsD.a(cspaceADCS.o)
 .text          0x00000000        0x0 C:/Hoopoe3/satellite-subsystems/demo/..//satellite-subsystems/lib\libSatelliteSubsystemsD.a(gecko_driver.o)
 .bss           0x00000000        0x0 C:/Hoopoe3/satellite-subsystems/demo/..//satellite-subsystems/lib\libSatelliteSubsystemsD.a(gecko_driver.o)
 .text.GECKO_Init
                0x00000000       0x40 C:/Hoopoe3/satellite-subsystems/demo/..//satellite-subsystems/lib\libSatelliteSubsystemsD.a(gecko_driver.o)
 .text.GECKO_SetReg
                0x00000000      0x138 C:/Hoopoe3/satellite-subsystems/demo/..//satellite-subsystems/lib\libSatelliteSubsystemsD.a(gecko_driver.o)
 .text.GetParamUINT8
                0x00000000       0x8c C:/Hoopoe3/satellite-subsystems/demo/..//satellite-subsystems/lib\libSatelliteSubsystemsD.a(gecko_driver.o)
 .text.GECKO_GetImgData
                0x00000000       0x5c C:/Hoopoe3/satellite-subsystems/demo/..//satellite-subsystems/lib\libSatelliteSubsystemsD.a(gecko_driver.o)
 .text.GECKO_GetVersionSwBuild
                0x00000000       0x60 C:/Hoopoe3/satellite-subsystems/demo/..//satellite-subsystems/lib\libSatelliteSubsystemsD.a(gecko_driver.o)
 .text.GECKO_GetVersionSwMinor
                0x00000000       0x64 C:/Hoopoe3/satellite-subsystems/demo/..//satellite-subsystems/lib\libSatelliteSubsystemsD.a(gecko_driver.o)
 .text.GECKO_GetVersionSwMajor
                0x00000000       0x64 C:/Hoopoe3/satellite-subsystems/demo/..//satellite-subsystems/lib\libSatelliteSubsystemsD.a(gecko_driver.o)
 .text.GECKO_GetVersionHW
                0x00000000       0x64 C:/Hoopoe3/satellite-subsystems/demo/..//satellite-subsystems/lib\libSatelliteSubsystemsD.a(gecko_driver.o)
 .text.GECKO_StartReadout
                0x00000000       0xb8 C:/Hoopoe3/satellite-subsystems/demo/..//satellite-subsystems/lib\libSatelliteSubsystemsD.a(gecko_driver.o)
 .text.GECKO_StartSample
                0x00000000       0xb8 C:/Hoopoe3/satellite-subsystems/demo/..//satellite-subsystems/lib\libSatelliteSubsystemsD.a(gecko_driver.o)
 .text.GECKO_StartErase
                0x00000000       0xb8 C:/Hoopoe3/satellite-subsystems/demo/..//satellite-subsystems/lib\libSatelliteSubsystemsD.a(gecko_driver.o)
 .text.GECKO_EnableTestPattern
                0x00000000       0xb8 C:/Hoopoe3/satellite-subsystems/demo/..//satellite-subsystems/lib\libSatelliteSubsystemsD.a(gecko_driver.o)
 .text.GECKO_StopReadout
                0x00000000       0xb4 C:/Hoopoe3/satellite-subsystems/demo/..//satellite-subsystems/lib\libSatelliteSubsystemsD.a(gecko_driver.o)
 .text.GECKO_StopSample
                0x00000000       0xb4 C:/Hoopoe3/satellite-subsystems/demo/..//satellite-subsystems/lib\libSatelliteSubsystemsD.a(gecko_driver.o)
 .text.GECKO_StopErase
                0x00000000       0xb4 C:/Hoopoe3/satellite-subsystems/demo/..//satellite-subsystems/lib\libSatelliteSubsystemsD.a(gecko_driver.o)
 .text.GECKO_DisableTestPattern
                0x00000000       0xb4 C:/Hoopoe3/satellite-subsystems/demo/..//satellite-subsystems/lib\libSatelliteSubsystemsD.a(gecko_driver.o)
 .text.GECKO_GetFlashInitDone
                0x00000000       0x64 C:/Hoopoe3/satellite-subsystems/demo/..//satellite-subsystems/lib\libSatelliteSubsystemsD.a(gecko_driver.o)
 .text.GECKO_GetReadReady
                0x00000000       0x64 C:/Hoopoe3/satellite-subsystems/demo/..//satellite-subsystems/lib\libSatelliteSubsystemsD.a(gecko_driver.o)
 .text.GECKO_GetReadBusy
                0x00000000       0x64 C:/Hoopoe3/satellite-subsystems/demo/..//satellite-subsystems/lib\libSatelliteSubsystemsD.a(gecko_driver.o)
 .text.GECKO_GetSampleBusy
                0x00000000       0x64 C:/Hoopoe3/satellite-subsystems/demo/..//satellite-subsystems/lib\libSatelliteSubsystemsD.a(gecko_driver.o)
 .text.GECKO_GetEraseBusy
                0x00000000       0x64 C:/Hoopoe3/satellite-subsystems/demo/..//satellite-subsystems/lib\libSatelliteSubsystemsD.a(gecko_driver.o)
 .text.GECKO_GetReadDone
                0x00000000       0x64 C:/Hoopoe3/satellite-subsystems/demo/..//satellite-subsystems/lib\libSatelliteSubsystemsD.a(gecko_driver.o)
 .text.GECKO_GetSampleDone
                0x00000000       0x64 C:/Hoopoe3/satellite-subsystems/demo/..//satellite-subsystems/lib\libSatelliteSubsystemsD.a(gecko_driver.o)
 .text.GECKO_GetEraseDone
                0x00000000       0x64 C:/Hoopoe3/satellite-subsystems/demo/..//satellite-subsystems/lib\libSatelliteSubsystemsD.a(gecko_driver.o)
 .text.GECKO_ClearReadDone
                0x00000000       0xb4 C:/Hoopoe3/satellite-subsystems/demo/..//satellite-subsystems/lib\libSatelliteSubsystemsD.a(gecko_driver.o)
 .text.GECKO_ClearSampleDone
                0x00000000       0xb4 C:/Hoopoe3/satellite-subsystems/demo/..//satellite-subsystems/lib\libSatelliteSubsystemsD.a(gecko_driver.o)
 .text.GECKO_ClearEraseDone
                0x00000000       0xb4 C:/Hoopoe3/satellite-subsystems/demo/..//satellite-subsystems/lib\libSatelliteSubsystemsD.a(gecko_driver.o)
 .text.GECKO_GetFlashCount
                0x00000000       0x74 C:/Hoopoe3/satellite-subsystems/demo/..//satellite-subsystems/lib\libSatelliteSubsystemsD.a(gecko_driver.o)
 .text.GECKO_GetImageID
                0x00000000       0x64 C:/Hoopoe3/satellite-subsystems/demo/..//satellite-subsystems/lib\libSatelliteSubsystemsD.a(gecko_driver.o)
 .text.GECKO_SetImageID
                0x00000000       0xcc C:/Hoopoe3/satellite-subsystems/demo/..//satellite-subsystems/lib\libSatelliteSubsystemsD.a(gecko_driver.o)
 .text.GECKO_GetFrameAmount
                0x00000000       0x5c C:/Hoopoe3/satellite-subsystems/demo/..//satellite-subsystems/lib\libSatelliteSubsystemsD.a(gecko_driver.o)
 .text.GECKO_SetFrameAmount
                0x00000000       0xbc C:/Hoopoe3/satellite-subsystems/demo/..//satellite-subsystems/lib\libSatelliteSubsystemsD.a(gecko_driver.o)
 .text.GECKO_GetUpTime
                0x00000000       0x5c C:/Hoopoe3/satellite-subsystems/demo/..//satellite-subsystems/lib\libSatelliteSubsystemsD.a(gecko_driver.o)
 .text.GECKO_GetPageCount
                0x00000000       0x5c C:/Hoopoe3/satellite-subsystems/demo/..//satellite-subsystems/lib\libSatelliteSubsystemsD.a(gecko_driver.o)
 .text.GECKO_SensorOn
                0x00000000       0xb8 C:/Hoopoe3/satellite-subsystems/demo/..//satellite-subsystems/lib\libSatelliteSubsystemsD.a(gecko_driver.o)
 .text.GECKO_SensorOff
                0x00000000       0xb4 C:/Hoopoe3/satellite-subsystems/demo/..//satellite-subsystems/lib\libSatelliteSubsystemsD.a(gecko_driver.o)
 .text.GECKO_GetFrameRate
                0x00000000       0x60 C:/Hoopoe3/satellite-subsystems/demo/..//satellite-subsystems/lib\libSatelliteSubsystemsD.a(gecko_driver.o)
 .text.GECKO_SetFrameRate
                0x00000000       0xc4 C:/Hoopoe3/satellite-subsystems/demo/..//satellite-subsystems/lib\libSatelliteSubsystemsD.a(gecko_driver.o)
 .text.GECKO_GetOnDone
                0x00000000       0x64 C:/Hoopoe3/satellite-subsystems/demo/..//satellite-subsystems/lib\libSatelliteSubsystemsD.a(gecko_driver.o)
 .text.GECKO_GetTrainingDone
                0x00000000       0x64 C:/Hoopoe3/satellite-subsystems/demo/..//satellite-subsystems/lib\libSatelliteSubsystemsD.a(gecko_driver.o)
 .text.GECKO_GetTrainingError
                0x00000000       0x64 C:/Hoopoe3/satellite-subsystems/demo/..//satellite-subsystems/lib\libSatelliteSubsystemsD.a(gecko_driver.o)
 .text.GECKO_SetAdcGain
                0x00000000       0xc4 C:/Hoopoe3/satellite-subsystems/demo/..//satellite-subsystems/lib\libSatelliteSubsystemsD.a(gecko_driver.o)
 .text.GECKO_SetPgaGain
                0x00000000       0xcc C:/Hoopoe3/satellite-subsystems/demo/..//satellite-subsystems/lib\libSatelliteSubsystemsD.a(gecko_driver.o)
 .text.GECKO_SetOffset
                0x00000000       0xd0 C:/Hoopoe3/satellite-subsystems/demo/..//satellite-subsystems/lib\libSatelliteSubsystemsD.a(gecko_driver.o)
 .text.GECKO_SetExposure
                0x00000000       0xc4 C:/Hoopoe3/satellite-subsystems/demo/..//satellite-subsystems/lib\libSatelliteSubsystemsD.a(gecko_driver.o)
 .text          0x00000000        0x0 C:/Hoopoe3/satellite-subsystems/demo/..//satellite-subsystems/lib\libSatelliteSubsystemsD.a(IsisTRXCommon.o)
 .data          0x00000000        0x0 C:/Hoopoe3/satellite-subsystems/demo/..//satellite-subsystems/lib\libSatelliteSubsystemsD.a(IsisTRXCommon.o)
 .bss           0x00000000        0x0 C:/Hoopoe3/satellite-subsystems/demo/..//satellite-subsystems/lib\libSatelliteSubsystemsD.a(IsisTRXCommon.o)
 .text.IsisTrxCommon_TxSendAX25OvrClSign
                0x00000000      0x120 C:/Hoopoe3/satellite-subsystems/demo/..//satellite-subsystems/lib\libSatelliteSubsystemsD.a(IsisTRXCommon.o)
 .text.IsisTrxCommon_TxSetAx25BeaconDefClSign
                0x00000000       0xf4 C:/Hoopoe3/satellite-subsystems/demo/..//satellite-subsystems/lib\libSatelliteSubsystemsD.a(IsisTRXCommon.o)
 .text.IsisTrxCommon_TxSetAx25BeaconOvrClSign
                0x00000000      0x124 C:/Hoopoe3/satellite-subsystems/demo/..//satellite-subsystems/lib\libSatelliteSubsystemsD.a(IsisTRXCommon.o)
 .text.IsisTrxCommon_TxClearBeacon
                0x00000000       0x68 C:/Hoopoe3/satellite-subsystems/demo/..//satellite-subsystems/lib\libSatelliteSubsystemsD.a(IsisTRXCommon.o)
 .text.IsisTrxCommon_TxSetDefToClSign
                0x00000000       0x84 C:/Hoopoe3/satellite-subsystems/demo/..//satellite-subsystems/lib\libSatelliteSubsystemsD.a(IsisTRXCommon.o)
 .text.IsisTrxCommon_TxSetDefFromClSign
                0x00000000       0x84 C:/Hoopoe3/satellite-subsystems/demo/..//satellite-subsystems/lib\libSatelliteSubsystemsD.a(IsisTRXCommon.o)
 .text.IsisTrxCommon_RxGetTelemetryAll
                0x00000000       0x8c C:/Hoopoe3/satellite-subsystems/demo/..//satellite-subsystems/lib\libSatelliteSubsystemsD.a(IsisTRXCommon.o)
 .text.IsisTrxCommon_GetUptime
                0x00000000       0x8c C:/Hoopoe3/satellite-subsystems/demo/..//satellite-subsystems/lib\libSatelliteSubsystemsD.a(IsisTRXCommon.o)
 .text          0x00000000        0x0 c:/isis/application/toolchain/bin/../lib/gcc/arm-none-eabi/4.7.4/../../../../arm-none-eabi/lib\libm.a(lib_a-w_log.o)
 .data          0x00000000        0x0 c:/isis/application/toolchain/bin/../lib/gcc/arm-none-eabi/4.7.4/../../../../arm-none-eabi/lib\libm.a(lib_a-w_log.o)
 .bss           0x00000000        0x0 c:/isis/application/toolchain/bin/../lib/gcc/arm-none-eabi/4.7.4/../../../../arm-none-eabi/lib\libm.a(lib_a-w_log.o)
 .text          0x00000000        0x0 c:/isis/application/toolchain/bin/../lib/gcc/arm-none-eabi/4.7.4/../../../../arm-none-eabi/lib\libm.a(lib_a-e_log.o)
 .data          0x00000000        0x0 c:/isis/application/toolchain/bin/../lib/gcc/arm-none-eabi/4.7.4/../../../../arm-none-eabi/lib\libm.a(lib_a-e_log.o)
 .bss           0x00000000        0x0 c:/isis/application/toolchain/bin/../lib/gcc/arm-none-eabi/4.7.4/../../../../arm-none-eabi/lib\libm.a(lib_a-e_log.o)
 .text          0x00000000        0x0 c:/isis/application/toolchain/bin/../lib/gcc/arm-none-eabi/4.7.4/../../../../arm-none-eabi/lib\libm.a(lib_a-s_lib_ver.o)
 .data          0x00000000        0x0 c:/isis/application/toolchain/bin/../lib/gcc/arm-none-eabi/4.7.4/../../../../arm-none-eabi/lib\libm.a(lib_a-s_lib_ver.o)
 .bss           0x00000000        0x0 c:/isis/application/toolchain/bin/../lib/gcc/arm-none-eabi/4.7.4/../../../../arm-none-eabi/lib\libm.a(lib_a-s_lib_ver.o)
 .text          0x00000000        0x0 c:/isis/application/toolchain/bin/../lib/gcc/arm-none-eabi/4.7.4/../../../../arm-none-eabi/lib\libm.a(lib_a-s_matherr.o)
 .data          0x00000000        0x0 c:/isis/application/toolchain/bin/../lib/gcc/arm-none-eabi/4.7.4/../../../../arm-none-eabi/lib\libm.a(lib_a-s_matherr.o)
 .bss           0x00000000        0x0 c:/isis/application/toolchain/bin/../lib/gcc/arm-none-eabi/4.7.4/../../../../arm-none-eabi/lib\libm.a(lib_a-s_matherr.o)
 .text          0x00000000        0x0 c:/isis/application/toolchain/bin/../lib/gcc/arm-none-eabi/4.7.4/../../../../arm-none-eabi/lib\libm.a(lib_a-s_nan.o)
 .data          0x00000000        0x0 c:/isis/application/toolchain/bin/../lib/gcc/arm-none-eabi/4.7.4/../../../../arm-none-eabi/lib\libm.a(lib_a-s_nan.o)
 .bss           0x00000000        0x0 c:/isis/application/toolchain/bin/../lib/gcc/arm-none-eabi/4.7.4/../../../../arm-none-eabi/lib\libm.a(lib_a-s_nan.o)
 .text          0x00000000        0x0 C:/Hoopoe3/satellite-subsystems/demo/../..//hal/hcc/lib\libHCCD.a(fat_common.o)
 .data          0x00000000        0x0 C:/Hoopoe3/satellite-subsystems/demo/../..//hal/hcc/lib\libHCCD.a(fat_common.o)
 .rodata        0x00000000       0x6c C:/Hoopoe3/satellite-subsystems/demo/../..//hal/hcc/lib\libHCCD.a(fat_common.o)
 .text.fn_start
                0x00000000       0x1c C:/Hoopoe3/satellite-subsystems/demo/../..//hal/hcc/lib\libHCCD.a(fat_common.o)
 .text.fn_stop  0x00000000       0x1c C:/Hoopoe3/satellite-subsystems/demo/../..//hal/hcc/lib\libHCCD.a(fat_common.o)
 .text.fsn_delete
                0x00000000       0xc8 C:/Hoopoe3/satellite-subsystems/demo/../..//hal/hcc/lib\libHCCD.a(fat_common.o)
 .text._set8bitzero
                0x00000000       0x6c C:/Hoopoe3/satellite-subsystems/demo/../..//hal/hcc/lib\libHCCD.a(fat_common.o)
 .text._set8bit
                0x00000000       0xa0 C:/Hoopoe3/satellite-subsystems/demo/../..//hal/hcc/lib\libHCCD.a(fat_common.o)
 .text._set16bitl
                0x00000000       0x3c C:/Hoopoe3/satellite-subsystems/demo/../..//hal/hcc/lib\libHCCD.a(fat_common.o)
 .text._set32bitl
                0x00000000       0x34 C:/Hoopoe3/satellite-subsystems/demo/../..//hal/hcc/lib\libHCCD.a(fat_common.o)
 .text._f_ioctl
                0x00000000       0x84 C:/Hoopoe3/satellite-subsystems/demo/../..//hal/hcc/lib\libHCCD.a(fat_common.o)
 .text._f_ioctl_endofdelete
                0x00000000       0x88 C:/Hoopoe3/satellite-subsystems/demo/../..//hal/hcc/lib\libHCCD.a(fat_common.o)
 .text._f_ioctl_multiplesectorerase
                0x00000000       0x5c C:/Hoopoe3/satellite-subsystems/demo/../..//hal/hcc/lib\libHCCD.a(fat_common.o)
 .text.fn_getpartition
                0x00000000      0x514 C:/Hoopoe3/satellite-subsystems/demo/../..//hal/hcc/lib\libHCCD.a(fat_common.o)
 .text._f_writebootrecord
                0x00000000      0x5e4 C:/Hoopoe3/satellite-subsystems/demo/../..//hal/hcc/lib\libHCCD.a(fat_common.o)
 .text.fn_initvolume_nonsafe
                0x00000000      0x14c C:/Hoopoe3/satellite-subsystems/demo/../..//hal/hcc/lib\libHCCD.a(fat_common.o)
 .text.fn_releasedriver
                0x00000000       0xf4 C:/Hoopoe3/satellite-subsystems/demo/../..//hal/hcc/lib\libHCCD.a(fat_common.o)
 .text.fn_initvolumepartition_nonsafe
                0x00000000       0xac C:/Hoopoe3/satellite-subsystems/demo/../..//hal/hcc/lib\libHCCD.a(fat_common.o)
 .text.fn_checkvolume
                0x00000000       0x44 C:/Hoopoe3/satellite-subsystems/demo/../..//hal/hcc/lib\libHCCD.a(fat_common.o)
 .text.fn_delvolume
                0x00000000      0x194 C:/Hoopoe3/satellite-subsystems/demo/../..//hal/hcc/lib\libHCCD.a(fat_common.o)
 .text.fn_get_volume_count
                0x00000000       0xa8 C:/Hoopoe3/satellite-subsystems/demo/../..//hal/hcc/lib\libHCCD.a(fat_common.o)
 .text.fn_get_volume_list
                0x00000000       0xc4 C:/Hoopoe3/satellite-subsystems/demo/../..//hal/hcc/lib\libHCCD.a(fat_common.o)
 .text._f_prepareformat
                0x00000000      0x8b8 C:/Hoopoe3/satellite-subsystems/demo/../..//hal/hcc/lib\libHCCD.a(fat_common.o)
 .text._f_resetfatentries
                0x00000000      0x410 C:/Hoopoe3/satellite-subsystems/demo/../..//hal/hcc/lib\libHCCD.a(fat_common.o)
 .text._f_resetrootdir
                0x00000000       0xcc C:/Hoopoe3/satellite-subsystems/demo/../..//hal/hcc/lib\libHCCD.a(fat_common.o)
 .text._f_postformat
                0x00000000      0x178 C:/Hoopoe3/satellite-subsystems/demo/../..//hal/hcc/lib\libHCCD.a(fat_common.o)
 .text.fn_createpartition
                0x00000000      0x56c C:/Hoopoe3/satellite-subsystems/demo/../..//hal/hcc/lib\libHCCD.a(fat_common.o)
 .text.fn_format
                0x00000000      0x148 C:/Hoopoe3/satellite-subsystems/demo/../..//hal/hcc/lib\libHCCD.a(fat_common.o)
 .text.fn_chdrive
                0x00000000       0xb0 C:/Hoopoe3/satellite-subsystems/demo/../..//hal/hcc/lib\libHCCD.a(fat_common.o)
 .text.fn_abortclose
                0x00000000      0x150 C:/Hoopoe3/satellite-subsystems/demo/../..//hal/hcc/lib\libHCCD.a(fat_common.o)
 .text.fn_flush_filebuffer
                0x00000000      0x138 C:/Hoopoe3/satellite-subsystems/demo/../..//hal/hcc/lib\libHCCD.a(fat_common.o)
 .text.fn_tell  0x00000000      0x19c C:/Hoopoe3/satellite-subsystems/demo/../..//hal/hcc/lib\libHCCD.a(fat_common.o)
 .text.fn_eof   0x00000000       0xf8 C:/Hoopoe3/satellite-subsystems/demo/../..//hal/hcc/lib\libHCCD.a(fat_common.o)
 .text.fn_rewind
                0x00000000       0x38 C:/Hoopoe3/satellite-subsystems/demo/../..//hal/hcc/lib\libHCCD.a(fat_common.o)
 .text.fn_putc  0x00000000       0x68 C:/Hoopoe3/satellite-subsystems/demo/../..//hal/hcc/lib\libHCCD.a(fat_common.o)
 .text.fn_getc  0x00000000       0x58 C:/Hoopoe3/satellite-subsystems/demo/../..//hal/hcc/lib\libHCCD.a(fat_common.o)
 .text.fn_get_oem
                0x00000000       0xfc C:/Hoopoe3/satellite-subsystems/demo/../..//hal/hcc/lib\libHCCD.a(fat_common.o)
 .text.fn_ftruncate
                0x00000000       0x64 C:/Hoopoe3/satellite-subsystems/demo/../..//hal/hcc/lib\libHCCD.a(fat_common.o)
 .text.fn_seteof
                0x00000000      0x468 C:/Hoopoe3/satellite-subsystems/demo/../..//hal/hcc/lib\libHCCD.a(fat_common.o)
 .text._fn_removeseekpos
                0x00000000       0xc0 C:/Hoopoe3/satellite-subsystems/demo/../..//hal/hcc/lib\libHCCD.a(fat_common.o)
 .text.fn_fstat
                0x00000000      0x250 C:/Hoopoe3/satellite-subsystems/demo/../..//hal/hcc/lib\libHCCD.a(fat_common.o)
 .text          0x00000000        0x0 C:/Hoopoe3/satellite-subsystems/demo/../..//hal/hcc/lib\libHCCD.a(fat_m.o)
 .data          0x00000000        0x0 C:/Hoopoe3/satellite-subsystems/demo/../..//hal/hcc/lib\libHCCD.a(fat_m.o)
 .bss           0x00000000        0x0 C:/Hoopoe3/satellite-subsystems/demo/../..//hal/hcc/lib\libHCCD.a(fat_m.o)
 .text.fm_initvolume_nonsafe
                0x00000000       0x70 C:/Hoopoe3/satellite-subsystems/demo/../..//hal/hcc/lib\libHCCD.a(fat_m.o)
 .text.fm_createdriver
                0x00000000       0x70 C:/Hoopoe3/satellite-subsystems/demo/../..//hal/hcc/lib\libHCCD.a(fat_m.o)
 .text.fm_initvolumepartition
                0x00000000       0x70 C:/Hoopoe3/satellite-subsystems/demo/../..//hal/hcc/lib\libHCCD.a(fat_m.o)
 .text.fm_initvolumepartition_nonsafe
                0x00000000       0x70 C:/Hoopoe3/satellite-subsystems/demo/../..//hal/hcc/lib\libHCCD.a(fat_m.o)
 .text.fm_createpartition
                0x00000000       0x70 C:/Hoopoe3/satellite-subsystems/demo/../..//hal/hcc/lib\libHCCD.a(fat_m.o)
 .text.fm_getpartition
                0x00000000       0x68 C:/Hoopoe3/satellite-subsystems/demo/../..//hal/hcc/lib\libHCCD.a(fat_m.o)
 .text.fm_checkvolume
                0x00000000       0x60 C:/Hoopoe3/satellite-subsystems/demo/../..//hal/hcc/lib\libHCCD.a(fat_m.o)
 .text.fm_delvolume
                0x00000000       0x60 C:/Hoopoe3/satellite-subsystems/demo/../..//hal/hcc/lib\libHCCD.a(fat_m.o)
 .text.fm_releasedriver
                0x00000000       0x54 C:/Hoopoe3/satellite-subsystems/demo/../..//hal/hcc/lib\libHCCD.a(fat_m.o)
 .text.fm_get_volume_count
                0x00000000       0x58 C:/Hoopoe3/satellite-subsystems/demo/../..//hal/hcc/lib\libHCCD.a(fat_m.o)
 .text.fm_get_volume_list
                0x00000000       0x60 C:/Hoopoe3/satellite-subsystems/demo/../..//hal/hcc/lib\libHCCD.a(fat_m.o)
 .text.fm_format
                0x00000000       0x68 C:/Hoopoe3/satellite-subsystems/demo/../..//hal/hcc/lib\libHCCD.a(fat_m.o)
 .text.fm_getcwd
                0x00000000       0x68 C:/Hoopoe3/satellite-subsystems/demo/../..//hal/hcc/lib\libHCCD.a(fat_m.o)
 .text.fm_getdcwd
                0x00000000       0x70 C:/Hoopoe3/satellite-subsystems/demo/../..//hal/hcc/lib\libHCCD.a(fat_m.o)
 .text.fm_chdrive
                0x00000000       0x60 C:/Hoopoe3/satellite-subsystems/demo/../..//hal/hcc/lib\libHCCD.a(fat_m.o)
 .text.fm_chdir
                0x00000000       0x60 C:/Hoopoe3/satellite-subsystems/demo/../..//hal/hcc/lib\libHCCD.a(fat_m.o)
 .text.fm_mkdir
                0x00000000       0x60 C:/Hoopoe3/satellite-subsystems/demo/../..//hal/hcc/lib\libHCCD.a(fat_m.o)
 .text.fm_rmdir
                0x00000000       0x60 C:/Hoopoe3/satellite-subsystems/demo/../..//hal/hcc/lib\libHCCD.a(fat_m.o)
 .text.fm_move  0x00000000       0x68 C:/Hoopoe3/satellite-subsystems/demo/../..//hal/hcc/lib\libHCCD.a(fat_m.o)
 .text.fm_rename
                0x00000000       0x68 C:/Hoopoe3/satellite-subsystems/demo/../..//hal/hcc/lib\libHCCD.a(fat_m.o)
 .text.fm_abortclose
                0x00000000       0x60 C:/Hoopoe3/satellite-subsystems/demo/../..//hal/hcc/lib\libHCCD.a(fat_m.o)
 .text.fm_flush_filebuffer
                0x00000000       0x60 C:/Hoopoe3/satellite-subsystems/demo/../..//hal/hcc/lib\libHCCD.a(fat_m.o)
 .text.fm_open_nonsafe
                0x00000000       0x68 C:/Hoopoe3/satellite-subsystems/demo/../..//hal/hcc/lib\libHCCD.a(fat_m.o)
 .text.fm_open_pos
                0x00000000       0x70 C:/Hoopoe3/satellite-subsystems/demo/../..//hal/hcc/lib\libHCCD.a(fat_m.o)
 .text.fm_tell  0x00000000       0x60 C:/Hoopoe3/satellite-subsystems/demo/../..//hal/hcc/lib\libHCCD.a(fat_m.o)
 .text.fm_getc  0x00000000       0x60 C:/Hoopoe3/satellite-subsystems/demo/../..//hal/hcc/lib\libHCCD.a(fat_m.o)
 .text.fm_putc  0x00000000       0x68 C:/Hoopoe3/satellite-subsystems/demo/../..//hal/hcc/lib\libHCCD.a(fat_m.o)
 .text.fm_rewind
                0x00000000       0x60 C:/Hoopoe3/satellite-subsystems/demo/../..//hal/hcc/lib\libHCCD.a(fat_m.o)
 .text.fm_eof   0x00000000       0x60 C:/Hoopoe3/satellite-subsystems/demo/../..//hal/hcc/lib\libHCCD.a(fat_m.o)
 .text.fm_gettimedate
                0x00000000       0x70 C:/Hoopoe3/satellite-subsystems/demo/../..//hal/hcc/lib\libHCCD.a(fat_m.o)
 .text.fm_stat  0x00000000       0x68 C:/Hoopoe3/satellite-subsystems/demo/../..//hal/hcc/lib\libHCCD.a(fat_m.o)
 .text.fm_fstat
                0x00000000       0x68 C:/Hoopoe3/satellite-subsystems/demo/../..//hal/hcc/lib\libHCCD.a(fat_m.o)
 .text.fm_settimedate
                0x00000000       0x74 C:/Hoopoe3/satellite-subsystems/demo/../..//hal/hcc/lib\libHCCD.a(fat_m.o)
 .text.fm_getattr
                0x00000000       0x68 C:/Hoopoe3/satellite-subsystems/demo/../..//hal/hcc/lib\libHCCD.a(fat_m.o)
 .text.fm_setattr
                0x00000000       0x70 C:/Hoopoe3/satellite-subsystems/demo/../..//hal/hcc/lib\libHCCD.a(fat_m.o)
 .text.fm_getlabel
                0x00000000       0x70 C:/Hoopoe3/satellite-subsystems/demo/../..//hal/hcc/lib\libHCCD.a(fat_m.o)
 .text.fm_setlabel
                0x00000000       0x68 C:/Hoopoe3/satellite-subsystems/demo/../..//hal/hcc/lib\libHCCD.a(fat_m.o)
 .text.fm_truncate
                0x00000000       0x68 C:/Hoopoe3/satellite-subsystems/demo/../..//hal/hcc/lib\libHCCD.a(fat_m.o)
 .text.fm_get_oem
                0x00000000       0x70 C:/Hoopoe3/satellite-subsystems/demo/../..//hal/hcc/lib\libHCCD.a(fat_m.o)
 .text.fm_ftruncate
                0x00000000       0x68 C:/Hoopoe3/satellite-subsystems/demo/../..//hal/hcc/lib\libHCCD.a(fat_m.o)
 .text.fm_seteof
                0x00000000       0x60 C:/Hoopoe3/satellite-subsystems/demo/../..//hal/hcc/lib\libHCCD.a(fat_m.o)
 .text.fm_getlasterror
                0x00000000       0x40 C:/Hoopoe3/satellite-subsystems/demo/../..//hal/hcc/lib\libHCCD.a(fat_m.o)
 .text          0x00000000        0x0 C:/Hoopoe3/satellite-subsystems/demo/../..//hal/hcc/lib\libHCCD.a(safefat.o)
 .bss           0x00000000        0x0 C:/Hoopoe3/satellite-subsystems/demo/../..//hal/hcc/lib\libHCCD.a(safefat.o)
 .text._s_get_len
                0x00000000      0x10c C:/Hoopoe3/satellite-subsystems/demo/../..//hal/hcc/lib\libHCCD.a(safefat.o)
 .text._s_set_len
                0x00000000       0xb4 C:/Hoopoe3/satellite-subsystems/demo/../..//hal/hcc/lib\libHCCD.a(safefat.o)
 .text.safe_fix_filelengths
                0x00000000       0xcc C:/Hoopoe3/satellite-subsystems/demo/../..//hal/hcc/lib\libHCCD.a(safefat.o)
 .text.safe_seteof
                0x00000000      0x1a0 C:/Hoopoe3/satellite-subsystems/demo/../..//hal/hcc/lib\libHCCD.a(safefat.o)
 .text          0x00000000        0x0 C:/Hoopoe3/satellite-subsystems/demo/../..//hal/hcc/lib\libHCCD.a(atmel_mcipdc.o)
 .data          0x00000000        0x0 C:/Hoopoe3/satellite-subsystems/demo/../..//hal/hcc/lib\libHCCD.a(atmel_mcipdc.o)
 .text          0x00000000        0x0 C:/Hoopoe3/satellite-subsystems/demo/../..//hal/hcc/lib\libHCCD.a(oalp_mutex.o)
 .data          0x00000000        0x0 C:/Hoopoe3/satellite-subsystems/demo/../..//hal/hcc/lib\libHCCD.a(oalp_mutex.o)
 .bss           0x00000000        0x0 C:/Hoopoe3/satellite-subsystems/demo/../..//hal/hcc/lib\libHCCD.a(oalp_mutex.o)
 .text          0x00000000        0x0 C:/Hoopoe3/satellite-subsystems/demo/../..//hal/hcc/lib\libHCCD.a(oalp_task.o)
 .data          0x00000000        0x0 C:/Hoopoe3/satellite-subsystems/demo/../..//hal/hcc/lib\libHCCD.a(oalp_task.o)
 .bss           0x00000000        0x0 C:/Hoopoe3/satellite-subsystems/demo/../..//hal/hcc/lib\libHCCD.a(oalp_task.o)
 .text          0x00000000        0x0 C:/Hoopoe3/satellite-subsystems/demo/../..//hal/hcc/lib\libHCCD.a(atmel_mcipdc_hw.o)
 .data          0x00000000        0x0 C:/Hoopoe3/satellite-subsystems/demo/../..//hal/hcc/lib\libHCCD.a(atmel_mcipdc_hw.o)
 .bss           0x00000000        0x0 C:/Hoopoe3/satellite-subsystems/demo/../..//hal/hcc/lib\libHCCD.a(atmel_mcipdc_hw.o)
 .text          0x00000000        0x0 C:/Hoopoe3/satellite-subsystems/demo/../..//hal/hcc/lib\libHCCD.a(psp_rand.o)
 .data          0x00000000        0x4 C:/Hoopoe3/satellite-subsystems/demo/../..//hal/hcc/lib\libHCCD.a(psp_rand.o)
 .bss           0x00000000        0x0 C:/Hoopoe3/satellite-subsystems/demo/../..//hal/hcc/lib\libHCCD.a(psp_rand.o)
 .text.psp_getrand
                0x00000000      0x14c C:/Hoopoe3/satellite-subsystems/demo/../..//hal/hcc/lib\libHCCD.a(psp_rand.o)
 .debug_info    0x00000000      0x157 C:/Hoopoe3/satellite-subsystems/demo/../..//hal/hcc/lib\libHCCD.a(psp_rand.o)
 .debug_abbrev  0x00000000       0xad C:/Hoopoe3/satellite-subsystems/demo/../..//hal/hcc/lib\libHCCD.a(psp_rand.o)
 .debug_loc     0x00000000       0x2c C:/Hoopoe3/satellite-subsystems/demo/../..//hal/hcc/lib\libHCCD.a(psp_rand.o)
 .debug_aranges
                0x00000000       0x20 C:/Hoopoe3/satellite-subsystems/demo/../..//hal/hcc/lib\libHCCD.a(psp_rand.o)
 .debug_ranges  0x00000000       0x10 C:/Hoopoe3/satellite-subsystems/demo/../..//hal/hcc/lib\libHCCD.a(psp_rand.o)
 .debug_line    0x00000000      0x124 C:/Hoopoe3/satellite-subsystems/demo/../..//hal/hcc/lib\libHCCD.a(psp_rand.o)
 .debug_str     0x00000000      0x175 C:/Hoopoe3/satellite-subsystems/demo/../..//hal/hcc/lib\libHCCD.a(psp_rand.o)
 .comment       0x00000000       0x71 C:/Hoopoe3/satellite-subsystems/demo/../..//hal/hcc/lib\libHCCD.a(psp_rand.o)
 .ARM.attributes
                0x00000000       0x32 C:/Hoopoe3/satellite-subsystems/demo/../..//hal/hcc/lib\libHCCD.a(psp_rand.o)
 .debug_frame   0x00000000       0x2c C:/Hoopoe3/satellite-subsystems/demo/../..//hal/hcc/lib\libHCCD.a(psp_rand.o)
 .text          0x00000000        0x0 C:/Hoopoe3/satellite-subsystems/demo/../..//hal/hcc/lib\libHCCD.a(psp_rtc.o)
 .data          0x00000000        0x0 C:/Hoopoe3/satellite-subsystems/demo/../..//hal/hcc/lib\libHCCD.a(psp_rtc.o)
 .bss           0x00000000        0x0 C:/Hoopoe3/satellite-subsystems/demo/../..//hal/hcc/lib\libHCCD.a(psp_rtc.o)
 .text          0x00000000        0x0 C:/Hoopoe3/satellite-subsystems/demo/../..//hal/hcc/lib\libHCCD.a(hcc_mem.o)
 .data          0x00000000        0x0 C:/Hoopoe3/satellite-subsystems/demo/../..//hal/hcc/lib\libHCCD.a(hcc_mem.o)
 .text._hcc_set_lock_dsc
                0x00000000      0x124 C:/Hoopoe3/satellite-subsystems/demo/../..//hal/hcc/lib\libHCCD.a(hcc_mem.o)
 .text._hcc_mem_lock_get_area
                0x00000000      0x244 C:/Hoopoe3/satellite-subsystems/demo/../..//hal/hcc/lib\libHCCD.a(hcc_mem.o)
 .text.hcc_mem_lock_tr
                0x00000000      0x2cc C:/Hoopoe3/satellite-subsystems/demo/../..//hal/hcc/lib\libHCCD.a(hcc_mem.o)
 .text.hcc_mem_lock
                0x00000000      0x1b0 C:/Hoopoe3/satellite-subsystems/demo/../..//hal/hcc/lib\libHCCD.a(hcc_mem.o)
 .text.hcc_mem_unlock
                0x00000000      0x170 C:/Hoopoe3/satellite-subsystems/demo/../..//hal/hcc/lib\libHCCD.a(hcc_mem.o)
 .text.hcc_mem_unlock_int
                0x00000000      0x1a8 C:/Hoopoe3/satellite-subsystems/demo/../..//hal/hcc/lib\libHCCD.a(hcc_mem.o)
 .text.hcc_mem_get_hdl
                0x00000000       0x8c C:/Hoopoe3/satellite-subsystems/demo/../..//hal/hcc/lib\libHCCD.a(hcc_mem.o)
 .text.hcc_mem_start
                0x00000000       0x1c C:/Hoopoe3/satellite-subsystems/demo/../..//hal/hcc/lib\libHCCD.a(hcc_mem.o)
 .text.hcc_mem_stop
                0x00000000       0x1c C:/Hoopoe3/satellite-subsystems/demo/../..//hal/hcc/lib\libHCCD.a(hcc_mem.o)
 .text.hcc_mem_delete
                0x00000000       0x94 C:/Hoopoe3/satellite-subsystems/demo/../..//hal/hcc/lib\libHCCD.a(hcc_mem.o)
 .text          0x00000000        0x0 C:/Hoopoe3/satellite-subsystems/demo/../..//hal/hcc/lib\libHCCD.a(fat.o)
 .data          0x00000000        0x0 C:/Hoopoe3/satellite-subsystems/demo/../..//hal/hcc/lib\libHCCD.a(fat.o)
 .bss           0x00000000        0x0 C:/Hoopoe3/satellite-subsystems/demo/../..//hal/hcc/lib\libHCCD.a(fat.o)
 .text.fn_getcwd
                0x00000000      0x1e8 C:/Hoopoe3/satellite-subsystems/demo/../..//hal/hcc/lib\libHCCD.a(fat.o)
 .text.fn_chdir
                0x00000000      0x240 C:/Hoopoe3/satellite-subsystems/demo/../..//hal/hcc/lib\libHCCD.a(fat.o)
 .text.fn_move  0x00000000      0xad0 C:/Hoopoe3/satellite-subsystems/demo/../..//hal/hcc/lib\libHCCD.a(fat.o)
 .text.fn_rename
                0x00000000      0x214 C:/Hoopoe3/satellite-subsystems/demo/../..//hal/hcc/lib\libHCCD.a(fat.o)
 .rodata        0x00000000       0x20 C:/Hoopoe3/satellite-subsystems/demo/../..//hal/hcc/lib\libHCCD.a(fat.o)
 .text.fn_mkdir
                0x00000000      0x75c C:/Hoopoe3/satellite-subsystems/demo/../..//hal/hcc/lib\libHCCD.a(fat.o)
 .text.fn_open_nonsafe
                0x00000000       0x44 C:/Hoopoe3/satellite-subsystems/demo/../..//hal/hcc/lib\libHCCD.a(fat.o)
 .text.fn_open_pos
                0x00000000       0x48 C:/Hoopoe3/satellite-subsystems/demo/../..//hal/hcc/lib\libHCCD.a(fat.o)
 .text.fn_settimedate
                0x00000000      0x324 C:/Hoopoe3/satellite-subsystems/demo/../..//hal/hcc/lib\libHCCD.a(fat.o)
 .text.fn_gettimedate
                0x00000000      0x1bc C:/Hoopoe3/satellite-subsystems/demo/../..//hal/hcc/lib\libHCCD.a(fat.o)
 .text.fn_stat  0x00000000      0x26c C:/Hoopoe3/satellite-subsystems/demo/../..//hal/hcc/lib\libHCCD.a(fat.o)
 .text.fn_getattr
                0x00000000      0x17c C:/Hoopoe3/satellite-subsystems/demo/../..//hal/hcc/lib\libHCCD.a(fat.o)
 .text.fn_setattr
                0x00000000      0x328 C:/Hoopoe3/satellite-subsystems/demo/../..//hal/hcc/lib\libHCCD.a(fat.o)
 .text.fn_rmdir
                0x00000000      0x5ac C:/Hoopoe3/satellite-subsystems/demo/../..//hal/hcc/lib\libHCCD.a(fat.o)
 .text.fn_getlabel
                0x00000000      0x39c C:/Hoopoe3/satellite-subsystems/demo/../..//hal/hcc/lib\libHCCD.a(fat.o)
 .text.fn_setlabel
                0x00000000      0x574 C:/Hoopoe3/satellite-subsystems/demo/../..//hal/hcc/lib\libHCCD.a(fat.o)
 .text.fn_truncate
                0x00000000      0x7b4 C:/Hoopoe3/satellite-subsystems/demo/../..//hal/hcc/lib\libHCCD.a(fat.o)
 .text          0x00000000        0x0 C:/Hoopoe3/satellite-subsystems/demo/../..//hal/hcc/lib\libHCCD.a(psp_hcc_mem.o)
 .data          0x00000000        0x0 C:/Hoopoe3/satellite-subsystems/demo/../..//hal/hcc/lib\libHCCD.a(psp_hcc_mem.o)
 .text.hcc_mem_buf_free
                0x00000000       0x6c C:/Hoopoe3/satellite-subsystems/demo/../..//hal/hcc/lib\libHCCD.a(psp_hcc_mem.o)
 .text          0x00000000        0x0 C:/Hoopoe3/satellite-subsystems/demo/../..//hal/hal/lib\libHALD.a(I2C.o)
 .text.I2C_read
                0x00000000      0x110 C:/Hoopoe3/satellite-subsystems/demo/../..//hal/hal/lib\libHALD.a(I2C.o)
 .text.I2C_blockBus
                0x00000000       0x50 C:/Hoopoe3/satellite-subsystems/demo/../..//hal/hal/lib\libHALD.a(I2C.o)
 .text.I2C_releaseBus
                0x00000000       0x2c C:/Hoopoe3/satellite-subsystems/demo/../..//hal/hal/lib\libHALD.a(I2C.o)
 .text.I2C_getDriverState
                0x00000000       0x28 C:/Hoopoe3/satellite-subsystems/demo/../..//hal/hal/lib\libHALD.a(I2C.o)
 .text.I2C_getCurrentTransferStatus
                0x00000000       0x28 C:/Hoopoe3/satellite-subsystems/demo/../..//hal/hal/lib\libHALD.a(I2C.o)
 .text          0x00000000        0x0 C:/Hoopoe3/satellite-subsystems/demo/../..//hal/hal/lib\libHALD.a(SPI.o)
 .text          0x00000000        0x0 C:/Hoopoe3/satellite-subsystems/demo/../..//hal/hal/lib\libHALD.a(FRAM.o)
 .text.FRAM_stop
                0x00000000       0x6c C:/Hoopoe3/satellite-subsystems/demo/../..//hal/hal/lib\libHALD.a(FRAM.o)
 .text.FRAM_protectBlocks
                0x00000000      0x1ec C:/Hoopoe3/satellite-subsystems/demo/../..//hal/hal/lib\libHALD.a(FRAM.o)
 .text.FRAM_getProtectedBlocks
                0x00000000      0x108 C:/Hoopoe3/satellite-subsystems/demo/../..//hal/hal/lib\libHALD.a(FRAM.o)
 .text.FRAM_getDeviceID
                0x00000000      0x13c C:/Hoopoe3/satellite-subsystems/demo/../..//hal/hal/lib\libHALD.a(FRAM.o)
 .text          0x00000000        0x0 C:/Hoopoe3/satellite-subsystems/demo/../..//hal/hal/lib\libHALD.a(Time.o)
 .text.Time_getUptimeSeconds
                0x00000000       0x28 C:/Hoopoe3/satellite-subsystems/demo/../..//hal/hal/lib\libHALD.a(Time.o)
 .text.Time_diff
                0x00000000      0x24c C:/Hoopoe3/satellite-subsystems/demo/../..//hal/hal/lib\libHALD.a(Time.o)
 .text.Time_isRTCworking
                0x00000000       0x24 C:/Hoopoe3/satellite-subsystems/demo/../..//hal/hal/lib\libHALD.a(Time.o)
 .text          0x00000000        0x0 C:/Hoopoe3/satellite-subsystems/demo/../..//hal/hal/lib\libHALD.a(WatchDogTimerNoOS.o)
 .data          0x00000000        0x0 C:/Hoopoe3/satellite-subsystems/demo/../..//hal/hal/lib\libHALD.a(WatchDogTimerNoOS.o)
 .bss           0x00000000        0x0 C:/Hoopoe3/satellite-subsystems/demo/../..//hal/hal/lib\libHALD.a(WatchDogTimerNoOS.o)
 .text          0x00000000        0x0 C:/Hoopoe3/satellite-subsystems/demo/../..//hal/hal/lib\libHALD.a(WatchDogTimerOS.o)
 .data          0x00000000        0x0 C:/Hoopoe3/satellite-subsystems/demo/../..//hal/hal/lib\libHALD.a(WatchDogTimerOS.o)
 .text.WDT_stopWatchdogKickTask
                0x00000000       0x3c C:/Hoopoe3/satellite-subsystems/demo/../..//hal/hal/lib\libHALD.a(WatchDogTimerOS.o)
 .text          0x00000000        0x0 C:/Hoopoe3/satellite-subsystems/demo/../..//hal/hal/lib\libHALD.a(util.o)
 .data          0x00000000        0x0 C:/Hoopoe3/satellite-subsystems/demo/../..//hal/hal/lib\libHALD.a(util.o)
 .bss           0x00000000        0x0 C:/Hoopoe3/satellite-subsystems/demo/../..//hal/hal/lib\libHALD.a(util.o)
 .text.PrintChar
                0x00000000       0x58 C:/Hoopoe3/satellite-subsystems/demo/../..//hal/hal/lib\libHALD.a(util.o)
 .text.UTIL_DbguDumpMemory
                0x00000000      0x254 C:/Hoopoe3/satellite-subsystems/demo/../..//hal/hal/lib\libHALD.a(util.o)
 .text.UTIL_DbguDumpArrayBytes
                0x00000000       0x70 C:/Hoopoe3/satellite-subsystems/demo/../..//hal/hal/lib\libHALD.a(util.o)
 .text.UTIL_DbguGetString
                0x00000000       0xe0 C:/Hoopoe3/satellite-subsystems/demo/../..//hal/hal/lib\libHALD.a(util.o)
 .text.UTIL_DbguGetHexa32
                0x00000000      0x174 C:/Hoopoe3/satellite-subsystems/demo/../..//hal/hal/lib\libHALD.a(util.o)
 .text          0x00000000        0x0 C:/Hoopoe3/satellite-subsystems/demo/../..//hal/hal/lib\libHALD.a(LED.o)
 .data          0x00000000        0x0 C:/Hoopoe3/satellite-subsystems/demo/../..//hal/hal/lib\libHALD.a(LED.o)
 .text.uSdelay  0x00000000       0x88 C:/Hoopoe3/satellite-subsystems/demo/../..//hal/hal/lib\libHALD.a(LED.o)
 .text.LED_start
                0x00000000       0x1c C:/Hoopoe3/satellite-subsystems/demo/../..//hal/hal/lib\libHALD.a(LED.o)
 .text.LED_wave
                0x00000000       0xd0 C:/Hoopoe3/satellite-subsystems/demo/../..//hal/hal/lib\libHALD.a(LED.o)
 .text.LED_waveReverse
                0x00000000       0xd0 C:/Hoopoe3/satellite-subsystems/demo/../..//hal/hal/lib\libHALD.a(LED.o)
 .text          0x00000000        0x0 C:/Hoopoe3/satellite-subsystems/demo/../..//hal/hal/lib\libHALD.a(RTC.o)
 .bss           0x00000000        0x0 C:/Hoopoe3/satellite-subsystems/demo/../..//hal/hal/lib\libHALD.a(RTC.o)
 .text.uSdelay  0x00000000       0x8c C:/Hoopoe3/satellite-subsystems/demo/../..//hal/hal/lib\libHALD.a(RTC.o)
 .rodata        0x00000000       0x58 C:/Hoopoe3/satellite-subsystems/demo/../..//hal/hal/lib\libHALD.a(RTC.o)
 .text.RTC_printSeconds
                0x00000000       0x8c C:/Hoopoe3/satellite-subsystems/demo/../..//hal/hal/lib\libHALD.a(RTC.o)
 .text.RTC_stop
                0x00000000       0x14 C:/Hoopoe3/satellite-subsystems/demo/../..//hal/hal/lib\libHALD.a(RTC.o)
 .text.RTC_testGetSet
                0x00000000      0x178 C:/Hoopoe3/satellite-subsystems/demo/../..//hal/hal/lib\libHALD.a(RTC.o)
 .text.RTC_testSeconds
                0x00000000       0xb8 C:/Hoopoe3/satellite-subsystems/demo/../..//hal/hal/lib\libHALD.a(RTC.o)
 .text.RTC_getTemperature
                0x00000000      0x104 C:/Hoopoe3/satellite-subsystems/demo/../..//hal/hal/lib\libHALD.a(RTC.o)
 .text          0x00000000        0x0 C:/Hoopoe3/satellite-subsystems/demo/../..//hal/hal/lib\libHALD.a(RTT.o)
 .data          0x00000000        0x0 C:/Hoopoe3/satellite-subsystems/demo/../..//hal/hal/lib\libHALD.a(RTT.o)
 .bss           0x00000000        0x0 C:/Hoopoe3/satellite-subsystems/demo/../..//hal/hal/lib\libHALD.a(RTT.o)
 .text.uSdelay  0x00000000       0x8c C:/Hoopoe3/satellite-subsystems/demo/../..//hal/hal/lib\libHALD.a(RTT.o)
 .text.RTT_GetTime
                0x00000000       0x24 C:/Hoopoe3/satellite-subsystems/demo/../..//hal/hal/lib\libHALD.a(RTT.o)
 .text.RTT_GetStatus
                0x00000000       0x24 C:/Hoopoe3/satellite-subsystems/demo/../..//hal/hal/lib\libHALD.a(RTT.o)
 .text.RTT_test
                0x00000000       0x54 C:/Hoopoe3/satellite-subsystems/demo/../..//hal/hal/lib\libHALD.a(RTT.o)
 .text          0x00000000        0x0 C:/Hoopoe3/satellite-subsystems/demo/../..//hal/freertos/lib\libFreeRTOSD.a(queue.o)
 .data          0x00000000        0x0 C:/Hoopoe3/satellite-subsystems/demo/../..//hal/freertos/lib\libFreeRTOSD.a(queue.o)
 .bss           0x00000000        0x0 C:/Hoopoe3/satellite-subsystems/demo/../..//hal/freertos/lib\libFreeRTOSD.a(queue.o)
 .text.xQueueGiveMutexRecursive
                0x00000000       0xc0 C:/Hoopoe3/satellite-subsystems/demo/../..//hal/freertos/lib\libFreeRTOSD.a(queue.o)
 .text.xQueueTakeMutexRecursive
                0x00000000       0xd4 C:/Hoopoe3/satellite-subsystems/demo/../..//hal/freertos/lib\libFreeRTOSD.a(queue.o)
 .text.xQueueCreateCountingSemaphore
                0x00000000       0x88 C:/Hoopoe3/satellite-subsystems/demo/../..//hal/freertos/lib\libFreeRTOSD.a(queue.o)
 .text.xQueueReceiveFromISR
                0x00000000      0x15c C:/Hoopoe3/satellite-subsystems/demo/../..//hal/freertos/lib\libFreeRTOSD.a(queue.o)
 .text.xQueuePeekFromISR
                0x00000000       0xf0 C:/Hoopoe3/satellite-subsystems/demo/../..//hal/freertos/lib\libFreeRTOSD.a(queue.o)
 .text.uxQueueSpacesAvailable
                0x00000000       0x80 C:/Hoopoe3/satellite-subsystems/demo/../..//hal/freertos/lib\libFreeRTOSD.a(queue.o)
 .text.uxQueueMessagesWaitingFromISR
                0x00000000       0x64 C:/Hoopoe3/satellite-subsystems/demo/../..//hal/freertos/lib\libFreeRTOSD.a(queue.o)
 .text.xQueueIsQueueEmptyFromISR
                0x00000000       0x7c C:/Hoopoe3/satellite-subsystems/demo/../..//hal/freertos/lib\libFreeRTOSD.a(queue.o)
 .text.xQueueIsQueueFullFromISR
                0x00000000       0x84 C:/Hoopoe3/satellite-subsystems/demo/../..//hal/freertos/lib\libFreeRTOSD.a(queue.o)
 .text.vQueueAddToRegistry
                0x00000000       0x90 C:/Hoopoe3/satellite-subsystems/demo/../..//hal/freertos/lib\libFreeRTOSD.a(queue.o)
 .text          0x00000000        0x0 C:/Hoopoe3/satellite-subsystems/demo/../..//hal/freertos/lib\libFreeRTOSD.a(tasks.o)
 .text.uxTaskPriorityGet
                0x00000000       0x58 C:/Hoopoe3/satellite-subsystems/demo/../..//hal/freertos/lib\libFreeRTOSD.a(tasks.o)
 .text.vTaskPrioritySet
                0x00000000      0x22c C:/Hoopoe3/satellite-subsystems/demo/../..//hal/freertos/lib\libFreeRTOSD.a(tasks.o)
 .text.vTaskSuspend
                0x00000000       0xec C:/Hoopoe3/satellite-subsystems/demo/../..//hal/freertos/lib\libFreeRTOSD.a(tasks.o)
 .text.xTaskIsTaskSuspended
                0x00000000       0xd8 C:/Hoopoe3/satellite-subsystems/demo/../..//hal/freertos/lib\libFreeRTOSD.a(tasks.o)
 .text.vTaskResume
                0x00000000      0x12c C:/Hoopoe3/satellite-subsystems/demo/../..//hal/freertos/lib\libFreeRTOSD.a(tasks.o)
 .text.xTaskResumeFromISR
                0x00000000      0x150 C:/Hoopoe3/satellite-subsystems/demo/../..//hal/freertos/lib\libFreeRTOSD.a(tasks.o)
 .text.vTaskEndScheduler
                0x00000000       0x34 C:/Hoopoe3/satellite-subsystems/demo/../..//hal/freertos/lib\libFreeRTOSD.a(tasks.o)
 .text.xTaskGetTickCountFromISR
                0x00000000       0x38 C:/Hoopoe3/satellite-subsystems/demo/../..//hal/freertos/lib\libFreeRTOSD.a(tasks.o)
 .text.uxTaskGetNumberOfTasks
                0x00000000       0x24 C:/Hoopoe3/satellite-subsystems/demo/../..//hal/freertos/lib\libFreeRTOSD.a(tasks.o)
 .text.pcTaskGetTaskName
                0x00000000       0x80 C:/Hoopoe3/satellite-subsystems/demo/../..//hal/freertos/lib\libFreeRTOSD.a(tasks.o)
 .text          0x00000000        0x0 C:/Hoopoe3/satellite-subsystems/demo/../..//hal/freertos/lib\libFreeRTOSD.a(hooks.o)
 .data          0x00000000        0x0 C:/Hoopoe3/satellite-subsystems/demo/../..//hal/freertos/lib\libFreeRTOSD.a(hooks.o)
 .bss           0x00000000        0x0 C:/Hoopoe3/satellite-subsystems/demo/../..//hal/freertos/lib\libFreeRTOSD.a(hooks.o)
 .text          0x00000000        0x0 C:/Hoopoe3/satellite-subsystems/demo/../..//hal/freertos/lib\libFreeRTOSD.a(standardMemMang.o)
 .data          0x00000000        0x0 C:/Hoopoe3/satellite-subsystems/demo/../..//hal/freertos/lib\libFreeRTOSD.a(standardMemMang.o)
 .bss           0x00000000        0x0 C:/Hoopoe3/satellite-subsystems/demo/../..//hal/freertos/lib\libFreeRTOSD.a(standardMemMang.o)
 .text.vPortInitialiseBlocks
                0x00000000       0x14 C:/Hoopoe3/satellite-subsystems/demo/../..//hal/freertos/lib\libFreeRTOSD.a(standardMemMang.o)
 .text.xPortGetFreeHeapSize
                0x00000000       0x20 C:/Hoopoe3/satellite-subsystems/demo/../..//hal/freertos/lib\libFreeRTOSD.a(standardMemMang.o)
 .text          0x00000000        0x0 C:/Hoopoe3/satellite-subsystems/demo/../..//hal/freertos/lib\libFreeRTOSD.a(port.o)
 .bss           0x00000000        0x0 C:/Hoopoe3/satellite-subsystems/demo/../..//hal/freertos/lib\libFreeRTOSD.a(port.o)
 .text.vPortEndScheduler
                0x00000000       0x14 C:/Hoopoe3/satellite-subsystems/demo/../..//hal/freertos/lib\libFreeRTOSD.a(port.o)
 .text.vPortDisableInterruptsFromThumb
                0x00000000       0x18 C:/Hoopoe3/satellite-subsystems/demo/../..//hal/freertos/lib\libFreeRTOSD.a(port.o)
 .text.vPortEnableInterruptsFromThumb
                0x00000000       0x18 C:/Hoopoe3/satellite-subsystems/demo/../..//hal/freertos/lib\libFreeRTOSD.a(port.o)
 .text          0x00000000        0x0 C:/Hoopoe3/satellite-subsystems/demo/../..//hal/freertos/lib\libFreeRTOSD.a(list.o)
 .data          0x00000000        0x0 C:/Hoopoe3/satellite-subsystems/demo/../..//hal/freertos/lib\libFreeRTOSD.a(list.o)
 .bss           0x00000000        0x0 C:/Hoopoe3/satellite-subsystems/demo/../..//hal/freertos/lib\libFreeRTOSD.a(list.o)
 .text          0x00000000        0x0 C:/Hoopoe3/satellite-subsystems/demo/../..//hal/at91/lib\libAt91D.a(syscalls.o)
 .data          0x00000000        0x0 C:/Hoopoe3/satellite-subsystems/demo/../..//hal/at91/lib\libAt91D.a(syscalls.o)
 .text._open    0x00000000       0x2c C:/Hoopoe3/satellite-subsystems/demo/../..//hal/at91/lib\libAt91D.a(syscalls.o)
 .text._link    0x00000000       0x28 C:/Hoopoe3/satellite-subsystems/demo/../..//hal/at91/lib\libAt91D.a(syscalls.o)
 .text._rename  0x00000000       0x28 C:/Hoopoe3/satellite-subsystems/demo/../..//hal/at91/lib\libAt91D.a(syscalls.o)
 .text._unlink  0x00000000       0x24 C:/Hoopoe3/satellite-subsystems/demo/../..//hal/at91/lib\libAt91D.a(syscalls.o)
 .text.fsync    0x00000000       0x24 C:/Hoopoe3/satellite-subsystems/demo/../..//hal/at91/lib\libAt91D.a(syscalls.o)
 .text._stat    0x00000000       0x28 C:/Hoopoe3/satellite-subsystems/demo/../..//hal/at91/lib\libAt91D.a(syscalls.o)
 .text.exit     0x00000000       0x28 C:/Hoopoe3/satellite-subsystems/demo/../..//hal/at91/lib\libAt91D.a(syscalls.o)
 .text._exit    0x00000000       0x28 C:/Hoopoe3/satellite-subsystems/demo/../..//hal/at91/lib\libAt91D.a(syscalls.o)
 .text._kill    0x00000000       0x1c C:/Hoopoe3/satellite-subsystems/demo/../..//hal/at91/lib\libAt91D.a(syscalls.o)
 .text._getpid  0x00000000       0x1c C:/Hoopoe3/satellite-subsystems/demo/../..//hal/at91/lib\libAt91D.a(syscalls.o)
 .text._gettimeofday
                0x00000000       0x1c C:/Hoopoe3/satellite-subsystems/demo/../..//hal/at91/lib\libAt91D.a(syscalls.o)
 .text          0x00000000        0x0 C:/Hoopoe3/satellite-subsystems/demo/../..//hal/at91/lib\libAt91D.a(aic.o)
 .data          0x00000000        0x0 C:/Hoopoe3/satellite-subsystems/demo/../..//hal/at91/lib\libAt91D.a(aic.o)
 .bss           0x00000000        0x0 C:/Hoopoe3/satellite-subsystems/demo/../..//hal/at91/lib\libAt91D.a(aic.o)
 .text          0x00000000        0x0 C:/Hoopoe3/satellite-subsystems/demo/../..//hal/at91/lib\libAt91D.a(cp15.o)
 .data          0x00000000        0x0 C:/Hoopoe3/satellite-subsystems/demo/../..//hal/at91/lib\libAt91D.a(cp15.o)
 .bss           0x00000000        0x0 C:/Hoopoe3/satellite-subsystems/demo/../..//hal/at91/lib\libAt91D.a(cp15.o)
 .text.CP15_Is_I_CacheEnabled
                0x00000000       0x38 C:/Hoopoe3/satellite-subsystems/demo/../..//hal/at91/lib\libAt91D.a(cp15.o)
 .text.CP15_Is_MMUEnabled
                0x00000000       0x38 C:/Hoopoe3/satellite-subsystems/demo/../..//hal/at91/lib\libAt91D.a(cp15.o)
 .text.CP15_EnableMMU
                0x00000000       0x5c C:/Hoopoe3/satellite-subsystems/demo/../..//hal/at91/lib\libAt91D.a(cp15.o)
 .text.CP15_Is_DCacheEnabled
                0x00000000       0x38 C:/Hoopoe3/satellite-subsystems/demo/../..//hal/at91/lib\libAt91D.a(cp15.o)
 .text.CP15_Enable_D_Cache
                0x00000000       0x7c C:/Hoopoe3/satellite-subsystems/demo/../..//hal/at91/lib\libAt91D.a(cp15.o)
 .text          0x00000000        0x0 C:/Hoopoe3/satellite-subsystems/demo/../..//hal/at91/lib\libAt91D.a(dbgu.o)
 .data          0x00000000        0x0 C:/Hoopoe3/satellite-subsystems/demo/../..//hal/at91/lib\libAt91D.a(dbgu.o)
 .bss           0x00000000        0x0 C:/Hoopoe3/satellite-subsystems/demo/../..//hal/at91/lib\libAt91D.a(dbgu.o)
 .text.fputc    0x00000000       0x70 C:/Hoopoe3/satellite-subsystems/demo/../..//hal/at91/lib\libAt91D.a(dbgu.o)
 .text.fputs    0x00000000       0x80 C:/Hoopoe3/satellite-subsystems/demo/../..//hal/at91/lib\libAt91D.a(dbgu.o)
 .text.putchar  0x00000000       0x3c C:/Hoopoe3/satellite-subsystems/demo/../..//hal/at91/lib\libAt91D.a(dbgu.o)
 .text          0x00000000        0x0 C:/Hoopoe3/satellite-subsystems/demo/../..//hal/at91/lib\libAt91D.a(pio.o)
 .data          0x00000000        0x0 C:/Hoopoe3/satellite-subsystems/demo/../..//hal/at91/lib\libAt91D.a(pio.o)
 .bss           0x00000000        0x0 C:/Hoopoe3/satellite-subsystems/demo/../..//hal/at91/lib\libAt91D.a(pio.o)
 .text.PIO_GetOutputDataStatus
                0x00000000       0x60 C:/Hoopoe3/satellite-subsystems/demo/../..//hal/at91/lib\libAt91D.a(pio.o)
 .text.PIO_GetISR
                0x00000000       0x40 C:/Hoopoe3/satellite-subsystems/demo/../..//hal/at91/lib\libAt91D.a(pio.o)
 .text          0x00000000        0x0 C:/Hoopoe3/satellite-subsystems/demo/../..//hal/at91/lib\libAt91D.a(pit.o)
 .data          0x00000000        0x0 C:/Hoopoe3/satellite-subsystems/demo/../..//hal/at91/lib\libAt91D.a(pit.o)
 .bss           0x00000000        0x0 C:/Hoopoe3/satellite-subsystems/demo/../..//hal/at91/lib\libAt91D.a(pit.o)
 .text.PIT_SetPIV
                0x00000000       0x40 C:/Hoopoe3/satellite-subsystems/demo/../..//hal/at91/lib\libAt91D.a(pit.o)
 .text.PIT_DisableIT
                0x00000000       0x2c C:/Hoopoe3/satellite-subsystems/demo/../..//hal/at91/lib\libAt91D.a(pit.o)
 .text.PIT_GetMode
                0x00000000       0x24 C:/Hoopoe3/satellite-subsystems/demo/../..//hal/at91/lib\libAt91D.a(pit.o)
 .text.PIT_GetStatus
                0x00000000       0x24 C:/Hoopoe3/satellite-subsystems/demo/../..//hal/at91/lib\libAt91D.a(pit.o)
 .text.PIT_GetPIIR
                0x00000000       0x24 C:/Hoopoe3/satellite-subsystems/demo/../..//hal/at91/lib\libAt91D.a(pit.o)
 .text.PIT_GetPIVR
                0x00000000       0x24 C:/Hoopoe3/satellite-subsystems/demo/../..//hal/at91/lib\libAt91D.a(pit.o)
 .text          0x00000000        0x0 C:/Hoopoe3/satellite-subsystems/demo/../..//hal/at91/lib\libAt91D.a(pmc.o)
 .data          0x00000000        0x0 C:/Hoopoe3/satellite-subsystems/demo/../..//hal/at91/lib\libAt91D.a(pmc.o)
 .bss           0x00000000        0x0 C:/Hoopoe3/satellite-subsystems/demo/../..//hal/at91/lib\libAt91D.a(pmc.o)
 .text.PMC_DisableProcessorClock
                0x00000000       0x3c C:/Hoopoe3/satellite-subsystems/demo/../..//hal/at91/lib\libAt91D.a(pmc.o)
 .text.PMC_EnableAllPeripherals
                0x00000000       0x40 C:/Hoopoe3/satellite-subsystems/demo/../..//hal/at91/lib\libAt91D.a(pmc.o)
 .text.PMC_DisableAllPeripherals
                0x00000000       0x40 C:/Hoopoe3/satellite-subsystems/demo/../..//hal/at91/lib\libAt91D.a(pmc.o)
 .text.PMC_IsAllPeriphEnabled
                0x00000000       0x34 C:/Hoopoe3/satellite-subsystems/demo/../..//hal/at91/lib\libAt91D.a(pmc.o)
 .text.PMC_CPUInIdleMode
                0x00000000       0x14 C:/Hoopoe3/satellite-subsystems/demo/../..//hal/at91/lib\libAt91D.a(pmc.o)
 .text          0x00000000        0x0 C:/Hoopoe3/satellite-subsystems/demo/../..//hal/at91/lib\libAt91D.a(spi_at91.o)
 .data          0x00000000        0x0 C:/Hoopoe3/satellite-subsystems/demo/../..//hal/at91/lib\libAt91D.a(spi_at91.o)
 .bss           0x00000000        0x0 C:/Hoopoe3/satellite-subsystems/demo/../..//hal/at91/lib\libAt91D.a(spi_at91.o)
 .text.SPI_Write
                0x00000000       0x84 C:/Hoopoe3/satellite-subsystems/demo/../..//hal/at91/lib\libAt91D.a(spi_at91.o)
 .text.SPI_WriteBuffer
                0x00000000       0x98 C:/Hoopoe3/satellite-subsystems/demo/../..//hal/at91/lib\libAt91D.a(spi_at91.o)
 .text.SPI_IsFinished
                0x00000000       0x3c C:/Hoopoe3/satellite-subsystems/demo/../..//hal/at91/lib\libAt91D.a(spi_at91.o)
 .text.SPI_Read
                0x00000000       0x48 C:/Hoopoe3/satellite-subsystems/demo/../..//hal/at91/lib\libAt91D.a(spi_at91.o)
 .text.SPI_ReadBuffer
                0x00000000       0x98 C:/Hoopoe3/satellite-subsystems/demo/../..//hal/at91/lib\libAt91D.a(spi_at91.o)
 .text          0x00000000        0x0 C:/Hoopoe3/satellite-subsystems/demo/../..//hal/at91/lib\libAt91D.a(twi_at91.o)
 .data          0x00000000        0x0 C:/Hoopoe3/satellite-subsystems/demo/../..//hal/at91/lib\libAt91D.a(twi_at91.o)
 .bss           0x00000000        0x0 C:/Hoopoe3/satellite-subsystems/demo/../..//hal/at91/lib\libAt91D.a(twi_at91.o)
 .text.TWI_ConfigureSlave
                0x00000000       0xe0 C:/Hoopoe3/satellite-subsystems/demo/../..//hal/at91/lib\libAt91D.a(twi_at91.o)
 .text.TWI_Stop
                0x00000000       0x58 C:/Hoopoe3/satellite-subsystems/demo/../..//hal/at91/lib\libAt91D.a(twi_at91.o)
 .text.TWI_StartRead
                0x00000000      0x134 C:/Hoopoe3/satellite-subsystems/demo/../..//hal/at91/lib\libAt91D.a(twi_at91.o)
 .text.TWI_ReadByte
                0x00000000       0x5c C:/Hoopoe3/satellite-subsystems/demo/../..//hal/at91/lib\libAt91D.a(twi_at91.o)
 .text.TWI_WriteByte
                0x00000000       0x64 C:/Hoopoe3/satellite-subsystems/demo/../..//hal/at91/lib\libAt91D.a(twi_at91.o)
 .text.TWI_StartWrite
                0x00000000      0x140 C:/Hoopoe3/satellite-subsystems/demo/../..//hal/at91/lib\libAt91D.a(twi_at91.o)
 .text.TWI_ByteReceived
                0x00000000       0x3c C:/Hoopoe3/satellite-subsystems/demo/../..//hal/at91/lib\libAt91D.a(twi_at91.o)
 .text.TWI_ByteSent
                0x00000000       0x3c C:/Hoopoe3/satellite-subsystems/demo/../..//hal/at91/lib\libAt91D.a(twi_at91.o)
 .text.TWI_TransferComplete
                0x00000000       0x3c C:/Hoopoe3/satellite-subsystems/demo/../..//hal/at91/lib\libAt91D.a(twi_at91.o)
 .text.TWI_EnableIt
                0x00000000       0x90 C:/Hoopoe3/satellite-subsystems/demo/../..//hal/at91/lib\libAt91D.a(twi_at91.o)
 .text.TWI_DisableIt
                0x00000000       0x94 C:/Hoopoe3/satellite-subsystems/demo/../..//hal/at91/lib\libAt91D.a(twi_at91.o)
 .text.TWI_GetStatus
                0x00000000       0x5c C:/Hoopoe3/satellite-subsystems/demo/../..//hal/at91/lib\libAt91D.a(twi_at91.o)
 .text.TWI_SendSTOPCondition
                0x00000000       0x64 C:/Hoopoe3/satellite-subsystems/demo/../..//hal/at91/lib\libAt91D.a(twi_at91.o)
 .text          0x00000000        0x0 C:/Hoopoe3/satellite-subsystems/demo/../..//hal/at91/lib\libAt91D.a(ExitHandler.o)
 .data          0x00000000        0x0 C:/Hoopoe3/satellite-subsystems/demo/../..//hal/at91/lib\libAt91D.a(ExitHandler.o)
 .bss           0x00000000        0x0 C:/Hoopoe3/satellite-subsystems/demo/../..//hal/at91/lib\libAt91D.a(ExitHandler.o)
 .text          0x00000000        0x0 C:/Hoopoe3/satellite-subsystems/demo/../..//hal/at91/lib\libAt91D.a(board_cstartup.o)
 .data          0x00000000        0x0 C:/Hoopoe3/satellite-subsystems/demo/../..//hal/at91/lib\libAt91D.a(board_cstartup.o)
 .bss           0x00000000        0x0 C:/Hoopoe3/satellite-subsystems/demo/../..//hal/at91/lib\libAt91D.a(board_cstartup.o)
 .data          0x00000000        0x0 C:/Hoopoe3/satellite-subsystems/demo/../..//hal/at91/lib\libAt91D.a(cp15_asm.o)
 .bss           0x00000000        0x0 C:/Hoopoe3/satellite-subsystems/demo/../..//hal/at91/lib\libAt91D.a(cp15_asm.o)
 .text          0x00000000        0x0 C:/Hoopoe3/satellite-subsystems/demo/../..//hal/at91/lib\libAt91D.a(board_lowlevel.o)
 .data          0x00000000        0x0 C:/Hoopoe3/satellite-subsystems/demo/../..//hal/at91/lib\libAt91D.a(board_lowlevel.o)
 .bss           0x00000000        0x0 C:/Hoopoe3/satellite-subsystems/demo/../..//hal/at91/lib\libAt91D.a(board_lowlevel.o)
 .text.assignBusMatrixPriorities
                0x00000000       0x54 C:/Hoopoe3/satellite-subsystems/demo/../..//hal/at91/lib\libAt91D.a(board_lowlevel.o)
 .text          0x00000000        0x0 C:/Hoopoe3/satellite-subsystems/demo/../..//hal/at91/lib\libAt91D.a(board_memories.o)
 .data          0x00000000        0x0 C:/Hoopoe3/satellite-subsystems/demo/../..//hal/at91/lib\libAt91D.a(board_memories.o)
 .bss           0x00000000        0x0 C:/Hoopoe3/satellite-subsystems/demo/../..//hal/at91/lib\libAt91D.a(board_memories.o)
 .text.BOARD_RemapRom
                0x00000000       0x24 C:/Hoopoe3/satellite-subsystems/demo/../..//hal/at91/lib\libAt91D.a(board_memories.o)
 .text.BOARD_ConfigureSdram
                0x00000000      0x24c C:/Hoopoe3/satellite-subsystems/demo/../..//hal/at91/lib\libAt91D.a(board_memories.o)
 .text.BOARD_ConfigureNorFlash
                0x00000000       0xc4 C:/Hoopoe3/satellite-subsystems/demo/../..//hal/at91/lib\libAt91D.a(board_memories.o)
 .rodata        0x00000000        0xc C:/Hoopoe3/satellite-subsystems/demo/../..//hal/at91/lib\libAt91D.a(board_memories.o)
 .data          0x00000000        0x0 c:/isis/application/toolchain/bin/../lib/gcc/arm-none-eabi/4.7.4\libgcc.a(_udivsi3.o)
 .bss           0x00000000        0x0 c:/isis/application/toolchain/bin/../lib/gcc/arm-none-eabi/4.7.4\libgcc.a(_udivsi3.o)
 .data          0x00000000        0x0 c:/isis/application/toolchain/bin/../lib/gcc/arm-none-eabi/4.7.4\libgcc.a(_divsi3.o)
 .bss           0x00000000        0x0 c:/isis/application/toolchain/bin/../lib/gcc/arm-none-eabi/4.7.4\libgcc.a(_divsi3.o)
 .data          0x00000000        0x0 c:/isis/application/toolchain/bin/../lib/gcc/arm-none-eabi/4.7.4\libgcc.a(_dvmd_tls.o)
 .bss           0x00000000        0x0 c:/isis/application/toolchain/bin/../lib/gcc/arm-none-eabi/4.7.4\libgcc.a(_dvmd_tls.o)
 .data          0x00000000        0x0 c:/isis/application/toolchain/bin/../lib/gcc/arm-none-eabi/4.7.4\libgcc.a(_arm_addsubdf3.o)
 .bss           0x00000000        0x0 c:/isis/application/toolchain/bin/../lib/gcc/arm-none-eabi/4.7.4\libgcc.a(_arm_addsubdf3.o)
 .data          0x00000000        0x0 c:/isis/application/toolchain/bin/../lib/gcc/arm-none-eabi/4.7.4\libgcc.a(_arm_muldivdf3.o)
 .bss           0x00000000        0x0 c:/isis/application/toolchain/bin/../lib/gcc/arm-none-eabi/4.7.4\libgcc.a(_arm_muldivdf3.o)
 .data          0x00000000        0x0 c:/isis/application/toolchain/bin/../lib/gcc/arm-none-eabi/4.7.4\libgcc.a(_arm_cmpdf2.o)
 .bss           0x00000000        0x0 c:/isis/application/toolchain/bin/../lib/gcc/arm-none-eabi/4.7.4\libgcc.a(_arm_cmpdf2.o)
 .data          0x00000000        0x0 c:/isis/application/toolchain/bin/../lib/gcc/arm-none-eabi/4.7.4\libgcc.a(_arm_fixdfsi.o)
 .bss           0x00000000        0x0 c:/isis/application/toolchain/bin/../lib/gcc/arm-none-eabi/4.7.4\libgcc.a(_arm_fixdfsi.o)
 .data          0x00000000        0x0 c:/isis/application/toolchain/bin/../lib/gcc/arm-none-eabi/4.7.4\libgcc.a(_arm_fixunsdfsi.o)
 .bss           0x00000000        0x0 c:/isis/application/toolchain/bin/../lib/gcc/arm-none-eabi/4.7.4\libgcc.a(_arm_fixunsdfsi.o)
 .data          0x00000000        0x0 c:/isis/application/toolchain/bin/../lib/gcc/arm-none-eabi/4.7.4\libgcc.a(_arm_truncdfsf2.o)
 .bss           0x00000000        0x0 c:/isis/application/toolchain/bin/../lib/gcc/arm-none-eabi/4.7.4\libgcc.a(_arm_truncdfsf2.o)
 .data          0x00000000        0x0 c:/isis/application/toolchain/bin/../lib/gcc/arm-none-eabi/4.7.4\libgcc.a(_arm_addsubsf3.o)
 .bss           0x00000000        0x0 c:/isis/application/toolchain/bin/../lib/gcc/arm-none-eabi/4.7.4\libgcc.a(_arm_addsubsf3.o)
 .data          0x00000000        0x0 c:/isis/application/toolchain/bin/../lib/gcc/arm-none-eabi/4.7.4\libgcc.a(_arm_muldivsf3.o)
 .bss           0x00000000        0x0 c:/isis/application/toolchain/bin/../lib/gcc/arm-none-eabi/4.7.4\libgcc.a(_arm_muldivsf3.o)
 .text          0x00000000       0x5c c:/isis/application/toolchain/bin/../lib/gcc/arm-none-eabi/4.7.4\libgcc.a(_arm_fixsfsi.o)
 .data          0x00000000        0x0 c:/isis/application/toolchain/bin/../lib/gcc/arm-none-eabi/4.7.4\libgcc.a(_arm_fixsfsi.o)
 .bss           0x00000000        0x0 c:/isis/application/toolchain/bin/../lib/gcc/arm-none-eabi/4.7.4\libgcc.a(_arm_fixsfsi.o)
 .ARM.attributes
                0x00000000       0x18 c:/isis/application/toolchain/bin/../lib/gcc/arm-none-eabi/4.7.4\libgcc.a(_arm_fixsfsi.o)
 .data          0x00000000        0x0 c:/isis/application/toolchain/bin/../lib/gcc/arm-none-eabi/4.7.4\libgcc.a(_arm_fixunssfsi.o)
 .bss           0x00000000        0x0 c:/isis/application/toolchain/bin/../lib/gcc/arm-none-eabi/4.7.4\libgcc.a(_arm_fixunssfsi.o)
 .text          0x00000000        0x0 c:/isis/application/toolchain/bin/../lib/gcc/arm-none-eabi/4.7.4/../../../../arm-none-eabi/lib\libc_s.a(lib_a-errno.o)
 .data          0x00000000        0x0 c:/isis/application/toolchain/bin/../lib/gcc/arm-none-eabi/4.7.4/../../../../arm-none-eabi/lib\libc_s.a(lib_a-errno.o)
 .bss           0x00000000        0x0 c:/isis/application/toolchain/bin/../lib/gcc/arm-none-eabi/4.7.4/../../../../arm-none-eabi/lib\libc_s.a(lib_a-errno.o)
 .text          0x00000000        0x0 c:/isis/application/toolchain/bin/../lib/gcc/arm-none-eabi/4.7.4/../../../../arm-none-eabi/lib\libc_s.a(lib_a-memcmp.o)
 .data          0x00000000        0x0 c:/isis/application/toolchain/bin/../lib/gcc/arm-none-eabi/4.7.4/../../../../arm-none-eabi/lib\libc_s.a(lib_a-memcmp.o)
 .bss           0x00000000        0x0 c:/isis/application/toolchain/bin/../lib/gcc/arm-none-eabi/4.7.4/../../../../arm-none-eabi/lib\libc_s.a(lib_a-memcmp.o)
 .text          0x00000000        0x0 c:/isis/application/toolchain/bin/../lib/gcc/arm-none-eabi/4.7.4/../../../../arm-none-eabi/lib\libc_s.a(lib_a-printf.o)
 .data          0x00000000        0x0 c:/isis/application/toolchain/bin/../lib/gcc/arm-none-eabi/4.7.4/../../../../arm-none-eabi/lib\libc_s.a(lib_a-printf.o)
 .bss           0x00000000        0x0 c:/isis/application/toolchain/bin/../lib/gcc/arm-none-eabi/4.7.4/../../../../arm-none-eabi/lib\libc_s.a(lib_a-printf.o)
 .text._printf_r
                0x00000000       0x40 c:/isis/application/toolchain/bin/../lib/gcc/arm-none-eabi/4.7.4/../../../../arm-none-eabi/lib\libc_s.a(lib_a-printf.o)
 .text          0x00000000        0x0 c:/isis/application/toolchain/bin/../lib/gcc/arm-none-eabi/4.7.4/../../../../arm-none-eabi/lib\libc_s.a(lib_a-puts.o)
 .data          0x00000000        0x0 c:/isis/application/toolchain/bin/../lib/gcc/arm-none-eabi/4.7.4/../../../../arm-none-eabi/lib\libc_s.a(lib_a-puts.o)
 .bss           0x00000000        0x0 c:/isis/application/toolchain/bin/../lib/gcc/arm-none-eabi/4.7.4/../../../../arm-none-eabi/lib\libc_s.a(lib_a-puts.o)
 .text._puts_r  0x00000000       0x58 c:/isis/application/toolchain/bin/../lib/gcc/arm-none-eabi/4.7.4/../../../../arm-none-eabi/lib\libc_s.a(lib_a-puts.o)
 .text          0x00000000        0x0 c:/isis/application/toolchain/bin/../lib/gcc/arm-none-eabi/4.7.4/../../../../arm-none-eabi/lib\libc_s.a(lib_a-strcpy.o)
 .data          0x00000000        0x0 c:/isis/application/toolchain/bin/../lib/gcc/arm-none-eabi/4.7.4/../../../../arm-none-eabi/lib\libc_s.a(lib_a-strcpy.o)
 .bss           0x00000000        0x0 c:/isis/application/toolchain/bin/../lib/gcc/arm-none-eabi/4.7.4/../../../../arm-none-eabi/lib\libc_s.a(lib_a-strcpy.o)
 .text          0x00000000        0x0 c:/isis/application/toolchain/bin/../lib/gcc/arm-none-eabi/4.7.4/../../../../arm-none-eabi/lib\libc_s.a(lib_a-vfprintf.o)
 .data          0x00000000        0x0 c:/isis/application/toolchain/bin/../lib/gcc/arm-none-eabi/4.7.4/../../../../arm-none-eabi/lib\libc_s.a(lib_a-vfprintf.o)
 .bss           0x00000000        0x0 c:/isis/application/toolchain/bin/../lib/gcc/arm-none-eabi/4.7.4/../../../../arm-none-eabi/lib\libc_s.a(lib_a-vfprintf.o)
 .text.__sprint_r
                0x00000000       0xb0 c:/isis/application/toolchain/bin/../lib/gcc/arm-none-eabi/4.7.4/../../../../arm-none-eabi/lib\libc_s.a(lib_a-vfprintf.o)
 .text.vfprintf
                0x00000000       0x2c c:/isis/application/toolchain/bin/../lib/gcc/arm-none-eabi/4.7.4/../../../../arm-none-eabi/lib\libc_s.a(lib_a-vfprintf.o)
 .text          0x00000000        0x0 c:/isis/application/toolchain/bin/../lib/gcc/arm-none-eabi/4.7.4/../../../../arm-none-eabi/lib\libc_s.a(lib_a-wbuf.o)
 .data          0x00000000        0x0 c:/isis/application/toolchain/bin/../lib/gcc/arm-none-eabi/4.7.4/../../../../arm-none-eabi/lib\libc_s.a(lib_a-wbuf.o)
 .bss           0x00000000        0x0 c:/isis/application/toolchain/bin/../lib/gcc/arm-none-eabi/4.7.4/../../../../arm-none-eabi/lib\libc_s.a(lib_a-wbuf.o)
 .text.__swbuf  0x00000000       0x1c c:/isis/application/toolchain/bin/../lib/gcc/arm-none-eabi/4.7.4/../../../../arm-none-eabi/lib\libc_s.a(lib_a-wbuf.o)
 .text          0x00000000        0x0 c:/isis/application/toolchain/bin/../lib/gcc/arm-none-eabi/4.7.4/../../../../arm-none-eabi/lib\libc_s.a(lib_a-wsetup.o)
 .data          0x00000000        0x0 c:/isis/application/toolchain/bin/../lib/gcc/arm-none-eabi/4.7.4/../../../../arm-none-eabi/lib\libc_s.a(lib_a-wsetup.o)
 .bss           0x00000000        0x0 c:/isis/application/toolchain/bin/../lib/gcc/arm-none-eabi/4.7.4/../../../../arm-none-eabi/lib\libc_s.a(lib_a-wsetup.o)
 .text          0x00000000        0x0 c:/isis/application/toolchain/bin/../lib/gcc/arm-none-eabi/4.7.4/../../../../arm-none-eabi/lib\libc_s.a(lib_a-fflush.o)
 .data          0x00000000        0x0 c:/isis/application/toolchain/bin/../lib/gcc/arm-none-eabi/4.7.4/../../../../arm-none-eabi/lib\libc_s.a(lib_a-fflush.o)
 .bss           0x00000000        0x0 c:/isis/application/toolchain/bin/../lib/gcc/arm-none-eabi/4.7.4/../../../../arm-none-eabi/lib\libc_s.a(lib_a-fflush.o)
 .text.fflush   0x00000000       0x40 c:/isis/application/toolchain/bin/../lib/gcc/arm-none-eabi/4.7.4/../../../../arm-none-eabi/lib\libc_s.a(lib_a-fflush.o)
 .text          0x00000000        0x0 c:/isis/application/toolchain/bin/../lib/gcc/arm-none-eabi/4.7.4/../../../../arm-none-eabi/lib\libc_s.a(lib_a-findfp.o)
 .data          0x00000000        0x0 c:/isis/application/toolchain/bin/../lib/gcc/arm-none-eabi/4.7.4/../../../../arm-none-eabi/lib\libc_s.a(lib_a-findfp.o)
 .bss           0x00000000        0x0 c:/isis/application/toolchain/bin/../lib/gcc/arm-none-eabi/4.7.4/../../../../arm-none-eabi/lib\libc_s.a(lib_a-findfp.o)
 .text.__fp_lock
                0x00000000        0x8 c:/isis/application/toolchain/bin/../lib/gcc/arm-none-eabi/4.7.4/../../../../arm-none-eabi/lib\libc_s.a(lib_a-findfp.o)
 .text.__fp_unlock
                0x00000000        0x8 c:/isis/application/toolchain/bin/../lib/gcc/arm-none-eabi/4.7.4/../../../../arm-none-eabi/lib\libc_s.a(lib_a-findfp.o)
 .text._cleanup
                0x00000000       0x10 c:/isis/application/toolchain/bin/../lib/gcc/arm-none-eabi/4.7.4/../../../../arm-none-eabi/lib\libc_s.a(lib_a-findfp.o)
 .text.__sfp_lock_acquire
                0x00000000        0x4 c:/isis/application/toolchain/bin/../lib/gcc/arm-none-eabi/4.7.4/../../../../arm-none-eabi/lib\libc_s.a(lib_a-findfp.o)
 .text.__sfp_lock_release
                0x00000000        0x4 c:/isis/application/toolchain/bin/../lib/gcc/arm-none-eabi/4.7.4/../../../../arm-none-eabi/lib\libc_s.a(lib_a-findfp.o)
 .text.__sinit_lock_acquire
                0x00000000        0x4 c:/isis/application/toolchain/bin/../lib/gcc/arm-none-eabi/4.7.4/../../../../arm-none-eabi/lib\libc_s.a(lib_a-findfp.o)
 .text.__sinit_lock_release
                0x00000000        0x4 c:/isis/application/toolchain/bin/../lib/gcc/arm-none-eabi/4.7.4/../../../../arm-none-eabi/lib\libc_s.a(lib_a-findfp.o)
 .text.__fp_lock_all
                0x00000000       0x24 c:/isis/application/toolchain/bin/../lib/gcc/arm-none-eabi/4.7.4/../../../../arm-none-eabi/lib\libc_s.a(lib_a-findfp.o)
 .text.__fp_unlock_all
                0x00000000       0x24 c:/isis/application/toolchain/bin/../lib/gcc/arm-none-eabi/4.7.4/../../../../arm-none-eabi/lib\libc_s.a(lib_a-findfp.o)
 .text          0x00000000        0x0 c:/isis/application/toolchain/bin/../lib/gcc/arm-none-eabi/4.7.4/../../../../arm-none-eabi/lib\libc_s.a(lib_a-fputwc.o)
 .data          0x00000000        0x0 c:/isis/application/toolchain/bin/../lib/gcc/arm-none-eabi/4.7.4/../../../../arm-none-eabi/lib\libc_s.a(lib_a-fputwc.o)
 .bss           0x00000000        0x0 c:/isis/application/toolchain/bin/../lib/gcc/arm-none-eabi/4.7.4/../../../../arm-none-eabi/lib\libc_s.a(lib_a-fputwc.o)
 .text._fputwc_r
                0x00000000      0x138 c:/isis/application/toolchain/bin/../lib/gcc/arm-none-eabi/4.7.4/../../../../arm-none-eabi/lib\libc_s.a(lib_a-fputwc.o)
 .text.fputwc   0x00000000       0x84 c:/isis/application/toolchain/bin/../lib/gcc/arm-none-eabi/4.7.4/../../../../arm-none-eabi/lib\libc_s.a(lib_a-fputwc.o)
 .ARM.attributes
                0x00000000       0x30 c:/isis/application/toolchain/bin/../lib/gcc/arm-none-eabi/4.7.4/../../../../arm-none-eabi/lib\libc_s.a(lib_a-fputwc.o)
 .debug_frame   0x00000000       0x50 c:/isis/application/toolchain/bin/../lib/gcc/arm-none-eabi/4.7.4/../../../../arm-none-eabi/lib\libc_s.a(lib_a-fputwc.o)
 .text          0x00000000        0x0 c:/isis/application/toolchain/bin/../lib/gcc/arm-none-eabi/4.7.4/../../../../arm-none-eabi/lib\libc_s.a(lib_a-fvwrite.o)
 .data          0x00000000        0x0 c:/isis/application/toolchain/bin/../lib/gcc/arm-none-eabi/4.7.4/../../../../arm-none-eabi/lib\libc_s.a(lib_a-fvwrite.o)
 .bss           0x00000000        0x0 c:/isis/application/toolchain/bin/../lib/gcc/arm-none-eabi/4.7.4/../../../../arm-none-eabi/lib\libc_s.a(lib_a-fvwrite.o)
 .text.__sfvwrite_r
                0x00000000      0x460 c:/isis/application/toolchain/bin/../lib/gcc/arm-none-eabi/4.7.4/../../../../arm-none-eabi/lib\libc_s.a(lib_a-fvwrite.o)
 .ARM.attributes
                0x00000000       0x30 c:/isis/application/toolchain/bin/../lib/gcc/arm-none-eabi/4.7.4/../../../../arm-none-eabi/lib\libc_s.a(lib_a-fvwrite.o)
 .debug_frame   0x00000000       0x38 c:/isis/application/toolchain/bin/../lib/gcc/arm-none-eabi/4.7.4/../../../../arm-none-eabi/lib\libc_s.a(lib_a-fvwrite.o)
 .text          0x00000000        0x0 c:/isis/application/toolchain/bin/../lib/gcc/arm-none-eabi/4.7.4/../../../../arm-none-eabi/lib\libc_s.a(lib_a-fwalk.o)
 .data          0x00000000        0x0 c:/isis/application/toolchain/bin/../lib/gcc/arm-none-eabi/4.7.4/../../../../arm-none-eabi/lib\libc_s.a(lib_a-fwalk.o)
 .bss           0x00000000        0x0 c:/isis/application/toolchain/bin/../lib/gcc/arm-none-eabi/4.7.4/../../../../arm-none-eabi/lib\libc_s.a(lib_a-fwalk.o)
 .text._fwalk   0x00000000       0x78 c:/isis/application/toolchain/bin/../lib/gcc/arm-none-eabi/4.7.4/../../../../arm-none-eabi/lib\libc_s.a(lib_a-fwalk.o)
 .text._fwalk_reent
                0x00000000       0x7c c:/isis/application/toolchain/bin/../lib/gcc/arm-none-eabi/4.7.4/../../../../arm-none-eabi/lib\libc_s.a(lib_a-fwalk.o)
 .ARM.attributes
                0x00000000       0x30 c:/isis/application/toolchain/bin/../lib/gcc/arm-none-eabi/4.7.4/../../../../arm-none-eabi/lib\libc_s.a(lib_a-fwalk.o)
 .debug_frame   0x00000000       0x54 c:/isis/application/toolchain/bin/../lib/gcc/arm-none-eabi/4.7.4/../../../../arm-none-eabi/lib\libc_s.a(lib_a-fwalk.o)
 .text          0x00000000        0x0 c:/isis/application/toolchain/bin/../lib/gcc/arm-none-eabi/4.7.4/../../../../arm-none-eabi/lib\libc_s.a(lib_a-makebuf.o)
 .data          0x00000000        0x0 c:/isis/application/toolchain/bin/../lib/gcc/arm-none-eabi/4.7.4/../../../../arm-none-eabi/lib\libc_s.a(lib_a-makebuf.o)
 .bss           0x00000000        0x0 c:/isis/application/toolchain/bin/../lib/gcc/arm-none-eabi/4.7.4/../../../../arm-none-eabi/lib\libc_s.a(lib_a-makebuf.o)
 .text          0x00000000        0x0 c:/isis/application/toolchain/bin/../lib/gcc/arm-none-eabi/4.7.4/../../../../arm-none-eabi/lib\libc_s.a(lib_a-putc.o)
 .data          0x00000000        0x0 c:/isis/application/toolchain/bin/../lib/gcc/arm-none-eabi/4.7.4/../../../../arm-none-eabi/lib\libc_s.a(lib_a-putc.o)
 .bss           0x00000000        0x0 c:/isis/application/toolchain/bin/../lib/gcc/arm-none-eabi/4.7.4/../../../../arm-none-eabi/lib\libc_s.a(lib_a-putc.o)
 .text.putc     0x00000000       0x1c c:/isis/application/toolchain/bin/../lib/gcc/arm-none-eabi/4.7.4/../../../../arm-none-eabi/lib\libc_s.a(lib_a-putc.o)
 .text          0x00000000        0x0 c:/isis/application/toolchain/bin/../lib/gcc/arm-none-eabi/4.7.4/../../../../arm-none-eabi/lib\libc_s.a(lib_a-stdio.o)
 .data          0x00000000        0x0 c:/isis/application/toolchain/bin/../lib/gcc/arm-none-eabi/4.7.4/../../../../arm-none-eabi/lib\libc_s.a(lib_a-stdio.o)
 .bss           0x00000000        0x0 c:/isis/application/toolchain/bin/../lib/gcc/arm-none-eabi/4.7.4/../../../../arm-none-eabi/lib\libc_s.a(lib_a-stdio.o)
 .text.__seofread
                0x00000000        0x8 c:/isis/application/toolchain/bin/../lib/gcc/arm-none-eabi/4.7.4/../../../../arm-none-eabi/lib\libc_s.a(lib_a-stdio.o)
 .text          0x00000000        0x0 c:/isis/application/toolchain/bin/../lib/gcc/arm-none-eabi/4.7.4/../../../../arm-none-eabi/lib\libc_s.a(lib_a-wcrtomb.o)
 .data          0x00000000        0x0 c:/isis/application/toolchain/bin/../lib/gcc/arm-none-eabi/4.7.4/../../../../arm-none-eabi/lib\libc_s.a(lib_a-wcrtomb.o)
 .bss           0x00000000        0x0 c:/isis/application/toolchain/bin/../lib/gcc/arm-none-eabi/4.7.4/../../../../arm-none-eabi/lib\libc_s.a(lib_a-wcrtomb.o)
 .text._wcrtomb_r
                0x00000000       0x84 c:/isis/application/toolchain/bin/../lib/gcc/arm-none-eabi/4.7.4/../../../../arm-none-eabi/lib\libc_s.a(lib_a-wcrtomb.o)
 .text.wcrtomb  0x00000000       0x2c c:/isis/application/toolchain/bin/../lib/gcc/arm-none-eabi/4.7.4/../../../../arm-none-eabi/lib\libc_s.a(lib_a-wcrtomb.o)
 .ARM.attributes
                0x00000000       0x30 c:/isis/application/toolchain/bin/../lib/gcc/arm-none-eabi/4.7.4/../../../../arm-none-eabi/lib\libc_s.a(lib_a-wcrtomb.o)
 .debug_frame   0x00000000       0x4c c:/isis/application/toolchain/bin/../lib/gcc/arm-none-eabi/4.7.4/../../../../arm-none-eabi/lib\libc_s.a(lib_a-wcrtomb.o)
 .text          0x00000000        0x0 c:/isis/application/toolchain/bin/../lib/gcc/arm-none-eabi/4.7.4/../../../../arm-none-eabi/lib\libc_s.a(lib_a-wctomb_r.o)
 .data          0x00000000        0x0 c:/isis/application/toolchain/bin/../lib/gcc/arm-none-eabi/4.7.4/../../../../arm-none-eabi/lib\libc_s.a(lib_a-wctomb_r.o)
 .bss           0x00000000        0x0 c:/isis/application/toolchain/bin/../lib/gcc/arm-none-eabi/4.7.4/../../../../arm-none-eabi/lib\libc_s.a(lib_a-wctomb_r.o)
 .text.__ascii_wctomb
                0x00000000       0x2c c:/isis/application/toolchain/bin/../lib/gcc/arm-none-eabi/4.7.4/../../../../arm-none-eabi/lib\libc_s.a(lib_a-wctomb_r.o)
 .text._wctomb_r
                0x00000000       0x48 c:/isis/application/toolchain/bin/../lib/gcc/arm-none-eabi/4.7.4/../../../../arm-none-eabi/lib\libc_s.a(lib_a-wctomb_r.o)
 .data.__wctomb
                0x00000000        0x4 c:/isis/application/toolchain/bin/../lib/gcc/arm-none-eabi/4.7.4/../../../../arm-none-eabi/lib\libc_s.a(lib_a-wctomb_r.o)
 .ARM.attributes
                0x00000000       0x30 c:/isis/application/toolchain/bin/../lib/gcc/arm-none-eabi/4.7.4/../../../../arm-none-eabi/lib\libc_s.a(lib_a-wctomb_r.o)
 .debug_frame   0x00000000       0x44 c:/isis/application/toolchain/bin/../lib/gcc/arm-none-eabi/4.7.4/../../../../arm-none-eabi/lib\libc_s.a(lib_a-wctomb_r.o)
 .text          0x00000000        0x0 c:/isis/application/toolchain/bin/../lib/gcc/arm-none-eabi/4.7.4/../../../../arm-none-eabi/lib\libc_s.a(lib_a-writer.o)
 .data          0x00000000        0x0 c:/isis/application/toolchain/bin/../lib/gcc/arm-none-eabi/4.7.4/../../../../arm-none-eabi/lib\libc_s.a(lib_a-writer.o)
 .bss           0x00000000        0x0 c:/isis/application/toolchain/bin/../lib/gcc/arm-none-eabi/4.7.4/../../../../arm-none-eabi/lib\libc_s.a(lib_a-writer.o)
 .text          0x00000000        0x0 c:/isis/application/toolchain/bin/../lib/gcc/arm-none-eabi/4.7.4/../../../../arm-none-eabi/lib\libc_s.a(lib_a-closer.o)
 .data          0x00000000        0x0 c:/isis/application/toolchain/bin/../lib/gcc/arm-none-eabi/4.7.4/../../../../arm-none-eabi/lib\libc_s.a(lib_a-closer.o)
 .bss           0x00000000        0x0 c:/isis/application/toolchain/bin/../lib/gcc/arm-none-eabi/4.7.4/../../../../arm-none-eabi/lib\libc_s.a(lib_a-closer.o)
 .text          0x00000000        0x0 c:/isis/application/toolchain/bin/../lib/gcc/arm-none-eabi/4.7.4/../../../../arm-none-eabi/lib\libc_s.a(lib_a-fstatr.o)
 .data          0x00000000        0x0 c:/isis/application/toolchain/bin/../lib/gcc/arm-none-eabi/4.7.4/../../../../arm-none-eabi/lib\libc_s.a(lib_a-fstatr.o)
 .bss           0x00000000        0x0 c:/isis/application/toolchain/bin/../lib/gcc/arm-none-eabi/4.7.4/../../../../arm-none-eabi/lib\libc_s.a(lib_a-fstatr.o)
 .text          0x00000000        0x0 c:/isis/application/toolchain/bin/../lib/gcc/arm-none-eabi/4.7.4/../../../../arm-none-eabi/lib\libc_s.a(lib_a-isattyr.o)
 .data          0x00000000        0x0 c:/isis/application/toolchain/bin/../lib/gcc/arm-none-eabi/4.7.4/../../../../arm-none-eabi/lib\libc_s.a(lib_a-isattyr.o)
 .bss           0x00000000        0x0 c:/isis/application/toolchain/bin/../lib/gcc/arm-none-eabi/4.7.4/../../../../arm-none-eabi/lib\libc_s.a(lib_a-isattyr.o)
 .text          0x00000000        0x0 c:/isis/application/toolchain/bin/../lib/gcc/arm-none-eabi/4.7.4/../../../../arm-none-eabi/lib\libc_s.a(lib_a-lseekr.o)
 .data          0x00000000        0x0 c:/isis/application/toolchain/bin/../lib/gcc/arm-none-eabi/4.7.4/../../../../arm-none-eabi/lib\libc_s.a(lib_a-lseekr.o)
 .bss           0x00000000        0x0 c:/isis/application/toolchain/bin/../lib/gcc/arm-none-eabi/4.7.4/../../../../arm-none-eabi/lib\libc_s.a(lib_a-lseekr.o)
 .text          0x00000000        0x0 c:/isis/application/toolchain/bin/../lib/gcc/arm-none-eabi/4.7.4/../../../../arm-none-eabi/lib\libc_s.a(lib_a-readr.o)
 .data          0x00000000        0x0 c:/isis/application/toolchain/bin/../lib/gcc/arm-none-eabi/4.7.4/../../../../arm-none-eabi/lib\libc_s.a(lib_a-readr.o)
 .bss           0x00000000        0x0 c:/isis/application/toolchain/bin/../lib/gcc/arm-none-eabi/4.7.4/../../../../arm-none-eabi/lib\libc_s.a(lib_a-readr.o)

Memory Configuration

Name             Origin             Length             Attributes
sram0            0x00200000         0x00004000         w !xr
sram1            0x00300000         0x00004000         w !xr
sdram            0x20000000         0x02000000         w !xr
*default*        0x00000000         0xffffffff

Linker script and memory map

LOAD c:/isis/application/toolchain/bin/../lib/gcc/arm-none-eabi/4.7.4/../../../../arm-none-eabi/lib\libc_s.a
LOAD ./src/sub-systemCode/Main/CMD/COMM_CMD.o
LOAD ./src/sub-systemCode/Main/CMD/EPS_CMD.o
LOAD ./src/sub-systemCode/Main/CMD/General_CMD.o
LOAD ./src/sub-systemCode/Main/CMD/SW_CMD.o
LOAD ./src/sub-systemCode/Main/CMD/payload_CMD.o
LOAD ./src/sub-systemCode/Main/Ants.o
LOAD ./src/sub-systemCode/Main/EPS.o
LOAD ./src/sub-systemCode/Main/HouseKeeping.o
LOAD ./src/sub-systemCode/Main/Main_Init.o
LOAD ./src/sub-systemCode/Main/commands.o
LOAD ./src/sub-systemCode/Global/Global.o
LOAD ./src/sub-systemCode/Global/GlobalParam.o
LOAD ./src/sub-systemCode/Global/OnlineTM.o
LOAD ./src/sub-systemCode/Global/TM_managment.o
LOAD ./src/sub-systemCode/COMM/APRS.o
LOAD ./src/sub-systemCode/COMM/DelayedCommand_list.o
LOAD ./src/sub-systemCode/COMM/GSC.o
LOAD ./src/sub-systemCode/COMM/TRXVU.o
LOAD ./src/sub-systemCode/ADCS/ADCS.o
LOAD ./src/sub-systemCode/ADCS/Stage_Table.o
LOAD ./src/main.o
LOAD C:/Hoopoe3/satellite-subsystems/demo/..//satellite-subsystems/lib\libSatelliteSubsystemsD.a
LOAD c:/isis/application/toolchain/bin/../lib/gcc/arm-none-eabi/4.7.4/../../../../arm-none-eabi/lib\libm.a
LOAD C:/Hoopoe3/satellite-subsystems/demo/../..//hal/hcc/lib\libHCCD.a
LOAD C:/Hoopoe3/satellite-subsystems/demo/../..//hal/hal/lib\libHALD.a
LOAD C:/Hoopoe3/satellite-subsystems/demo/../..//hal/freertos/lib\libFreeRTOSD.a
LOAD C:/Hoopoe3/satellite-subsystems/demo/../..//hal/at91/lib\libAt91D.a
START GROUP
LOAD c:/isis/application/toolchain/bin/../lib/gcc/arm-none-eabi/4.7.4\libgcc.a
LOAD c:/isis/application/toolchain/bin/../lib/gcc/arm-none-eabi/4.7.4/../../../../arm-none-eabi/lib\libc_s.a
END GROUP

.fixed          0x20000000    0x3c108
                0x20000000                . = ALIGN (0x4)
                0x20000000                _sfixed = .
 *(.startup)
 .startup       0x20000000      0x134 C:/Hoopoe3/satellite-subsystems/demo/../..//hal/at91/lib\libAt91D.a(board_cstartup.o)
                0x20000000                entry
 *(.text)
 .text          0x20000134       0x64 C:/Hoopoe3/satellite-subsystems/demo/../..//hal/at91/lib\libAt91D.a(cp15_asm.o)
                0x20000134                _readControlRegister
                0x20000140                _writeControlRegister
                0x20000148                _waitForInterrupt
                0x20000154                _writeTTB
                0x2000015c                _writeDomain
                0x20000164                _writeITLBLockdown
                0x2000016c                _prefetchICacheLine
                0x20000174                _flushDCache
                0x20000180                _flushWriteBuffer
                0x2000018c                _invalidateIDTLBs
 .text          0x20000198      0x114 c:/isis/application/toolchain/bin/../lib/gcc/arm-none-eabi/4.7.4\libgcc.a(_udivsi3.o)
                0x20000198                __aeabi_uidiv
                0x20000198                __udivsi3
                0x2000028c                __aeabi_uidivmod
 .text          0x200002ac      0x148 c:/isis/application/toolchain/bin/../lib/gcc/arm-none-eabi/4.7.4\libgcc.a(_divsi3.o)
                0x200002ac                __divsi3
                0x200002ac                __aeabi_idiv
                0x200003d4                __aeabi_idivmod
 .text          0x200003f4        0x4 c:/isis/application/toolchain/bin/../lib/gcc/arm-none-eabi/4.7.4\libgcc.a(_dvmd_tls.o)
                0x200003f4                __aeabi_idiv0
                0x200003f4                __aeabi_ldiv0
 .text          0x200003f8      0x41c c:/isis/application/toolchain/bin/../lib/gcc/arm-none-eabi/4.7.4\libgcc.a(_arm_addsubdf3.o)
                0x200003f8                __aeabi_drsub
                0x20000400                __aeabi_dsub
                0x20000400                __subdf3
                0x20000404                __aeabi_dadd
                0x20000404                __adddf3
                0x20000714                __floatunsidf
                0x20000714                __aeabi_ui2d
                0x20000738                __floatsidf
                0x20000738                __aeabi_i2d
                0x20000760                __aeabi_f2d
                0x20000760                __extendsfdf2
                0x200007a0                __floatundidf
                0x200007a0                __aeabi_ul2d
                0x200007b4                __floatdidf
                0x200007b4                __aeabi_l2d
 .text          0x20000814      0x49c c:/isis/application/toolchain/bin/../lib/gcc/arm-none-eabi/4.7.4\libgcc.a(_arm_muldivdf3.o)
                0x20000814                __aeabi_dmul
                0x20000814                __muldf3
                0x20000aa4                __divdf3
                0x20000aa4                __aeabi_ddiv
 .text          0x20000cb0      0x144 c:/isis/application/toolchain/bin/../lib/gcc/arm-none-eabi/4.7.4\libgcc.a(_arm_cmpdf2.o)
                0x20000cb0                __gtdf2
                0x20000cb0                __gedf2
                0x20000cb8                __ltdf2
                0x20000cb8                __ledf2
                0x20000cc0                __nedf2
                0x20000cc0                __eqdf2
                0x20000cc0                __cmpdf2
                0x20000d48                __aeabi_cdrcmple
                0x20000d64                __aeabi_cdcmpeq
                0x20000d64                __aeabi_cdcmple
                0x20000d7c                __aeabi_dcmpeq
                0x20000d94                __aeabi_dcmplt
                0x20000dac                __aeabi_dcmple
                0x20000dc4                __aeabi_dcmpge
                0x20000ddc                __aeabi_dcmpgt
 .text          0x20000df4       0x5c c:/isis/application/toolchain/bin/../lib/gcc/arm-none-eabi/4.7.4\libgcc.a(_arm_fixdfsi.o)
                0x20000df4                __aeabi_d2iz
                0x20000df4                __fixdfsi
 .text          0x20000e50       0x54 c:/isis/application/toolchain/bin/../lib/gcc/arm-none-eabi/4.7.4\libgcc.a(_arm_fixunsdfsi.o)
                0x20000e50                __aeabi_d2uiz
                0x20000e50                __fixunsdfsi
 .text          0x20000ea4       0xa0 c:/isis/application/toolchain/bin/../lib/gcc/arm-none-eabi/4.7.4\libgcc.a(_arm_truncdfsf2.o)
                0x20000ea4                __truncdfsf2
                0x20000ea4                __aeabi_d2f
 .text          0x20000f44      0x2ac c:/isis/application/toolchain/bin/../lib/gcc/arm-none-eabi/4.7.4\libgcc.a(_arm_addsubsf3.o)
                0x20000f44                __aeabi_frsub
                0x20000f4c                __subsf3
                0x20000f4c                __aeabi_fsub
                0x20000f50                __aeabi_fadd
                0x20000f50                __addsf3
                0x2000110c                __aeabi_ui2f
                0x2000110c                __floatunsisf
                0x20001114                __aeabi_i2f
                0x20001114                __floatsisf
                0x20001134                __aeabi_ul2f
                0x20001134                __floatundisf
                0x20001144                __aeabi_l2f
                0x20001144                __floatdisf
 .text          0x200011f0      0x2f8 c:/isis/application/toolchain/bin/../lib/gcc/arm-none-eabi/4.7.4\libgcc.a(_arm_muldivsf3.o)
                0x200011f0                __mulsf3
                0x200011f0                __aeabi_fmul
                0x20001388                __aeabi_fdiv
                0x20001388                __divsf3
 .text          0x200014e8       0x54 c:/isis/application/toolchain/bin/../lib/gcc/arm-none-eabi/4.7.4\libgcc.a(_arm_fixunssfsi.o)
                0x200014e8                __fixunssfsi
                0x200014e8                __aeabi_f2uiz
 *(.text*)
 .text.__cvt    0x2000153c      0x138 c:/isis/application/toolchain/bin/../lib/gcc/arm-none-eabi/4.7.4/../../../../arm-none-eabi/lib\libc_s.a(lib_a-vfprintf_float.o)
                0x2000153c                __cvt
 .text.__exponent
                0x20001674       0xa8 c:/isis/application/toolchain/bin/../lib/gcc/arm-none-eabi/4.7.4/../../../../arm-none-eabi/lib\libc_s.a(lib_a-vfprintf_float.o)
                0x20001674                __exponent
 .text._printf_float
                0x2000171c      0x7dc c:/isis/application/toolchain/bin/../lib/gcc/arm-none-eabi/4.7.4/../../../../arm-none-eabi/lib\libc_s.a(lib_a-vfprintf_float.o)
                0x2000171c                _printf_float
 .text._printf_common
                0x20001ef8      0x174 c:/isis/application/toolchain/bin/../lib/gcc/arm-none-eabi/4.7.4/../../../../arm-none-eabi/lib\libc_s.a(lib_a-vfprintf_i.o)
                0x20001ef8                _printf_common
 .text._printf_i
                0x2000206c      0x3c4 c:/isis/application/toolchain/bin/../lib/gcc/arm-none-eabi/4.7.4/../../../../arm-none-eabi/lib\libc_s.a(lib_a-vfprintf_i.o)
                0x2000206c                _printf_i
 .text._scanf_float
                0x20002430      0x5f4 c:/isis/application/toolchain/bin/../lib/gcc/arm-none-eabi/4.7.4/../../../../arm-none-eabi/lib\libc_s.a(lib_a-vfscanf_float.o)
                0x20002430                _scanf_float
 .text.quorem   0x20002a24      0x1ac c:/isis/application/toolchain/bin/../lib/gcc/arm-none-eabi/4.7.4/../../../../arm-none-eabi/lib\libc_s.a(lib_a-dtoa.o)
 .text._dtoa_r  0x20002bd0     0x1268 c:/isis/application/toolchain/bin/../lib/gcc/arm-none-eabi/4.7.4/../../../../arm-none-eabi/lib\libc_s.a(lib_a-dtoa.o)
                0x20002bd0                _dtoa_r
 .text._localeconv_r
                0x20003e38        0xc c:/isis/application/toolchain/bin/../lib/gcc/arm-none-eabi/4.7.4/../../../../arm-none-eabi/lib\libc_s.a(lib_a-locale.o)
                0x20003e38                _localeconv_r
 .text.malloc   0x20003e44       0x20 c:/isis/application/toolchain/bin/../lib/gcc/arm-none-eabi/4.7.4/../../../../arm-none-eabi/lib\libc_s.a(lib_a-malloc.o)
                0x20003e44                malloc
 .text.free     0x20003e64       0x20 c:/isis/application/toolchain/bin/../lib/gcc/arm-none-eabi/4.7.4/../../../../arm-none-eabi/lib\libc_s.a(lib_a-malloc.o)
                0x20003e64                free
 .text._malloc_r
                0x20003e84       0xfc c:/isis/application/toolchain/bin/../lib/gcc/arm-none-eabi/4.7.4/../../../../arm-none-eabi/lib\libc_s.a(lib_a-mallocr.o)
                0x20003e84                _malloc_r
 .text.memcpy   0x20003f80       0x20 c:/isis/application/toolchain/bin/../lib/gcc/arm-none-eabi/4.7.4/../../../../arm-none-eabi/lib\libc_s.a(lib_a-memcpy.o)
                0x20003f80                memcpy
 .text._Balloc  0x20003fa0       0xcc c:/isis/application/toolchain/bin/../lib/gcc/arm-none-eabi/4.7.4/../../../../arm-none-eabi/lib\libc_s.a(lib_a-mprec.o)
                0x20003fa0                _Balloc
 .text._Bfree   0x2000406c       0x5c c:/isis/application/toolchain/bin/../lib/gcc/arm-none-eabi/4.7.4/../../../../arm-none-eabi/lib\libc_s.a(lib_a-mprec.o)
                0x2000406c                _Bfree
 .text.__multadd
                0x200040c8       0xbc c:/isis/application/toolchain/bin/../lib/gcc/arm-none-eabi/4.7.4/../../../../arm-none-eabi/lib\libc_s.a(lib_a-mprec.o)
                0x200040c8                __multadd
 .text.__s2b    0x20004184       0xd8 c:/isis/application/toolchain/bin/../lib/gcc/arm-none-eabi/4.7.4/../../../../arm-none-eabi/lib\libc_s.a(lib_a-mprec.o)
                0x20004184                __s2b
 .text.__hi0bits
                0x2000425c       0x58 c:/isis/application/toolchain/bin/../lib/gcc/arm-none-eabi/4.7.4/../../../../arm-none-eabi/lib\libc_s.a(lib_a-mprec.o)
                0x2000425c                __hi0bits
 .text.__lo0bits
                0x200042b4       0x94 c:/isis/application/toolchain/bin/../lib/gcc/arm-none-eabi/4.7.4/../../../../arm-none-eabi/lib\libc_s.a(lib_a-mprec.o)
                0x200042b4                __lo0bits
 .text.__i2b    0x20004348       0x24 c:/isis/application/toolchain/bin/../lib/gcc/arm-none-eabi/4.7.4/../../../../arm-none-eabi/lib\libc_s.a(lib_a-mprec.o)
                0x20004348                __i2b
 .text.__multiply
                0x2000436c      0x1ac c:/isis/application/toolchain/bin/../lib/gcc/arm-none-eabi/4.7.4/../../../../arm-none-eabi/lib\libc_s.a(lib_a-mprec.o)
                0x2000436c                __multiply
 .text.__pow5mult
                0x20004518      0x10c c:/isis/application/toolchain/bin/../lib/gcc/arm-none-eabi/4.7.4/../../../../arm-none-eabi/lib\libc_s.a(lib_a-mprec.o)
                0x20004518                __pow5mult
 .text.__lshift
                0x20004624       0xf0 c:/isis/application/toolchain/bin/../lib/gcc/arm-none-eabi/4.7.4/../../../../arm-none-eabi/lib\libc_s.a(lib_a-mprec.o)
                0x20004624                __lshift
 .text.__mcmp   0x20004714       0x60 c:/isis/application/toolchain/bin/../lib/gcc/arm-none-eabi/4.7.4/../../../../arm-none-eabi/lib\libc_s.a(lib_a-mprec.o)
                0x20004714                __mcmp
 .text.__mdiff  0x20004774      0x128 c:/isis/application/toolchain/bin/../lib/gcc/arm-none-eabi/4.7.4/../../../../arm-none-eabi/lib\libc_s.a(lib_a-mprec.o)
                0x20004774                __mdiff
 .text.__ulp    0x2000489c       0x5c c:/isis/application/toolchain/bin/../lib/gcc/arm-none-eabi/4.7.4/../../../../arm-none-eabi/lib\libc_s.a(lib_a-mprec.o)
                0x2000489c                __ulp
 .text.__b2d    0x200048f8       0xc8 c:/isis/application/toolchain/bin/../lib/gcc/arm-none-eabi/4.7.4/../../../../arm-none-eabi/lib\libc_s.a(lib_a-mprec.o)
                0x200048f8                __b2d
 .text.__d2b    0x200049c0       0xfc c:/isis/application/toolchain/bin/../lib/gcc/arm-none-eabi/4.7.4/../../../../arm-none-eabi/lib\libc_s.a(lib_a-mprec.o)
                0x200049c0                __d2b
 .text.__ratio  0x20004abc       0x70 c:/isis/application/toolchain/bin/../lib/gcc/arm-none-eabi/4.7.4/../../../../arm-none-eabi/lib\libc_s.a(lib_a-mprec.o)
                0x20004abc                __ratio
 .text.__copybits
                0x20004b2c       0x4c c:/isis/application/toolchain/bin/../lib/gcc/arm-none-eabi/4.7.4/../../../../arm-none-eabi/lib\libc_s.a(lib_a-mprec.o)
                0x20004b2c                __copybits
 .text.__any_on
                0x20004b78       0x7c c:/isis/application/toolchain/bin/../lib/gcc/arm-none-eabi/4.7.4/../../../../arm-none-eabi/lib\libc_s.a(lib_a-mprec.o)
                0x20004b78                __any_on
 .text.__fpclassifyd
                0x20004bf4       0x6c c:/isis/application/toolchain/bin/../lib/gcc/arm-none-eabi/4.7.4/../../../../arm-none-eabi/lib\libc_s.a(lib_a-s_fpclassify.o)
                0x20004bf4                __fpclassifyd
 .text._sbrk_r  0x20004c60       0x3c c:/isis/application/toolchain/bin/../lib/gcc/arm-none-eabi/4.7.4/../../../../arm-none-eabi/lib\libc_s.a(lib_a-sbrkr.o)
                0x20004c60                _sbrk_r
 .text.nanf     0x20004c9c        0xc c:/isis/application/toolchain/bin/../lib/gcc/arm-none-eabi/4.7.4/../../../../arm-none-eabi/lib\libc_s.a(lib_a-sf_nan.o)
                0x20004c9c                nanf
 .text.sprintf  0x20004ca8       0x6c c:/isis/application/toolchain/bin/../lib/gcc/arm-none-eabi/4.7.4/../../../../arm-none-eabi/lib\libc_s.a(lib_a-sprintf.o)
                0x20004ca8                siprintf
                0x20004ca8                sprintf
 .text.strcmp   0x20004d14       0x1c c:/isis/application/toolchain/bin/../lib/gcc/arm-none-eabi/4.7.4/../../../../arm-none-eabi/lib\libc_s.a(lib_a-strcmp.o)
                0x20004d14                strcmp
 .text.strlen   0x20004d30       0x1c c:/isis/application/toolchain/bin/../lib/gcc/arm-none-eabi/4.7.4/../../../../arm-none-eabi/lib\libc_s.a(lib_a-strlen.o)
                0x20004d30                strlen
 .text.match    0x20004d4c       0x54 c:/isis/application/toolchain/bin/../lib/gcc/arm-none-eabi/4.7.4/../../../../arm-none-eabi/lib\libc_s.a(lib_a-strtod.o)
 .text._strtod_r
                0x20004da0     0x1168 c:/isis/application/toolchain/bin/../lib/gcc/arm-none-eabi/4.7.4/../../../../arm-none-eabi/lib\libc_s.a(lib_a-strtod.o)
                0x20004da0                _strtod_r
 .text._strtol_r
                0x20005f08      0x1b8 c:/isis/application/toolchain/bin/../lib/gcc/arm-none-eabi/4.7.4/../../../../arm-none-eabi/lib\libc_s.a(lib_a-strtol.o)
                0x20005f08                _strtol_r
 .text.__ssputc_r
                0x200060c0      0x10c c:/isis/application/toolchain/bin/../lib/gcc/arm-none-eabi/4.7.4/../../../../arm-none-eabi/lib\libc_s.a(lib_a-svfprintf.o)
                0x200060c0                __ssputc_r
 .text._svfprintf_r
                0x200061cc      0x328 c:/isis/application/toolchain/bin/../lib/gcc/arm-none-eabi/4.7.4/../../../../arm-none-eabi/lib\libc_s.a(lib_a-svfprintf.o)
                0x200061cc                _svfiprintf_r
                0x200061cc                _svfprintf_r
 .text._calloc_r
                0x200064f4       0x2c c:/isis/application/toolchain/bin/../lib/gcc/arm-none-eabi/4.7.4/../../../../arm-none-eabi/lib\libc_s.a(lib_a-callocr.o)
                0x200064f4                _calloc_r
 .text._free_r  0x20006520      0x108 c:/isis/application/toolchain/bin/../lib/gcc/arm-none-eabi/4.7.4/../../../../arm-none-eabi/lib\libc_s.a(lib_a-freer.o)
                0x20006520                _free_r
 .text.rshift   0x20006628       0xb0 c:/isis/application/toolchain/bin/../lib/gcc/arm-none-eabi/4.7.4/../../../../arm-none-eabi/lib\libc_s.a(lib_a-gdtoa-gethex.o)
 .text.htinit.constprop.0
                0x200066d8       0x34 c:/isis/application/toolchain/bin/../lib/gcc/arm-none-eabi/4.7.4/../../../../arm-none-eabi/lib\libc_s.a(lib_a-gdtoa-gethex.o)
 .text.__hexdig_init
                0x2000670c       0x38 c:/isis/application/toolchain/bin/../lib/gcc/arm-none-eabi/4.7.4/../../../../arm-none-eabi/lib\libc_s.a(lib_a-gdtoa-gethex.o)
                0x2000670c                __hexdig_init
 .text.__gethex
                0x20006744      0x6cc c:/isis/application/toolchain/bin/../lib/gcc/arm-none-eabi/4.7.4/../../../../arm-none-eabi/lib\libc_s.a(lib_a-gdtoa-gethex.o)
                0x20006744                __gethex
 .text.L_shift  0x20006e10       0x38 c:/isis/application/toolchain/bin/../lib/gcc/arm-none-eabi/4.7.4/../../../../arm-none-eabi/lib\libc_s.a(lib_a-gdtoa-hexnan.o)
 .text.__hexnan
                0x20006e48      0x1d8 c:/isis/application/toolchain/bin/../lib/gcc/arm-none-eabi/4.7.4/../../../../arm-none-eabi/lib\libc_s.a(lib_a-gdtoa-hexnan.o)
                0x20006e48                __hexnan
 .text.memchr   0x20007020       0x34 c:/isis/application/toolchain/bin/../lib/gcc/arm-none-eabi/4.7.4/../../../../arm-none-eabi/lib\libc_s.a(lib_a-memchr.o)
                0x20007020                memchr
 .text.memset   0x20007054       0x1c c:/isis/application/toolchain/bin/../lib/gcc/arm-none-eabi/4.7.4/../../../../arm-none-eabi/lib\libc_s.a(lib_a-memset.o)
                0x20007054                memset
 .text._realloc_r
                0x20007070       0x80 c:/isis/application/toolchain/bin/../lib/gcc/arm-none-eabi/4.7.4/../../../../arm-none-eabi/lib\libc_s.a(lib_a-reallocr.o)
                0x20007070                _realloc_r
 .text.strncmp  0x200070f0       0x64 c:/isis/application/toolchain/bin/../lib/gcc/arm-none-eabi/4.7.4/../../../../arm-none-eabi/lib\libc_s.a(lib_a-strncmp.o)
                0x200070f0                strncmp
 .text._malloc_usable_size_r
                0x20007154       0x1c c:/isis/application/toolchain/bin/../lib/gcc/arm-none-eabi/4.7.4/../../../../arm-none-eabi/lib\libc_s.a(lib_a-msizer.o)
                0x20007154                _malloc_usable_size_r
 .text.cmd_error
                0x20007170       0x38 ./src/sub-systemCode/Main/CMD/COMM_CMD.o
                0x20007170                cmd_error
 .text.cmd_mute
                0x200071a8       0xc4 ./src/sub-systemCode/Main/CMD/COMM_CMD.o
                0x200071a8                cmd_mute
 .text.cmd_unmute
                0x2000726c       0x4c ./src/sub-systemCode/Main/CMD/COMM_CMD.o
                0x2000726c                cmd_unmute
 .text.cmd_active_trans
                0x200072b8       0xc0 ./src/sub-systemCode/Main/CMD/COMM_CMD.o
                0x200072b8                cmd_active_trans
 .text.cmd_shut_trans
                0x20007378       0x38 ./src/sub-systemCode/Main/CMD/COMM_CMD.o
                0x20007378                cmd_shut_trans
 .text.cmd_change_trans_rssi
                0x200073b0       0xb8 ./src/sub-systemCode/Main/CMD/COMM_CMD.o
                0x200073b0                cmd_change_trans_rssi
 .text.cmd_aprs_dump
                0x20007468       0x50 ./src/sub-systemCode/Main/CMD/COMM_CMD.o
                0x20007468                cmd_aprs_dump
 .text.cmd_stop_dump
                0x200074b8       0x38 ./src/sub-systemCode/Main/CMD/COMM_CMD.o
                0x200074b8                cmd_stop_dump
 .text.cmd_time_frequency
                0x200074f0       0xc0 ./src/sub-systemCode/Main/CMD/COMM_CMD.o
                0x200074f0                cmd_time_frequency
 .text.cmd_upload_volt_logic
                0x200075b0      0x3d0 ./src/sub-systemCode/Main/CMD/EPS_CMD.o
                0x200075b0                cmd_upload_volt_logic
 .text.cmd_upload_volt_COMM
                0x20007980      0x1c8 ./src/sub-systemCode/Main/CMD/EPS_CMD.o
                0x20007980                cmd_upload_volt_COMM
 .text.cmd_heater_temp
                0x20007b48       0xc0 ./src/sub-systemCode/Main/CMD/EPS_CMD.o
                0x20007b48                cmd_heater_temp
 .text.cmd_SHUT_CAM
                0x20007c08       0x6c ./src/sub-systemCode/Main/CMD/EPS_CMD.o
                0x20007c08                cmd_SHUT_CAM
 .text.cmd_SHUT_ADCS
                0x20007c74       0x6c ./src/sub-systemCode/Main/CMD/EPS_CMD.o
                0x20007c74                cmd_SHUT_ADCS
 .text.cmd_allow_CAM
                0x20007ce0       0x6c ./src/sub-systemCode/Main/CMD/EPS_CMD.o
                0x20007ce0                cmd_allow_CAM
 .text.cmd_allow_ADCS
                0x20007d4c       0x6c ./src/sub-systemCode/Main/CMD/EPS_CMD.o
                0x20007d4c                cmd_allow_ADCS
 .text.cmd_generic_I2C
                0x20007db8       0xb4 ./src/sub-systemCode/Main/CMD/General_CMD.o
                0x20007db8                cmd_generic_I2C
 .text.cmd_dump
                0x20007e6c       0xf0 ./src/sub-systemCode/Main/CMD/General_CMD.o
                0x20007e6c                cmd_dump
 .text.cmd_delete_TM
                0x20007f5c      0x1dc ./src/sub-systemCode/Main/CMD/General_CMD.o
                0x20007f5c                cmd_delete_TM
 .text.cmd_reset_file
                0x20008138      0x110 ./src/sub-systemCode/Main/CMD/General_CMD.o
                0x20008138                cmd_reset_file
 .text.cmd_dummy_func
                0x20008248       0x40 ./src/sub-systemCode/Main/CMD/General_CMD.o
                0x20008248                cmd_dummy_func
 .text.cmd_soft_reset_cmponent
                0x20008288       0xb0 ./src/sub-systemCode/Main/CMD/General_CMD.o
                0x20008288                cmd_soft_reset_cmponent
 .text.cmd_hard_reset_cmponent
                0x20008338       0xb0 ./src/sub-systemCode/Main/CMD/General_CMD.o
                0x20008338                cmd_hard_reset_cmponent
 .text.cmd_reset_satellite
                0x200083e8       0x78 ./src/sub-systemCode/Main/CMD/General_CMD.o
                0x200083e8                cmd_reset_satellite
 .text.cmd_gracefull_reset_satellite
                0x20008460       0x78 ./src/sub-systemCode/Main/CMD/General_CMD.o
                0x20008460                cmd_gracefull_reset_satellite
 .text.cmd_upload_time
                0x200084d8       0xb0 ./src/sub-systemCode/Main/CMD/General_CMD.o
                0x200084d8                cmd_upload_time
 .text.cmd_ARM_DIARM
                0x20008588       0xd4 ./src/sub-systemCode/Main/CMD/General_CMD.o
                0x20008588                cmd_ARM_DIARM
 .text.cmd_reset_delayed_command_list
                0x2000865c       0x3c ./src/sub-systemCode/Main/CMD/SW_CMD.o
                0x2000865c                cmd_reset_delayed_command_list
 .text.cmd_reset_APRS_list
                0x20008698       0x3c ./src/sub-systemCode/Main/CMD/SW_CMD.o
                0x20008698                cmd_reset_APRS_list
 .text.cmd_reset_FRAM
                0x200086d4       0xe8 ./src/sub-systemCode/Main/CMD/SW_CMD.o
                0x200086d4                cmd_reset_FRAM
 .text.ARM_ants
                0x200087bc       0xb8 ./src/sub-systemCode/Main/Ants.o
                0x200087bc                ARM_ants
 .text.DISARM_ants
                0x20008874       0xb8 ./src/sub-systemCode/Main/Ants.o
                0x20008874                DISARM_ants
 .text.round_vol
                0x2000892c      0x124 ./src/sub-systemCode/Main/EPS.o
                0x2000892c                round_vol
 .text.get_shut_ADCS
                0x20008a50       0x48 ./src/sub-systemCode/Main/EPS.o
                0x20008a50                get_shut_ADCS
 .text.shut_ADCS
                0x20008a98       0x44 ./src/sub-systemCode/Main/EPS.o
                0x20008a98                shut_ADCS
 .text.get_shut_CAM
                0x20008adc       0x48 ./src/sub-systemCode/Main/EPS.o
                0x20008adc                get_shut_CAM
 .text.shut_CAM
                0x20008b24       0x44 ./src/sub-systemCode/Main/EPS.o
                0x20008b24                shut_CAM
 .text.update_powerLines
                0x20008b68       0xec ./src/sub-systemCode/Main/EPS.o
                0x20008b68                update_powerLines
 .text.init_enterMode
                0x20008c54       0x88 ./src/sub-systemCode/Main/EPS.o
                0x20008c54                init_enterMode
 .text.EPS_Init
                0x20008cdc      0x1c8 ./src/sub-systemCode/Main/EPS.o
                0x20008cdc                EPS_Init
 .text.reset_FRAM_EPS
                0x20008ea4       0xa4 ./src/sub-systemCode/Main/EPS.o
                0x20008ea4                reset_FRAM_EPS
 .text.reset_EPS_voltages
                0x20008f48       0xbc ./src/sub-systemCode/Main/EPS.o
                0x20008f48                reset_EPS_voltages
 .text.battery_downward
                0x20009004      0x114 ./src/sub-systemCode/Main/EPS.o
                0x20009004                battery_downward
 .text.battery_upward
                0x20009118      0x120 ./src/sub-systemCode/Main/EPS.o
                0x20009118                battery_upward
 .text.EPS_Conditioning
                0x20009238      0x1a4 ./src/sub-systemCode/Main/EPS.o
                0x20009238                EPS_Conditioning
 .text.overRide_ADCS
                0x200093dc       0x50 ./src/sub-systemCode/Main/EPS.o
                0x200093dc                overRide_ADCS
 .text.overRide_Camera
                0x2000942c       0x38 ./src/sub-systemCode/Main/EPS.o
                0x2000942c                overRide_Camera
 .text.EnterFullMode
                0x20009464       0xfc ./src/sub-systemCode/Main/EPS.o
                0x20009464                EnterFullMode
 .text.EnterCruiseMode
                0x20009560       0xec ./src/sub-systemCode/Main/EPS.o
                0x20009560                EnterCruiseMode
 .text.EnterSafeMode
                0x2000964c       0xec ./src/sub-systemCode/Main/EPS.o
                0x2000964c                EnterSafeMode
 .text.EnterCriticalMode
                0x20009738       0xd8 ./src/sub-systemCode/Main/EPS.o
                0x20009738                EnterCriticalMode
 .text.find_fileName
                0x20009810      0x59c ./src/sub-systemCode/Main/HouseKeeping.o
                0x20009810                find_fileName
 .text.size_of_element
                0x20009dac       0xd4 ./src/sub-systemCode/Main/HouseKeeping.o
                0x20009dac                size_of_element
 .text.save_ACK
                0x20009e80       0xa0 ./src/sub-systemCode/Main/HouseKeeping.o
                0x20009e80                save_ACK
 .text.set_GP_EPS
                0x20009f20      0x10c ./src/sub-systemCode/Main/HouseKeeping.o
                0x20009f20                set_GP_EPS
 .text.set_GP_COMM
                0x2000a02c       0x88 ./src/sub-systemCode/Main/HouseKeeping.o
                0x2000a02c                set_GP_COMM
 .text.SP_HK_collect
                0x2000a0b4      0x17c ./src/sub-systemCode/Main/HouseKeeping.o
                0x2000a0b4                SP_HK_collect
 .text.EPS_HK_collect
                0x2000a230      0x4d8 ./src/sub-systemCode/Main/HouseKeeping.o
                0x2000a230                EPS_HK_collect
 .text.CAM_HK_collect
                0x2000a708      0x91c ./src/sub-systemCode/Main/HouseKeeping.o
                0x2000a708                CAM_HK_collect
 .text.COMM_HK_collect
                0x2000b024      0x154 ./src/sub-systemCode/Main/HouseKeeping.o
                0x2000b024                COMM_HK_collect
 .text.COMM_create_file
                0x2000b178       0x74 ./src/sub-systemCode/Main/HouseKeeping.o
                0x2000b178                COMM_create_file
 .text.ACK_create_file
                0x2000b1ec       0x74 ./src/sub-systemCode/Main/HouseKeeping.o
                0x2000b1ec                ACK_create_file
 .text.EPS_create_file
                0x2000b260       0x74 ./src/sub-systemCode/Main/HouseKeeping.o
                0x2000b260                EPS_create_file
 .text.CAM_create_file
                0x2000b2d4       0x54 ./src/sub-systemCode/Main/HouseKeeping.o
                0x2000b2d4                CAM_create_file
 .text.SP_create_file
                0x2000b328       0x54 ./src/sub-systemCode/Main/HouseKeeping.o
                0x2000b328                SP_create_file
 .text.create_files
                0x2000b37c       0x48 ./src/sub-systemCode/Main/HouseKeeping.o
                0x2000b37c                create_files
 .text.save_SP_HK
                0x2000b3c4       0x70 ./src/sub-systemCode/Main/HouseKeeping.o
                0x2000b3c4                save_SP_HK
 .text.save_EPS_HK
                0x2000b434       0x70 ./src/sub-systemCode/Main/HouseKeeping.o
                0x2000b434                save_EPS_HK
 .text.save_CAM_HK
                0x2000b4a4       0x84 ./src/sub-systemCode/Main/HouseKeeping.o
                0x2000b4a4                save_CAM_HK
 .text.save_COMM_HK
                0x2000b528       0x70 ./src/sub-systemCode/Main/HouseKeeping.o
                0x2000b528                save_COMM_HK
 .text.EPS_HK_raw_BigEnE
                0x2000b598      0x194 ./src/sub-systemCode/Main/HouseKeeping.o
                0x2000b598                EPS_HK_raw_BigEnE
 .text.CAM_HK_raw_BigEnE
                0x2000b72c      0x194 ./src/sub-systemCode/Main/HouseKeeping.o
                0x2000b72c                CAM_HK_raw_BigEnE
 .text.COMM_HK_raw_BigEnE
                0x2000b8c0      0x194 ./src/sub-systemCode/Main/HouseKeeping.o
                0x2000b8c0                COMM_HK_raw_BigEnE
 .text.ADCS_HK_raw_BigEnE
                0x2000ba54      0x194 ./src/sub-systemCode/Main/HouseKeeping.o
                0x2000ba54                ADCS_HK_raw_BigEnE
 .text.ADCS_SC_raw_BigEnE
                0x2000bbe8      0x188 ./src/sub-systemCode/Main/HouseKeeping.o
                0x2000bbe8                ADCS_SC_raw_BigEnE
 .text.build_HK_spl_packet
                0x2000bd70      0x990 ./src/sub-systemCode/Main/HouseKeeping.o
                0x2000bd70                build_HK_spl_packet
 .text.HouseKeeping_highRate_Task
                0x2000c700       0x60 ./src/sub-systemCode/Main/HouseKeeping.o
                0x2000c700                HouseKeeping_highRate_Task
 .text.HouseKeeping_lowRate_Task
                0x2000c760       0x5c ./src/sub-systemCode/Main/HouseKeeping.o
                0x2000c760                HouseKeeping_lowRate_Task
 .text.test_menu
                0x2000c7bc       0xd8 ./src/sub-systemCode/Main/Main_Init.o
                0x2000c7bc                test_menu
 .text.numberOfRestarts
                0x2000c894       0x94 ./src/sub-systemCode/Main/Main_Init.o
                0x2000c894                numberOfRestarts
 .text.StartFRAM
                0x2000c928       0x38 ./src/sub-systemCode/Main/Main_Init.o
                0x2000c928                StartFRAM
 .text.StartI2C
                0x2000c960       0x44 ./src/sub-systemCode/Main/Main_Init.o
                0x2000c960                StartI2C
 .text.StartSPI
                0x2000c9a4       0x40 ./src/sub-systemCode/Main/Main_Init.o
                0x2000c9a4                StartSPI
 .text.StartTIME
                0x2000c9e4      0x118 ./src/sub-systemCode/Main/Main_Init.o
                0x2000c9e4                StartTIME
 .text.first_activation
                0x2000cafc       0x78 ./src/sub-systemCode/Main/Main_Init.o
                0x2000cafc                first_activation
 .text.InitSubsystems
                0x2000cb74       0x64 ./src/sub-systemCode/Main/Main_Init.o
                0x2000cb74                InitSubsystems
 .text.SubSystemTaskStart
                0x2000cbd8       0xe8 ./src/sub-systemCode/Main/Main_Init.o
                0x2000cbd8                SubSystemTaskStart
 .text.copy_command
                0x2000ccc0       0x80 ./src/sub-systemCode/Main/commands.o
                0x2000ccc0                copy_command
 .text.reset_command
                0x2000cd40       0x28 ./src/sub-systemCode/Main/commands.o
                0x2000cd40                reset_command
 .text.init_command
                0x2000cd68       0xd4 ./src/sub-systemCode/Main/commands.o
                0x2000cd68                init_command
 .text.add_command
                0x2000ce3c      0x138 ./src/sub-systemCode/Main/commands.o
                0x2000ce3c                add_command
 .text.get_command
                0x2000cf74      0x1cc ./src/sub-systemCode/Main/commands.o
                0x2000cf74                get_command
 .text.act_upon_command
                0x2000d140      0x200 ./src/sub-systemCode/Main/commands.o
                0x2000d140                act_upon_command
 .text.AUC_COMM
                0x2000d340      0x200 ./src/sub-systemCode/Main/commands.o
                0x2000d340                AUC_COMM
 .text.AUC_general
                0x2000d540      0x17c ./src/sub-systemCode/Main/commands.o
                0x2000d540                AUC_general
 .text.AUC_payload
                0x2000d6bc      0x110 ./src/sub-systemCode/Main/commands.o
                0x2000d6bc                AUC_payload
 .text.AUC_EPS  0x2000d7cc      0x248 ./src/sub-systemCode/Main/commands.o
                0x2000d7cc                AUC_EPS
 .text.AUC_ADCS
                0x2000da14       0x5c ./src/sub-systemCode/Main/commands.o
                0x2000da14                AUC_ADCS
 .text.AUC_GS   0x2000da70      0x1fc ./src/sub-systemCode/Main/commands.o
                0x2000da70                AUC_GS
 .text.AUC_SW   0x2000dc6c       0xe4 ./src/sub-systemCode/Main/commands.o
                0x2000dc6c                AUC_SW
 .text.AUC_special_operation
                0x2000dd50       0x8c ./src/sub-systemCode/Main/commands.o
                0x2000dd50                AUC_special_operation
 .text.check_int
                0x2000dddc       0x3c ./src/sub-systemCode/Global/Global.o
                0x2000dddc                check_int
 .text.check_portBASE_TYPE
                0x2000de18       0x3c ./src/sub-systemCode/Global/Global.o
                0x2000de18                check_portBASE_TYPE
 .text.soft_reset_subsystem
                0x2000de54       0xd8 ./src/sub-systemCode/Global/Global.o
                0x2000de54                soft_reset_subsystem
 .text.hard_reset_subsystem
                0x2000df2c       0xfc ./src/sub-systemCode/Global/Global.o
                0x2000df2c                hard_reset_subsystem
 .text.BigEnE_raw_to_uInt
                0x2000e028       0x94 ./src/sub-systemCode/Global/Global.o
                0x2000e028                BigEnE_raw_to_uInt
 .text.BigEnE_raw_to_uShort
                0x2000e0bc       0x50 ./src/sub-systemCode/Global/Global.o
                0x2000e0bc                BigEnE_raw_to_uShort
 .text.BigEnE_uInt_to_raw
                0x2000e10c       0x78 ./src/sub-systemCode/Global/Global.o
                0x2000e10c                BigEnE_uInt_to_raw
 .text.reset_FRAM_MAIN
                0x2000e184      0x19c ./src/sub-systemCode/Global/Global.o
                0x2000e184                reset_FRAM_MAIN
 .text.init_GP  0x2000e320      0x300 ./src/sub-systemCode/Global/GlobalParam.o
                0x2000e320                init_GP
 .text.get_system_state
                0x2000e620      0x268 ./src/sub-systemCode/Global/GlobalParam.o
                0x2000e620                get_system_state
 .text.set_system_state
                0x2000e888      0x298 ./src/sub-systemCode/Global/GlobalParam.o
                0x2000e888                set_system_state
 .text.get_current_global_param
                0x2000eb20      0x5c8 ./src/sub-systemCode/Global/GlobalParam.o
                0x2000eb20                get_current_global_param
 .text.set_Vbatt
                0x2000f0e8       0x8c ./src/sub-systemCode/Global/GlobalParam.o
                0x2000f0e8                set_Vbatt
 .text.get_Vbatt
                0x2000f174       0x8c ./src/sub-systemCode/Global/GlobalParam.o
                0x2000f174                get_Vbatt
 .text.set_curBat
                0x2000f200       0x8c ./src/sub-systemCode/Global/GlobalParam.o
                0x2000f200                set_curBat
 .text.set_cur3V3
                0x2000f28c       0x8c ./src/sub-systemCode/Global/GlobalParam.o
                0x2000f28c                set_cur3V3
 .text.set_cur5V
                0x2000f318       0x8c ./src/sub-systemCode/Global/GlobalParam.o
                0x2000f318                set_cur5V
 .text.set_tempComm_LO
                0x2000f3a4       0x8c ./src/sub-systemCode/Global/GlobalParam.o
                0x2000f3a4                set_tempComm_LO
 .text.set_tempComm_PA
                0x2000f430       0x8c ./src/sub-systemCode/Global/GlobalParam.o
                0x2000f430                set_tempComm_PA
 .text.set_tempEPS
                0x2000f4bc       0xc8 ./src/sub-systemCode/Global/GlobalParam.o
                0x2000f4bc                set_tempEPS
 .text.set_tempBatt
                0x2000f584       0xc8 ./src/sub-systemCode/Global/GlobalParam.o
                0x2000f584                set_tempBatt
 .text.set_RxDoppler
                0x2000f64c       0x8c ./src/sub-systemCode/Global/GlobalParam.o
                0x2000f64c                set_RxDoppler
 .text.set_RxRSSI
                0x2000f6d8       0x8c ./src/sub-systemCode/Global/GlobalParam.o
                0x2000f6d8                set_RxRSSI
 .text.set_TxRefl
                0x2000f764       0x8c ./src/sub-systemCode/Global/GlobalParam.o
                0x2000f764                set_TxRefl
 .text.set_TxForw
                0x2000f7f0       0x8c ./src/sub-systemCode/Global/GlobalParam.o
                0x2000f7f0                set_TxForw
 .text.get_ST   0x2000f87c       0x8c ./src/sub-systemCode/Global/GlobalParam.o
                0x2000f87c                get_ST
 .text.set_numOfAPRS
                0x2000f908       0x8c ./src/sub-systemCode/Global/GlobalParam.o
                0x2000f908                set_numOfAPRS
 .text.set_numOfDelayedCommand
                0x2000f994       0x8c ./src/sub-systemCode/Global/GlobalParam.o
                0x2000f994                set_numOfDelayedCommand
 .text.set_numOfResets
                0x2000fa20       0xac ./src/sub-systemCode/Global/GlobalParam.o
                0x2000fa20                set_numOfResets
 .text.set_ground_conn
                0x2000facc       0xa0 ./src/sub-systemCode/Global/GlobalParam.o
                0x2000facc                set_ground_conn
 .text.get_ground_conn
                0x2000fb6c       0xa0 ./src/sub-systemCode/Global/GlobalParam.o
                0x2000fb6c                get_ground_conn
 .text.delete_allTMFilesFromSD
                0x2000fc0c       0xf8 ./src/sub-systemCode/Global/TM_managment.o
                0x2000fc0c                delete_allTMFilesFromSD
 .text.getNumOfFilesInFS
                0x2000fd04       0x44 ./src/sub-systemCode/Global/TM_managment.o
 .text.setNumOfFilesInFS
                0x2000fd48       0x50 ./src/sub-systemCode/Global/TM_managment.o
 .text.InitializeFS
                0x2000fd98      0x174 ./src/sub-systemCode/Global/TM_managment.o
                0x2000fd98                InitializeFS
 .text.c_fileCreate
                0x2000ff0c       0xf4 ./src/sub-systemCode/Global/TM_managment.o
                0x2000ff0c                c_fileCreate
 .text.writewithEpochtime
                0x20010000       0x9c ./src/sub-systemCode/Global/TM_managment.o
 .text.get_C_FILE_struct
                0x2001009c      0x104 ./src/sub-systemCode/Global/TM_managment.o
 .text.getFileIndex
                0x200101a0       0x4c ./src/sub-systemCode/Global/TM_managment.o
 .text.get_file_name_by_index
                0x200101ec       0x54 ./src/sub-systemCode/Global/TM_managment.o
                0x200101ec                get_file_name_by_index
 .text.c_fileReset
                0x20010240       0xbc ./src/sub-systemCode/Global/TM_managment.o
                0x20010240                c_fileReset
 .text.c_fileWrite
                0x200102fc      0x11c ./src/sub-systemCode/Global/TM_managment.o
                0x200102fc                c_fileWrite
 .text.c_fileRead
                0x20010418      0x28c ./src/sub-systemCode/Global/TM_managment.o
                0x20010418                c_fileRead
 .text.reset_APRS_list
                0x200106a4       0xa4 ./src/sub-systemCode/COMM/APRS.o
                0x200106a4                reset_APRS_list
 .text.send_APRS_Dump
                0x20010748      0x1c4 ./src/sub-systemCode/COMM/APRS.o
                0x20010748                send_APRS_Dump
 .text.check_APRS
                0x2001090c      0x1a4 ./src/sub-systemCode/COMM/APRS.o
                0x2001090c                check_APRS
 .text.get_APRS_list
                0x20010ab0       0x88 ./src/sub-systemCode/COMM/APRS.o
                0x20010ab0                get_APRS_list
 .text.find_CMD_in_list
                0x20010b38       0x7c ./src/sub-systemCode/COMM/DelayedCommand_list.o
                0x20010b38                find_CMD_in_list
 .text.find_empty_in_list
                0x20010bb4       0x74 ./src/sub-systemCode/COMM/DelayedCommand_list.o
                0x20010bb4                find_empty_in_list
 .text.check_delayCommandTime
                0x20010c28       0x8c ./src/sub-systemCode/COMM/DelayedCommand_list.o
                0x20010c28                check_delayCommandTime
 .text.execute_delayedCommand
                0x20010cb4       0x64 ./src/sub-systemCode/COMM/DelayedCommand_list.o
                0x20010cb4                execute_delayedCommand
 .text.check_delaycommand
                0x20010d18      0x17c ./src/sub-systemCode/COMM/DelayedCommand_list.o
                0x20010d18                check_delaycommand
 .text.reset_delayCommand
                0x20010e94       0x8c ./src/sub-systemCode/COMM/DelayedCommand_list.o
                0x20010e94                reset_delayCommand
 .text.add_delayCommand
                0x20010f20      0x1a4 ./src/sub-systemCode/COMM/DelayedCommand_list.o
                0x20010f20                add_delayCommand
 .text.get_delayCommand_list
                0x200110c4       0x80 ./src/sub-systemCode/COMM/DelayedCommand_list.o
                0x200110c4                get_delayCommand_list
 .text.EmptyOldestCommand
                0x20011144       0xfc ./src/sub-systemCode/COMM/DelayedCommand_list.o
                0x20011144                EmptyOldestCommand
 .text.decode_TCpacket
                0x20011240      0x16c ./src/sub-systemCode/COMM/GSC.o
                0x20011240                decode_TCpacket
 .text.encode_TCpacket
                0x200113ac      0x114 ./src/sub-systemCode/COMM/GSC.o
                0x200113ac                encode_TCpacket
 .text.encode_TMpacket
                0x200114c0      0x104 ./src/sub-systemCode/COMM/GSC.o
                0x200114c0                encode_TMpacket
 .text.build_raw_ACK
                0x200115c4       0xbc ./src/sub-systemCode/COMM/GSC.o
                0x200115c4                build_raw_ACK
 .text.build_data_field_ACK
                0x20011680       0x74 ./src/sub-systemCode/COMM/GSC.o
                0x20011680                build_data_field_ACK
 .text.init_trxvu
                0x200116f4      0x134 ./src/sub-systemCode/COMM/TRXVU.o
                0x200116f4                init_trxvu
 .text.TRXVU_task
                0x20011828      0x18c ./src/sub-systemCode/COMM/TRXVU.o
                0x20011828                TRXVU_task
 .text.dump_logic
                0x200119b4      0x2ec ./src/sub-systemCode/COMM/TRXVU.o
                0x200119b4                dump_logic
 .text.Dump_task
                0x20011ca0      0x16c ./src/sub-systemCode/COMM/TRXVU.o
                0x20011ca0                Dump_task
 .text.transponder_logic
                0x20011e0c       0xbc ./src/sub-systemCode/COMM/TRXVU.o
                0x20011e0c                transponder_logic
 .text.Transponder_task
                0x20011ec8      0x1e0 ./src/sub-systemCode/COMM/TRXVU.o
                0x20011ec8                Transponder_task
 .text.lookForRequestToDelete_transponder
                0x200120a8       0xac ./src/sub-systemCode/COMM/TRXVU.o
                0x200120a8                lookForRequestToDelete_transponder
 .text.lookForRequestToDelete_dump
                0x20012154       0x7c ./src/sub-systemCode/COMM/TRXVU.o
                0x20012154                lookForRequestToDelete_dump
 .text.sendRequestToStop_dump
                0x200121d0       0x8c ./src/sub-systemCode/COMM/TRXVU.o
                0x200121d0                sendRequestToStop_dump
 .text.sendRequestToStop_transponder
                0x2001225c       0x98 ./src/sub-systemCode/COMM/TRXVU.o
                0x2001225c                sendRequestToStop_transponder
 .text.Rx_logic
                0x200122f4      0x188 ./src/sub-systemCode/COMM/TRXVU.o
                0x200122f4                Rx_logic
 .text.pass_above_Ground
                0x2001247c      0x104 ./src/sub-systemCode/COMM/TRXVU.o
                0x2001247c                pass_above_Ground
 .text.trxvu_logic
                0x20012580       0x1c ./src/sub-systemCode/COMM/TRXVU.o
                0x20012580                trxvu_logic
 .text.Beacon_task
                0x2001259c      0x1d8 ./src/sub-systemCode/COMM/TRXVU.o
                0x2001259c                Beacon_task
 .text.buildAndSend_beacon
                0x20012774      0x614 ./src/sub-systemCode/COMM/TRXVU.o
                0x20012774                buildAndSend_beacon
 .text.reset_FRAM_TRXVU
                0x20012d88       0xc0 ./src/sub-systemCode/COMM/TRXVU.o
                0x20012d88                reset_FRAM_TRXVU
 .text.TRX_sendFrame
                0x20012e48      0x23c ./src/sub-systemCode/COMM/TRXVU.o
                0x20012e48                TRX_sendFrame
 .text.TRX_getFrameData
                0x20013084      0x128 ./src/sub-systemCode/COMM/TRXVU.o
                0x20013084                TRX_getFrameData
 .text.mute_Tx  0x200131ac       0x20 ./src/sub-systemCode/COMM/TRXVU.o
                0x200131ac                mute_Tx
 .text.unmute_Tx
                0x200131cc       0x54 ./src/sub-systemCode/COMM/TRXVU.o
                0x200131cc                unmute_Tx
 .text.check_time_off_mute
                0x20013220       0x74 ./src/sub-systemCode/COMM/TRXVU.o
                0x20013220                check_time_off_mute
 .text.set_mute_time
                0x20013294       0xb4 ./src/sub-systemCode/COMM/TRXVU.o
                0x20013294                set_mute_time
 .text.change_TRXVU_state
                0x20013348       0x98 ./src/sub-systemCode/COMM/TRXVU.o
                0x20013348                change_TRXVU_state
 .text.change_trans_RSSI
                0x200133e0       0x60 ./src/sub-systemCode/COMM/TRXVU.o
                0x200133e0                change_trans_RSSI
 .text.init_adcs
                0x20013440      0x104 ./src/sub-systemCode/ADCS/ADCS.o
                0x20013440                init_adcs
 .text.telemtryStart
                0x20013544      0x16c ./src/sub-systemCode/ADCS/Stage_Table.o
                0x20013544                telemtryStart
 .text.powerStart
                0x200136b0       0x5c ./src/sub-systemCode/ADCS/Stage_Table.o
                0x200136b0                powerStart
 .text.createTable
                0x2001370c       0xb4 ./src/sub-systemCode/ADCS/Stage_Table.o
                0x2001370c                createTable
 .text.buildControlMode
                0x200137c0       0x60 ./src/sub-systemCode/ADCS/Stage_Table.o
                0x200137c0                buildControlMode
 .text.Check_Table
                0x20013820      0x178 ./src/sub-systemCode/ADCS/Stage_Table.o
                0x20013820                Check_Table
 .text.updateTable
                0x20013998      0x1f0 ./src/sub-systemCode/ADCS/Stage_Table.o
                0x20013998                updateTable
 .text.translateCommandFULL
                0x20013b88       0x78 ./src/sub-systemCode/ADCS/Stage_Table.o
                0x20013b88                translateCommandFULL
 .text.getTableTo
                0x20013c00       0x64 ./src/sub-systemCode/ADCS/Stage_Table.o
                0x20013c00                getTableTo
 .text.save_time
                0x20013c64       0x9c ./src/main.o
                0x20013c64                save_time
 .text.Command_logic
                0x20013d00       0x6c ./src/main.o
                0x20013d00                Command_logic
 .text.taskMain
                0x20013d6c       0x74 ./src/main.o
                0x20013d6c                taskMain
 .text.main     0x20013de0       0xb8 ./src/main.o
                0x20013de0                main
 .text.GomEpsInitialize
                0x20013e98      0x148 C:/Hoopoe3/satellite-subsystems/demo/..//satellite-subsystems/lib\libSatelliteSubsystemsD.a(GomEPS.o)
                0x20013e98                GomEpsInitialize
 .text.makeEPStransfer
                0x20013fe0       0x3c C:/Hoopoe3/satellite-subsystems/demo/..//satellite-subsystems/lib\libSatelliteSubsystemsD.a(GomEPS.o)
 .text.GomEpsSoftReset
                0x2001401c       0xc4 C:/Hoopoe3/satellite-subsystems/demo/..//satellite-subsystems/lib\libSatelliteSubsystemsD.a(GomEPS.o)
                0x2001401c                GomEpsSoftReset
 .text.GomEpsHardReset
                0x200140e0       0xa8 C:/Hoopoe3/satellite-subsystems/demo/..//satellite-subsystems/lib\libSatelliteSubsystemsD.a(GomEPS.o)
                0x200140e0                GomEpsHardReset
 .text.GomEpsGetHkData_general
                0x20014188      0x45c C:/Hoopoe3/satellite-subsystems/demo/..//satellite-subsystems/lib\libSatelliteSubsystemsD.a(GomEPS.o)
                0x20014188                GomEpsGetHkData_general
 .text.GomEpsGetHkData_basic
                0x200145e4      0x22c C:/Hoopoe3/satellite-subsystems/demo/..//satellite-subsystems/lib\libSatelliteSubsystemsD.a(GomEPS.o)
                0x200145e4                GomEpsGetHkData_basic
 .text.GomEpsSetOutput
                0x20014810       0xbc C:/Hoopoe3/satellite-subsystems/demo/..//satellite-subsystems/lib\libSatelliteSubsystemsD.a(GomEPS.o)
                0x20014810                GomEpsSetOutput
 .text.GomEpsConfigSet
                0x200148cc      0x184 C:/Hoopoe3/satellite-subsystems/demo/..//satellite-subsystems/lib\libSatelliteSubsystemsD.a(GomEPS.o)
                0x200148cc                GomEpsConfigSet
 .text.makeAntStransfer
                0x20014a50       0x4c C:/Hoopoe3/satellite-subsystems/demo/..//satellite-subsystems/lib\libSatelliteSubsystemsD.a(IsisAntS.o)
 .text.checkInputsValid
                0x20014a9c       0x7c C:/Hoopoe3/satellite-subsystems/demo/..//satellite-subsystems/lib\libSatelliteSubsystemsD.a(IsisAntS.o)
 .text.IsisAntS_setArmStatus
                0x20014b18      0x104 C:/Hoopoe3/satellite-subsystems/demo/..//satellite-subsystems/lib\libSatelliteSubsystemsD.a(IsisAntS.o)
                0x20014b18                IsisAntS_setArmStatus
 .text.IsisAntS_reset
                0x20014c1c      0x104 C:/Hoopoe3/satellite-subsystems/demo/..//satellite-subsystems/lib\libSatelliteSubsystemsD.a(IsisAntS.o)
                0x20014c1c                IsisAntS_reset
 .text.IsisSolarPanelv2_initialize
                0x20014d20       0xb4 C:/Hoopoe3/satellite-subsystems/demo/..//satellite-subsystems/lib\libSatelliteSubsystemsD.a(IsisSolarPanelv2.o)
                0x20014d20                IsisSolarPanelv2_initialize
 .text.IsisSolarPanelv2_getTemperature
                0x20014dd4       0xc8 C:/Hoopoe3/satellite-subsystems/demo/..//satellite-subsystems/lib\libSatelliteSubsystemsD.a(IsisSolarPanelv2.o)
                0x20014dd4                IsisSolarPanelv2_getTemperature
 .text.IsisSolarPanelv2_sleep
                0x20014e9c       0xbc C:/Hoopoe3/satellite-subsystems/demo/..//satellite-subsystems/lib\libSatelliteSubsystemsD.a(IsisSolarPanelv2.o)
                0x20014e9c                IsisSolarPanelv2_sleep
 .text.IsisSolarPanelv2_wakeup
                0x20014f58       0x80 C:/Hoopoe3/satellite-subsystems/demo/..//satellite-subsystems/lib\libSatelliteSubsystemsD.a(IsisSolarPanelv2.o)
                0x20014f58                IsisSolarPanelv2_wakeup
 .text._Reset   0x20014fd8       0x20 C:/Hoopoe3/satellite-subsystems/demo/..//satellite-subsystems/lib\libSatelliteSubsystemsD.a(IsisSolarPanelv2.o)
 .text._WaitForStartup
                0x20014ff8       0x90 C:/Hoopoe3/satellite-subsystems/demo/..//satellite-subsystems/lib\libSatelliteSubsystemsD.a(IsisSolarPanelv2.o)
 .text._AssignAllChannels
                0x20015088       0x90 C:/Hoopoe3/satellite-subsystems/demo/..//satellite-subsystems/lib\libSatelliteSubsystemsD.a(IsisSolarPanelv2.o)
 .text._AssignThisChannel
                0x20015118       0xe8 C:/Hoopoe3/satellite-subsystems/demo/..//satellite-subsystems/lib\libSatelliteSubsystemsD.a(IsisSolarPanelv2.o)
 .text._InitiateConversion
                0x20015200       0xac C:/Hoopoe3/satellite-subsystems/demo/..//satellite-subsystems/lib\libSatelliteSubsystemsD.a(IsisSolarPanelv2.o)
 .text._WaitForConversionComplete
                0x200152ac      0x100 C:/Hoopoe3/satellite-subsystems/demo/..//satellite-subsystems/lib\libSatelliteSubsystemsD.a(IsisSolarPanelv2.o)
 .text._ReadResult
                0x200153ac      0x158 C:/Hoopoe3/satellite-subsystems/demo/..//satellite-subsystems/lib\libSatelliteSubsystemsD.a(IsisSolarPanelv2.o)
 .text._ExtractByte
                0x20015504       0x38 C:/Hoopoe3/satellite-subsystems/demo/..//satellite-subsystems/lib\libSatelliteSubsystemsD.a(IsisSolarPanelv2.o)
 .text._ExtendSign
                0x2001553c       0x6c C:/Hoopoe3/satellite-subsystems/demo/..//satellite-subsystems/lib\libSatelliteSubsystemsD.a(IsisSolarPanelv2.o)
 .text._PinsInit
                0x200155a8       0x50 C:/Hoopoe3/satellite-subsystems/demo/..//satellite-subsystems/lib\libSatelliteSubsystemsD.a(IsisSolarPanelv2.o)
 .text._SpiWriteRead
                0x200155f8       0x70 C:/Hoopoe3/satellite-subsystems/demo/..//satellite-subsystems/lib\libSatelliteSubsystemsD.a(IsisSolarPanelv2.o)
 .text.IsisTrxvu_initialize
                0x20015668      0x2f4 C:/Hoopoe3/satellite-subsystems/demo/..//satellite-subsystems/lib\libSatelliteSubsystemsD.a(IsisTRXVU.o)
                0x20015668                IsisTrxvu_initialize
 .text.makeTRXVUtransfer
                0x2001595c       0x44 C:/Hoopoe3/satellite-subsystems/demo/..//satellite-subsystems/lib\libSatelliteSubsystemsD.a(IsisTRXVU.o)
 .text.IsisTrxvu_componentSoftReset
                0x200159a0       0x6c C:/Hoopoe3/satellite-subsystems/demo/..//satellite-subsystems/lib\libSatelliteSubsystemsD.a(IsisTRXVU.o)
                0x200159a0                IsisTrxvu_componentSoftReset
 .text.IsisTrxvu_componentHardReset
                0x20015a0c       0xc8 C:/Hoopoe3/satellite-subsystems/demo/..//satellite-subsystems/lib\libSatelliteSubsystemsD.a(IsisTRXVU.o)
                0x20015a0c                IsisTrxvu_componentHardReset
 .text.IsisTrxvu_softReset
                0x20015ad4       0x74 C:/Hoopoe3/satellite-subsystems/demo/..//satellite-subsystems/lib\libSatelliteSubsystemsD.a(IsisTRXVU.o)
                0x20015ad4                IsisTrxvu_softReset
 .text.IsisTrxvu_hardReset
                0x20015b48       0x74 C:/Hoopoe3/satellite-subsystems/demo/..//satellite-subsystems/lib\libSatelliteSubsystemsD.a(IsisTRXVU.o)
                0x20015b48                IsisTrxvu_hardReset
 .text.IsisTrxvu_tcSendAX25DefClSign
                0x20015bbc       0xec C:/Hoopoe3/satellite-subsystems/demo/..//satellite-subsystems/lib\libSatelliteSubsystemsD.a(IsisTRXVU.o)
                0x20015bbc                IsisTrxvu_tcSendAX25DefClSign
 .text.IsisTrxvu_tcSetIdlestate
                0x20015ca8       0xa4 C:/Hoopoe3/satellite-subsystems/demo/..//satellite-subsystems/lib\libSatelliteSubsystemsD.a(IsisTRXVU.o)
                0x20015ca8                IsisTrxvu_tcSetIdlestate
 .text.IsisTrxvu_tcSetAx25Bitrate
                0x20015d4c       0xc4 C:/Hoopoe3/satellite-subsystems/demo/..//satellite-subsystems/lib\libSatelliteSubsystemsD.a(IsisTRXVU.o)
                0x20015d4c                IsisTrxvu_tcSetAx25Bitrate
 .text.IsisTrxvu_tcGetTelemetryAll_revC
                0x20015e10       0xd0 C:/Hoopoe3/satellite-subsystems/demo/..//satellite-subsystems/lib\libSatelliteSubsystemsD.a(IsisTRXVU.o)
                0x20015e10                IsisTrxvu_tcGetTelemetryAll_revC
 .text.IsisTrxvu_rcGetFrameCount
                0x20015ee0       0xa0 C:/Hoopoe3/satellite-subsystems/demo/..//satellite-subsystems/lib\libSatelliteSubsystemsD.a(IsisTRXVU.o)
                0x20015ee0                IsisTrxvu_rcGetFrameCount
 .text.IsisTrxvu_rcGetCommandFrame
                0x20015f80      0x2d8 C:/Hoopoe3/satellite-subsystems/demo/..//satellite-subsystems/lib\libSatelliteSubsystemsD.a(IsisTRXVU.o)
                0x20015f80                IsisTrxvu_rcGetCommandFrame
 .text.IsisTrxvu_rcGetTelemetryAll_revC
                0x20016258       0xec C:/Hoopoe3/satellite-subsystems/demo/..//satellite-subsystems/lib\libSatelliteSubsystemsD.a(IsisTRXVU.o)
                0x20016258                IsisTrxvu_rcGetTelemetryAll_revC
 .text.cspaceADCS_initialize
                0x20016344      0x18c C:/Hoopoe3/satellite-subsystems/demo/..//satellite-subsystems/lib\libSatelliteSubsystemsD.a(cspaceADCS.o)
                0x20016344                cspaceADCS_initialize
 .text.make_cspaceADCStransfer
                0x200164d0      0x1b4 C:/Hoopoe3/satellite-subsystems/demo/..//satellite-subsystems/lib\libSatelliteSubsystemsD.a(cspaceADCS.o)
 .text.cspaceADCS_componentReset
                0x20016684       0xbc C:/Hoopoe3/satellite-subsystems/demo/..//satellite-subsystems/lib\libSatelliteSubsystemsD.a(cspaceADCS.o)
                0x20016684                cspaceADCS_componentReset
 .text.cspaceADCS_setRunMode
                0x20016740       0xbc C:/Hoopoe3/satellite-subsystems/demo/..//satellite-subsystems/lib\libSatelliteSubsystemsD.a(cspaceADCS.o)
                0x20016740                cspaceADCS_setRunMode
 .text.cspaceADCS_setPwrCtrlDevice
                0x200167fc       0xd0 C:/Hoopoe3/satellite-subsystems/demo/..//satellite-subsystems/lib\libSatelliteSubsystemsD.a(cspaceADCS.o)
                0x200167fc                cspaceADCS_setPwrCtrlDevice
 .text.cspaceADCS_setAttCtrlMode
                0x200168cc       0xd0 C:/Hoopoe3/satellite-subsystems/demo/..//satellite-subsystems/lib\libSatelliteSubsystemsD.a(cspaceADCS.o)
                0x200168cc                cspaceADCS_setAttCtrlMode
 .text.cspaceADCS_setAttEstMode
                0x2001699c       0xbc C:/Hoopoe3/satellite-subsystems/demo/..//satellite-subsystems/lib\libSatelliteSubsystemsD.a(cspaceADCS.o)
                0x2001699c                cspaceADCS_setAttEstMode
 .text.cspaceADCS_getCurrentState
                0x20016a58       0xc4 C:/Hoopoe3/satellite-subsystems/demo/..//satellite-subsystems/lib\libSatelliteSubsystemsD.a(cspaceADCS.o)
                0x20016a58                cspaceADCS_getCurrentState
 .text.cspaceADCS_getPwrCtrlDevice
                0x20016b1c       0xc4 C:/Hoopoe3/satellite-subsystems/demo/..//satellite-subsystems/lib\libSatelliteSubsystemsD.a(cspaceADCS.o)
                0x20016b1c                cspaceADCS_getPwrCtrlDevice
 .text.GECKO_GetReg
                0x20016be0      0x110 C:/Hoopoe3/satellite-subsystems/demo/..//satellite-subsystems/lib\libSatelliteSubsystemsD.a(gecko_driver.o)
                0x20016be0                GECKO_GetReg
 .text.GECKO_GetVoltageInput5V
                0x20016cf0       0xf4 C:/Hoopoe3/satellite-subsystems/demo/..//satellite-subsystems/lib\libSatelliteSubsystemsD.a(gecko_driver.o)
                0x20016cf0                GECKO_GetVoltageInput5V
 .text.GECKO_GetCurrentInput5V
                0x20016de4      0x130 C:/Hoopoe3/satellite-subsystems/demo/..//satellite-subsystems/lib\libSatelliteSubsystemsD.a(gecko_driver.o)
                0x20016de4                GECKO_GetCurrentInput5V
 .text.GECKO_GetVoltageFPGA1V
                0x20016f14       0xd4 C:/Hoopoe3/satellite-subsystems/demo/..//satellite-subsystems/lib\libSatelliteSubsystemsD.a(gecko_driver.o)
                0x20016f14                GECKO_GetVoltageFPGA1V
 .text.GECKO_GetCurrentFPGA1V
                0x20016fe8      0x130 C:/Hoopoe3/satellite-subsystems/demo/..//satellite-subsystems/lib\libSatelliteSubsystemsD.a(gecko_driver.o)
                0x20016fe8                GECKO_GetCurrentFPGA1V
 .text.GECKO_GetVoltageFPGA1V8
                0x20017118       0xd4 C:/Hoopoe3/satellite-subsystems/demo/..//satellite-subsystems/lib\libSatelliteSubsystemsD.a(gecko_driver.o)
                0x20017118                GECKO_GetVoltageFPGA1V8
 .text.GECKO_GetCurrentFPGA1V8
                0x200171ec      0x130 C:/Hoopoe3/satellite-subsystems/demo/..//satellite-subsystems/lib\libSatelliteSubsystemsD.a(gecko_driver.o)
                0x200171ec                GECKO_GetCurrentFPGA1V8
 .text.GECKO_GetVoltageFPGA2V5
                0x2001731c       0xe8 C:/Hoopoe3/satellite-subsystems/demo/..//satellite-subsystems/lib\libSatelliteSubsystemsD.a(gecko_driver.o)
                0x2001731c                GECKO_GetVoltageFPGA2V5
 .text.GECKO_GetCurrentFPGA2V5
                0x20017404      0x130 C:/Hoopoe3/satellite-subsystems/demo/..//satellite-subsystems/lib\libSatelliteSubsystemsD.a(gecko_driver.o)
                0x20017404                GECKO_GetCurrentFPGA2V5
 .text.GECKO_GetVoltageFPGA3V3
                0x20017534       0xe8 C:/Hoopoe3/satellite-subsystems/demo/..//satellite-subsystems/lib\libSatelliteSubsystemsD.a(gecko_driver.o)
                0x20017534                GECKO_GetVoltageFPGA3V3
 .text.GECKO_GetCurrentFPGA3V3
                0x2001761c      0x130 C:/Hoopoe3/satellite-subsystems/demo/..//satellite-subsystems/lib\libSatelliteSubsystemsD.a(gecko_driver.o)
                0x2001761c                GECKO_GetCurrentFPGA3V3
 .text.GECKO_GetVoltageFlash1V8
                0x2001774c       0xd4 C:/Hoopoe3/satellite-subsystems/demo/..//satellite-subsystems/lib\libSatelliteSubsystemsD.a(gecko_driver.o)
                0x2001774c                GECKO_GetVoltageFlash1V8
 .text.GECKO_GetCurrentFlash1V8
                0x20017820      0x130 C:/Hoopoe3/satellite-subsystems/demo/..//satellite-subsystems/lib\libSatelliteSubsystemsD.a(gecko_driver.o)
                0x20017820                GECKO_GetCurrentFlash1V8
 .text.GECKO_GetVoltageFlash3V3
                0x20017950       0xe8 C:/Hoopoe3/satellite-subsystems/demo/..//satellite-subsystems/lib\libSatelliteSubsystemsD.a(gecko_driver.o)
                0x20017950                GECKO_GetVoltageFlash3V3
 .text.GECKO_GetCurrentFlash3V3
                0x20017a38      0x130 C:/Hoopoe3/satellite-subsystems/demo/..//satellite-subsystems/lib\libSatelliteSubsystemsD.a(gecko_driver.o)
                0x20017a38                GECKO_GetCurrentFlash3V3
 .text.GECKO_GetVoltageSNSR1V8
                0x20017b68       0xe8 C:/Hoopoe3/satellite-subsystems/demo/..//satellite-subsystems/lib\libSatelliteSubsystemsD.a(gecko_driver.o)
                0x20017b68                GECKO_GetVoltageSNSR1V8
 .text.GECKO_GetCurrentSNSR1V8
                0x20017c50      0x130 C:/Hoopoe3/satellite-subsystems/demo/..//satellite-subsystems/lib\libSatelliteSubsystemsD.a(gecko_driver.o)
                0x20017c50                GECKO_GetCurrentSNSR1V8
 .text.GECKO_GetVoltageSNSRVDDPIX
                0x20017d80       0xe8 C:/Hoopoe3/satellite-subsystems/demo/..//satellite-subsystems/lib\libSatelliteSubsystemsD.a(gecko_driver.o)
                0x20017d80                GECKO_GetVoltageSNSRVDDPIX
 .text.GECKO_GetCurrentSNSRVDDPIX
                0x20017e68      0x130 C:/Hoopoe3/satellite-subsystems/demo/..//satellite-subsystems/lib\libSatelliteSubsystemsD.a(gecko_driver.o)
                0x20017e68                GECKO_GetCurrentSNSRVDDPIX
 .text.GECKO_GetVoltageSNSR3V3
                0x20017f98       0xe8 C:/Hoopoe3/satellite-subsystems/demo/..//satellite-subsystems/lib\libSatelliteSubsystemsD.a(gecko_driver.o)
                0x20017f98                GECKO_GetVoltageSNSR3V3
 .text.GECKO_GetCurrentSNSR3V3
                0x20018080      0x130 C:/Hoopoe3/satellite-subsystems/demo/..//satellite-subsystems/lib\libSatelliteSubsystemsD.a(gecko_driver.o)
                0x20018080                GECKO_GetCurrentSNSR3V3
 .text.GECKO_GetVoltageFlashVTT09
                0x200181b0       0xd4 C:/Hoopoe3/satellite-subsystems/demo/..//satellite-subsystems/lib\libSatelliteSubsystemsD.a(gecko_driver.o)
                0x200181b0                GECKO_GetVoltageFlashVTT09
 .text.GECKO_GetTempSMU3AB
                0x20018284      0x35c C:/Hoopoe3/satellite-subsystems/demo/..//satellite-subsystems/lib\libSatelliteSubsystemsD.a(gecko_driver.o)
                0x20018284                GECKO_GetTempSMU3AB
 .text.GECKO_GetTempSMU3BC
                0x200185e0      0x360 C:/Hoopoe3/satellite-subsystems/demo/..//satellite-subsystems/lib\libSatelliteSubsystemsD.a(gecko_driver.o)
                0x200185e0                GECKO_GetTempSMU3BC
 .text.GECKO_GetTempREGU6
                0x20018940      0x35c C:/Hoopoe3/satellite-subsystems/demo/..//satellite-subsystems/lib\libSatelliteSubsystemsD.a(gecko_driver.o)
                0x20018940                GECKO_GetTempREGU6
 .text.GECKO_GetTempREGU8
                0x20018c9c      0x360 C:/Hoopoe3/satellite-subsystems/demo/..//satellite-subsystems/lib\libSatelliteSubsystemsD.a(gecko_driver.o)
                0x20018c9c                GECKO_GetTempREGU8
 .text.GECKO_GetTempFlash
                0x20018ffc      0x360 C:/Hoopoe3/satellite-subsystems/demo/..//satellite-subsystems/lib\libSatelliteSubsystemsD.a(gecko_driver.o)
                0x20018ffc                GECKO_GetTempFlash
 .text._SpiWriteRead
                0x2001935c       0x70 C:/Hoopoe3/satellite-subsystems/demo/..//satellite-subsystems/lib\libSatelliteSubsystemsD.a(gecko_driver.o)
 .text.makeTRXCommonTransfer
                0x200193cc       0x34 C:/Hoopoe3/satellite-subsystems/demo/..//satellite-subsystems/lib\libSatelliteSubsystemsD.a(IsisTRXCommon.o)
 .text.IsisTrxCommon_componentReset
                0x20019400       0x68 C:/Hoopoe3/satellite-subsystems/demo/..//satellite-subsystems/lib\libSatelliteSubsystemsD.a(IsisTRXCommon.o)
                0x20019400                IsisTrxCommon_componentReset
 .text.IsisTrxCommon_TxSendAX25DefClSign
                0x20019468       0xf4 C:/Hoopoe3/satellite-subsystems/demo/..//satellite-subsystems/lib\libSatelliteSubsystemsD.a(IsisTRXCommon.o)
                0x20019468                IsisTrxCommon_TxSendAX25DefClSign
 .text.IsisTrxCommon_TxSetIdlestate
                0x2001955c       0x78 C:/Hoopoe3/satellite-subsystems/demo/..//satellite-subsystems/lib\libSatelliteSubsystemsD.a(IsisTRXCommon.o)
                0x2001955c                IsisTrxCommon_TxSetIdlestate
 .text.IsisTrxCommon_TxSetAx25Bitrate
                0x200195d4       0x78 C:/Hoopoe3/satellite-subsystems/demo/..//satellite-subsystems/lib\libSatelliteSubsystemsD.a(IsisTRXCommon.o)
                0x200195d4                IsisTrxCommon_TxSetAx25Bitrate
 .text.IsisTrxCommon_RxGetFrameCount
                0x2001964c       0x8c C:/Hoopoe3/satellite-subsystems/demo/..//satellite-subsystems/lib\libSatelliteSubsystemsD.a(IsisTRXCommon.o)
                0x2001964c                IsisTrxCommon_RxGetFrameCount
 .text.IsisTrxCommon_RxGetTelemetryAll_revC
                0x200196d8       0x8c C:/Hoopoe3/satellite-subsystems/demo/..//satellite-subsystems/lib\libSatelliteSubsystemsD.a(IsisTRXCommon.o)
                0x200196d8                IsisTrxCommon_RxGetTelemetryAll_revC
 .text.log      0x20019764      0x17c c:/isis/application/toolchain/bin/../lib/gcc/arm-none-eabi/4.7.4/../../../../arm-none-eabi/lib\libm.a(lib_a-w_log.o)
                0x20019764                log
 .text.__ieee754_log
                0x200198e0      0x5c0 c:/isis/application/toolchain/bin/../lib/gcc/arm-none-eabi/4.7.4/../../../../arm-none-eabi/lib\libm.a(lib_a-e_log.o)
                0x200198e0                __ieee754_log
 .text.matherr  0x20019ea0        0x8 c:/isis/application/toolchain/bin/../lib/gcc/arm-none-eabi/4.7.4/../../../../arm-none-eabi/lib\libm.a(lib_a-s_matherr.o)
                0x20019ea0                matherr
 .text.nan      0x20019ea8       0x10 c:/isis/application/toolchain/bin/../lib/gcc/arm-none-eabi/4.7.4/../../../../arm-none-eabi/lib\libm.a(lib_a-s_nan.o)
                0x20019ea8                nan
 .text.fn_init  0x20019eb8      0x2e0 C:/Hoopoe3/satellite-subsystems/demo/../..//hal/hcc/lib\libHCCD.a(fat_common.o)
                0x20019eb8                fn_init
 .text._f_get16bitl
                0x2001a198       0x4c C:/Hoopoe3/satellite-subsystems/demo/../..//hal/hcc/lib\libHCCD.a(fat_common.o)
                0x2001a198                _f_get16bitl
 .text._f_set16bitl
                0x2001a1e4       0x54 C:/Hoopoe3/satellite-subsystems/demo/../..//hal/hcc/lib\libHCCD.a(fat_common.o)
                0x2001a1e4                _f_set16bitl
 .text._f_get32bitl
                0x2001a238       0x68 C:/Hoopoe3/satellite-subsystems/demo/../..//hal/hcc/lib\libHCCD.a(fat_common.o)
                0x2001a238                _f_get32bitl
 .text._f_set32bitl
                0x2001a2a0       0x78 C:/Hoopoe3/satellite-subsystems/demo/../..//hal/hcc/lib\libHCCD.a(fat_common.o)
                0x2001a2a0                _f_set32bitl
 .text._get8bit
                0x2001a318       0xa0 C:/Hoopoe3/satellite-subsystems/demo/../..//hal/hcc/lib\libHCCD.a(fat_common.o)
 .text._get16bitl
                0x2001a3b8       0x40 C:/Hoopoe3/satellite-subsystems/demo/../..//hal/hcc/lib\libHCCD.a(fat_common.o)
 .text._get32bitl
                0x2001a3f8       0x3c C:/Hoopoe3/satellite-subsystems/demo/../..//hal/hcc/lib\libHCCD.a(fat_common.o)
 .text._f_setcardremoved
                0x2001a434       0x94 C:/Hoopoe3/satellite-subsystems/demo/../..//hal/hcc/lib\libHCCD.a(fat_common.o)
 .text._f_checkstatus
                0x2001a4c8      0x104 C:/Hoopoe3/satellite-subsystems/demo/../..//hal/hcc/lib\libHCCD.a(fat_common.o)
                0x2001a4c8                _f_checkstatus
 .text._f_drvgetphy
                0x2001a5cc      0x114 C:/Hoopoe3/satellite-subsystems/demo/../..//hal/hcc/lib\libHCCD.a(fat_common.o)
 .text._f_drvwritesector
                0x2001a6e0       0xdc C:/Hoopoe3/satellite-subsystems/demo/../..//hal/hcc/lib\libHCCD.a(fat_common.o)
 .text._f_drvreadsector
                0x2001a7bc       0xa8 C:/Hoopoe3/satellite-subsystems/demo/../..//hal/hcc/lib\libHCCD.a(fat_common.o)
 .text._f_writesector
                0x2001a864      0x23c C:/Hoopoe3/satellite-subsystems/demo/../..//hal/hcc/lib\libHCCD.a(fat_common.o)
                0x2001a864                _f_writesector
 .text._f_readsector
                0x2001aaa0      0x1dc C:/Hoopoe3/satellite-subsystems/demo/../..//hal/hcc/lib\libHCCD.a(fat_common.o)
                0x2001aaa0                _f_readsector
 .text._f_getmaxcluster
                0x2001ac7c       0x94 C:/Hoopoe3/satellite-subsystems/demo/../..//hal/hcc/lib\libHCCD.a(fat_common.o)
                0x2001ac7c                _f_getmaxcluster
 .text._getsectorfromcluster
                0x2001ad10       0x68 C:/Hoopoe3/satellite-subsystems/demo/../..//hal/hcc/lib\libHCCD.a(fat_common.o)
 .text._f_buildsectors
                0x2001ad78      0x268 C:/Hoopoe3/satellite-subsystems/demo/../..//hal/hcc/lib\libHCCD.a(fat_common.o)
 .text._f_getbootrecord
                0x2001afe0      0x5e4 C:/Hoopoe3/satellite-subsystems/demo/../..//hal/hcc/lib\libHCCD.a(fat_common.o)
 .text._f_readbootrecord
                0x2001b5c4      0x4f8 C:/Hoopoe3/satellite-subsystems/demo/../..//hal/hcc/lib\libHCCD.a(fat_common.o)
 .text._f_flushcffiles
                0x2001babc      0x17c C:/Hoopoe3/satellite-subsystems/demo/../..//hal/hcc/lib\libHCCD.a(fat_common.o)
                0x2001babc                _f_flushcffiles
 .text._f_fatcache_flush
                0x2001bc38      0x270 C:/Hoopoe3/satellite-subsystems/demo/../..//hal/hcc/lib\libHCCD.a(fat_common.o)
                0x2001bc38                _f_fatcache_flush
 .text._f_writefatsector
                0x2001bea8      0x100 C:/Hoopoe3/satellite-subsystems/demo/../..//hal/hcc/lib\libHCCD.a(fat_common.o)
                0x2001bea8                _f_writefatsector
 .text._f_getfatsector
                0x2001bfa8      0x3bc C:/Hoopoe3/satellite-subsystems/demo/../..//hal/hcc/lib\libHCCD.a(fat_common.o)
 .text._f_setclustervalue
                0x2001c364      0x490 C:/Hoopoe3/satellite-subsystems/demo/../..//hal/hcc/lib\libHCCD.a(fat_common.o)
                0x2001c364                _f_setclustervalue
 .text._f_getclustervalue
                0x2001c7f4      0x388 C:/Hoopoe3/satellite-subsystems/demo/../..//hal/hcc/lib\libHCCD.a(fat_common.o)
                0x2001c7f4                _f_getclustervalue
 .text._f_close_drive_files
                0x2001cb7c       0xac C:/Hoopoe3/satellite-subsystems/demo/../..//hal/hcc/lib\libHCCD.a(fat_common.o)
 .text._f_inc_mount_count
                0x2001cc28       0xa4 C:/Hoopoe3/satellite-subsystems/demo/../..//hal/hcc/lib\libHCCD.a(fat_common.o)
 .text._f_getvolume
                0x2001cccc      0x2f8 C:/Hoopoe3/satellite-subsystems/demo/../..//hal/hcc/lib\libHCCD.a(fat_common.o)
                0x2001cccc                _f_getvolume
 .text.fn_createdriver
                0x2001cfc4      0x118 C:/Hoopoe3/satellite-subsystems/demo/../..//hal/hcc/lib\libHCCD.a(fat_common.o)
                0x2001cfc4                fn_createdriver
 .text.fn_initvolume
                0x2001d0dc      0x12c C:/Hoopoe3/satellite-subsystems/demo/../..//hal/hcc/lib\libHCCD.a(fat_common.o)
                0x2001d0dc                fn_initvolume
 .text.fn_initvolumepartition_sub
                0x2001d208       0xe0 C:/Hoopoe3/satellite-subsystems/demo/../..//hal/hcc/lib\libHCCD.a(fat_common.o)
 .text.fn_initvolumepartition
                0x2001d2e8       0xac C:/Hoopoe3/satellite-subsystems/demo/../..//hal/hcc/lib\libHCCD.a(fat_common.o)
                0x2001d2e8                fn_initvolumepartition
 .text._f_clustertopos
                0x2001d394       0xf8 C:/Hoopoe3/satellite-subsystems/demo/../..//hal/hcc/lib\libHCCD.a(fat_common.o)
                0x2001d394                _f_clustertopos
 .text._f_getcurrsector
                0x2001d48c      0x6c8 C:/Hoopoe3/satellite-subsystems/demo/../..//hal/hcc/lib\libHCCD.a(fat_common.o)
                0x2001d48c                _f_getcurrsector
 .text._f_getdecluster
                0x2001db54       0x90 C:/Hoopoe3/satellite-subsystems/demo/../..//hal/hcc/lib\libHCCD.a(fat_common.o)
                0x2001db54                _f_getdecluster
 .text._f_setdecluster
                0x2001dbe4       0x8c C:/Hoopoe3/satellite-subsystems/demo/../..//hal/hcc/lib\libHCCD.a(fat_common.o)
                0x2001dbe4                _f_setdecluster
 .text.fn_getdrive
                0x2001dc70       0x30 C:/Hoopoe3/satellite-subsystems/demo/../..//hal/hcc/lib\libHCCD.a(fat_common.o)
                0x2001dc70                fn_getdrive
 .text._f_getcurrenttimedate
                0x2001dca0      0x138 C:/Hoopoe3/satellite-subsystems/demo/../..//hal/hcc/lib\libHCCD.a(fat_common.o)
                0x2001dca0                _f_getcurrenttimedate
 .text._f_initentry
                0x2001ddd8       0xa0 C:/Hoopoe3/satellite-subsystems/demo/../..//hal/hcc/lib\libHCCD.a(fat_common.o)
                0x2001ddd8                _f_initentry
 .text._f_alloccluster
                0x2001de78      0x344 C:/Hoopoe3/satellite-subsystems/demo/../..//hal/hcc/lib\libHCCD.a(fat_common.o)
                0x2001de78                _f_alloccluster
 .text._f_dobadblock
                0x2001e1bc      0x2cc C:/Hoopoe3/satellite-subsystems/demo/../..//hal/hcc/lib\libHCCD.a(fat_common.o)
                0x2001e1bc                _f_dobadblock
 .text._f_checklocked
                0x2001e488       0xe4 C:/Hoopoe3/satellite-subsystems/demo/../..//hal/hcc/lib\libHCCD.a(fat_common.o)
                0x2001e488                _f_checklocked
 .text._f_checkappendlocked
                0x2001e56c      0x110 C:/Hoopoe3/satellite-subsystems/demo/../..//hal/hcc/lib\libHCCD.a(fat_common.o)
                0x2001e56c                _f_checkappendlocked
 .text._f_setsyncafile
                0x2001e67c      0x114 C:/Hoopoe3/satellite-subsystems/demo/../..//hal/hcc/lib\libHCCD.a(fat_common.o)
                0x2001e67c                _f_setsyncafile
 .text._f_syncfiles
                0x2001e790      0x128 C:/Hoopoe3/satellite-subsystems/demo/../..//hal/hcc/lib\libHCCD.a(fat_common.o)
                0x2001e790                _f_syncfiles
 .text._f_syncfilescontent
                0x2001e8b8      0x15c C:/Hoopoe3/satellite-subsystems/demo/../..//hal/hcc/lib\libHCCD.a(fat_common.o)
 .text.fn_getfreespace
                0x2001ea14      0x4c0 C:/Hoopoe3/satellite-subsystems/demo/../..//hal/hcc/lib\libHCCD.a(fat_common.o)
                0x2001ea14                fn_getfreespace
 .text._f_emptywritecache
                0x2001eed4      0x4a4 C:/Hoopoe3/satellite-subsystems/demo/../..//hal/hcc/lib\libHCCD.a(fat_common.o)
 .text._f_allocnextcluster
                0x2001f378      0x54c C:/Hoopoe3/satellite-subsystems/demo/../..//hal/hcc/lib\libHCCD.a(fat_common.o)
 .text._f_emptywritebuffer
                0x2001f8c4      0x20c C:/Hoopoe3/satellite-subsystems/demo/../..//hal/hcc/lib\libHCCD.a(fat_common.o)
 .text._f_writezeros
                0x2001fad0       0xf0 C:/Hoopoe3/satellite-subsystems/demo/../..//hal/hcc/lib\libHCCD.a(fat_common.o)
                0x2001fad0                _f_writezeros
 .text._f_extend_file
                0x2001fbc0      0x570 C:/Hoopoe3/satellite-subsystems/demo/../..//hal/hcc/lib\libHCCD.a(fat_common.o)
 .text._f_fseek
                0x20020130      0x9bc C:/Hoopoe3/satellite-subsystems/demo/../..//hal/hcc/lib\libHCCD.a(fat_common.o)
                0x20020130                _f_fseek
 .text._f_removechain
                0x20020aec      0x104 C:/Hoopoe3/satellite-subsystems/demo/../..//hal/hcc/lib\libHCCD.a(fat_common.o)
                0x20020aec                _f_removechain
 .text._f_updatefileentry
                0x20020bf0      0x1cc C:/Hoopoe3/satellite-subsystems/demo/../..//hal/hcc/lib\libHCCD.a(fat_common.o)
 .text._f_checkreadlocked
                0x20020dbc      0x1bc C:/Hoopoe3/satellite-subsystems/demo/../..//hal/hcc/lib\libHCCD.a(fat_common.o)
                0x20020dbc                _f_checkreadlocked
 .text._f_check_handle
                0x20020f78       0x98 C:/Hoopoe3/satellite-subsystems/demo/../..//hal/hcc/lib\libHCCD.a(fat_common.o)
                0x20020f78                _f_check_handle
 .text._f_removesyncafile
                0x20021010      0x1ec C:/Hoopoe3/satellite-subsystems/demo/../..//hal/hcc/lib\libHCCD.a(fat_common.o)
 .text.fn_close
                0x200211fc      0x3f8 C:/Hoopoe3/satellite-subsystems/demo/../..//hal/hcc/lib\libHCCD.a(fat_common.o)
                0x200211fc                fn_close
 .text.fn_flush
                0x200215f4      0x374 C:/Hoopoe3/satellite-subsystems/demo/../..//hal/hcc/lib\libHCCD.a(fat_common.o)
                0x200215f4                fn_flush
 .text.fn_read  0x20021968      0x690 C:/Hoopoe3/satellite-subsystems/demo/../..//hal/hcc/lib\libHCCD.a(fat_common.o)
                0x20021968                fn_read
 .text._f_abortwrite
                0x20021ff8      0x100 C:/Hoopoe3/satellite-subsystems/demo/../..//hal/hcc/lib\libHCCD.a(fat_common.o)
 .text._f_checkwritecluster
                0x200220f8       0xe4 C:/Hoopoe3/satellite-subsystems/demo/../..//hal/hcc/lib\libHCCD.a(fat_common.o)
 .text.fn_write
                0x200221dc      0x8a8 C:/Hoopoe3/satellite-subsystems/demo/../..//hal/hcc/lib\libHCCD.a(fat_common.o)
                0x200221dc                fn_write
 .text.fn_seek  0x20022a84      0x270 C:/Hoopoe3/satellite-subsystems/demo/../..//hal/hcc/lib\libHCCD.a(fat_common.o)
                0x20022a84                fn_seek
 .text.f_enterFS
                0x20022cf4      0x1c0 C:/Hoopoe3/satellite-subsystems/demo/../..//hal/hcc/lib\libHCCD.a(fat_common.o)
                0x20022cf4                f_enterFS
 .text.f_releaseFS
                0x20022eb4       0xb0 C:/Hoopoe3/satellite-subsystems/demo/../..//hal/hcc/lib\libHCCD.a(fat_common.o)
                0x20022eb4                f_releaseFS
 .text.fnGetTask
                0x20022f64       0xfc C:/Hoopoe3/satellite-subsystems/demo/../..//hal/hcc/lib\libHCCD.a(fat_common.o)
                0x20022f64                fnGetTask
 .text._f_mutex_get
                0x20023060       0x98 C:/Hoopoe3/satellite-subsystems/demo/../..//hal/hcc/lib\libHCCD.a(fat_common.o)
                0x20023060                _f_mutex_get
 .text._f_mutex_put
                0x200230f8       0x54 C:/Hoopoe3/satellite-subsystems/demo/../..//hal/hcc/lib\libHCCD.a(fat_common.o)
                0x200230f8                _f_mutex_put
 .text._fn_initseekdivisor
                0x2002314c      0x158 C:/Hoopoe3/satellite-subsystems/demo/../..//hal/hcc/lib\libHCCD.a(fat_common.o)
                0x2002314c                _fn_initseekdivisor
 .text._fn_updateseekpos
                0x200232a4       0xc4 C:/Hoopoe3/satellite-subsystems/demo/../..//hal/hcc/lib\libHCCD.a(fat_common.o)
 .text._f_findopensize
                0x20023368       0x2c C:/Hoopoe3/satellite-subsystems/demo/../..//hal/hcc/lib\libHCCD.a(fat_common.o)
                0x20023368                _f_findopensize
 .text.fn_setlasterror
                0x20023394       0x34 C:/Hoopoe3/satellite-subsystems/demo/../..//hal/hcc/lib\libHCCD.a(fat_common.o)
                0x20023394                fn_setlasterror
 .text.fn_setlasterror_noret
                0x200233c8       0x2c C:/Hoopoe3/satellite-subsystems/demo/../..//hal/hcc/lib\libHCCD.a(fat_common.o)
                0x200233c8                fn_setlasterror_noret
 .text.fm_initvolume
                0x200233f4       0x70 C:/Hoopoe3/satellite-subsystems/demo/../..//hal/hcc/lib\libHCCD.a(fat_m.o)
                0x200233f4                fm_initvolume
 .text.fm_getdrive
                0x20023464       0x70 C:/Hoopoe3/satellite-subsystems/demo/../..//hal/hcc/lib\libHCCD.a(fat_m.o)
                0x20023464                fm_getdrive
 .text.fm_getfreespace
                0x200234d4       0x68 C:/Hoopoe3/satellite-subsystems/demo/../..//hal/hcc/lib\libHCCD.a(fat_m.o)
                0x200234d4                fm_getfreespace
 .text.fm_findfirst
                0x2002353c       0x68 C:/Hoopoe3/satellite-subsystems/demo/../..//hal/hcc/lib\libHCCD.a(fat_m.o)
                0x2002353c                fm_findfirst
 .text.fm_findnext
                0x200235a4       0x60 C:/Hoopoe3/satellite-subsystems/demo/../..//hal/hcc/lib\libHCCD.a(fat_m.o)
                0x200235a4                fm_findnext
 .text.fm_filelength
                0x20023604       0x60 C:/Hoopoe3/satellite-subsystems/demo/../..//hal/hcc/lib\libHCCD.a(fat_m.o)
                0x20023604                fm_filelength
 .text.fm_close
                0x20023664       0x60 C:/Hoopoe3/satellite-subsystems/demo/../..//hal/hcc/lib\libHCCD.a(fat_m.o)
                0x20023664                fm_close
 .text.fm_flush
                0x200236c4       0x60 C:/Hoopoe3/satellite-subsystems/demo/../..//hal/hcc/lib\libHCCD.a(fat_m.o)
                0x200236c4                fm_flush
 .text.fm_open  0x20023724       0x68 C:/Hoopoe3/satellite-subsystems/demo/../..//hal/hcc/lib\libHCCD.a(fat_m.o)
                0x20023724                fm_open
 .text.fm_read  0x2002378c       0x7c C:/Hoopoe3/satellite-subsystems/demo/../..//hal/hcc/lib\libHCCD.a(fat_m.o)
                0x2002378c                fm_read
 .text.fm_write
                0x20023808       0x7c C:/Hoopoe3/satellite-subsystems/demo/../..//hal/hcc/lib\libHCCD.a(fat_m.o)
                0x20023808                fm_write
 .text.fm_seek  0x20023884       0x70 C:/Hoopoe3/satellite-subsystems/demo/../..//hal/hcc/lib\libHCCD.a(fat_m.o)
                0x20023884                fm_seek
 .text.fm_delete
                0x200238f4       0x64 C:/Hoopoe3/satellite-subsystems/demo/../..//hal/hcc/lib\libHCCD.a(fat_m.o)
                0x200238f4                fm_delete
 .text._s_checkzeroclusteratend
                0x20023958       0xf8 C:/Hoopoe3/satellite-subsystems/demo/../..//hal/hcc/lib\libHCCD.a(safefat.o)
 .text._s_clearclustercontent
                0x20023a50      0x108 C:/Hoopoe3/satellite-subsystems/demo/../..//hal/hcc/lib\libHCCD.a(safefat.o)
 .text._s_clearclustercontentdir
                0x20023b58      0x19c C:/Hoopoe3/satellite-subsystems/demo/../..//hal/hcc/lib\libHCCD.a(safefat.o)
 .text._s_writedirsector
                0x20023cf4       0xd0 C:/Hoopoe3/satellite-subsystems/demo/../..//hal/hcc/lib\libHCCD.a(safefat.o)
 .text._s_getdirsector
                0x20023dc4      0x100 C:/Hoopoe3/satellite-subsystems/demo/../..//hal/hcc/lib\libHCCD.a(safefat.o)
 .text._s_addentry
                0x20023ec4      0x394 C:/Hoopoe3/satellite-subsystems/demo/../..//hal/hcc/lib\libHCCD.a(safefat.o)
 .text._s_findfile
                0x20024258      0x33c C:/Hoopoe3/satellite-subsystems/demo/../..//hal/hcc/lib\libHCCD.a(safefat.o)
 .text._s_findsubdir
                0x20024594      0x248 C:/Hoopoe3/satellite-subsystems/demo/../..//hal/hcc/lib\libHCCD.a(safefat.o)
 .text._s_createfile
                0x200247dc      0x190 C:/Hoopoe3/satellite-subsystems/demo/../..//hal/hcc/lib\libHCCD.a(safefat.o)
 .text._s_findsaffile
                0x2002496c      0x1b8 C:/Hoopoe3/satellite-subsystems/demo/../..//hal/hcc/lib\libHCCD.a(safefat.o)
 .text._s_open  0x20024b24       0xe4 C:/Hoopoe3/satellite-subsystems/demo/../..//hal/hcc/lib\libHCCD.a(safefat.o)
 .text._s_open_saf
                0x20024c08       0xe8 C:/Hoopoe3/satellite-subsystems/demo/../..//hal/hcc/lib\libHCCD.a(safefat.o)
 .text._s_flush
                0x20024cf0       0x84 C:/Hoopoe3/satellite-subsystems/demo/../..//hal/hcc/lib\libHCCD.a(safefat.o)
 .text._s_allocnextcluster
                0x20024d74      0x13c C:/Hoopoe3/satellite-subsystems/demo/../..//hal/hcc/lib\libHCCD.a(safefat.o)
 .text._s_getnextsector
                0x20024eb0       0xdc C:/Hoopoe3/satellite-subsystems/demo/../..//hal/hcc/lib\libHCCD.a(safefat.o)
 .text._s_seek  0x20024f8c      0x1e8 C:/Hoopoe3/satellite-subsystems/demo/../..//hal/hcc/lib\libHCCD.a(safefat.o)
 .text._s_read  0x20025174      0x228 C:/Hoopoe3/satellite-subsystems/demo/../..//hal/hcc/lib\libHCCD.a(safefat.o)
 .text._s_write
                0x2002539c      0x384 C:/Hoopoe3/satellite-subsystems/demo/../..//hal/hcc/lib\libHCCD.a(safefat.o)
 .text._s_restoreclusters
                0x20025720      0x270 C:/Hoopoe3/satellite-subsystems/demo/../..//hal/hcc/lib\libHCCD.a(safefat.o)
                0x20025720                _s_restoreclusters
 .text._s_findrestore
                0x20025990      0x18c C:/Hoopoe3/satellite-subsystems/demo/../..//hal/hcc/lib\libHCCD.a(safefat.o)
 .text._s_cmd_writede
                0x20025b1c       0xd8 C:/Hoopoe3/satellite-subsystems/demo/../..//hal/hcc/lib\libHCCD.a(safefat.o)
 .text._s_cmd_setcluster
                0x20025bf4       0x88 C:/Hoopoe3/satellite-subsystems/demo/../..//hal/hcc/lib\libHCCD.a(safefat.o)
 .text._s_cmd_deletechain
                0x20025c7c      0x100 C:/Hoopoe3/satellite-subsystems/demo/../..//hal/hcc/lib\libHCCD.a(safefat.o)
 .text._s_cmd_validatecfn
                0x20025d7c      0x308 C:/Hoopoe3/satellite-subsystems/demo/../..//hal/hcc/lib\libHCCD.a(safefat.o)
 .text._s_cmd_seteof
                0x20026084      0x3c4 C:/Hoopoe3/satellite-subsystems/demo/../..//hal/hcc/lib\libHCCD.a(safefat.o)
 .text.safe_docommands
                0x20026448      0x56c C:/Hoopoe3/satellite-subsystems/demo/../..//hal/hcc/lib\libHCCD.a(safefat.o)
                0x20026448                safe_docommands
 .text.safe_entercommand
                0x200269b4       0x68 C:/Hoopoe3/satellite-subsystems/demo/../..//hal/hcc/lib\libHCCD.a(safefat.o)
                0x200269b4                safe_entercommand
 .text.safe_ready
                0x20026a1c       0xf4 C:/Hoopoe3/satellite-subsystems/demo/../..//hal/hcc/lib\libHCCD.a(safefat.o)
                0x20026a1c                safe_ready
 .text.safe_copycfn
                0x20026b10       0xb8 C:/Hoopoe3/satellite-subsystems/demo/../..//hal/hcc/lib\libHCCD.a(safefat.o)
                0x20026b10                safe_copycfn
 .text.safe_cfremove
                0x20026bc8       0xb8 C:/Hoopoe3/satellite-subsystems/demo/../..//hal/hcc/lib\libHCCD.a(safefat.o)
                0x20026bc8                safe_cfremove
 .text.safe_writede
                0x20026c80      0x104 C:/Hoopoe3/satellite-subsystems/demo/../..//hal/hcc/lib\libHCCD.a(safefat.o)
                0x20026c80                safe_writede
 .text.safe_setcluster
                0x20026d84       0xcc C:/Hoopoe3/satellite-subsystems/demo/../..//hal/hcc/lib\libHCCD.a(safefat.o)
                0x20026d84                safe_setcluster
 .text.safe_deletechain
                0x20026e50      0x1c8 C:/Hoopoe3/satellite-subsystems/demo/../..//hal/hcc/lib\libHCCD.a(safefat.o)
                0x20026e50                safe_deletechain
 .text.safe_cfclose
                0x20027018      0x104 C:/Hoopoe3/satellite-subsystems/demo/../..//hal/hcc/lib\libHCCD.a(safefat.o)
                0x20027018                safe_cfclose
 .text.safe_cfflush
                0x2002711c      0x124 C:/Hoopoe3/satellite-subsystems/demo/../..//hal/hcc/lib\libHCCD.a(safefat.o)
                0x2002711c                safe_cfflush
 .text.safe_reset
                0x20027240       0x78 C:/Hoopoe3/satellite-subsystems/demo/../..//hal/hcc/lib\libHCCD.a(safefat.o)
                0x20027240                safe_reset
 .text.safe_loadcommands
                0x200272b8       0x78 C:/Hoopoe3/satellite-subsystems/demo/../..//hal/hcc/lib\libHCCD.a(safefat.o)
                0x200272b8                safe_loadcommands
 .text.safe_poweron
                0x20027330      0x1fc C:/Hoopoe3/satellite-subsystems/demo/../..//hal/hcc/lib\libHCCD.a(safefat.o)
                0x20027330                safe_poweron
 .text.cf_getname
                0x2002752c       0xc0 C:/Hoopoe3/satellite-subsystems/demo/../..//hal/hcc/lib\libHCCD.a(safefat.o)
 .text.cf_copyclusterchain
                0x200275ec      0x138 C:/Hoopoe3/satellite-subsystems/demo/../..//hal/hcc/lib\libHCCD.a(safefat.o)
 .text.cf_seektozero
                0x20027724       0x94 C:/Hoopoe3/satellite-subsystems/demo/../..//hal/hcc/lib\libHCCD.a(safefat.o)
                0x20027724                cf_seektozero
 .text.cf_create
                0x200277b8      0x3a8 C:/Hoopoe3/satellite-subsystems/demo/../..//hal/hcc/lib\libHCCD.a(safefat.o)
                0x200277b8                cf_create
 .text.cf_copyclustercontent
                0x20027b60      0x128 C:/Hoopoe3/satellite-subsystems/demo/../..//hal/hcc/lib\libHCCD.a(safefat.o)
                0x20027b60                cf_copyclustercontent
 .text.cf_copycfn
                0x20027c88      0x4bc C:/Hoopoe3/satellite-subsystems/demo/../..//hal/hcc/lib\libHCCD.a(safefat.o)
                0x20027c88                cf_copycfn
 .text.cf_remove
                0x20028144      0x344 C:/Hoopoe3/satellite-subsystems/demo/../..//hal/hcc/lib\libHCCD.a(safefat.o)
                0x20028144                cf_remove
 .text.cf_setclusternew
                0x20028488       0xf0 C:/Hoopoe3/satellite-subsystems/demo/../..//hal/hcc/lib\libHCCD.a(safefat.o)
                0x20028488                cf_setclusternew
 .text.cf_flush
                0x20028578       0x58 C:/Hoopoe3/satellite-subsystems/demo/../..//hal/hcc/lib\libHCCD.a(safefat.o)
                0x20028578                cf_flush
 .text.cf_getcluster
                0x200285d0      0x1b4 C:/Hoopoe3/satellite-subsystems/demo/../..//hal/hcc/lib\libHCCD.a(safefat.o)
                0x200285d0                cf_getcluster
 .text.cf_setnextcluster
                0x20028784      0x194 C:/Hoopoe3/satellite-subsystems/demo/../..//hal/hcc/lib\libHCCD.a(safefat.o)
                0x20028784                cf_setnextcluster
 .text.cf_getpositions
                0x20028918       0xbc C:/Hoopoe3/satellite-subsystems/demo/../..//hal/hcc/lib\libHCCD.a(safefat.o)
                0x20028918                cf_getpositions
 .text.cf_setpositions
                0x200289d4       0xb0 C:/Hoopoe3/satellite-subsystems/demo/../..//hal/hcc/lib\libHCCD.a(safefat.o)
                0x200289d4                cf_setpositions
 .text.cf_opensyncafile
                0x20028a84      0x150 C:/Hoopoe3/satellite-subsystems/demo/../..//hal/hcc/lib\libHCCD.a(safefat.o)
                0x20028a84                cf_opensyncafile
 .text.cf_reloadcfo
                0x20028bd4       0xd8 C:/Hoopoe3/satellite-subsystems/demo/../..//hal/hcc/lib\libHCCD.a(safefat.o)
                0x20028bd4                cf_reloadcfo
 .text.mcipdc_cmd
                0x20028cac      0x22c C:/Hoopoe3/satellite-subsystems/demo/../..//hal/hcc/lib\libHCCD.a(atmel_mcipdc.o)
 .text.mcipdc_stop
                0x20028ed8       0xfc C:/Hoopoe3/satellite-subsystems/demo/../..//hal/hcc/lib\libHCCD.a(atmel_mcipdc.o)
                0x20028ed8                mcipdc_stop
 .text.mcipdc_read
                0x20028fd4      0x27c C:/Hoopoe3/satellite-subsystems/demo/../..//hal/hcc/lib\libHCCD.a(atmel_mcipdc.o)
 .text.mcipdc_write
                0x20029250      0x298 C:/Hoopoe3/satellite-subsystems/demo/../..//hal/hcc/lib\libHCCD.a(atmel_mcipdc.o)
 .text.mcipdc_readsector
                0x200294e8       0x9c C:/Hoopoe3/satellite-subsystems/demo/../..//hal/hcc/lib\libHCCD.a(atmel_mcipdc.o)
                0x200294e8                mcipdc_readsector
 .text.mcipdc_readmultiplesector
                0x20029584      0x124 C:/Hoopoe3/satellite-subsystems/demo/../..//hal/hcc/lib\libHCCD.a(atmel_mcipdc.o)
                0x20029584                mcipdc_readmultiplesector
 .text.mcipdc_writesector
                0x200296a8       0x90 C:/Hoopoe3/satellite-subsystems/demo/../..//hal/hcc/lib\libHCCD.a(atmel_mcipdc.o)
                0x200296a8                mcipdc_writesector
 .text.mcipdc_writemultiplesector
                0x20029738      0x120 C:/Hoopoe3/satellite-subsystems/demo/../..//hal/hcc/lib\libHCCD.a(atmel_mcipdc.o)
                0x20029738                mcipdc_writemultiplesector
 .text.mcipdc_set_speed
                0x20029858       0xb0 C:/Hoopoe3/satellite-subsystems/demo/../..//hal/hcc/lib\libHCCD.a(atmel_mcipdc.o)
 .text.mcipdc_get_speed
                0x20029908       0x48 C:/Hoopoe3/satellite-subsystems/demo/../..//hal/hcc/lib\libHCCD.a(atmel_mcipdc.o)
 .text._get_csd_bits
                0x20029950      0x14c C:/Hoopoe3/satellite-subsystems/demo/../..//hal/hcc/lib\libHCCD.a(atmel_mcipdc.o)
 .text.mcipdc_initcard
                0x20029a9c      0x8f4 C:/Hoopoe3/satellite-subsystems/demo/../..//hal/hcc/lib\libHCCD.a(atmel_mcipdc.o)
 .text.mcipdc_getstatus
                0x2002a390       0xe8 C:/Hoopoe3/satellite-subsystems/demo/../..//hal/hcc/lib\libHCCD.a(atmel_mcipdc.o)
 .text.mcipdc_getphy
                0x2002a478       0x90 C:/Hoopoe3/satellite-subsystems/demo/../..//hal/hcc/lib\libHCCD.a(atmel_mcipdc.o)
 .text.mcipdc_release
                0x2002a508       0x50 C:/Hoopoe3/satellite-subsystems/demo/../..//hal/hcc/lib\libHCCD.a(atmel_mcipdc.o)
 .text.atmel_mcipdc_initfunc
                0x2002a558      0x160 C:/Hoopoe3/satellite-subsystems/demo/../..//hal/hcc/lib\libHCCD.a(atmel_mcipdc.o)
                0x2002a558                atmel_mcipdc_initfunc
 .text.oal_mutex_create
                0x2002a6b8       0x54 C:/Hoopoe3/satellite-subsystems/demo/../..//hal/hcc/lib\libHCCD.a(oalp_mutex.o)
                0x2002a6b8                oal_mutex_create
 .text.oal_mutex_delete
                0x2002a70c       0x30 C:/Hoopoe3/satellite-subsystems/demo/../..//hal/hcc/lib\libHCCD.a(oalp_mutex.o)
                0x2002a70c                oal_mutex_delete
 .text.oal_mutex_get
                0x2002a73c       0x58 C:/Hoopoe3/satellite-subsystems/demo/../..//hal/hcc/lib\libHCCD.a(oalp_mutex.o)
                0x2002a73c                oal_mutex_get
 .text.oal_mutex_put
                0x2002a794       0x58 C:/Hoopoe3/satellite-subsystems/demo/../..//hal/hcc/lib\libHCCD.a(oalp_mutex.o)
                0x2002a794                oal_mutex_put
 .text.oal_task_get_id
                0x2002a7ec       0x18 C:/Hoopoe3/satellite-subsystems/demo/../..//hal/hcc/lib\libHCCD.a(oalp_task.o)
                0x2002a7ec                oal_task_get_id
 .text.mcipdc_hw_init
                0x2002a804       0xe8 C:/Hoopoe3/satellite-subsystems/demo/../..//hal/hcc/lib\libHCCD.a(atmel_mcipdc_hw.o)
                0x2002a804                mcipdc_hw_init
 .text.mcipdc_hw_delete
                0x2002a8ec       0x78 C:/Hoopoe3/satellite-subsystems/demo/../..//hal/hcc/lib\libHCCD.a(atmel_mcipdc_hw.o)
                0x2002a8ec                mcipdc_hw_delete
 .text.mcipdc_hw_card_plugged
                0x2002a964       0x1c C:/Hoopoe3/satellite-subsystems/demo/../..//hal/hcc/lib\libHCCD.a(atmel_mcipdc_hw.o)
                0x2002a964                mcipdc_hw_card_plugged
 .text.mcipdc_hw_card_writeprotect
                0x2002a980       0x1c C:/Hoopoe3/satellite-subsystems/demo/../..//hal/hcc/lib\libHCCD.a(atmel_mcipdc_hw.o)
                0x2002a980                mcipdc_hw_card_writeprotect
 .text.psp_getcurrenttimedate
                0x2002a99c       0x8c C:/Hoopoe3/satellite-subsystems/demo/../..//hal/hcc/lib\libHCCD.a(psp_rtc.o)
                0x2002a99c                psp_getcurrenttimedate
 .text._hcc_get_buf_dsc
                0x2002aa28       0x8c C:/Hoopoe3/satellite-subsystems/demo/../..//hal/hcc/lib\libHCCD.a(hcc_mem.o)
 .text._hcc_check_free_pages
                0x2002aab4      0x18c C:/Hoopoe3/satellite-subsystems/demo/../..//hal/hcc/lib\libHCCD.a(hcc_mem.o)
 .text._hcc_mark_pages
                0x2002ac40      0x158 C:/Hoopoe3/satellite-subsystems/demo/../..//hal/hcc/lib\libHCCD.a(hcc_mem.o)
 .text._hcc_clear_lock_dsc
                0x2002ad98       0x80 C:/Hoopoe3/satellite-subsystems/demo/../..//hal/hcc/lib\libHCCD.a(hcc_mem.o)
 .text._hcc_lock_access
                0x2002ae18      0x128 C:/Hoopoe3/satellite-subsystems/demo/../..//hal/hcc/lib\libHCCD.a(hcc_mem.o)
 .text._hcc_unlock_access
                0x2002af40       0x30 C:/Hoopoe3/satellite-subsystems/demo/../..//hal/hcc/lib\libHCCD.a(hcc_mem.o)
 .text.hcc_mem_alloc
                0x2002af70      0x454 C:/Hoopoe3/satellite-subsystems/demo/../..//hal/hcc/lib\libHCCD.a(hcc_mem.o)
                0x2002af70                hcc_mem_alloc
 .text.hcc_mem_free
                0x2002b3c4      0x178 C:/Hoopoe3/satellite-subsystems/demo/../..//hal/hcc/lib\libHCCD.a(hcc_mem.o)
                0x2002b3c4                hcc_mem_free
 .text.hcc_mem_add
                0x2002b53c      0x3b0 C:/Hoopoe3/satellite-subsystems/demo/../..//hal/hcc/lib\libHCCD.a(hcc_mem.o)
                0x2002b53c                hcc_mem_add
 .text.hcc_mem_init
                0x2002b8ec      0x164 C:/Hoopoe3/satellite-subsystems/demo/../..//hal/hcc/lib\libHCCD.a(hcc_mem.o)
                0x2002b8ec                hcc_mem_init
 .text._f_invalidatedir
                0x2002ba50       0x28 C:/Hoopoe3/satellite-subsystems/demo/../..//hal/hcc/lib\libHCCD.a(fat.o)
                0x2002ba50                _f_invalidatedir
 .text._f_getdirsector
                0x2002ba78       0x88 C:/Hoopoe3/satellite-subsystems/demo/../..//hal/hcc/lib\libHCCD.a(fat.o)
                0x2002ba78                _f_getdirsector
 .text._f_writedirsector
                0x2002bb00       0x74 C:/Hoopoe3/satellite-subsystems/demo/../..//hal/hcc/lib\libHCCD.a(fat.o)
                0x2002bb00                _f_writedirsector
 .text._f_checknameinv
                0x2002bb74      0x180 C:/Hoopoe3/satellite-subsystems/demo/../..//hal/hcc/lib\libHCCD.a(fat.o)
 .text._f_checkname
                0x2002bcf4       0x7c C:/Hoopoe3/satellite-subsystems/demo/../..//hal/hcc/lib\libHCCD.a(fat.o)
 .text._f_checknamewc
                0x2002bd70       0xf8 C:/Hoopoe3/satellite-subsystems/demo/../..//hal/hcc/lib\libHCCD.a(fat.o)
 .text._f_setnameext
                0x2002be68      0x300 C:/Hoopoe3/satellite-subsystems/demo/../..//hal/hcc/lib\libHCCD.a(fat.o)
 .text._f_setfsname
                0x2002c168      0x584 C:/Hoopoe3/satellite-subsystems/demo/../..//hal/hcc/lib\libHCCD.a(fat.o)
 .text._f_findfile
                0x2002c6ec      0x30c C:/Hoopoe3/satellite-subsystems/demo/../..//hal/hcc/lib\libHCCD.a(fat.o)
 .text._f_cmp_wname
                0x2002c9f8      0x274 C:/Hoopoe3/satellite-subsystems/demo/../..//hal/hcc/lib\libHCCD.a(fat.o)
 .text._f_to_string
                0x2002cc6c      0x130 C:/Hoopoe3/satellite-subsystems/demo/../..//hal/hcc/lib\libHCCD.a(fat.o)
 .text._f_findfilewc
                0x2002cd9c      0x278 C:/Hoopoe3/satellite-subsystems/demo/../..//hal/hcc/lib\libHCCD.a(fat.o)
 .text._f_getfilename
                0x2002d014      0x20c C:/Hoopoe3/satellite-subsystems/demo/../..//hal/hcc/lib\libHCCD.a(fat.o)
 .text._f_findpath
                0x2002d220      0x35c C:/Hoopoe3/satellite-subsystems/demo/../..//hal/hcc/lib\libHCCD.a(fat.o)
 .text.fn_getdcwd
                0x2002d57c      0x1e0 C:/Hoopoe3/satellite-subsystems/demo/../..//hal/hcc/lib\libHCCD.a(fat.o)
                0x2002d57c                fn_getdcwd
 .text.fn_findfirst
                0x2002d75c      0x13c C:/Hoopoe3/satellite-subsystems/demo/../..//hal/hcc/lib\libHCCD.a(fat.o)
                0x2002d75c                fn_findfirst
 .text.fn_findnext
                0x2002d898      0x360 C:/Hoopoe3/satellite-subsystems/demo/../..//hal/hcc/lib\libHCCD.a(fat.o)
                0x2002d898                fn_findnext
 .text._f_lock_resfile
                0x2002dbf8       0x6c C:/Hoopoe3/satellite-subsystems/demo/../..//hal/hcc/lib\libHCCD.a(fat.o)
 .text._f_unlock_resfile
                0x2002dc64       0x40 C:/Hoopoe3/satellite-subsystems/demo/../..//hal/hcc/lib\libHCCD.a(fat.o)
 .text._f_getintfile
                0x2002dca4      0x124 C:/Hoopoe3/satellite-subsystems/demo/../..//hal/hcc/lib\libHCCD.a(fat.o)
 .text._f_addentry
                0x2002ddc8      0x540 C:/Hoopoe3/satellite-subsystems/demo/../..//hal/hcc/lib\libHCCD.a(fat.o)
 .text.fn_filelength
                0x2002e308      0x1cc C:/Hoopoe3/satellite-subsystems/demo/../..//hal/hcc/lib\libHCCD.a(fat.o)
                0x2002e308                fn_filelength
 .text.fn_open_sub
                0x2002e4d4     0x1698 C:/Hoopoe3/satellite-subsystems/demo/../..//hal/hcc/lib\libHCCD.a(fat.o)
 .text.fn_open  0x2002fb6c       0x44 C:/Hoopoe3/satellite-subsystems/demo/../..//hal/hcc/lib\libHCCD.a(fat.o)
                0x2002fb6c                fn_open
 .text.fn_delete
                0x2002fbb0      0x490 C:/Hoopoe3/satellite-subsystems/demo/../..//hal/hcc/lib\libHCCD.a(fat.o)
                0x2002fbb0                fn_delete
 .text.hcc_mem_buf_alloc
                0x20030040       0xe4 C:/Hoopoe3/satellite-subsystems/demo/../..//hal/hcc/lib\libHCCD.a(psp_hcc_mem.o)
                0x20030040                hcc_mem_buf_alloc
 .text.validateTransferParameters
                0x20030124      0x10c C:/Hoopoe3/satellite-subsystems/demo/../..//hal/hal/lib\libHALD.a(I2C.o)
 .text.I2C_queueTransfer
                0x20030230       0xe8 C:/Hoopoe3/satellite-subsystems/demo/../..//hal/hal/lib\libHALD.a(I2C.o)
                0x20030230                I2C_queueTransfer
 .text.I2C_internalCallback
                0x20030318       0x64 C:/Hoopoe3/satellite-subsystems/demo/../..//hal/hal/lib\libHALD.a(I2C.o)
 .text.I2C_doBlockingTransfer
                0x2003037c      0x160 C:/Hoopoe3/satellite-subsystems/demo/../..//hal/hal/lib\libHALD.a(I2C.o)
 .text.I2C_write
                0x200304dc      0x110 C:/Hoopoe3/satellite-subsystems/demo/../..//hal/hal/lib\libHALD.a(I2C.o)
                0x200304dc                I2C_write
 .text.I2C_writeRead
                0x200305ec      0x180 C:/Hoopoe3/satellite-subsystems/demo/../..//hal/hal/lib\libHALD.a(I2C.o)
                0x200305ec                I2C_writeRead
 .text.I2C_start
                0x2003076c      0x2e8 C:/Hoopoe3/satellite-subsystems/demo/../..//hal/hal/lib\libHALD.a(I2C.o)
                0x2003076c                I2C_start
 .text.I2C_stop
                0x20030a54      0x184 C:/Hoopoe3/satellite-subsystems/demo/../..//hal/hal/lib\libHALD.a(I2C.o)
                0x20030a54                I2C_stop
 .text.I2C_setTransferTimeout
                0x20030bd8       0x48 C:/Hoopoe3/satellite-subsystems/demo/../..//hal/hal/lib\libHALD.a(I2C.o)
                0x20030bd8                I2C_setTransferTimeout
 .text.clearPDCtransfers
                0x20030c20       0xdc C:/Hoopoe3/satellite-subsystems/demo/../..//hal/hal/lib\libHALD.a(SPI.o)
 .text.SPI_start
                0x20030cfc      0x4c0 C:/Hoopoe3/satellite-subsystems/demo/../..//hal/hal/lib\libHALD.a(SPI.o)
                0x20030cfc                SPI_start
 .text.SPI_stop
                0x200311bc      0x22c C:/Hoopoe3/satellite-subsystems/demo/../..//hal/hal/lib\libHALD.a(SPI.o)
                0x200311bc                SPI_stop
 .text.SPI_queueTransfer
                0x200313e8      0x190 C:/Hoopoe3/satellite-subsystems/demo/../..//hal/hal/lib\libHALD.a(SPI.o)
                0x200313e8                SPI_queueTransfer
 .text.SPI_internalCallback
                0x20031578       0x64 C:/Hoopoe3/satellite-subsystems/demo/../..//hal/hal/lib\libHALD.a(SPI.o)
 .text.SPI_writeRead
                0x200315dc      0x188 C:/Hoopoe3/satellite-subsystems/demo/../..//hal/hal/lib\libHALD.a(SPI.o)
                0x200315dc                SPI_writeRead
 .text.waitForTransfer
                0x20031764       0x68 C:/Hoopoe3/satellite-subsystems/demo/../..//hal/hal/lib\libHALD.a(SPI.o)
 .text.SPI_getDriverState
                0x200317cc       0x58 C:/Hoopoe3/satellite-subsystems/demo/../..//hal/hal/lib\libHALD.a(SPI.o)
                0x200317cc                SPI_getDriverState
 .text.FRAM_start
                0x20031824       0xf4 C:/Hoopoe3/satellite-subsystems/demo/../..//hal/hal/lib\libHALD.a(FRAM.o)
                0x20031824                FRAM_start
 .text.FRAM_dummyCallback
                0x20031918       0x24 C:/Hoopoe3/satellite-subsystems/demo/../..//hal/hal/lib\libHALD.a(FRAM.o)
                0x20031918                FRAM_dummyCallback
 .text.FRAM_unlockingCallback
                0x2003193c       0x78 C:/Hoopoe3/satellite-subsystems/demo/../..//hal/hal/lib\libHALD.a(FRAM.o)
                0x2003193c                FRAM_unlockingCallback
 .text.doBlockingTransfer
                0x200319b4       0x88 C:/Hoopoe3/satellite-subsystems/demo/../..//hal/hal/lib\libHALD.a(FRAM.o)
 .text.FRAM_writePacket
                0x20031a3c      0x148 C:/Hoopoe3/satellite-subsystems/demo/../..//hal/hal/lib\libHALD.a(FRAM.o)
 .text.FRAM_write
                0x20031b84      0x1c8 C:/Hoopoe3/satellite-subsystems/demo/../..//hal/hal/lib\libHALD.a(FRAM.o)
                0x20031b84                FRAM_write
 .text.FRAM_readPacket
                0x20031d4c      0x114 C:/Hoopoe3/satellite-subsystems/demo/../..//hal/hal/lib\libHALD.a(FRAM.o)
 .text.FRAM_read
                0x20031e60      0x1d4 C:/Hoopoe3/satellite-subsystems/demo/../..//hal/hal/lib\libHALD.a(FRAM.o)
                0x20031e60                FRAM_read
 .text.FRAM_writeAndVerifyPacket
                0x20032034       0x8c C:/Hoopoe3/satellite-subsystems/demo/../..//hal/hal/lib\libHALD.a(FRAM.o)
 .text.FRAM_writeAndVerify
                0x200320c0      0x1e4 C:/Hoopoe3/satellite-subsystems/demo/../..//hal/hal/lib\libHALD.a(FRAM.o)
                0x200320c0                FRAM_writeAndVerify
 .text.Time_start
                0x200322a4      0x150 C:/Hoopoe3/satellite-subsystems/demo/../..//hal/hal/lib\libHALD.a(Time.o)
                0x200322a4                Time_start
 .text.taskTimeSync
                0x200323f4       0x38 C:/Hoopoe3/satellite-subsystems/demo/../..//hal/hal/lib\libHALD.a(Time.o)
 .text.Time_set
                0x2003242c      0x278 C:/Hoopoe3/satellite-subsystems/demo/../..//hal/hal/lib\libHALD.a(Time.o)
                0x2003242c                Time_set
 .text.Time_isLeapYear
                0x200326a4       0x98 C:/Hoopoe3/satellite-subsystems/demo/../..//hal/hal/lib\libHALD.a(Time.o)
                0x200326a4                Time_isLeapYear
 .text.Time_get
                0x2003273c      0x410 C:/Hoopoe3/satellite-subsystems/demo/../..//hal/hal/lib\libHALD.a(Time.o)
                0x2003273c                Time_get
 .text.Time_getUnixEpoch
                0x20032b4c       0xf4 C:/Hoopoe3/satellite-subsystems/demo/../..//hal/hal/lib\libHALD.a(Time.o)
                0x20032b4c                Time_getUnixEpoch
 .text.secondsOfYearToTime
                0x20032c40      0x328 C:/Hoopoe3/satellite-subsystems/demo/../..//hal/hal/lib\libHALD.a(Time.o)
 .text.Time_setUnixEpoch
                0x20032f68      0x100 C:/Hoopoe3/satellite-subsystems/demo/../..//hal/hal/lib\libHALD.a(Time.o)
                0x20032f68                Time_setUnixEpoch
 .text.Time_sync
                0x20033068      0x2b8 C:/Hoopoe3/satellite-subsystems/demo/../..//hal/hal/lib\libHALD.a(Time.o)
                0x20033068                Time_sync
 .text.Time_syncIfNeeded
                0x20033320       0x70 C:/Hoopoe3/satellite-subsystems/demo/../..//hal/hal/lib\libHALD.a(Time.o)
                0x20033320                Time_syncIfNeeded
 .text.Time_setSyncInterval
                0x20033390       0x38 C:/Hoopoe3/satellite-subsystems/demo/../..//hal/hal/lib\libHALD.a(Time.o)
                0x20033390                Time_setSyncInterval
 .text.WDT_start
                0x200333c8       0x48 C:/Hoopoe3/satellite-subsystems/demo/../..//hal/hal/lib\libHALD.a(WatchDogTimerNoOS.o)
                0x200333c8                WDT_start
 .text.WDT_startWatchdogKickTask
                0x20033410       0xb4 C:/Hoopoe3/satellite-subsystems/demo/../..//hal/hal/lib\libHALD.a(WatchDogTimerOS.o)
                0x20033410                WDT_startWatchdogKickTask
 .text.WDT_forceKickEveryNms
                0x200334c4       0x50 C:/Hoopoe3/satellite-subsystems/demo/../..//hal/hal/lib\libHALD.a(WatchDogTimerOS.o)
                0x200334c4                WDT_forceKickEveryNms
 .text.UTIL_DbguGetInteger
                0x20033514      0x124 C:/Hoopoe3/satellite-subsystems/demo/../..//hal/hal/lib\libHALD.a(util.o)
                0x20033514                UTIL_DbguGetInteger
 .text.UTIL_DbguGetIntegerMinMax
                0x20033638       0xa4 C:/Hoopoe3/satellite-subsystems/demo/../..//hal/hal/lib\libHALD.a(util.o)
                0x20033638                UTIL_DbguGetIntegerMinMax
 .text.LED_glow
                0x200336dc       0x58 C:/Hoopoe3/satellite-subsystems/demo/../..//hal/hal/lib\libHALD.a(LED.o)
                0x200336dc                LED_glow
 .text.LED_dark
                0x20033734       0x58 C:/Hoopoe3/satellite-subsystems/demo/../..//hal/hal/lib\libHALD.a(LED.o)
                0x20033734                LED_dark
 .text.LED_toggle
                0x2003378c       0x50 C:/Hoopoe3/satellite-subsystems/demo/../..//hal/hal/lib\libHALD.a(LED.o)
                0x2003378c                LED_toggle
 .text.RTC_start
                0x200337dc       0x3c C:/Hoopoe3/satellite-subsystems/demo/../..//hal/hal/lib\libHALD.a(RTC.o)
                0x200337dc                RTC_start
 .text.RTC_setTime
                0x20033818      0x2a4 C:/Hoopoe3/satellite-subsystems/demo/../..//hal/hal/lib\libHALD.a(RTC.o)
                0x20033818                RTC_setTime
 .text.RTC_getTime
                0x20033abc      0x224 C:/Hoopoe3/satellite-subsystems/demo/../..//hal/hal/lib\libHALD.a(RTC.o)
                0x20033abc                RTC_getTime
 .text.RTC_checkTimeValid
                0x20033ce0       0xdc C:/Hoopoe3/satellite-subsystems/demo/../..//hal/hal/lib\libHALD.a(RTC.o)
                0x20033ce0                RTC_checkTimeValid
 .text.RTT_start
                0x20033dbc       0x24 C:/Hoopoe3/satellite-subsystems/demo/../..//hal/hal/lib\libHALD.a(RTT.o)
                0x20033dbc                RTT_start
 .text.xQueueGenericReset
                0x20033de0      0x150 C:/Hoopoe3/satellite-subsystems/demo/../..//hal/freertos/lib\libFreeRTOSD.a(queue.o)
                0x20033de0                xQueueGenericReset
 .text.xQueueGenericCreate
                0x20033f30       0xfc C:/Hoopoe3/satellite-subsystems/demo/../..//hal/freertos/lib\libFreeRTOSD.a(queue.o)
                0x20033f30                xQueueGenericCreate
 .text.xQueueCreateMutex
                0x2003402c      0x110 C:/Hoopoe3/satellite-subsystems/demo/../..//hal/freertos/lib\libFreeRTOSD.a(queue.o)
                0x2003402c                xQueueCreateMutex
 .text.xQueueGenericSend
                0x2003413c      0x268 C:/Hoopoe3/satellite-subsystems/demo/../..//hal/freertos/lib\libFreeRTOSD.a(queue.o)
                0x2003413c                xQueueGenericSend
 .text.xQueueGenericSendFromISR
                0x200343a4      0x19c C:/Hoopoe3/satellite-subsystems/demo/../..//hal/freertos/lib\libFreeRTOSD.a(queue.o)
                0x200343a4                xQueueGenericSendFromISR
 .text.xQueueGenericReceive
                0x20034540      0x2cc C:/Hoopoe3/satellite-subsystems/demo/../..//hal/freertos/lib\libFreeRTOSD.a(queue.o)
                0x20034540                xQueueGenericReceive
 .text.uxQueueMessagesWaiting
                0x2003480c       0x6c C:/Hoopoe3/satellite-subsystems/demo/../..//hal/freertos/lib\libFreeRTOSD.a(queue.o)
                0x2003480c                uxQueueMessagesWaiting
 .text.vQueueDelete
                0x20034878       0x78 C:/Hoopoe3/satellite-subsystems/demo/../..//hal/freertos/lib\libFreeRTOSD.a(queue.o)
                0x20034878                vQueueDelete
 .text.prvCopyDataToQueue
                0x200348f0      0x190 C:/Hoopoe3/satellite-subsystems/demo/../..//hal/freertos/lib\libFreeRTOSD.a(queue.o)
 .text.prvCopyDataFromQueue
                0x20034a80       0x90 C:/Hoopoe3/satellite-subsystems/demo/../..//hal/freertos/lib\libFreeRTOSD.a(queue.o)
 .text.prvUnlockQueue
                0x20034b10      0x100 C:/Hoopoe3/satellite-subsystems/demo/../..//hal/freertos/lib\libFreeRTOSD.a(queue.o)
 .text.prvIsQueueEmpty
                0x20034c10       0x4c C:/Hoopoe3/satellite-subsystems/demo/../..//hal/freertos/lib\libFreeRTOSD.a(queue.o)
 .text.prvIsQueueFull
                0x20034c5c       0x54 C:/Hoopoe3/satellite-subsystems/demo/../..//hal/freertos/lib\libFreeRTOSD.a(queue.o)
 .text.vQueueUnregisterQueue
                0x20034cb0       0x80 C:/Hoopoe3/satellite-subsystems/demo/../..//hal/freertos/lib\libFreeRTOSD.a(queue.o)
                0x20034cb0                vQueueUnregisterQueue
 .text.xTaskGenericCreate
                0x20034d30      0x2ac C:/Hoopoe3/satellite-subsystems/demo/../..//hal/freertos/lib\libFreeRTOSD.a(tasks.o)
                0x20034d30                xTaskGenericCreate
 .text.vTaskDelete
                0x20034fdc       0xe8 C:/Hoopoe3/satellite-subsystems/demo/../..//hal/freertos/lib\libFreeRTOSD.a(tasks.o)
                0x20034fdc                vTaskDelete
 .text.vTaskDelayUntil
                0x200350c4      0x170 C:/Hoopoe3/satellite-subsystems/demo/../..//hal/freertos/lib\libFreeRTOSD.a(tasks.o)
                0x200350c4                vTaskDelayUntil
 .text.vTaskDelay
                0x20035234       0x80 C:/Hoopoe3/satellite-subsystems/demo/../..//hal/freertos/lib\libFreeRTOSD.a(tasks.o)
                0x20035234                vTaskDelay
 .text.eTaskGetState
                0x200352b4       0xe4 C:/Hoopoe3/satellite-subsystems/demo/../..//hal/freertos/lib\libFreeRTOSD.a(tasks.o)
                0x200352b4                eTaskGetState
 .text.vTaskStartScheduler
                0x20035398       0xd4 C:/Hoopoe3/satellite-subsystems/demo/../..//hal/freertos/lib\libFreeRTOSD.a(tasks.o)
                0x20035398                vTaskStartScheduler
 .text.vTaskSuspendAll
                0x2003546c       0x2c C:/Hoopoe3/satellite-subsystems/demo/../..//hal/freertos/lib\libFreeRTOSD.a(tasks.o)
                0x2003546c                vTaskSuspendAll
 .text.xTaskResumeAll
                0x20035498      0x1f4 C:/Hoopoe3/satellite-subsystems/demo/../..//hal/freertos/lib\libFreeRTOSD.a(tasks.o)
                0x20035498                xTaskResumeAll
 .text.xTaskGetTickCount
                0x2003568c       0x34 C:/Hoopoe3/satellite-subsystems/demo/../..//hal/freertos/lib\libFreeRTOSD.a(tasks.o)
                0x2003568c                xTaskGetTickCount
 .text.xTaskIncrementTick
                0x200356c0      0x298 C:/Hoopoe3/satellite-subsystems/demo/../..//hal/freertos/lib\libFreeRTOSD.a(tasks.o)
                0x200356c0                xTaskIncrementTick
 .text.vTaskSwitchContext
                0x20035958      0x18c C:/Hoopoe3/satellite-subsystems/demo/../..//hal/freertos/lib\libFreeRTOSD.a(tasks.o)
                0x20035958                vTaskSwitchContext
 .text.vTaskPlaceOnEventList
                0x20035ae4       0xcc C:/Hoopoe3/satellite-subsystems/demo/../..//hal/freertos/lib\libFreeRTOSD.a(tasks.o)
                0x20035ae4                vTaskPlaceOnEventList
 .text.xTaskRemoveFromEventList
                0x20035bb0      0x160 C:/Hoopoe3/satellite-subsystems/demo/../..//hal/freertos/lib\libFreeRTOSD.a(tasks.o)
                0x20035bb0                xTaskRemoveFromEventList
 .text.vTaskSetTimeOutState
                0x20035d10       0x78 C:/Hoopoe3/satellite-subsystems/demo/../..//hal/freertos/lib\libFreeRTOSD.a(tasks.o)
                0x20035d10                vTaskSetTimeOutState
 .text.xTaskCheckForTimeOut
                0x20035d88      0x158 C:/Hoopoe3/satellite-subsystems/demo/../..//hal/freertos/lib\libFreeRTOSD.a(tasks.o)
                0x20035d88                xTaskCheckForTimeOut
 .text.vTaskMissedYield
                0x20035ee0       0x24 C:/Hoopoe3/satellite-subsystems/demo/../..//hal/freertos/lib\libFreeRTOSD.a(tasks.o)
                0x20035ee0                vTaskMissedYield
 .text.prvIdleTask
                0x20035f04       0x20 C:/Hoopoe3/satellite-subsystems/demo/../..//hal/freertos/lib\libFreeRTOSD.a(tasks.o)
 .text.prvInitialiseTCBVariables
                0x20035f24      0x110 C:/Hoopoe3/satellite-subsystems/demo/../..//hal/freertos/lib\libFreeRTOSD.a(tasks.o)
 .text.prvInitialiseTaskLists
                0x20036034       0xbc C:/Hoopoe3/satellite-subsystems/demo/../..//hal/freertos/lib\libFreeRTOSD.a(tasks.o)
 .text.prvCheckTasksWaitingTermination
                0x200360f0       0xbc C:/Hoopoe3/satellite-subsystems/demo/../..//hal/freertos/lib\libFreeRTOSD.a(tasks.o)
 .text.prvAddCurrentTaskToDelayedList
                0x200361ac       0xb4 C:/Hoopoe3/satellite-subsystems/demo/../..//hal/freertos/lib\libFreeRTOSD.a(tasks.o)
 .text.prvAllocateTCBAndStack
                0x20036260       0xb4 C:/Hoopoe3/satellite-subsystems/demo/../..//hal/freertos/lib\libFreeRTOSD.a(tasks.o)
 .text.prvDeleteTCB
                0x20036314       0x30 C:/Hoopoe3/satellite-subsystems/demo/../..//hal/freertos/lib\libFreeRTOSD.a(tasks.o)
 .text.xTaskGetCurrentTaskHandle
                0x20036344       0x30 C:/Hoopoe3/satellite-subsystems/demo/../..//hal/freertos/lib\libFreeRTOSD.a(tasks.o)
                0x20036344                xTaskGetCurrentTaskHandle
 .text.xTaskGetSchedulerState
                0x20036374       0x68 C:/Hoopoe3/satellite-subsystems/demo/../..//hal/freertos/lib\libFreeRTOSD.a(tasks.o)
                0x20036374                xTaskGetSchedulerState
 .text.vTaskPriorityInherit
                0x200363dc      0x148 C:/Hoopoe3/satellite-subsystems/demo/../..//hal/freertos/lib\libFreeRTOSD.a(tasks.o)
                0x200363dc                vTaskPriorityInherit
 .text.vTaskPriorityDisinherit
                0x20036524       0xdc C:/Hoopoe3/satellite-subsystems/demo/../..//hal/freertos/lib\libFreeRTOSD.a(tasks.o)
                0x20036524                vTaskPriorityDisinherit
 .text.vApplicationStackOverflowHook
                0x20036600       0x4c C:/Hoopoe3/satellite-subsystems/demo/../..//hal/freertos/lib\libFreeRTOSD.a(hooks.o)
                0x20036600                vApplicationStackOverflowHook
 .text.vApplicationIdleHook
                0x2003664c       0x18 C:/Hoopoe3/satellite-subsystems/demo/../..//hal/freertos/lib\libFreeRTOSD.a(hooks.o)
                0x2003664c                vApplicationIdleHook
 .text.pvPortMalloc
                0x20036664       0x28 C:/Hoopoe3/satellite-subsystems/demo/../..//hal/freertos/lib\libFreeRTOSD.a(standardMemMang.o)
                0x20036664                pvPortMalloc
 .text.vPortFree
                0x2003668c       0x20 C:/Hoopoe3/satellite-subsystems/demo/../..//hal/freertos/lib\libFreeRTOSD.a(standardMemMang.o)
                0x2003668c                vPortFree
 .text.pxPortInitialiseStack
                0x200366ac      0x218 C:/Hoopoe3/satellite-subsystems/demo/../..//hal/freertos/lib\libFreeRTOSD.a(port.o)
                0x200366ac                pxPortInitialiseStack
 .text.xPortStartScheduler
                0x200368c4       0x1c C:/Hoopoe3/satellite-subsystems/demo/../..//hal/freertos/lib\libFreeRTOSD.a(port.o)
                0x200368c4                xPortStartScheduler
 .text.prvSetupTimerInterrupt
                0x200368e0       0x54 C:/Hoopoe3/satellite-subsystems/demo/../..//hal/freertos/lib\libFreeRTOSD.a(port.o)
 .text.vPortISRStartFirstTask
                0x20036934       0x64 C:/Hoopoe3/satellite-subsystems/demo/../..//hal/freertos/lib\libFreeRTOSD.a(port.o)
 .text.vPortEnterCritical
                0x20036998       0x40 C:/Hoopoe3/satellite-subsystems/demo/../..//hal/freertos/lib\libFreeRTOSD.a(port.o)
                0x20036998                vPortEnterCritical
 .text.vPortExitCritical
                0x200369d8       0x60 C:/Hoopoe3/satellite-subsystems/demo/../..//hal/freertos/lib\libFreeRTOSD.a(port.o)
                0x200369d8                vPortExitCritical
 .text.vListInitialise
                0x20036a38       0x64 C:/Hoopoe3/satellite-subsystems/demo/../..//hal/freertos/lib\libFreeRTOSD.a(list.o)
                0x20036a38                vListInitialise
 .text.vListInitialiseItem
                0x20036a9c       0x28 C:/Hoopoe3/satellite-subsystems/demo/../..//hal/freertos/lib\libFreeRTOSD.a(list.o)
                0x20036a9c                vListInitialiseItem
 .text.vListInsertEnd
                0x20036ac4       0x84 C:/Hoopoe3/satellite-subsystems/demo/../..//hal/freertos/lib\libFreeRTOSD.a(list.o)
                0x20036ac4                vListInsertEnd
 .text.vListInsert
                0x20036b48       0xd4 C:/Hoopoe3/satellite-subsystems/demo/../..//hal/freertos/lib\libFreeRTOSD.a(list.o)
                0x20036b48                vListInsert
 .text.uxListRemove
                0x20036c1c       0xa0 C:/Hoopoe3/satellite-subsystems/demo/../..//hal/freertos/lib\libFreeRTOSD.a(list.o)
                0x20036c1c                uxListRemove
 .text._read    0x20036cbc       0xa4 C:/Hoopoe3/satellite-subsystems/demo/../..//hal/at91/lib\libAt91D.a(syscalls.o)
                0x20036cbc                _read
 .text._write   0x20036d60       0xb8 C:/Hoopoe3/satellite-subsystems/demo/../..//hal/at91/lib\libAt91D.a(syscalls.o)
                0x20036d60                _write
 .text._lseek   0x20036e18       0x2c C:/Hoopoe3/satellite-subsystems/demo/../..//hal/at91/lib\libAt91D.a(syscalls.o)
                0x20036e18                _lseek
 .text._close   0x20036e44       0x24 C:/Hoopoe3/satellite-subsystems/demo/../..//hal/at91/lib\libAt91D.a(syscalls.o)
                0x20036e44                _close
 .text._fstat   0x20036e68       0x28 C:/Hoopoe3/satellite-subsystems/demo/../..//hal/at91/lib\libAt91D.a(syscalls.o)
                0x20036e68                _fstat
 .text._isatty  0x20036e90       0x38 C:/Hoopoe3/satellite-subsystems/demo/../..//hal/at91/lib\libAt91D.a(syscalls.o)
                0x20036e90                _isatty
 .text._sbrk    0x20036ec8       0xac C:/Hoopoe3/satellite-subsystems/demo/../..//hal/at91/lib\libAt91D.a(syscalls.o)
                0x20036ec8                _sbrk
 .text.AIC_ConfigureIT
                0x20036f74       0x74 C:/Hoopoe3/satellite-subsystems/demo/../..//hal/at91/lib\libAt91D.a(aic.o)
                0x20036f74                AIC_ConfigureIT
 .text.AIC_EnableIT
                0x20036fe8       0x34 C:/Hoopoe3/satellite-subsystems/demo/../..//hal/at91/lib\libAt91D.a(aic.o)
                0x20036fe8                AIC_EnableIT
 .text.AIC_DisableIT
                0x2003701c       0x34 C:/Hoopoe3/satellite-subsystems/demo/../..//hal/at91/lib\libAt91D.a(aic.o)
                0x2003701c                AIC_DisableIT
 .text.CP15_Enable_I_Cache
                0x20037050       0x4c C:/Hoopoe3/satellite-subsystems/demo/../..//hal/at91/lib\libAt91D.a(cp15.o)
                0x20037050                CP15_Enable_I_Cache
 .text.CP15_Disable_I_Cache
                0x2003709c       0x5c C:/Hoopoe3/satellite-subsystems/demo/../..//hal/at91/lib\libAt91D.a(cp15.o)
                0x2003709c                CP15_Disable_I_Cache
 .text.CP15_DisableMMU
                0x200370f8       0x68 C:/Hoopoe3/satellite-subsystems/demo/../..//hal/at91/lib\libAt91D.a(cp15.o)
                0x200370f8                CP15_DisableMMU
 .text.CP15_Disable_D_Cache
                0x20037160       0x5c C:/Hoopoe3/satellite-subsystems/demo/../..//hal/at91/lib\libAt91D.a(cp15.o)
                0x20037160                CP15_Disable_D_Cache
 .text.DBGU_Configure
                0x200371bc       0x84 C:/Hoopoe3/satellite-subsystems/demo/../..//hal/at91/lib\libAt91D.a(dbgu.o)
                0x200371bc                DBGU_Configure
 .text.DBGU_PutChar
                0x20037240       0x60 C:/Hoopoe3/satellite-subsystems/demo/../..//hal/at91/lib\libAt91D.a(dbgu.o)
                0x20037240                DBGU_PutChar
 .text.DBGU_IsRxReady
                0x200372a0       0x28 C:/Hoopoe3/satellite-subsystems/demo/../..//hal/at91/lib\libAt91D.a(dbgu.o)
                0x200372a0                DBGU_IsRxReady
 .text.DBGU_GetChar
                0x200372c8       0x40 C:/Hoopoe3/satellite-subsystems/demo/../..//hal/at91/lib\libAt91D.a(dbgu.o)
                0x200372c8                DBGU_GetChar
 .text.PIO_SetPeripheralA
                0x20037308       0x74 C:/Hoopoe3/satellite-subsystems/demo/../..//hal/at91/lib\libAt91D.a(pio.o)
 .text.PIO_SetPeripheralB
                0x2003737c       0x74 C:/Hoopoe3/satellite-subsystems/demo/../..//hal/at91/lib\libAt91D.a(pio.o)
 .text.PIO_SetInput
                0x200373f0       0x9c C:/Hoopoe3/satellite-subsystems/demo/../..//hal/at91/lib\libAt91D.a(pio.o)
 .text.PIO_SetOutput
                0x2003748c       0xc4 C:/Hoopoe3/satellite-subsystems/demo/../..//hal/at91/lib\libAt91D.a(pio.o)
 .text.PIO_Configure
                0x20037550      0x1ec C:/Hoopoe3/satellite-subsystems/demo/../..//hal/at91/lib\libAt91D.a(pio.o)
                0x20037550                PIO_Configure
 .text.PIO_Set  0x2003773c       0x3c C:/Hoopoe3/satellite-subsystems/demo/../..//hal/at91/lib\libAt91D.a(pio.o)
                0x2003773c                PIO_Set
 .text.PIO_Clear
                0x20037778       0x3c C:/Hoopoe3/satellite-subsystems/demo/../..//hal/at91/lib\libAt91D.a(pio.o)
                0x20037778                PIO_Clear
 .text.PIO_Get  0x200377b4       0x9c C:/Hoopoe3/satellite-subsystems/demo/../..//hal/at91/lib\libAt91D.a(pio.o)
                0x200377b4                PIO_Get
 .text.PIT_Init
                0x20037850       0x68 C:/Hoopoe3/satellite-subsystems/demo/../..//hal/at91/lib\libAt91D.a(pit.o)
                0x20037850                PIT_Init
 .text.PIT_Enable
                0x200378b8       0x2c C:/Hoopoe3/satellite-subsystems/demo/../..//hal/at91/lib\libAt91D.a(pit.o)
                0x200378b8                PIT_Enable
 .text.PIT_EnableIT
                0x200378e4       0x2c C:/Hoopoe3/satellite-subsystems/demo/../..//hal/at91/lib\libAt91D.a(pit.o)
                0x200378e4                PIT_EnableIT
 .text.PMC_EnablePeripheral
                0x20037910       0xa4 C:/Hoopoe3/satellite-subsystems/demo/../..//hal/at91/lib\libAt91D.a(pmc.o)
                0x20037910                PMC_EnablePeripheral
 .text.PMC_DisablePeripheral
                0x200379b4       0xa4 C:/Hoopoe3/satellite-subsystems/demo/../..//hal/at91/lib\libAt91D.a(pmc.o)
                0x200379b4                PMC_DisablePeripheral
 .text.PMC_IsPeriphEnabled
                0x20037a58       0x3c C:/Hoopoe3/satellite-subsystems/demo/../..//hal/at91/lib\libAt91D.a(pmc.o)
                0x20037a58                PMC_IsPeriphEnabled
 .text.SPI_Enable
                0x20037a94       0x28 C:/Hoopoe3/satellite-subsystems/demo/../..//hal/at91/lib\libAt91D.a(spi_at91.o)
                0x20037a94                SPI_Enable
 .text.SPI_Disable
                0x20037abc       0x28 C:/Hoopoe3/satellite-subsystems/demo/../..//hal/at91/lib\libAt91D.a(spi_at91.o)
                0x20037abc                SPI_Disable
 .text.SPI_Configure
                0x20037ae4       0x6c C:/Hoopoe3/satellite-subsystems/demo/../..//hal/at91/lib\libAt91D.a(spi_at91.o)
                0x20037ae4                SPI_Configure
 .text.SPI_ConfigureNPCS
                0x20037b50       0x38 C:/Hoopoe3/satellite-subsystems/demo/../..//hal/at91/lib\libAt91D.a(spi_at91.o)
                0x20037b50                SPI_ConfigureNPCS
 .text.TWI_ConfigureMaster
                0x20037b88      0x2a0 C:/Hoopoe3/satellite-subsystems/demo/../..//hal/at91/lib\libAt91D.a(twi_at91.o)
                0x20037b88                TWI_ConfigureMaster
 .text.TWI_GetMaskedStatus
                0x20037e28       0x78 C:/Hoopoe3/satellite-subsystems/demo/../..//hal/at91/lib\libAt91D.a(twi_at91.o)
                0x20037e28                TWI_GetMaskedStatus
 .text.disableCaches
                0x20037ea0       0x18 C:/Hoopoe3/satellite-subsystems/demo/../..//hal/at91/lib\libAt91D.a(ExitHandler.o)
 .text.restart  0x20037eb8       0x28 C:/Hoopoe3/satellite-subsystems/demo/../..//hal/at91/lib\libAt91D.a(ExitHandler.o)
                0x20037eb8                restart
 .text.restartPrefetchAbort
                0x20037ee0       0x28 C:/Hoopoe3/satellite-subsystems/demo/../..//hal/at91/lib\libAt91D.a(ExitHandler.o)
                0x20037ee0                restartPrefetchAbort
 .text.restartDataAbort
                0x20037f08       0x28 C:/Hoopoe3/satellite-subsystems/demo/../..//hal/at91/lib\libAt91D.a(ExitHandler.o)
                0x20037f08                restartDataAbort
 .text.defaultSpuriousHandler
                0x20037f30       0x18 C:/Hoopoe3/satellite-subsystems/demo/../..//hal/at91/lib\libAt91D.a(board_lowlevel.o)
                0x20037f30                defaultSpuriousHandler
 .text.defaultFiqHandler
                0x20037f48       0x18 C:/Hoopoe3/satellite-subsystems/demo/../..//hal/at91/lib\libAt91D.a(board_lowlevel.o)
                0x20037f48                defaultFiqHandler
 .text.defaultIrqHandler
                0x20037f60       0x18 C:/Hoopoe3/satellite-subsystems/demo/../..//hal/at91/lib\libAt91D.a(board_lowlevel.o)
                0x20037f60                defaultIrqHandler
 .text.LowLevelInit
                0x20037f78       0xf4 C:/Hoopoe3/satellite-subsystems/demo/../..//hal/at91/lib\libAt91D.a(board_lowlevel.o)
                0x20037f78                LowLevelInit
 .text.BOARD_RemapRam
                0x2003806c       0x24 C:/Hoopoe3/satellite-subsystems/demo/../..//hal/at91/lib\libAt91D.a(board_memories.o)
                0x2003806c                BOARD_RemapRam
 .text.__errno  0x20038090       0x10 c:/isis/application/toolchain/bin/../lib/gcc/arm-none-eabi/4.7.4/../../../../arm-none-eabi/lib\libc_s.a(lib_a-errno.o)
                0x20038090                __errno
 .text.memcmp   0x200380a0       0x3c c:/isis/application/toolchain/bin/../lib/gcc/arm-none-eabi/4.7.4/../../../../arm-none-eabi/lib\libc_s.a(lib_a-memcmp.o)
                0x200380a0                memcmp
 .text.printf   0x200380dc       0x50 c:/isis/application/toolchain/bin/../lib/gcc/arm-none-eabi/4.7.4/../../../../arm-none-eabi/lib\libc_s.a(lib_a-printf.o)
                0x200380dc                iprintf
                0x200380dc                printf
 .text.puts     0x2003812c       0x64 c:/isis/application/toolchain/bin/../lib/gcc/arm-none-eabi/4.7.4/../../../../arm-none-eabi/lib\libc_s.a(lib_a-puts.o)
                0x2003812c                puts
 .text.strcpy   0x20038190       0x18 c:/isis/application/toolchain/bin/../lib/gcc/arm-none-eabi/4.7.4/../../../../arm-none-eabi/lib\libc_s.a(lib_a-strcpy.o)
                0x20038190                strcpy
 .text.__sfputc_r
                0x200381a8       0x50 c:/isis/application/toolchain/bin/../lib/gcc/arm-none-eabi/4.7.4/../../../../arm-none-eabi/lib\libc_s.a(lib_a-vfprintf.o)
                0x200381a8                __sfputc_r
 .text._vfprintf_r
                0x200381f8      0x360 c:/isis/application/toolchain/bin/../lib/gcc/arm-none-eabi/4.7.4/../../../../arm-none-eabi/lib\libc_s.a(lib_a-vfprintf.o)
                0x200381f8                _vfprintf_r
                0x200381f8                _vfiprintf_r
 .text.__swbuf_r
                0x20038558      0x138 c:/isis/application/toolchain/bin/../lib/gcc/arm-none-eabi/4.7.4/../../../../arm-none-eabi/lib\libc_s.a(lib_a-wbuf.o)
                0x20038558                __swbuf_r
 .text.__swsetup_r
                0x20038690      0x154 c:/isis/application/toolchain/bin/../lib/gcc/arm-none-eabi/4.7.4/../../../../arm-none-eabi/lib\libc_s.a(lib_a-wsetup.o)
                0x20038690                __swsetup_r
 .text._fflush_r
                0x200387e4      0x244 c:/isis/application/toolchain/bin/../lib/gcc/arm-none-eabi/4.7.4/../../../../arm-none-eabi/lib\libc_s.a(lib_a-fflush.o)
                0x200387e4                _fflush_r
 .text._cleanup_r
                0x20038a28       0x5c c:/isis/application/toolchain/bin/../lib/gcc/arm-none-eabi/4.7.4/../../../../arm-none-eabi/lib\libc_s.a(lib_a-findfp.o)
                0x20038a28                _cleanup_r
 .text.std.isra.0
                0x20038a84       0x7c c:/isis/application/toolchain/bin/../lib/gcc/arm-none-eabi/4.7.4/../../../../arm-none-eabi/lib\libc_s.a(lib_a-findfp.o)
 .text.__sfmoreglue
                0x20038b00       0x44 c:/isis/application/toolchain/bin/../lib/gcc/arm-none-eabi/4.7.4/../../../../arm-none-eabi/lib\libc_s.a(lib_a-findfp.o)
                0x20038b00                __sfmoreglue
 .text.__sinit  0x20038b44       0x90 c:/isis/application/toolchain/bin/../lib/gcc/arm-none-eabi/4.7.4/../../../../arm-none-eabi/lib\libc_s.a(lib_a-findfp.o)
                0x20038b44                __sinit
 .text.__sfp    0x20038bd4       0xdc c:/isis/application/toolchain/bin/../lib/gcc/arm-none-eabi/4.7.4/../../../../arm-none-eabi/lib\libc_s.a(lib_a-findfp.o)
                0x20038bd4                __sfp
 .text.__smakebuf_r
                0x20038cb0       0xf8 c:/isis/application/toolchain/bin/../lib/gcc/arm-none-eabi/4.7.4/../../../../arm-none-eabi/lib\libc_s.a(lib_a-makebuf.o)
                0x20038cb0                __smakebuf_r
 .text._putc_r  0x20038da8       0xd0 c:/isis/application/toolchain/bin/../lib/gcc/arm-none-eabi/4.7.4/../../../../arm-none-eabi/lib\libc_s.a(lib_a-putc.o)
                0x20038da8                _putc_r
 .text.__sread  0x20038e78       0x34 c:/isis/application/toolchain/bin/../lib/gcc/arm-none-eabi/4.7.4/../../../../arm-none-eabi/lib\libc_s.a(lib_a-stdio.o)
                0x20038e78                __sread
 .text.__swrite
                0x20038eac       0x54 c:/isis/application/toolchain/bin/../lib/gcc/arm-none-eabi/4.7.4/../../../../arm-none-eabi/lib\libc_s.a(lib_a-stdio.o)
                0x20038eac                __swrite
 .text.__sseek  0x20038f00       0x34 c:/isis/application/toolchain/bin/../lib/gcc/arm-none-eabi/4.7.4/../../../../arm-none-eabi/lib\libc_s.a(lib_a-stdio.o)
                0x20038f00                __sseek
 .text.__sclose
                0x20038f34       0x14 c:/isis/application/toolchain/bin/../lib/gcc/arm-none-eabi/4.7.4/../../../../arm-none-eabi/lib\libc_s.a(lib_a-stdio.o)
                0x20038f34                __sclose
 .text._write_r
                0x20038f48       0x44 c:/isis/application/toolchain/bin/../lib/gcc/arm-none-eabi/4.7.4/../../../../arm-none-eabi/lib\libc_s.a(lib_a-writer.o)
                0x20038f48                _write_r
 .text._close_r
                0x20038f8c       0x3c c:/isis/application/toolchain/bin/../lib/gcc/arm-none-eabi/4.7.4/../../../../arm-none-eabi/lib\libc_s.a(lib_a-closer.o)
                0x20038f8c                _close_r
 .text._fstat_r
                0x20038fc8       0x40 c:/isis/application/toolchain/bin/../lib/gcc/arm-none-eabi/4.7.4/../../../../arm-none-eabi/lib\libc_s.a(lib_a-fstatr.o)
                0x20038fc8                _fstat_r
 .text._isatty_r
                0x20039008       0x3c c:/isis/application/toolchain/bin/../lib/gcc/arm-none-eabi/4.7.4/../../../../arm-none-eabi/lib\libc_s.a(lib_a-isattyr.o)
                0x20039008                _isatty_r
 .text._lseek_r
                0x20039044       0x44 c:/isis/application/toolchain/bin/../lib/gcc/arm-none-eabi/4.7.4/../../../../arm-none-eabi/lib\libc_s.a(lib_a-lseekr.o)
                0x20039044                _lseek_r
 .text._read_r  0x20039088       0x44 c:/isis/application/toolchain/bin/../lib/gcc/arm-none-eabi/4.7.4/../../../../arm-none-eabi/lib\libc_s.a(lib_a-readr.o)
                0x20039088                _read_r
 *fill*         0x200390cc        0x4 00
 .text._read_r.stub
                0x200390d0       0x10 linker stubs
 *(.rodata)
 .rodata        0x200390e0       0x14 ./src/sub-systemCode/Main/CMD/COMM_CMD.o
 .rodata        0x200390f4      0x14c ./src/sub-systemCode/Main/CMD/EPS_CMD.o
 .rodata        0x20039240       0x74 ./src/sub-systemCode/Main/CMD/General_CMD.o
 .rodata        0x200392b4      0x190 ./src/sub-systemCode/Main/Ants.o
 .rodata        0x20039444      0x2d4 ./src/sub-systemCode/Main/EPS.o
 .rodata        0x20039718      0x4fc ./src/sub-systemCode/Main/HouseKeeping.o
 .rodata        0x20039c14      0x1d8 ./src/sub-systemCode/Main/Main_Init.o
 .rodata        0x20039dec       0x80 ./src/sub-systemCode/Main/commands.o
 .rodata        0x20039e6c      0x1e8 ./src/sub-systemCode/Global/Global.o
 .rodata        0x2003a054      0x4c4 ./src/sub-systemCode/Global/GlobalParam.o
 .rodata        0x2003a518      0x238 ./src/sub-systemCode/Global/TM_managment.o
 .rodata        0x2003a750       0xbc ./src/sub-systemCode/COMM/APRS.o
 .rodata        0x2003a80c      0x1ac ./src/sub-systemCode/COMM/DelayedCommand_list.o
 .rodata        0x2003a9b8      0x548 ./src/sub-systemCode/COMM/TRXVU.o
 .rodata        0x2003af00       0x10 ./src/sub-systemCode/ADCS/ADCS.o
 .rodata        0x2003af10       0x80 ./src/main.o
 .rodata        0x2003af90       0x20 C:/Hoopoe3/satellite-subsystems/demo/..//satellite-subsystems/lib\libSatelliteSubsystemsD.a(GomEPS.o)
 .rodata        0x2003afb0       0x50 C:/Hoopoe3/satellite-subsystems/demo/..//satellite-subsystems/lib\libSatelliteSubsystemsD.a(IsisSolarPanelv2.o)
 .rodata        0x2003b000       0x88 C:/Hoopoe3/satellite-subsystems/demo/..//satellite-subsystems/lib\libSatelliteSubsystemsD.a(gecko_driver.o)
 .rodata        0x2003b088       0x60 C:/Hoopoe3/satellite-subsystems/demo/../..//hal/hcc/lib\libHCCD.a(safefat.o)
 .rodata        0x2003b0e8       0x30 C:/Hoopoe3/satellite-subsystems/demo/../..//hal/hcc/lib\libHCCD.a(atmel_mcipdc.o)
 .rodata        0x2003b118       0x54 C:/Hoopoe3/satellite-subsystems/demo/../..//hal/hcc/lib\libHCCD.a(atmel_mcipdc_hw.o)
 .rodata        0x2003b16c       0xf4 C:/Hoopoe3/satellite-subsystems/demo/../..//hal/hal/lib\libHALD.a(I2C.o)
 .rodata        0x2003b260      0x324 C:/Hoopoe3/satellite-subsystems/demo/../..//hal/hal/lib\libHALD.a(SPI.o)
 .rodata        0x2003b584       0x98 C:/Hoopoe3/satellite-subsystems/demo/../..//hal/hal/lib\libHALD.a(Time.o)
 .rodata        0x2003b61c        0xc C:/Hoopoe3/satellite-subsystems/demo/../..//hal/hal/lib\libHALD.a(WatchDogTimerNoOS.o)
 .rodata        0x2003b628       0x14 C:/Hoopoe3/satellite-subsystems/demo/../..//hal/hal/lib\libHALD.a(WatchDogTimerOS.o)
 .rodata        0x2003b63c       0xcc C:/Hoopoe3/satellite-subsystems/demo/../..//hal/hal/lib\libHALD.a(util.o)
 .rodata        0x2003b708       0x30 C:/Hoopoe3/satellite-subsystems/demo/../..//hal/hal/lib\libHALD.a(LED.o)
 .rodata        0x2003b738       0x40 C:/Hoopoe3/satellite-subsystems/demo/../..//hal/freertos/lib\libFreeRTOSD.a(queue.o)
 .rodata        0x2003b778       0x48 C:/Hoopoe3/satellite-subsystems/demo/../..//hal/freertos/lib\libFreeRTOSD.a(tasks.o)
 .rodata        0x2003b7c0       0x58 C:/Hoopoe3/satellite-subsystems/demo/../..//hal/freertos/lib\libFreeRTOSD.a(hooks.o)
 .rodata        0x2003b818       0x3c C:/Hoopoe3/satellite-subsystems/demo/../..//hal/at91/lib\libAt91D.a(syscalls.o)
 .rodata        0x2003b854      0x158 C:/Hoopoe3/satellite-subsystems/demo/../..//hal/at91/lib\libAt91D.a(cp15.o)
 .rodata        0x2003b9ac      0x118 C:/Hoopoe3/satellite-subsystems/demo/../..//hal/at91/lib\libAt91D.a(pmc.o)
 .rodata        0x2003bac4       0x98 C:/Hoopoe3/satellite-subsystems/demo/../..//hal/at91/lib\libAt91D.a(twi_at91.o)
 .rodata        0x2003bb5c       0x8c C:/Hoopoe3/satellite-subsystems/demo/../..//hal/at91/lib\libAt91D.a(ExitHandler.o)
 .rodata        0x2003bbe8       0xa8 C:/Hoopoe3/satellite-subsystems/demo/../..//hal/at91/lib\libAt91D.a(board_lowlevel.o)
 *(.rodata*)
 .rodata.str1.1
                0x2003bc90       0x10 c:/isis/application/toolchain/bin/../lib/gcc/arm-none-eabi/4.7.4/../../../../arm-none-eabi/lib\libc_s.a(lib_a-vfprintf_float.o)
 .rodata.str1.1
                0x2003bca0       0x22 c:/isis/application/toolchain/bin/../lib/gcc/arm-none-eabi/4.7.4/../../../../arm-none-eabi/lib\libc_s.a(lib_a-vfprintf_i.o)
 .rodata.str1.1
                0x2003bcc2        0x5 c:/isis/application/toolchain/bin/../lib/gcc/arm-none-eabi/4.7.4/../../../../arm-none-eabi/lib\libc_s.a(lib_a-vfscanf_float.o)
 .rodata.str1.1
                0x2003bcc7        0xf c:/isis/application/toolchain/bin/../lib/gcc/arm-none-eabi/4.7.4/../../../../arm-none-eabi/lib\libc_s.a(lib_a-dtoa.o)
 .rodata.str1.1
                0x2003bcd6        0xa c:/isis/application/toolchain/bin/../lib/gcc/arm-none-eabi/4.7.4/../../../../arm-none-eabi/lib\libc_s.a(lib_a-locale.o)
                                  0xb (size before relaxing)
 *fill*         0x2003bce0        0x0 00
 .rodata.__mprec_tens
                0x2003bce0       0xc8 c:/isis/application/toolchain/bin/../lib/gcc/arm-none-eabi/4.7.4/../../../../arm-none-eabi/lib\libc_s.a(lib_a-mprec.o)
                0x2003bce0                __mprec_tens
 .rodata.p05.5252
                0x2003bda8        0xc c:/isis/application/toolchain/bin/../lib/gcc/arm-none-eabi/4.7.4/../../../../arm-none-eabi/lib\libc_s.a(lib_a-mprec.o)
 *fill*         0x2003bdb4        0x4 00
 .rodata.__mprec_bigtens
                0x2003bdb8       0x28 c:/isis/application/toolchain/bin/../lib/gcc/arm-none-eabi/4.7.4/../../../../arm-none-eabi/lib\libc_s.a(lib_a-mprec.o)
                0x2003bdb8                __mprec_bigtens
 .rodata.str1.1
                0x00000000        0xa c:/isis/application/toolchain/bin/../lib/gcc/arm-none-eabi/4.7.4/../../../../arm-none-eabi/lib\libc_s.a(lib_a-strtod.o)
                                  0xc (size before relaxing)
 .rodata.tinytens
                0x2003bde0       0x28 c:/isis/application/toolchain/bin/../lib/gcc/arm-none-eabi/4.7.4/../../../../arm-none-eabi/lib\libc_s.a(lib_a-strtod.o)
 .rodata.str1.1
                0x2003be08       0x11 c:/isis/application/toolchain/bin/../lib/gcc/arm-none-eabi/4.7.4/../../../../arm-none-eabi/lib\libc_s.a(lib_a-svfprintf.o)
 .rodata._ctype_
                0x2003be19      0x101 c:/isis/application/toolchain/bin/../lib/gcc/arm-none-eabi/4.7.4/../../../../arm-none-eabi/lib\libc_s.a(lib_a-ctype_.o)
                0x2003be19                _ctype_
 .rodata.str1.1
                0x2003bf1a        0xb c:/isis/application/toolchain/bin/../lib/gcc/arm-none-eabi/4.7.4/../../../../arm-none-eabi/lib\libc_s.a(lib_a-gdtoa-gethex.o)
                                 0x19 (size before relaxing)
 .rodata.str1.1
                0x00000000        0x2 c:/isis/application/toolchain/bin/../lib/gcc/arm-none-eabi/4.7.4/../../../../arm-none-eabi/lib\libc_s.a(lib_a-impure.o)
 *fill*         0x2003bf25        0x3 00
 .rodata._global_impure_ptr
                0x2003bf28        0x4 c:/isis/application/toolchain/bin/../lib/gcc/arm-none-eabi/4.7.4/../../../../arm-none-eabi/lib\libc_s.a(lib_a-impure.o)
                0x2003bf28                _global_impure_ptr
 .rodata.str1.4
                0x2003bf2c        0x8 c:/isis/application/toolchain/bin/../lib/gcc/arm-none-eabi/4.7.4/../../../../arm-none-eabi/lib\libm.a(lib_a-w_log.o)
 .rodata.str1.1
                0x00000000       0x11 c:/isis/application/toolchain/bin/../lib/gcc/arm-none-eabi/4.7.4/../../../../arm-none-eabi/lib\libc_s.a(lib_a-vfprintf.o)
 .rodata.__sf_fake_stdin
                0x2003bf34       0x20 c:/isis/application/toolchain/bin/../lib/gcc/arm-none-eabi/4.7.4/../../../../arm-none-eabi/lib\libc_s.a(lib_a-findfp.o)
                0x2003bf34                __sf_fake_stdin
 .rodata.__sf_fake_stdout
                0x2003bf54       0x20 c:/isis/application/toolchain/bin/../lib/gcc/arm-none-eabi/4.7.4/../../../../arm-none-eabi/lib\libc_s.a(lib_a-findfp.o)
                0x2003bf54                __sf_fake_stdout
 .rodata.__sf_fake_stderr
                0x2003bf74       0x20 c:/isis/application/toolchain/bin/../lib/gcc/arm-none-eabi/4.7.4/../../../../arm-none-eabi/lib\libc_s.a(lib_a-findfp.o)
                0x2003bf74                __sf_fake_stderr
 *(.rodata.*)
 *(.glue_7)
 .glue_7        0x00000000        0x0 linker stubs
 *(.glue_7t)
 .glue_7t       0x00000000        0x0 linker stubs
 *(.vfp11_veneer)
 .vfp11_veneer  0x00000000        0x0 linker stubs
 *(.v4_bx)
 .v4_bx         0x00000000        0x0 linker stubs
 *(.data)
 *fill*         0x2003bf94        0x4 00
 .data          0x2003bf98        0x8 ./src/sub-systemCode/Main/EPS.o
                0x2003bf98                alpha
 .data          0x2003bfa0       0x28 C:/Hoopoe3/satellite-subsystems/demo/..//satellite-subsystems/lib\libSatelliteSubsystemsD.a(IsisSolarPanelv2.o)
 .data          0x2003bfc8       0x10 C:/Hoopoe3/satellite-subsystems/demo/..//satellite-subsystems/lib\libSatelliteSubsystemsD.a(gecko_driver.o)
 .data          0x2003bfd8       0x20 C:/Hoopoe3/satellite-subsystems/demo/../..//hal/hcc/lib\libHCCD.a(safefat.o)
                0x2003bfd8                s_subdir
 .data          0x2003bff8        0x8 C:/Hoopoe3/satellite-subsystems/demo/../..//hal/hal/lib\libHALD.a(I2C.o)
 .data          0x2003c000        0xc C:/Hoopoe3/satellite-subsystems/demo/../..//hal/hal/lib\libHALD.a(SPI.o)
 .data          0x2003c00c       0x10 C:/Hoopoe3/satellite-subsystems/demo/../..//hal/hal/lib\libHALD.a(FRAM.o)
 .data          0x2003c01c        0x4 C:/Hoopoe3/satellite-subsystems/demo/../..//hal/hal/lib\libHALD.a(Time.o)
 .data          0x2003c020       0x10 C:/Hoopoe3/satellite-subsystems/demo/../..//hal/hal/lib\libHALD.a(RTC.o)
 .data          0x2003c030        0x4 C:/Hoopoe3/satellite-subsystems/demo/../..//hal/freertos/lib\libFreeRTOSD.a(tasks.o)
 .data          0x2003c034        0x4 C:/Hoopoe3/satellite-subsystems/demo/../..//hal/freertos/lib\libFreeRTOSD.a(port.o)
                0x2003c034                ulCriticalNesting
 *(.data.*)
 .data.lconv    0x2003c038       0x38 c:/isis/application/toolchain/bin/../lib/gcc/arm-none-eabi/4.7.4/../../../../arm-none-eabi/lib\libc_s.a(lib_a-locale.o)
 .data.fpi.5208
                0x2003c070       0x14 c:/isis/application/toolchain/bin/../lib/gcc/arm-none-eabi/4.7.4/../../../../arm-none-eabi/lib\libc_s.a(lib_a-strtod.o)
 .data.fpinan.5244
                0x2003c084       0x14 c:/isis/application/toolchain/bin/../lib/gcc/arm-none-eabi/4.7.4/../../../../arm-none-eabi/lib\libc_s.a(lib_a-strtod.o)
 .data.__ctype_ptr__
                0x2003c098        0x4 c:/isis/application/toolchain/bin/../lib/gcc/arm-none-eabi/4.7.4/../../../../arm-none-eabi/lib\libc_s.a(lib_a-ctype_.o)
                0x2003c098                __ctype_ptr__
 .data.impure_data
                0x2003c09c       0x64 c:/isis/application/toolchain/bin/../lib/gcc/arm-none-eabi/4.7.4/../../../../arm-none-eabi/lib\libc_s.a(lib_a-impure.o)
 .data._impure_ptr
                0x2003c100        0x4 c:/isis/application/toolchain/bin/../lib/gcc/arm-none-eabi/4.7.4/../../../../arm-none-eabi/lib\libc_s.a(lib_a-impure.o)
                0x2003c100                _impure_ptr
 .data.__fdlib_version
                0x2003c104        0x1 c:/isis/application/toolchain/bin/../lib/gcc/arm-none-eabi/4.7.4/../../../../arm-none-eabi/lib\libm.a(lib_a-s_lib_ver.o)
                0x2003c104                __fdlib_version
 *(.dyn)
 *(.iplt)
 .iplt          0x00000000        0x0 c:/isis/application/toolchain/bin/../lib/gcc/arm-none-eabi/4.7.4/../../../../arm-none-eabi/lib\libc_s.a(lib_a-vfprintf_float.o)
 *(.igot)
 *(.igot.plt)
 .igot.plt      0x00000000        0x0 c:/isis/application/toolchain/bin/../lib/gcc/arm-none-eabi/4.7.4/../../../../arm-none-eabi/lib\libc_s.a(lib_a-vfprintf_float.o)
 *(.rel.dyn)
 *(.rel.iplt)
 .rel.iplt      0x00000000        0x0 c:/isis/application/toolchain/bin/../lib/gcc/arm-none-eabi/4.7.4/../../../../arm-none-eabi/lib\libc_s.a(lib_a-vfprintf_float.o)
                0x2003c108                . = ALIGN (0x4)
 *fill*         0x2003c105        0x3 00
                0x2003c108                _efixed = .

.ARM.exidx      0x2003c108        0x0
 *(.ARM.exidx)
                0x2003c108                _eexidx = .

.ARM.extab      0x2003c108        0x0
 *(.ARM.extab)
                0x2003c108                _eextab = .

.prerelocate    0x00000000        0x0 load address 0x2003c108
                0x00000000                . = ALIGN (0x4)
                0x00000000                _sprerelocate = .
                0x00000000                . = ALIGN (0x4)
                0x00000000                _eprerelocate = .

.postrelocate   0x00200000     0x1c28 load address 0x2003c108
                0x00200000                . = ALIGN (0x4)
                0x00200000                _spostrelocate = .
 *(.vectors)
 .vectors       0x00200000       0xd4 C:/Hoopoe3/satellite-subsystems/demo/../..//hal/at91/lib\libAt91D.a(board_cstartup.o)
 *(.sramfunc)
 .sramfunc      0x002000d4      0xe1c C:/Hoopoe3/satellite-subsystems/demo/../..//hal/hal/lib\libHALD.a(I2C.o)
                0x0020098c                ISR_I2Cmaster
                0x00200d3c                taskI2Cregulator
 .sramfunc      0x00200ef0      0xa58 C:/Hoopoe3/satellite-subsystems/demo/../..//hal/hal/lib\libHALD.a(SPI.o)
                0x00200ef0                taskSPI0regulator
                0x00201398                taskSPI1regulator
                0x0020171c                ISR_SPI0master
                0x002017dc                ISR_SPI1master
 .sramfunc      0x00201948       0x98 C:/Hoopoe3/satellite-subsystems/demo/../..//hal/hal/lib\libHALD.a(WatchDogTimerNoOS.o)
                0x00201948                WDT_kickEveryNcalls
                0x00201990                WDT_forceKick
 .sramfunc      0x002019e0       0x50 C:/Hoopoe3/satellite-subsystems/demo/../..//hal/hal/lib\libHALD.a(WatchDogTimerOS.o)
                0x002019e0                taskWatchdogKick
 .sramfunc      0x00201a30       0xf0 C:/Hoopoe3/satellite-subsystems/demo/../..//hal/freertos/lib\libFreeRTOSD.a(port.o)
                0x00201a30                vPortTickISR
                0x00201a6c                vPortYieldProcessor
 .sramfunc      0x00201b20       0x48 C:/Hoopoe3/satellite-subsystems/demo/../..//hal/at91/lib\libAt91D.a(ExitHandler.o)
                0x00201b20                gracefulReset
 .sramfunc.stub
                0x00201b68       0xc0 linker stubs
 *(.ramfunc)
                0x00201c28                . = ALIGN (0x4)
                0x00201c28                _epostrelocate = .

.sramdata       0x00300000        0xc load address 0x2003dd30
                0x00300000                . = ALIGN (0x4)
                0x00300000                _ssramdata = .
 *(.sramdata)
 .sramdata      0x00300000        0x4 C:/Hoopoe3/satellite-subsystems/demo/../..//hal/hal/lib\libHALD.a(WatchDogTimerNoOS.o)
 .sramdata      0x00300004        0x8 C:/Hoopoe3/satellite-subsystems/demo/../..//hal/hal/lib\libHALD.a(WatchDogTimerOS.o)
                0x0030000c                . = ALIGN (0x4)
                0x0030000c                _esramdata = .

.srambss        0x0030000c        0x0
                0x0030000c                . = ALIGN (0x4)
                0x0030000c                _ssrambss = .
 *(.srambss)
                0x0030000c                . = ALIGN (0x4)
                0x0030000c                _esrambss = .

.bss            0x2003c108    0x59b4c
                0x2003c108                _szero = .
 *(.bss)
 .bss           0x2003c108        0x8 ./src/sub-systemCode/Main/commands.o
                0x2003c108                xCTE
                0x2003c10c                place_in_list
 .bss           0x2003c110        0x4 ./src/sub-systemCode/Global/GlobalParam.o
                0x2003c110                xCGP_semaphore
 .bss           0x2003c114      0x168 ./src/sub-systemCode/COMM/APRS.o
 .bss           0x2003c27c     0x4e20 ./src/sub-systemCode/COMM/DelayedCommand_list.o
 .bss           0x2004109c     0x9c48 ./src/sub-systemCode/COMM/TRXVU.o
 .bss           0x2004ace4        0x8 C:/Hoopoe3/satellite-subsystems/demo/..//satellite-subsystems/lib\libSatelliteSubsystemsD.a(GomEPS.o)
 .bss           0x2004acec        0x8 C:/Hoopoe3/satellite-subsystems/demo/..//satellite-subsystems/lib\libSatelliteSubsystemsD.a(IsisAntS.o)
 .bss           0x2004acf4        0x1 C:/Hoopoe3/satellite-subsystems/demo/..//satellite-subsystems/lib\libSatelliteSubsystemsD.a(IsisSolarPanelv2.o)
 *fill*         0x2004acf5        0x3 00
 .bss           0x2004acf8        0x8 C:/Hoopoe3/satellite-subsystems/demo/..//satellite-subsystems/lib\libSatelliteSubsystemsD.a(IsisTRXVU.o)
 .bss           0x2004ad00        0x8 C:/Hoopoe3/satellite-subsystems/demo/..//satellite-subsystems/lib\libSatelliteSubsystemsD.a(cspaceADCS.o)
 .bss           0x2004ad08    0x44780 C:/Hoopoe3/satellite-subsystems/demo/../..//hal/hcc/lib\libHCCD.a(fat_common.o)
                0x2008f484                p_filesystem
 .bss           0x2008f488       0x60 C:/Hoopoe3/satellite-subsystems/demo/../..//hal/hcc/lib\libHCCD.a(atmel_mcipdc.o)
                0x2008f4e4                mmcsd_dma_buf
 .bss           0x2008f4e8       0x90 C:/Hoopoe3/satellite-subsystems/demo/../..//hal/hcc/lib\libHCCD.a(hcc_mem.o)
 .bss           0x2008f578     0x4024 C:/Hoopoe3/satellite-subsystems/demo/../..//hal/hcc/lib\libHCCD.a(psp_hcc_mem.o)
 .bss           0x2009359c       0x54 C:/Hoopoe3/satellite-subsystems/demo/../..//hal/hal/lib\libHALD.a(I2C.o)
                0x200935a4                RescheduleFlag
 .bss           0x200935f0       0x50 C:/Hoopoe3/satellite-subsystems/demo/../..//hal/hal/lib\libHALD.a(SPI.o)
 .bss           0x20093640      0x214 C:/Hoopoe3/satellite-subsystems/demo/../..//hal/hal/lib\libHALD.a(FRAM.o)
 .bss           0x20093854       0x18 C:/Hoopoe3/satellite-subsystems/demo/../..//hal/hal/lib\libHALD.a(Time.o)
 .bss           0x2009386c        0x8 C:/Hoopoe3/satellite-subsystems/demo/../..//hal/hal/lib\libHALD.a(WatchDogTimerOS.o)
 .bss           0x20093874       0x10 C:/Hoopoe3/satellite-subsystems/demo/../..//hal/hal/lib\libHALD.a(LED.o)
 .bss           0x20093884       0xfc C:/Hoopoe3/satellite-subsystems/demo/../..//hal/freertos/lib\libFreeRTOSD.a(tasks.o)
                0x20093884                pxCurrentTCB
 .bss           0x20093980        0x4 C:/Hoopoe3/satellite-subsystems/demo/../..//hal/at91/lib\libAt91D.a(syscalls.o)
 *(.bss.*)
 .bss.__malloc_free_list
                0x20093984        0x4 c:/isis/application/toolchain/bin/../lib/gcc/arm-none-eabi/4.7.4/../../../../arm-none-eabi/lib\libc_s.a(lib_a-mallocr.o)
                0x20093984                __malloc_free_list
 *(COMMON)
 COMMON         0x20093988      0x100 c:/isis/application/toolchain/bin/../lib/gcc/arm-none-eabi/4.7.4/../../../../arm-none-eabi/lib\libc_s.a(lib_a-gdtoa-gethex.o)
                0x20093988                __hexdig
 COMMON         0x20093a88        0x4 c:/isis/application/toolchain/bin/../lib/gcc/arm-none-eabi/4.7.4/../../../../arm-none-eabi/lib\libc_s.a(lib_a-reent.o)
                0x20093a88                errno
 COMMON         0x20093a8c       0x10 ./src/sub-systemCode/Main/CMD/COMM_CMD.o
                0x20093a8c                xDumpQueue
                0x20093a90                xTransponderHandle
                0x20093a94                xTransponderQueue
                0x20093a98                xDumpHandle
 COMMON         0x20093a9c       0x28 ./src/sub-systemCode/Main/EPS.o
                0x20093a9c                VBatt_previous
                0x20093aa0                switches_states
                0x20093aa1                batteryLastMode
                0x20093aa4                enterMode
 COMMON         0x20093ac4      0xfa0 ./src/sub-systemCode/Main/commands.o
                0x20093ac4                command_to_execute
 COMMON         0x20094a64       0x3a ./src/sub-systemCode/Global/GlobalParam.o
                0x20094a64                current_global_param
 *fill*         0x20094a9e        0x2 00
 COMMON         0x20094aa0        0xc ./src/sub-systemCode/COMM/TRXVU.o
                0x20094aa0                allow_transponder
                0x20094aa4                xBeaconTask
                0x20094aa8                xIsTransmitting
 COMMON         0x20094aac     0x10a8 C:/Hoopoe3/satellite-subsystems/demo/../..//hal/hcc/lib\libHCCD.a(fat_common.o)
                0x20094aac                g_fatmutex
                0x20094ab0                g_multi
                0x20095b50                f_format_progress
 COMMON         0x20095b54      0x100 C:/Hoopoe3/satellite-subsystems/demo/../..//hal/freertos/lib\libFreeRTOSD.a(queue.o)
                0x20095b54                xQueueRegistry
 *(COMMON.*)
                0x20095c54                . = ALIGN (0x4)
                0x20095c54                _ezero = .
                0x20095c54                _sheap_ = .
                0x21700000                _eheap_ = 0x21700000
                0x21fffc00                _sstack = 0x21fffc00
                0x20095c54                end = .
OUTPUT(Hoopoe3.elf elf32-littlearm)

.ARM.attributes
                0x00000000       0x30
 .ARM.attributes
                0x00000000       0x30 c:/isis/application/toolchain/bin/../lib/gcc/arm-none-eabi/4.7.4/../../../../arm-none-eabi/lib\libc_s.a(lib_a-vfprintf_float.o)
 .ARM.attributes
                0x00000030       0x30 c:/isis/application/toolchain/bin/../lib/gcc/arm-none-eabi/4.7.4/../../../../arm-none-eabi/lib\libc_s.a(lib_a-vfprintf_i.o)
 .ARM.attributes
                0x00000060       0x30 c:/isis/application/toolchain/bin/../lib/gcc/arm-none-eabi/4.7.4/../../../../arm-none-eabi/lib\libc_s.a(lib_a-vfscanf_float.o)
 .ARM.attributes
                0x00000090       0x30 c:/isis/application/toolchain/bin/../lib/gcc/arm-none-eabi/4.7.4/../../../../arm-none-eabi/lib\libc_s.a(lib_a-dtoa.o)
 .ARM.attributes
                0x000000c0       0x30 c:/isis/application/toolchain/bin/../lib/gcc/arm-none-eabi/4.7.4/../../../../arm-none-eabi/lib\libc_s.a(lib_a-locale.o)
 .ARM.attributes
                0x000000f0       0x30 c:/isis/application/toolchain/bin/../lib/gcc/arm-none-eabi/4.7.4/../../../../arm-none-eabi/lib\libc_s.a(lib_a-malloc.o)
 .ARM.attributes
                0x00000120       0x30 c:/isis/application/toolchain/bin/../lib/gcc/arm-none-eabi/4.7.4/../../../../arm-none-eabi/lib\libc_s.a(lib_a-mallocr.o)
 .ARM.attributes
                0x00000150       0x30 c:/isis/application/toolchain/bin/../lib/gcc/arm-none-eabi/4.7.4/../../../../arm-none-eabi/lib\libc_s.a(lib_a-memcpy.o)
 .ARM.attributes
                0x00000180       0x30 c:/isis/application/toolchain/bin/../lib/gcc/arm-none-eabi/4.7.4/../../../../arm-none-eabi/lib\libc_s.a(lib_a-mprec.o)
 .ARM.attributes
                0x000001b0       0x30 c:/isis/application/toolchain/bin/../lib/gcc/arm-none-eabi/4.7.4/../../../../arm-none-eabi/lib\libc_s.a(lib_a-s_fpclassify.o)
 .ARM.attributes
                0x000001e0       0x30 c:/isis/application/toolchain/bin/../lib/gcc/arm-none-eabi/4.7.4/../../../../arm-none-eabi/lib\libc_s.a(lib_a-sbrkr.o)
 .ARM.attributes
                0x00000210       0x30 c:/isis/application/toolchain/bin/../lib/gcc/arm-none-eabi/4.7.4/../../../../arm-none-eabi/lib\libc_s.a(lib_a-sf_nan.o)
 .ARM.attributes
                0x00000240       0x30 c:/isis/application/toolchain/bin/../lib/gcc/arm-none-eabi/4.7.4/../../../../arm-none-eabi/lib\libc_s.a(lib_a-sprintf.o)
 .ARM.attributes
                0x00000270       0x30 c:/isis/application/toolchain/bin/../lib/gcc/arm-none-eabi/4.7.4/../../../../arm-none-eabi/lib\libc_s.a(lib_a-strcmp.o)
 .ARM.attributes
                0x000002a0       0x30 c:/isis/application/toolchain/bin/../lib/gcc/arm-none-eabi/4.7.4/../../../../arm-none-eabi/lib\libc_s.a(lib_a-strlen.o)
 .ARM.attributes
                0x000002d0       0x30 c:/isis/application/toolchain/bin/../lib/gcc/arm-none-eabi/4.7.4/../../../../arm-none-eabi/lib\libc_s.a(lib_a-strtod.o)
 .ARM.attributes
                0x00000300       0x30 c:/isis/application/toolchain/bin/../lib/gcc/arm-none-eabi/4.7.4/../../../../arm-none-eabi/lib\libc_s.a(lib_a-strtol.o)
 .ARM.attributes
                0x00000330       0x30 c:/isis/application/toolchain/bin/../lib/gcc/arm-none-eabi/4.7.4/../../../../arm-none-eabi/lib\libc_s.a(lib_a-svfprintf.o)
 .ARM.attributes
                0x00000360       0x30 c:/isis/application/toolchain/bin/../lib/gcc/arm-none-eabi/4.7.4/../../../../arm-none-eabi/lib\libc_s.a(lib_a-callocr.o)
 .ARM.attributes
                0x00000390       0x30 c:/isis/application/toolchain/bin/../lib/gcc/arm-none-eabi/4.7.4/../../../../arm-none-eabi/lib\libc_s.a(lib_a-ctype_.o)
 .ARM.attributes
                0x000003c0       0x30 c:/isis/application/toolchain/bin/../lib/gcc/arm-none-eabi/4.7.4/../../../../arm-none-eabi/lib\libc_s.a(lib_a-freer.o)
 .ARM.attributes
                0x000003f0       0x30 c:/isis/application/toolchain/bin/../lib/gcc/arm-none-eabi/4.7.4/../../../../arm-none-eabi/lib\libc_s.a(lib_a-gdtoa-gethex.o)
 .ARM.attributes
                0x00000420       0x30 c:/isis/application/toolchain/bin/../lib/gcc/arm-none-eabi/4.7.4/../../../../arm-none-eabi/lib\libc_s.a(lib_a-gdtoa-hexnan.o)
 .ARM.attributes
                0x00000450       0x30 c:/isis/application/toolchain/bin/../lib/gcc/arm-none-eabi/4.7.4/../../../../arm-none-eabi/lib\libc_s.a(lib_a-impure.o)
 .ARM.attributes
                0x00000480       0x30 c:/isis/application/toolchain/bin/../lib/gcc/arm-none-eabi/4.7.4/../../../../arm-none-eabi/lib\libc_s.a(lib_a-memchr.o)
 .ARM.attributes
                0x000004b0       0x30 c:/isis/application/toolchain/bin/../lib/gcc/arm-none-eabi/4.7.4/../../../../arm-none-eabi/lib\libc_s.a(lib_a-memset.o)
 .ARM.attributes
                0x000004e0       0x30 c:/isis/application/toolchain/bin/../lib/gcc/arm-none-eabi/4.7.4/../../../../arm-none-eabi/lib\libc_s.a(lib_a-reallocr.o)
 .ARM.attributes
                0x00000510       0x30 c:/isis/application/toolchain/bin/../lib/gcc/arm-none-eabi/4.7.4/../../../../arm-none-eabi/lib\libc_s.a(lib_a-reent.o)
 .ARM.attributes
                0x00000540       0x30 c:/isis/application/toolchain/bin/../lib/gcc/arm-none-eabi/4.7.4/../../../../arm-none-eabi/lib\libc_s.a(lib_a-strncmp.o)
 .ARM.attributes
                0x00000570       0x30 c:/isis/application/toolchain/bin/../lib/gcc/arm-none-eabi/4.7.4/../../../../arm-none-eabi/lib\libc_s.a(lib_a-msizer.o)
 .ARM.attributes
                0x000005a0       0x32 ./src/sub-systemCode/Main/CMD/COMM_CMD.o
 .ARM.attributes
                0x000005d2       0x32 ./src/sub-systemCode/Main/CMD/EPS_CMD.o
 .ARM.attributes
                0x00000604       0x32 ./src/sub-systemCode/Main/CMD/General_CMD.o
 .ARM.attributes
                0x00000636       0x32 ./src/sub-systemCode/Main/CMD/SW_CMD.o
 .ARM.attributes
                0x00000668       0x32 ./src/sub-systemCode/Main/Ants.o
 .ARM.attributes
                0x0000069a       0x32 ./src/sub-systemCode/Main/EPS.o
 .ARM.attributes
                0x000006cc       0x32 ./src/sub-systemCode/Main/HouseKeeping.o
 .ARM.attributes
                0x000006fe       0x32 ./src/sub-systemCode/Main/Main_Init.o
 .ARM.attributes
                0x00000730       0x32 ./src/sub-systemCode/Main/commands.o
 .ARM.attributes
                0x00000762       0x32 ./src/sub-systemCode/Global/Global.o
 .ARM.attributes
                0x00000794       0x32 ./src/sub-systemCode/Global/GlobalParam.o
 .ARM.attributes
                0x000007c6       0x32 ./src/sub-systemCode/Global/TM_managment.o
 .ARM.attributes
                0x000007f8       0x32 ./src/sub-systemCode/COMM/APRS.o
 .ARM.attributes
                0x0000082a       0x32 ./src/sub-systemCode/COMM/DelayedCommand_list.o
 .ARM.attributes
                0x0000085c       0x32 ./src/sub-systemCode/COMM/GSC.o
 .ARM.attributes
                0x0000088e       0x32 ./src/sub-systemCode/COMM/TRXVU.o
 .ARM.attributes
                0x000008c0       0x32 ./src/sub-systemCode/ADCS/ADCS.o
 .ARM.attributes
                0x000008f2       0x32 ./src/sub-systemCode/ADCS/Stage_Table.o
 .ARM.attributes
                0x00000924       0x32 ./src/main.o
 .ARM.attributes
                0x00000956       0x32 C:/Hoopoe3/satellite-subsystems/demo/..//satellite-subsystems/lib\libSatelliteSubsystemsD.a(GomEPS.o)
 .ARM.attributes
                0x00000988       0x32 C:/Hoopoe3/satellite-subsystems/demo/..//satellite-subsystems/lib\libSatelliteSubsystemsD.a(IsisAntS.o)
 .ARM.attributes
                0x000009ba       0x32 C:/Hoopoe3/satellite-subsystems/demo/..//satellite-subsystems/lib\libSatelliteSubsystemsD.a(IsisSolarPanelv2.o)
 .ARM.attributes
                0x000009ec       0x32 C:/Hoopoe3/satellite-subsystems/demo/..//satellite-subsystems/lib\libSatelliteSubsystemsD.a(IsisTRXVU.o)
 .ARM.attributes
                0x00000a1e       0x32 C:/Hoopoe3/satellite-subsystems/demo/..//satellite-subsystems/lib\libSatelliteSubsystemsD.a(cspaceADCS.o)
 .ARM.attributes
                0x00000a50       0x32 C:/Hoopoe3/satellite-subsystems/demo/..//satellite-subsystems/lib\libSatelliteSubsystemsD.a(gecko_driver.o)
 .ARM.attributes
                0x00000a82       0x32 C:/Hoopoe3/satellite-subsystems/demo/..//satellite-subsystems/lib\libSatelliteSubsystemsD.a(IsisTRXCommon.o)
 .ARM.attributes
                0x00000ab4       0x30 c:/isis/application/toolchain/bin/../lib/gcc/arm-none-eabi/4.7.4/../../../../arm-none-eabi/lib\libm.a(lib_a-w_log.o)
 .ARM.attributes
                0x00000ae4       0x30 c:/isis/application/toolchain/bin/../lib/gcc/arm-none-eabi/4.7.4/../../../../arm-none-eabi/lib\libm.a(lib_a-e_log.o)
 .ARM.attributes
                0x00000b14       0x30 c:/isis/application/toolchain/bin/../lib/gcc/arm-none-eabi/4.7.4/../../../../arm-none-eabi/lib\libm.a(lib_a-s_lib_ver.o)
 .ARM.attributes
                0x00000b44       0x30 c:/isis/application/toolchain/bin/../lib/gcc/arm-none-eabi/4.7.4/../../../../arm-none-eabi/lib\libm.a(lib_a-s_matherr.o)
 .ARM.attributes
                0x00000b74       0x30 c:/isis/application/toolchain/bin/../lib/gcc/arm-none-eabi/4.7.4/../../../../arm-none-eabi/lib\libm.a(lib_a-s_nan.o)
 .ARM.attributes
                0x00000ba4       0x32 C:/Hoopoe3/satellite-subsystems/demo/../..//hal/hcc/lib\libHCCD.a(fat_common.o)
 .ARM.attributes
                0x00000bd6       0x32 C:/Hoopoe3/satellite-subsystems/demo/../..//hal/hcc/lib\libHCCD.a(fat_m.o)
 .ARM.attributes
                0x00000c08       0x32 C:/Hoopoe3/satellite-subsystems/demo/../..//hal/hcc/lib\libHCCD.a(safefat.o)
 .ARM.attributes
                0x00000c3a       0x32 C:/Hoopoe3/satellite-subsystems/demo/../..//hal/hcc/lib\libHCCD.a(atmel_mcipdc.o)
 .ARM.attributes
                0x00000c6c       0x32 C:/Hoopoe3/satellite-subsystems/demo/../..//hal/hcc/lib\libHCCD.a(oalp_mutex.o)
 .ARM.attributes
                0x00000c9e       0x32 C:/Hoopoe3/satellite-subsystems/demo/../..//hal/hcc/lib\libHCCD.a(oalp_task.o)
 .ARM.attributes
                0x00000cd0       0x32 C:/Hoopoe3/satellite-subsystems/demo/../..//hal/hcc/lib\libHCCD.a(atmel_mcipdc_hw.o)
 .ARM.attributes
                0x00000d02       0x32 C:/Hoopoe3/satellite-subsystems/demo/../..//hal/hcc/lib\libHCCD.a(psp_rtc.o)
 .ARM.attributes
                0x00000d34       0x32 C:/Hoopoe3/satellite-subsystems/demo/../..//hal/hcc/lib\libHCCD.a(hcc_mem.o)
 .ARM.attributes
                0x00000d66       0x32 C:/Hoopoe3/satellite-subsystems/demo/../..//hal/hcc/lib\libHCCD.a(fat.o)
 .ARM.attributes
                0x00000d98       0x32 C:/Hoopoe3/satellite-subsystems/demo/../..//hal/hcc/lib\libHCCD.a(psp_hcc_mem.o)
 .ARM.attributes
                0x00000dca       0x32 C:/Hoopoe3/satellite-subsystems/demo/../..//hal/hal/lib\libHALD.a(I2C.o)
 .ARM.attributes
                0x00000dfc       0x32 C:/Hoopoe3/satellite-subsystems/demo/../..//hal/hal/lib\libHALD.a(SPI.o)
 .ARM.attributes
                0x00000e2e       0x32 C:/Hoopoe3/satellite-subsystems/demo/../..//hal/hal/lib\libHALD.a(FRAM.o)
 .ARM.attributes
                0x00000e60       0x32 C:/Hoopoe3/satellite-subsystems/demo/../..//hal/hal/lib\libHALD.a(Time.o)
 .ARM.attributes
                0x00000e92       0x32 C:/Hoopoe3/satellite-subsystems/demo/../..//hal/hal/lib\libHALD.a(WatchDogTimerNoOS.o)
 .ARM.attributes
                0x00000ec4       0x32 C:/Hoopoe3/satellite-subsystems/demo/../..//hal/hal/lib\libHALD.a(WatchDogTimerOS.o)
 .ARM.attributes
                0x00000ef6       0x32 C:/Hoopoe3/satellite-subsystems/demo/../..//hal/hal/lib\libHALD.a(util.o)
 .ARM.attributes
                0x00000f28       0x32 C:/Hoopoe3/satellite-subsystems/demo/../..//hal/hal/lib\libHALD.a(LED.o)
 .ARM.attributes
                0x00000f5a       0x32 C:/Hoopoe3/satellite-subsystems/demo/../..//hal/hal/lib\libHALD.a(RTC.o)
 .ARM.attributes
                0x00000f8c       0x32 C:/Hoopoe3/satellite-subsystems/demo/../..//hal/hal/lib\libHALD.a(RTT.o)
 .ARM.attributes
                0x00000fbe       0x32 C:/Hoopoe3/satellite-subsystems/demo/../..//hal/freertos/lib\libFreeRTOSD.a(queue.o)
 .ARM.attributes
                0x00000ff0       0x32 C:/Hoopoe3/satellite-subsystems/demo/../..//hal/freertos/lib\libFreeRTOSD.a(tasks.o)
 .ARM.attributes
                0x00001022       0x32 C:/Hoopoe3/satellite-subsystems/demo/../..//hal/freertos/lib\libFreeRTOSD.a(hooks.o)
 .ARM.attributes
                0x00001054       0x32 C:/Hoopoe3/satellite-subsystems/demo/../..//hal/freertos/lib\libFreeRTOSD.a(standardMemMang.o)
 .ARM.attributes
                0x00001086       0x32 C:/Hoopoe3/satellite-subsystems/demo/../..//hal/freertos/lib\libFreeRTOSD.a(port.o)
 .ARM.attributes
                0x000010b8       0x32 C:/Hoopoe3/satellite-subsystems/demo/../..//hal/freertos/lib\libFreeRTOSD.a(list.o)
 .ARM.attributes
                0x000010ea       0x32 C:/Hoopoe3/satellite-subsystems/demo/../..//hal/at91/lib\libAt91D.a(syscalls.o)
 .ARM.attributes
                0x0000111c       0x32 C:/Hoopoe3/satellite-subsystems/demo/../..//hal/at91/lib\libAt91D.a(aic.o)
 .ARM.attributes
                0x0000114e       0x32 C:/Hoopoe3/satellite-subsystems/demo/../..//hal/at91/lib\libAt91D.a(cp15.o)
 .ARM.attributes
                0x00001180       0x32 C:/Hoopoe3/satellite-subsystems/demo/../..//hal/at91/lib\libAt91D.a(dbgu.o)
 .ARM.attributes
                0x000011b2       0x32 C:/Hoopoe3/satellite-subsystems/demo/../..//hal/at91/lib\libAt91D.a(pio.o)
 .ARM.attributes
                0x000011e4       0x32 C:/Hoopoe3/satellite-subsystems/demo/../..//hal/at91/lib\libAt91D.a(pit.o)
 .ARM.attributes
                0x00001216       0x32 C:/Hoopoe3/satellite-subsystems/demo/../..//hal/at91/lib\libAt91D.a(pmc.o)
 .ARM.attributes
                0x00001248       0x32 C:/Hoopoe3/satellite-subsystems/demo/../..//hal/at91/lib\libAt91D.a(spi_at91.o)
 .ARM.attributes
                0x0000127a       0x32 C:/Hoopoe3/satellite-subsystems/demo/../..//hal/at91/lib\libAt91D.a(twi_at91.o)
 .ARM.attributes
                0x000012ac       0x32 C:/Hoopoe3/satellite-subsystems/demo/../..//hal/at91/lib\libAt91D.a(ExitHandler.o)
 .ARM.attributes
                0x000012de       0x22 C:/Hoopoe3/satellite-subsystems/demo/../..//hal/at91/lib\libAt91D.a(board_cstartup.o)
 .ARM.attributes
                0x00001300       0x22 C:/Hoopoe3/satellite-subsystems/demo/../..//hal/at91/lib\libAt91D.a(cp15_asm.o)
 .ARM.attributes
                0x00001322       0x32 C:/Hoopoe3/satellite-subsystems/demo/../..//hal/at91/lib\libAt91D.a(board_lowlevel.o)
 .ARM.attributes
                0x00001354       0x32 C:/Hoopoe3/satellite-subsystems/demo/../..//hal/at91/lib\libAt91D.a(board_memories.o)
 .ARM.attributes
                0x00001386       0x18 c:/isis/application/toolchain/bin/../lib/gcc/arm-none-eabi/4.7.4\libgcc.a(_udivsi3.o)
 .ARM.attributes
                0x0000139e       0x18 c:/isis/application/toolchain/bin/../lib/gcc/arm-none-eabi/4.7.4\libgcc.a(_divsi3.o)
 .ARM.attributes
                0x000013b6       0x18 c:/isis/application/toolchain/bin/../lib/gcc/arm-none-eabi/4.7.4\libgcc.a(_dvmd_tls.o)
 .ARM.attributes
                0x000013ce       0x18 c:/isis/application/toolchain/bin/../lib/gcc/arm-none-eabi/4.7.4\libgcc.a(_arm_addsubdf3.o)
 .ARM.attributes
                0x000013e6       0x18 c:/isis/application/toolchain/bin/../lib/gcc/arm-none-eabi/4.7.4\libgcc.a(_arm_muldivdf3.o)
 .ARM.attributes
                0x000013fe       0x18 c:/isis/application/toolchain/bin/../lib/gcc/arm-none-eabi/4.7.4\libgcc.a(_arm_cmpdf2.o)
 .ARM.attributes
                0x00001416       0x18 c:/isis/application/toolchain/bin/../lib/gcc/arm-none-eabi/4.7.4\libgcc.a(_arm_fixdfsi.o)
 .ARM.attributes
                0x0000142e       0x18 c:/isis/application/toolchain/bin/../lib/gcc/arm-none-eabi/4.7.4\libgcc.a(_arm_fixunsdfsi.o)
 .ARM.attributes
                0x00001446       0x18 c:/isis/application/toolchain/bin/../lib/gcc/arm-none-eabi/4.7.4\libgcc.a(_arm_truncdfsf2.o)
 .ARM.attributes
                0x0000145e       0x18 c:/isis/application/toolchain/bin/../lib/gcc/arm-none-eabi/4.7.4\libgcc.a(_arm_addsubsf3.o)
 .ARM.attributes
                0x00001476       0x18 c:/isis/application/toolchain/bin/../lib/gcc/arm-none-eabi/4.7.4\libgcc.a(_arm_muldivsf3.o)
 .ARM.attributes
                0x0000148e       0x18 c:/isis/application/toolchain/bin/../lib/gcc/arm-none-eabi/4.7.4\libgcc.a(_arm_fixunssfsi.o)
 .ARM.attributes
                0x000014a6       0x30 c:/isis/application/toolchain/bin/../lib/gcc/arm-none-eabi/4.7.4/../../../../arm-none-eabi/lib\libc_s.a(lib_a-errno.o)
 .ARM.attributes
                0x000014d6       0x30 c:/isis/application/toolchain/bin/../lib/gcc/arm-none-eabi/4.7.4/../../../../arm-none-eabi/lib\libc_s.a(lib_a-memcmp.o)
 .ARM.attributes
                0x00001506       0x30 c:/isis/application/toolchain/bin/../lib/gcc/arm-none-eabi/4.7.4/../../../../arm-none-eabi/lib\libc_s.a(lib_a-printf.o)
 .ARM.attributes
                0x00001536       0x30 c:/isis/application/toolchain/bin/../lib/gcc/arm-none-eabi/4.7.4/../../../../arm-none-eabi/lib\libc_s.a(lib_a-puts.o)
 .ARM.attributes
                0x00001566       0x30 c:/isis/application/toolchain/bin/../lib/gcc/arm-none-eabi/4.7.4/../../../../arm-none-eabi/lib\libc_s.a(lib_a-strcpy.o)
 .ARM.attributes
                0x00001596       0x30 c:/isis/application/toolchain/bin/../lib/gcc/arm-none-eabi/4.7.4/../../../../arm-none-eabi/lib\libc_s.a(lib_a-vfprintf.o)
 .ARM.attributes
                0x000015c6       0x30 c:/isis/application/toolchain/bin/../lib/gcc/arm-none-eabi/4.7.4/../../../../arm-none-eabi/lib\libc_s.a(lib_a-wbuf.o)
 .ARM.attributes
                0x000015f6       0x30 c:/isis/application/toolchain/bin/../lib/gcc/arm-none-eabi/4.7.4/../../../../arm-none-eabi/lib\libc_s.a(lib_a-wsetup.o)
 .ARM.attributes
                0x00001626       0x30 c:/isis/application/toolchain/bin/../lib/gcc/arm-none-eabi/4.7.4/../../../../arm-none-eabi/lib\libc_s.a(lib_a-fflush.o)
 .ARM.attributes
                0x00001656       0x30 c:/isis/application/toolchain/bin/../lib/gcc/arm-none-eabi/4.7.4/../../../../arm-none-eabi/lib\libc_s.a(lib_a-findfp.o)
 .ARM.attributes
                0x00001686       0x30 c:/isis/application/toolchain/bin/../lib/gcc/arm-none-eabi/4.7.4/../../../../arm-none-eabi/lib\libc_s.a(lib_a-makebuf.o)
 .ARM.attributes
                0x000016b6       0x30 c:/isis/application/toolchain/bin/../lib/gcc/arm-none-eabi/4.7.4/../../../../arm-none-eabi/lib\libc_s.a(lib_a-putc.o)
 .ARM.attributes
                0x000016e6       0x30 c:/isis/application/toolchain/bin/../lib/gcc/arm-none-eabi/4.7.4/../../../../arm-none-eabi/lib\libc_s.a(lib_a-stdio.o)
 .ARM.attributes
                0x00001716       0x30 c:/isis/application/toolchain/bin/../lib/gcc/arm-none-eabi/4.7.4/../../../../arm-none-eabi/lib\libc_s.a(lib_a-writer.o)
 .ARM.attributes
                0x00001746       0x30 c:/isis/application/toolchain/bin/../lib/gcc/arm-none-eabi/4.7.4/../../../../arm-none-eabi/lib\libc_s.a(lib_a-closer.o)
 .ARM.attributes
                0x00001776       0x30 c:/isis/application/toolchain/bin/../lib/gcc/arm-none-eabi/4.7.4/../../../../arm-none-eabi/lib\libc_s.a(lib_a-fstatr.o)
 .ARM.attributes
                0x000017a6       0x30 c:/isis/application/toolchain/bin/../lib/gcc/arm-none-eabi/4.7.4/../../../../arm-none-eabi/lib\libc_s.a(lib_a-isattyr.o)
 .ARM.attributes
                0x000017d6       0x30 c:/isis/application/toolchain/bin/../lib/gcc/arm-none-eabi/4.7.4/../../../../arm-none-eabi/lib\libc_s.a(lib_a-lseekr.o)
 .ARM.attributes
                0x00001806       0x30 c:/isis/application/toolchain/bin/../lib/gcc/arm-none-eabi/4.7.4/../../../../arm-none-eabi/lib\libc_s.a(lib_a-readr.o)

.comment        0x00000000       0x70
 .comment       0x00000000       0x70 ./src/sub-systemCode/Main/CMD/COMM_CMD.o
                                 0x71 (size before relaxing)
 .comment       0x00000000       0x71 ./src/sub-systemCode/Main/CMD/EPS_CMD.o
 .comment       0x00000000       0x71 ./src/sub-systemCode/Main/CMD/General_CMD.o
 .comment       0x00000000       0x71 ./src/sub-systemCode/Main/CMD/SW_CMD.o
 .comment       0x00000000       0x71 ./src/sub-systemCode/Main/Ants.o
 .comment       0x00000000       0x71 ./src/sub-systemCode/Main/EPS.o
 .comment       0x00000000       0x71 ./src/sub-systemCode/Main/HouseKeeping.o
 .comment       0x00000000       0x71 ./src/sub-systemCode/Main/Main_Init.o
 .comment       0x00000000       0x71 ./src/sub-systemCode/Main/commands.o
 .comment       0x00000000       0x71 ./src/sub-systemCode/Global/Global.o
 .comment       0x00000000       0x71 ./src/sub-systemCode/Global/GlobalParam.o
 .comment       0x00000000       0x71 ./src/sub-systemCode/Global/TM_managment.o
 .comment       0x00000000       0x71 ./src/sub-systemCode/COMM/APRS.o
 .comment       0x00000000       0x71 ./src/sub-systemCode/COMM/DelayedCommand_list.o
 .comment       0x00000000       0x71 ./src/sub-systemCode/COMM/GSC.o
 .comment       0x00000000       0x71 ./src/sub-systemCode/COMM/TRXVU.o
 .comment       0x00000000       0x71 ./src/sub-systemCode/ADCS/ADCS.o
 .comment       0x00000000       0x71 ./src/sub-systemCode/ADCS/Stage_Table.o
 .comment       0x00000000       0x71 ./src/main.o
 .comment       0x00000000       0x71 C:/Hoopoe3/satellite-subsystems/demo/..//satellite-subsystems/lib\libSatelliteSubsystemsD.a(GomEPS.o)
 .comment       0x00000000       0x71 C:/Hoopoe3/satellite-subsystems/demo/..//satellite-subsystems/lib\libSatelliteSubsystemsD.a(IsisAntS.o)
 .comment       0x00000000       0x71 C:/Hoopoe3/satellite-subsystems/demo/..//satellite-subsystems/lib\libSatelliteSubsystemsD.a(IsisSolarPanelv2.o)
 .comment       0x00000000       0x71 C:/Hoopoe3/satellite-subsystems/demo/..//satellite-subsystems/lib\libSatelliteSubsystemsD.a(IsisTRXVU.o)
 .comment       0x00000000       0x71 C:/Hoopoe3/satellite-subsystems/demo/..//satellite-subsystems/lib\libSatelliteSubsystemsD.a(cspaceADCS.o)
 .comment       0x00000000       0x71 C:/Hoopoe3/satellite-subsystems/demo/..//satellite-subsystems/lib\libSatelliteSubsystemsD.a(gecko_driver.o)
 .comment       0x00000000       0x71 C:/Hoopoe3/satellite-subsystems/demo/..//satellite-subsystems/lib\libSatelliteSubsystemsD.a(IsisTRXCommon.o)
 .comment       0x00000000       0x71 C:/Hoopoe3/satellite-subsystems/demo/../..//hal/hcc/lib\libHCCD.a(fat_common.o)
 .comment       0x00000000       0x71 C:/Hoopoe3/satellite-subsystems/demo/../..//hal/hcc/lib\libHCCD.a(fat_m.o)
 .comment       0x00000000       0x71 C:/Hoopoe3/satellite-subsystems/demo/../..//hal/hcc/lib\libHCCD.a(safefat.o)
 .comment       0x00000000       0x71 C:/Hoopoe3/satellite-subsystems/demo/../..//hal/hcc/lib\libHCCD.a(atmel_mcipdc.o)
 .comment       0x00000000       0x71 C:/Hoopoe3/satellite-subsystems/demo/../..//hal/hcc/lib\libHCCD.a(oalp_mutex.o)
 .comment       0x00000000       0x71 C:/Hoopoe3/satellite-subsystems/demo/../..//hal/hcc/lib\libHCCD.a(oalp_task.o)
 .comment       0x00000000       0x71 C:/Hoopoe3/satellite-subsystems/demo/../..//hal/hcc/lib\libHCCD.a(atmel_mcipdc_hw.o)
 .comment       0x00000000       0x71 C:/Hoopoe3/satellite-subsystems/demo/../..//hal/hcc/lib\libHCCD.a(psp_rtc.o)
 .comment       0x00000000       0x71 C:/Hoopoe3/satellite-subsystems/demo/../..//hal/hcc/lib\libHCCD.a(hcc_mem.o)
 .comment       0x00000000       0x71 C:/Hoopoe3/satellite-subsystems/demo/../..//hal/hcc/lib\libHCCD.a(fat.o)
 .comment       0x00000000       0x71 C:/Hoopoe3/satellite-subsystems/demo/../..//hal/hcc/lib\libHCCD.a(psp_hcc_mem.o)
 .comment       0x00000000       0x71 C:/Hoopoe3/satellite-subsystems/demo/../..//hal/hal/lib\libHALD.a(I2C.o)
 .comment       0x00000000       0x71 C:/Hoopoe3/satellite-subsystems/demo/../..//hal/hal/lib\libHALD.a(SPI.o)
 .comment       0x00000000       0x71 C:/Hoopoe3/satellite-subsystems/demo/../..//hal/hal/lib\libHALD.a(FRAM.o)
 .comment       0x00000000       0x71 C:/Hoopoe3/satellite-subsystems/demo/../..//hal/hal/lib\libHALD.a(Time.o)
 .comment       0x00000000       0x71 C:/Hoopoe3/satellite-subsystems/demo/../..//hal/hal/lib\libHALD.a(WatchDogTimerNoOS.o)
 .comment       0x00000000       0x71 C:/Hoopoe3/satellite-subsystems/demo/../..//hal/hal/lib\libHALD.a(WatchDogTimerOS.o)
 .comment       0x00000000       0x71 C:/Hoopoe3/satellite-subsystems/demo/../..//hal/hal/lib\libHALD.a(util.o)
 .comment       0x00000000       0x71 C:/Hoopoe3/satellite-subsystems/demo/../..//hal/hal/lib\libHALD.a(LED.o)
 .comment       0x00000000       0x71 C:/Hoopoe3/satellite-subsystems/demo/../..//hal/hal/lib\libHALD.a(RTC.o)
 .comment       0x00000000       0x71 C:/Hoopoe3/satellite-subsystems/demo/../..//hal/hal/lib\libHALD.a(RTT.o)
 .comment       0x00000000       0x71 C:/Hoopoe3/satellite-subsystems/demo/../..//hal/freertos/lib\libFreeRTOSD.a(queue.o)
 .comment       0x00000000       0x71 C:/Hoopoe3/satellite-subsystems/demo/../..//hal/freertos/lib\libFreeRTOSD.a(tasks.o)
 .comment       0x00000000       0x71 C:/Hoopoe3/satellite-subsystems/demo/../..//hal/freertos/lib\libFreeRTOSD.a(hooks.o)
 .comment       0x00000000       0x71 C:/Hoopoe3/satellite-subsystems/demo/../..//hal/freertos/lib\libFreeRTOSD.a(standardMemMang.o)
 .comment       0x00000000       0x71 C:/Hoopoe3/satellite-subsystems/demo/../..//hal/freertos/lib\libFreeRTOSD.a(port.o)
 .comment       0x00000000       0x71 C:/Hoopoe3/satellite-subsystems/demo/../..//hal/freertos/lib\libFreeRTOSD.a(list.o)
 .comment       0x00000000       0x71 C:/Hoopoe3/satellite-subsystems/demo/../..//hal/at91/lib\libAt91D.a(syscalls.o)
 .comment       0x00000000       0x71 C:/Hoopoe3/satellite-subsystems/demo/../..//hal/at91/lib\libAt91D.a(aic.o)
 .comment       0x00000000       0x71 C:/Hoopoe3/satellite-subsystems/demo/../..//hal/at91/lib\libAt91D.a(cp15.o)
 .comment       0x00000000       0x71 C:/Hoopoe3/satellite-subsystems/demo/../..//hal/at91/lib\libAt91D.a(dbgu.o)
 .comment       0x00000000       0x71 C:/Hoopoe3/satellite-subsystems/demo/../..//hal/at91/lib\libAt91D.a(pio.o)
 .comment       0x00000000       0x71 C:/Hoopoe3/satellite-subsystems/demo/../..//hal/at91/lib\libAt91D.a(pit.o)
 .comment       0x00000000       0x71 C:/Hoopoe3/satellite-subsystems/demo/../..//hal/at91/lib\libAt91D.a(pmc.o)
 .comment       0x00000000       0x71 C:/Hoopoe3/satellite-subsystems/demo/../..//hal/at91/lib\libAt91D.a(spi_at91.o)
 .comment       0x00000000       0x71 C:/Hoopoe3/satellite-subsystems/demo/../..//hal/at91/lib\libAt91D.a(twi_at91.o)
 .comment       0x00000000       0x71 C:/Hoopoe3/satellite-subsystems/demo/../..//hal/at91/lib\libAt91D.a(ExitHandler.o)
 .comment       0x00000000       0x71 C:/Hoopoe3/satellite-subsystems/demo/../..//hal/at91/lib\libAt91D.a(board_lowlevel.o)
 .comment       0x00000000       0x71 C:/Hoopoe3/satellite-subsystems/demo/../..//hal/at91/lib\libAt91D.a(board_memories.o)

.debug_frame    0x00000000     0x8c30
 .debug_frame   0x00000000       0x80 c:/isis/application/toolchain/bin/../lib/gcc/arm-none-eabi/4.7.4/../../../../arm-none-eabi/lib\libc_s.a(lib_a-vfprintf_float.o)
 .debug_frame   0x00000080       0x5c c:/isis/application/toolchain/bin/../lib/gcc/arm-none-eabi/4.7.4/../../../../arm-none-eabi/lib\libc_s.a(lib_a-vfprintf_i.o)
 .debug_frame   0x000000dc       0x38 c:/isis/application/toolchain/bin/../lib/gcc/arm-none-eabi/4.7.4/../../../../arm-none-eabi/lib\libc_s.a(lib_a-vfscanf_float.o)
 .debug_frame   0x00000114       0x64 c:/isis/application/toolchain/bin/../lib/gcc/arm-none-eabi/4.7.4/../../../../arm-none-eabi/lib\libc_s.a(lib_a-dtoa.o)
 .debug_frame   0x00000178       0x98 c:/isis/application/toolchain/bin/../lib/gcc/arm-none-eabi/4.7.4/../../../../arm-none-eabi/lib\libc_s.a(lib_a-locale.o)
 .debug_frame   0x00000210       0x40 c:/isis/application/toolchain/bin/../lib/gcc/arm-none-eabi/4.7.4/../../../../arm-none-eabi/lib\libc_s.a(lib_a-malloc.o)
 .debug_frame   0x00000250       0x2c c:/isis/application/toolchain/bin/../lib/gcc/arm-none-eabi/4.7.4/../../../../arm-none-eabi/lib\libc_s.a(lib_a-mallocr.o)
 .debug_frame   0x0000027c       0x20 c:/isis/application/toolchain/bin/../lib/gcc/arm-none-eabi/4.7.4/../../../../arm-none-eabi/lib\libc_s.a(lib_a-memcpy.o)
 .debug_frame   0x0000029c      0x22c c:/isis/application/toolchain/bin/../lib/gcc/arm-none-eabi/4.7.4/../../../../arm-none-eabi/lib\libc_s.a(lib_a-mprec.o)
 .debug_frame   0x000004c8       0x20 c:/isis/application/toolchain/bin/../lib/gcc/arm-none-eabi/4.7.4/../../../../arm-none-eabi/lib\libc_s.a(lib_a-s_fpclassify.o)
 .debug_frame   0x000004e8       0x2c c:/isis/application/toolchain/bin/../lib/gcc/arm-none-eabi/4.7.4/../../../../arm-none-eabi/lib\libc_s.a(lib_a-sbrkr.o)
 .debug_frame   0x00000514       0x20 c:/isis/application/toolchain/bin/../lib/gcc/arm-none-eabi/4.7.4/../../../../arm-none-eabi/lib\libc_s.a(lib_a-sf_nan.o)
 .debug_frame   0x00000534       0x54 c:/isis/application/toolchain/bin/../lib/gcc/arm-none-eabi/4.7.4/../../../../arm-none-eabi/lib\libc_s.a(lib_a-sprintf.o)
 .debug_frame   0x00000588       0x20 c:/isis/application/toolchain/bin/../lib/gcc/arm-none-eabi/4.7.4/../../../../arm-none-eabi/lib\libc_s.a(lib_a-strcmp.o)
 .debug_frame   0x000005a8       0x20 c:/isis/application/toolchain/bin/../lib/gcc/arm-none-eabi/4.7.4/../../../../arm-none-eabi/lib\libc_s.a(lib_a-strlen.o)
 .debug_frame   0x000005c8       0x80 c:/isis/application/toolchain/bin/../lib/gcc/arm-none-eabi/4.7.4/../../../../arm-none-eabi/lib\libc_s.a(lib_a-strtod.o)
 .debug_frame   0x00000648       0x54 c:/isis/application/toolchain/bin/../lib/gcc/arm-none-eabi/4.7.4/../../../../arm-none-eabi/lib\libc_s.a(lib_a-strtol.o)
 .debug_frame   0x0000069c       0x88 c:/isis/application/toolchain/bin/../lib/gcc/arm-none-eabi/4.7.4/../../../../arm-none-eabi/lib\libc_s.a(lib_a-svfprintf.o)
 .debug_frame   0x00000724       0x2c c:/isis/application/toolchain/bin/../lib/gcc/arm-none-eabi/4.7.4/../../../../arm-none-eabi/lib\libc_s.a(lib_a-callocr.o)
 .debug_frame   0x00000750       0x28 c:/isis/application/toolchain/bin/../lib/gcc/arm-none-eabi/4.7.4/../../../../arm-none-eabi/lib\libc_s.a(lib_a-freer.o)
 .debug_frame   0x00000778       0x84 c:/isis/application/toolchain/bin/../lib/gcc/arm-none-eabi/4.7.4/../../../../arm-none-eabi/lib\libc_s.a(lib_a-gdtoa-gethex.o)
 .debug_frame   0x000007fc       0x54 c:/isis/application/toolchain/bin/../lib/gcc/arm-none-eabi/4.7.4/../../../../arm-none-eabi/lib\libc_s.a(lib_a-gdtoa-hexnan.o)
 .debug_frame   0x00000850       0x20 c:/isis/application/toolchain/bin/../lib/gcc/arm-none-eabi/4.7.4/../../../../arm-none-eabi/lib\libc_s.a(lib_a-memchr.o)
 .debug_frame   0x00000870       0x20 c:/isis/application/toolchain/bin/../lib/gcc/arm-none-eabi/4.7.4/../../../../arm-none-eabi/lib\libc_s.a(lib_a-memset.o)
 .debug_frame   0x00000890       0x30 c:/isis/application/toolchain/bin/../lib/gcc/arm-none-eabi/4.7.4/../../../../arm-none-eabi/lib\libc_s.a(lib_a-reallocr.o)
 .debug_frame   0x000008c0       0x64 c:/isis/application/toolchain/bin/../lib/gcc/arm-none-eabi/4.7.4/../../../../arm-none-eabi/lib\libc_s.a(lib_a-reent.o)
 .debug_frame   0x00000924       0x28 c:/isis/application/toolchain/bin/../lib/gcc/arm-none-eabi/4.7.4/../../../../arm-none-eabi/lib\libc_s.a(lib_a-strncmp.o)
 .debug_frame   0x0000094c       0x20 c:/isis/application/toolchain/bin/../lib/gcc/arm-none-eabi/4.7.4/../../../../arm-none-eabi/lib\libc_s.a(lib_a-msizer.o)
 .debug_frame   0x0000096c      0x118 ./src/sub-systemCode/Main/CMD/COMM_CMD.o
 .debug_frame   0x00000a84       0xf0 ./src/sub-systemCode/Main/CMD/EPS_CMD.o
 .debug_frame   0x00000b74      0x17c ./src/sub-systemCode/Main/CMD/General_CMD.o
 .debug_frame   0x00000cf0       0x68 ./src/sub-systemCode/Main/CMD/SW_CMD.o
 .debug_frame   0x00000d58       0xb8 ./src/sub-systemCode/Main/Ants.o
 .debug_frame   0x00000e10      0x264 ./src/sub-systemCode/Main/EPS.o
 .debug_frame   0x00001074      0x378 ./src/sub-systemCode/Main/HouseKeeping.o
 .debug_frame   0x000013ec      0x128 ./src/sub-systemCode/Main/Main_Init.o
 .debug_frame   0x00001514      0x214 ./src/sub-systemCode/Main/commands.o
 .debug_frame   0x00001728      0x194 ./src/sub-systemCode/Global/Global.o
 .debug_frame   0x000018bc      0x4c4 ./src/sub-systemCode/Global/GlobalParam.o
 .debug_frame   0x00001d80      0x1d0 ./src/sub-systemCode/Global/TM_managment.o
 .debug_frame   0x00001f50       0x84 ./src/sub-systemCode/COMM/APRS.o
 .debug_frame   0x00001fd4      0x10c ./src/sub-systemCode/COMM/DelayedCommand_list.o
 .debug_frame   0x000020e0       0xc4 ./src/sub-systemCode/COMM/GSC.o
 .debug_frame   0x000021a4      0x2d4 ./src/sub-systemCode/COMM/TRXVU.o
 .debug_frame   0x00002478       0x2c ./src/sub-systemCode/ADCS/ADCS.o
 .debug_frame   0x000024a4      0x390 ./src/sub-systemCode/ADCS/Stage_Table.o
 .debug_frame   0x00002834       0x80 ./src/main.o
 .debug_frame   0x000028b4      0x2b4 C:/Hoopoe3/satellite-subsystems/demo/..//satellite-subsystems/lib\libSatelliteSubsystemsD.a(GomEPS.o)
 .debug_frame   0x00002b68      0x198 C:/Hoopoe3/satellite-subsystems/demo/..//satellite-subsystems/lib\libSatelliteSubsystemsD.a(IsisAntS.o)
 .debug_frame   0x00002d00      0x1c4 C:/Hoopoe3/satellite-subsystems/demo/..//satellite-subsystems/lib\libSatelliteSubsystemsD.a(IsisSolarPanelv2.o)
 .debug_frame   0x00002ec4      0x30c C:/Hoopoe3/satellite-subsystems/demo/..//satellite-subsystems/lib\libSatelliteSubsystemsD.a(IsisTRXVU.o)
 .debug_frame   0x000031d0      0x848 C:/Hoopoe3/satellite-subsystems/demo/..//satellite-subsystems/lib\libSatelliteSubsystemsD.a(cspaceADCS.o)
 .debug_frame   0x00003a18      0x830 C:/Hoopoe3/satellite-subsystems/demo/..//satellite-subsystems/lib\libSatelliteSubsystemsD.a(gecko_driver.o)
 .debug_frame   0x00004248      0x1b4 C:/Hoopoe3/satellite-subsystems/demo/..//satellite-subsystems/lib\libSatelliteSubsystemsD.a(IsisTRXCommon.o)
 .debug_frame   0x000043fc       0x34 c:/isis/application/toolchain/bin/../lib/gcc/arm-none-eabi/4.7.4/../../../../arm-none-eabi/lib\libm.a(lib_a-w_log.o)
 .debug_frame   0x00004430       0x38 c:/isis/application/toolchain/bin/../lib/gcc/arm-none-eabi/4.7.4/../../../../arm-none-eabi/lib\libm.a(lib_a-e_log.o)
 .debug_frame   0x00004468       0x20 c:/isis/application/toolchain/bin/../lib/gcc/arm-none-eabi/4.7.4/../../../../arm-none-eabi/lib\libm.a(lib_a-s_matherr.o)
 .debug_frame   0x00004488       0x20 c:/isis/application/toolchain/bin/../lib/gcc/arm-none-eabi/4.7.4/../../../../arm-none-eabi/lib\libm.a(lib_a-s_nan.o)
 .debug_frame   0x000044a8      0xc40 C:/Hoopoe3/satellite-subsystems/demo/../..//hal/hcc/lib\libHCCD.a(fat_common.o)
 .debug_frame   0x000050e8      0x614 C:/Hoopoe3/satellite-subsystems/demo/../..//hal/hcc/lib\libHCCD.a(fat_m.o)
 .debug_frame   0x000056fc      0x638 C:/Hoopoe3/satellite-subsystems/demo/../..//hal/hcc/lib\libHCCD.a(safefat.o)
 .debug_frame   0x00005d34      0x1c4 C:/Hoopoe3/satellite-subsystems/demo/../..//hal/hcc/lib\libHCCD.a(atmel_mcipdc.o)
 .debug_frame   0x00005ef8       0x80 C:/Hoopoe3/satellite-subsystems/demo/../..//hal/hcc/lib\libHCCD.a(oalp_mutex.o)
 .debug_frame   0x00005f78       0x2c C:/Hoopoe3/satellite-subsystems/demo/../..//hal/hcc/lib\libHCCD.a(oalp_task.o)
 .debug_frame   0x00005fa4       0x80 C:/Hoopoe3/satellite-subsystems/demo/../..//hal/hcc/lib\libHCCD.a(atmel_mcipdc_hw.o)
 .debug_frame   0x00006024       0x2c C:/Hoopoe3/satellite-subsystems/demo/../..//hal/hcc/lib\libHCCD.a(psp_rtc.o)
 .debug_frame   0x00006050      0x228 C:/Hoopoe3/satellite-subsystems/demo/../..//hal/hcc/lib\libHCCD.a(hcc_mem.o)
 .debug_frame   0x00006278      0x47c C:/Hoopoe3/satellite-subsystems/demo/../..//hal/hcc/lib\libHCCD.a(fat.o)
 .debug_frame   0x000066f4       0x40 C:/Hoopoe3/satellite-subsystems/demo/../..//hal/hcc/lib\libHCCD.a(psp_hcc_mem.o)
 .debug_frame   0x00006734      0x264 C:/Hoopoe3/satellite-subsystems/demo/../..//hal/hal/lib\libHALD.a(I2C.o)
 .debug_frame   0x00006998      0x160 C:/Hoopoe3/satellite-subsystems/demo/../..//hal/hal/lib\libHALD.a(SPI.o)
 .debug_frame   0x00006af8      0x194 C:/Hoopoe3/satellite-subsystems/demo/../..//hal/hal/lib\libHALD.a(FRAM.o)
 .debug_frame   0x00006c8c      0x18c C:/Hoopoe3/satellite-subsystems/demo/../..//hal/hal/lib\libHALD.a(Time.o)
 .debug_frame   0x00006e18       0x64 C:/Hoopoe3/satellite-subsystems/demo/../..//hal/hal/lib\libHALD.a(WatchDogTimerNoOS.o)
 .debug_frame   0x00006e7c       0x80 C:/Hoopoe3/satellite-subsystems/demo/../..//hal/hal/lib\libHALD.a(WatchDogTimerOS.o)
 .debug_frame   0x00006efc       0xd8 C:/Hoopoe3/satellite-subsystems/demo/../..//hal/hal/lib\libHALD.a(util.o)
 .debug_frame   0x00006fd4       0xd0 C:/Hoopoe3/satellite-subsystems/demo/../..//hal/hal/lib\libHALD.a(LED.o)
 .debug_frame   0x000070a4      0x11c C:/Hoopoe3/satellite-subsystems/demo/../..//hal/hal/lib\libHALD.a(RTC.o)
 .debug_frame   0x000071c0       0x8c C:/Hoopoe3/satellite-subsystems/demo/../..//hal/hal/lib\libHALD.a(RTT.o)
 .debug_frame   0x0000724c      0x2b0 C:/Hoopoe3/satellite-subsystems/demo/../..//hal/freertos/lib\libFreeRTOSD.a(queue.o)
 .debug_frame   0x000074fc      0x404 C:/Hoopoe3/satellite-subsystems/demo/../..//hal/freertos/lib\libFreeRTOSD.a(tasks.o)
 .debug_frame   0x00007900       0x44 C:/Hoopoe3/satellite-subsystems/demo/../..//hal/freertos/lib\libFreeRTOSD.a(hooks.o)
 .debug_frame   0x00007944       0x78 C:/Hoopoe3/satellite-subsystems/demo/../..//hal/freertos/lib\libFreeRTOSD.a(standardMemMang.o)
 .debug_frame   0x000079bc      0x10c C:/Hoopoe3/satellite-subsystems/demo/../..//hal/freertos/lib\libFreeRTOSD.a(port.o)
 .debug_frame   0x00007ac8       0x88 C:/Hoopoe3/satellite-subsystems/demo/../..//hal/freertos/lib\libFreeRTOSD.a(list.o)
 .debug_frame   0x00007b50      0x1e0 C:/Hoopoe3/satellite-subsystems/demo/../..//hal/at91/lib\libAt91D.a(syscalls.o)
 .debug_frame   0x00007d30       0x58 C:/Hoopoe3/satellite-subsystems/demo/../..//hal/at91/lib\libAt91D.a(aic.o)
 .debug_frame   0x00007d88      0x10c C:/Hoopoe3/satellite-subsystems/demo/../..//hal/at91/lib\libAt91D.a(cp15.o)
 .debug_frame   0x00007e94       0xcc C:/Hoopoe3/satellite-subsystems/demo/../..//hal/at91/lib\libAt91D.a(dbgu.o)
 .debug_frame   0x00007f60      0x104 C:/Hoopoe3/satellite-subsystems/demo/../..//hal/at91/lib\libAt91D.a(pio.o)
 .debug_frame   0x00008064       0xe8 C:/Hoopoe3/satellite-subsystems/demo/../..//hal/at91/lib\libAt91D.a(pit.o)
 .debug_frame   0x0000814c       0xe4 C:/Hoopoe3/satellite-subsystems/demo/../..//hal/at91/lib\libAt91D.a(pmc.o)
 .debug_frame   0x00008230       0xe8 C:/Hoopoe3/satellite-subsystems/demo/../..//hal/at91/lib\libAt91D.a(spi_at91.o)
 .debug_frame   0x00008318      0x1a8 C:/Hoopoe3/satellite-subsystems/demo/../..//hal/at91/lib\libAt91D.a(twi_at91.o)
 .debug_frame   0x000084c0       0x9c C:/Hoopoe3/satellite-subsystems/demo/../..//hal/at91/lib\libAt91D.a(ExitHandler.o)
 .debug_frame   0x0000855c       0x98 C:/Hoopoe3/satellite-subsystems/demo/../..//hal/at91/lib\libAt91D.a(board_lowlevel.o)
 .debug_frame   0x000085f4       0x74 C:/Hoopoe3/satellite-subsystems/demo/../..//hal/at91/lib\libAt91D.a(board_memories.o)
 .debug_frame   0x00008668       0x20 c:/isis/application/toolchain/bin/../lib/gcc/arm-none-eabi/4.7.4\libgcc.a(_udivsi3.o)
 .debug_frame   0x00008688       0x20 c:/isis/application/toolchain/bin/../lib/gcc/arm-none-eabi/4.7.4\libgcc.a(_divsi3.o)
 .debug_frame   0x000086a8       0x20 c:/isis/application/toolchain/bin/../lib/gcc/arm-none-eabi/4.7.4/../../../../arm-none-eabi/lib\libc_s.a(lib_a-errno.o)
 .debug_frame   0x000086c8       0x28 c:/isis/application/toolchain/bin/../lib/gcc/arm-none-eabi/4.7.4/../../../../arm-none-eabi/lib\libc_s.a(lib_a-memcmp.o)
 .debug_frame   0x000086f0       0x60 c:/isis/application/toolchain/bin/../lib/gcc/arm-none-eabi/4.7.4/../../../../arm-none-eabi/lib\libc_s.a(lib_a-printf.o)
 .debug_frame   0x00008750       0x48 c:/isis/application/toolchain/bin/../lib/gcc/arm-none-eabi/4.7.4/../../../../arm-none-eabi/lib\libc_s.a(lib_a-puts.o)
 .debug_frame   0x00008798       0x20 c:/isis/application/toolchain/bin/../lib/gcc/arm-none-eabi/4.7.4/../../../../arm-none-eabi/lib\libc_s.a(lib_a-strcpy.o)
 .debug_frame   0x000087b8       0x8c c:/isis/application/toolchain/bin/../lib/gcc/arm-none-eabi/4.7.4/../../../../arm-none-eabi/lib\libc_s.a(lib_a-vfprintf.o)
 .debug_frame   0x00008844       0x3c c:/isis/application/toolchain/bin/../lib/gcc/arm-none-eabi/4.7.4/../../../../arm-none-eabi/lib\libc_s.a(lib_a-wbuf.o)
 .debug_frame   0x00008880       0x2c c:/isis/application/toolchain/bin/../lib/gcc/arm-none-eabi/4.7.4/../../../../arm-none-eabi/lib\libc_s.a(lib_a-wsetup.o)
 .debug_frame   0x000088ac       0x48 c:/isis/application/toolchain/bin/../lib/gcc/arm-none-eabi/4.7.4/../../../../arm-none-eabi/lib\libc_s.a(lib_a-fflush.o)
 .debug_frame   0x000088f4      0x140 c:/isis/application/toolchain/bin/../lib/gcc/arm-none-eabi/4.7.4/../../../../arm-none-eabi/lib\libc_s.a(lib_a-findfp.o)
 .debug_frame   0x00008a34       0x30 c:/isis/application/toolchain/bin/../lib/gcc/arm-none-eabi/4.7.4/../../../../arm-none-eabi/lib\libc_s.a(lib_a-makebuf.o)
 .debug_frame   0x00008a64       0x3c c:/isis/application/toolchain/bin/../lib/gcc/arm-none-eabi/4.7.4/../../../../arm-none-eabi/lib\libc_s.a(lib_a-putc.o)
 .debug_frame   0x00008aa0       0x88 c:/isis/application/toolchain/bin/../lib/gcc/arm-none-eabi/4.7.4/../../../../arm-none-eabi/lib\libc_s.a(lib_a-stdio.o)
 .debug_frame   0x00008b28       0x2c c:/isis/application/toolchain/bin/../lib/gcc/arm-none-eabi/4.7.4/../../../../arm-none-eabi/lib\libc_s.a(lib_a-writer.o)
 .debug_frame   0x00008b54       0x2c c:/isis/application/toolchain/bin/../lib/gcc/arm-none-eabi/4.7.4/../../../../arm-none-eabi/lib\libc_s.a(lib_a-closer.o)
 .debug_frame   0x00008b80       0x2c c:/isis/application/toolchain/bin/../lib/gcc/arm-none-eabi/4.7.4/../../../../arm-none-eabi/lib\libc_s.a(lib_a-fstatr.o)
 .debug_frame   0x00008bac       0x2c c:/isis/application/toolchain/bin/../lib/gcc/arm-none-eabi/4.7.4/../../../../arm-none-eabi/lib\libc_s.a(lib_a-isattyr.o)
 .debug_frame   0x00008bd8       0x2c c:/isis/application/toolchain/bin/../lib/gcc/arm-none-eabi/4.7.4/../../../../arm-none-eabi/lib\libc_s.a(lib_a-lseekr.o)
 .debug_frame   0x00008c04       0x2c c:/isis/application/toolchain/bin/../lib/gcc/arm-none-eabi/4.7.4/../../../../arm-none-eabi/lib\libc_s.a(lib_a-readr.o)

.debug_info     0x00000000    0x2c4ce
 .debug_info    0x00000000      0x5cc ./src/sub-systemCode/Main/CMD/COMM_CMD.o
 .debug_info    0x000005cc      0x723 ./src/sub-systemCode/Main/CMD/EPS_CMD.o
 .debug_info    0x00000cef      0x8f7 ./src/sub-systemCode/Main/CMD/General_CMD.o
 .debug_info    0x000015e6      0x460 ./src/sub-systemCode/Main/CMD/SW_CMD.o
 .debug_info    0x00001a46      0x4e3 ./src/sub-systemCode/Main/Ants.o
 .debug_info    0x00001f29      0xa58 ./src/sub-systemCode/Main/EPS.o
 .debug_info    0x00002981     0x1917 ./src/sub-systemCode/Main/HouseKeeping.o
 .debug_info    0x00004298      0x5d1 ./src/sub-systemCode/Main/Main_Init.o
 .debug_info    0x00004869      0x794 ./src/sub-systemCode/Main/commands.o
 .debug_info    0x00004ffd      0x672 ./src/sub-systemCode/Global/Global.o
 .debug_info    0x0000566f      0xeb5 ./src/sub-systemCode/Global/GlobalParam.o
 .debug_info    0x00006524      0xcbf ./src/sub-systemCode/Global/TM_managment.o
 .debug_info    0x000071e3      0x378 ./src/sub-systemCode/COMM/APRS.o
 .debug_info    0x0000755b      0x42d ./src/sub-systemCode/COMM/DelayedCommand_list.o
 .debug_info    0x00007988      0x568 ./src/sub-systemCode/COMM/GSC.o
 .debug_info    0x00007ef0     0x1469 ./src/sub-systemCode/COMM/TRXVU.o
 .debug_info    0x00009359      0x15c ./src/sub-systemCode/ADCS/ADCS.o
 .debug_info    0x000094b5      0xffa ./src/sub-systemCode/ADCS/Stage_Table.o
 .debug_info    0x0000a4af      0x531 ./src/main.o
 .debug_info    0x0000a9e0     0x16bc C:/Hoopoe3/satellite-subsystems/demo/..//satellite-subsystems/lib\libSatelliteSubsystemsD.a(GomEPS.o)
 .debug_info    0x0000c09c      0xa44 C:/Hoopoe3/satellite-subsystems/demo/..//satellite-subsystems/lib\libSatelliteSubsystemsD.a(IsisAntS.o)
 .debug_info    0x0000cae0      0xbd2 C:/Hoopoe3/satellite-subsystems/demo/..//satellite-subsystems/lib\libSatelliteSubsystemsD.a(IsisSolarPanelv2.o)
 .debug_info    0x0000d6b2     0x1059 C:/Hoopoe3/satellite-subsystems/demo/..//satellite-subsystems/lib\libSatelliteSubsystemsD.a(IsisTRXVU.o)
 .debug_info    0x0000e70b     0x4647 C:/Hoopoe3/satellite-subsystems/demo/..//satellite-subsystems/lib\libSatelliteSubsystemsD.a(cspaceADCS.o)
 .debug_info    0x00012d52     0x1533 C:/Hoopoe3/satellite-subsystems/demo/..//satellite-subsystems/lib\libSatelliteSubsystemsD.a(gecko_driver.o)
 .debug_info    0x00014285      0x72c C:/Hoopoe3/satellite-subsystems/demo/..//satellite-subsystems/lib\libSatelliteSubsystemsD.a(IsisTRXCommon.o)
 .debug_info    0x000149b1     0x4751 C:/Hoopoe3/satellite-subsystems/demo/../..//hal/hcc/lib\libHCCD.a(fat_common.o)
 .debug_info    0x00019102     0x19f9 C:/Hoopoe3/satellite-subsystems/demo/../..//hal/hcc/lib\libHCCD.a(fat_m.o)
 .debug_info    0x0001aafb     0x2750 C:/Hoopoe3/satellite-subsystems/demo/../..//hal/hcc/lib\libHCCD.a(safefat.o)
 .debug_info    0x0001d24b      0xd43 C:/Hoopoe3/satellite-subsystems/demo/../..//hal/hcc/lib\libHCCD.a(atmel_mcipdc.o)
 .debug_info    0x0001df8e      0x1aa C:/Hoopoe3/satellite-subsystems/demo/../..//hal/hcc/lib\libHCCD.a(oalp_mutex.o)
 .debug_info    0x0001e138       0xb0 C:/Hoopoe3/satellite-subsystems/demo/../..//hal/hcc/lib\libHCCD.a(oalp_task.o)
 .debug_info    0x0001e1e8      0x4c6 C:/Hoopoe3/satellite-subsystems/demo/../..//hal/hcc/lib\libHCCD.a(atmel_mcipdc_hw.o)
 .debug_info    0x0001e6ae      0x1ba C:/Hoopoe3/satellite-subsystems/demo/../..//hal/hcc/lib\libHCCD.a(psp_rtc.o)
 .debug_info    0x0001e868      0xd35 C:/Hoopoe3/satellite-subsystems/demo/../..//hal/hcc/lib\libHCCD.a(hcc_mem.o)
 .debug_info    0x0001f59d     0x28dd C:/Hoopoe3/satellite-subsystems/demo/../..//hal/hcc/lib\libHCCD.a(fat.o)
 .debug_info    0x00021e7a      0x1ad C:/Hoopoe3/satellite-subsystems/demo/../..//hal/hcc/lib\libHCCD.a(psp_hcc_mem.o)
 .debug_info    0x00022027     0x106f C:/Hoopoe3/satellite-subsystems/demo/../..//hal/hal/lib\libHALD.a(I2C.o)
 .debug_info    0x00023096      0xdf5 C:/Hoopoe3/satellite-subsystems/demo/../..//hal/hal/lib\libHALD.a(SPI.o)
 .debug_info    0x00023e8b      0x832 C:/Hoopoe3/satellite-subsystems/demo/../..//hal/hal/lib\libHALD.a(FRAM.o)
 .debug_info    0x000246bd      0x5cf C:/Hoopoe3/satellite-subsystems/demo/../..//hal/hal/lib\libHALD.a(Time.o)
 .debug_info    0x00024c8c      0x3f1 C:/Hoopoe3/satellite-subsystems/demo/../..//hal/hal/lib\libHALD.a(WatchDogTimerNoOS.o)
 .debug_info    0x0002507d      0x1ab C:/Hoopoe3/satellite-subsystems/demo/../..//hal/hal/lib\libHALD.a(WatchDogTimerOS.o)
 .debug_info    0x00025228      0x2b4 C:/Hoopoe3/satellite-subsystems/demo/../..//hal/hal/lib\libHALD.a(util.o)
 .debug_info    0x000254dc      0x506 C:/Hoopoe3/satellite-subsystems/demo/../..//hal/hal/lib\libHALD.a(LED.o)
 .debug_info    0x000259e2      0x654 C:/Hoopoe3/satellite-subsystems/demo/../..//hal/hal/lib\libHALD.a(RTC.o)
 .debug_info    0x00026036      0x185 C:/Hoopoe3/satellite-subsystems/demo/../..//hal/hal/lib\libHALD.a(RTT.o)
 .debug_info    0x000261bb      0xadf C:/Hoopoe3/satellite-subsystems/demo/../..//hal/freertos/lib\libFreeRTOSD.a(queue.o)
 .debug_info    0x00026c9a      0xede C:/Hoopoe3/satellite-subsystems/demo/../..//hal/freertos/lib\libFreeRTOSD.a(tasks.o)
 .debug_info    0x00027b78       0xde C:/Hoopoe3/satellite-subsystems/demo/../..//hal/freertos/lib\libFreeRTOSD.a(hooks.o)
 .debug_info    0x00027c56      0x110 C:/Hoopoe3/satellite-subsystems/demo/../..//hal/freertos/lib\libFreeRTOSD.a(standardMemMang.o)
 .debug_info    0x00027d66      0x330 C:/Hoopoe3/satellite-subsystems/demo/../..//hal/freertos/lib\libFreeRTOSD.a(port.o)
 .debug_info    0x00028096      0x2aa C:/Hoopoe3/satellite-subsystems/demo/../..//hal/freertos/lib\libFreeRTOSD.a(list.o)
 .debug_info    0x00028340      0x628 C:/Hoopoe3/satellite-subsystems/demo/../..//hal/at91/lib\libAt91D.a(syscalls.o)
 .debug_info    0x00028968      0x287 C:/Hoopoe3/satellite-subsystems/demo/../..//hal/at91/lib\libAt91D.a(aic.o)
 .debug_info    0x00028bef      0x1f7 C:/Hoopoe3/satellite-subsystems/demo/../..//hal/at91/lib\libAt91D.a(cp15.o)
 .debug_info    0x00028de6      0xc6e C:/Hoopoe3/satellite-subsystems/demo/../..//hal/at91/lib\libAt91D.a(dbgu.o)
 .debug_info    0x00029a54      0x734 C:/Hoopoe3/satellite-subsystems/demo/../..//hal/at91/lib\libAt91D.a(pio.o)
 .debug_info    0x0002a188      0x1ae C:/Hoopoe3/satellite-subsystems/demo/../..//hal/at91/lib\libAt91D.a(pit.o)
 .debug_info    0x0002a336      0x2fd C:/Hoopoe3/satellite-subsystems/demo/../..//hal/at91/lib\libAt91D.a(pmc.o)
 .debug_info    0x0002a633      0x576 C:/Hoopoe3/satellite-subsystems/demo/../..//hal/at91/lib\libAt91D.a(spi_at91.o)
 .debug_info    0x0002aba9      0x63d C:/Hoopoe3/satellite-subsystems/demo/../..//hal/at91/lib\libAt91D.a(twi_at91.o)
 .debug_info    0x0002b1e6      0x22e C:/Hoopoe3/satellite-subsystems/demo/../..//hal/at91/lib\libAt91D.a(ExitHandler.o)
 .debug_info    0x0002b414       0x92 C:/Hoopoe3/satellite-subsystems/demo/../..//hal/at91/lib\libAt91D.a(board_cstartup.o)
 .debug_info    0x0002b4a6       0x81 C:/Hoopoe3/satellite-subsystems/demo/../..//hal/at91/lib\libAt91D.a(cp15_asm.o)
 .debug_info    0x0002b527      0x651 C:/Hoopoe3/satellite-subsystems/demo/../..//hal/at91/lib\libAt91D.a(board_lowlevel.o)
 .debug_info    0x0002bb78      0x956 C:/Hoopoe3/satellite-subsystems/demo/../..//hal/at91/lib\libAt91D.a(board_memories.o)

.debug_abbrev   0x00000000     0x6282
 .debug_abbrev  0x00000000      0x130 ./src/sub-systemCode/Main/CMD/COMM_CMD.o
 .debug_abbrev  0x00000130      0x160 ./src/sub-systemCode/Main/CMD/EPS_CMD.o
 .debug_abbrev  0x00000290      0x178 ./src/sub-systemCode/Main/CMD/General_CMD.o
 .debug_abbrev  0x00000408      0x110 ./src/sub-systemCode/Main/CMD/SW_CMD.o
 .debug_abbrev  0x00000518      0x155 ./src/sub-systemCode/Main/Ants.o
 .debug_abbrev  0x0000066d      0x25b ./src/sub-systemCode/Main/EPS.o
 .debug_abbrev  0x000008c8      0x291 ./src/sub-systemCode/Main/HouseKeeping.o
 .debug_abbrev  0x00000b59      0x14d ./src/sub-systemCode/Main/Main_Init.o
 .debug_abbrev  0x00000ca6      0x1b4 ./src/sub-systemCode/Main/commands.o
 .debug_abbrev  0x00000e5a      0x1e3 ./src/sub-systemCode/Global/Global.o
 .debug_abbrev  0x0000103d      0x224 ./src/sub-systemCode/Global/GlobalParam.o
 .debug_abbrev  0x00001261      0x267 ./src/sub-systemCode/Global/TM_managment.o
 .debug_abbrev  0x000014c8      0x149 ./src/sub-systemCode/COMM/APRS.o
 .debug_abbrev  0x00001611      0x146 ./src/sub-systemCode/COMM/DelayedCommand_list.o
 .debug_abbrev  0x00001757      0x11a ./src/sub-systemCode/COMM/GSC.o
 .debug_abbrev  0x00001871      0x288 ./src/sub-systemCode/COMM/TRXVU.o
 .debug_abbrev  0x00001af9       0xba ./src/sub-systemCode/ADCS/ADCS.o
 .debug_abbrev  0x00001bb3      0x297 ./src/sub-systemCode/ADCS/Stage_Table.o
 .debug_abbrev  0x00001e4a      0x12d ./src/main.o
 .debug_abbrev  0x00001f77      0x1bc C:/Hoopoe3/satellite-subsystems/demo/..//satellite-subsystems/lib\libSatelliteSubsystemsD.a(GomEPS.o)
 .debug_abbrev  0x00002133      0x1b8 C:/Hoopoe3/satellite-subsystems/demo/..//satellite-subsystems/lib\libSatelliteSubsystemsD.a(IsisAntS.o)
 .debug_abbrev  0x000022eb      0x22b C:/Hoopoe3/satellite-subsystems/demo/..//satellite-subsystems/lib\libSatelliteSubsystemsD.a(IsisSolarPanelv2.o)
 .debug_abbrev  0x00002516      0x19e C:/Hoopoe3/satellite-subsystems/demo/..//satellite-subsystems/lib\libSatelliteSubsystemsD.a(IsisTRXVU.o)
 .debug_abbrev  0x000026b4      0x221 C:/Hoopoe3/satellite-subsystems/demo/..//satellite-subsystems/lib\libSatelliteSubsystemsD.a(cspaceADCS.o)
 .debug_abbrev  0x000028d5      0x1aa C:/Hoopoe3/satellite-subsystems/demo/..//satellite-subsystems/lib\libSatelliteSubsystemsD.a(gecko_driver.o)
 .debug_abbrev  0x00002a7f      0x16d C:/Hoopoe3/satellite-subsystems/demo/..//satellite-subsystems/lib\libSatelliteSubsystemsD.a(IsisTRXCommon.o)
 .debug_abbrev  0x00002bec      0x2c0 C:/Hoopoe3/satellite-subsystems/demo/../..//hal/hcc/lib\libHCCD.a(fat_common.o)
 .debug_abbrev  0x00002eac      0x1c9 C:/Hoopoe3/satellite-subsystems/demo/../..//hal/hcc/lib\libHCCD.a(fat_m.o)
 .debug_abbrev  0x00003075      0x265 C:/Hoopoe3/satellite-subsystems/demo/../..//hal/hcc/lib\libHCCD.a(safefat.o)
 .debug_abbrev  0x000032da      0x22f C:/Hoopoe3/satellite-subsystems/demo/../..//hal/hcc/lib\libHCCD.a(atmel_mcipdc.o)
 .debug_abbrev  0x00003509       0xb3 C:/Hoopoe3/satellite-subsystems/demo/../..//hal/hcc/lib\libHCCD.a(oalp_mutex.o)
 .debug_abbrev  0x000035bc       0x5a C:/Hoopoe3/satellite-subsystems/demo/../..//hal/hcc/lib\libHCCD.a(oalp_task.o)
 .debug_abbrev  0x00003616      0x13e C:/Hoopoe3/satellite-subsystems/demo/../..//hal/hcc/lib\libHCCD.a(atmel_mcipdc_hw.o)
 .debug_abbrev  0x00003754       0xb4 C:/Hoopoe3/satellite-subsystems/demo/../..//hal/hcc/lib\libHCCD.a(psp_rtc.o)
 .debug_abbrev  0x00003808      0x1fb C:/Hoopoe3/satellite-subsystems/demo/../..//hal/hcc/lib\libHCCD.a(hcc_mem.o)
 .debug_abbrev  0x00003a03      0x2ce C:/Hoopoe3/satellite-subsystems/demo/../..//hal/hcc/lib\libHCCD.a(fat.o)
 .debug_abbrev  0x00003cd1       0xb3 C:/Hoopoe3/satellite-subsystems/demo/../..//hal/hcc/lib\libHCCD.a(psp_hcc_mem.o)
 .debug_abbrev  0x00003d84      0x2e0 C:/Hoopoe3/satellite-subsystems/demo/../..//hal/hal/lib\libHALD.a(I2C.o)
 .debug_abbrev  0x00004064      0x242 C:/Hoopoe3/satellite-subsystems/demo/../..//hal/hal/lib\libHALD.a(SPI.o)
 .debug_abbrev  0x000042a6      0x257 C:/Hoopoe3/satellite-subsystems/demo/../..//hal/hal/lib\libHALD.a(FRAM.o)
 .debug_abbrev  0x000044fd      0x1ed C:/Hoopoe3/satellite-subsystems/demo/../..//hal/hal/lib\libHALD.a(Time.o)
 .debug_abbrev  0x000046ea       0xf6 C:/Hoopoe3/satellite-subsystems/demo/../..//hal/hal/lib\libHALD.a(WatchDogTimerNoOS.o)
 .debug_abbrev  0x000047e0       0xd3 C:/Hoopoe3/satellite-subsystems/demo/../..//hal/hal/lib\libHALD.a(WatchDogTimerOS.o)
 .debug_abbrev  0x000048b3       0xd9 C:/Hoopoe3/satellite-subsystems/demo/../..//hal/hal/lib\libHALD.a(util.o)
 .debug_abbrev  0x0000498c      0x163 C:/Hoopoe3/satellite-subsystems/demo/../..//hal/hal/lib\libHALD.a(LED.o)
 .debug_abbrev  0x00004aef      0x180 C:/Hoopoe3/satellite-subsystems/demo/../..//hal/hal/lib\libHALD.a(RTC.o)
 .debug_abbrev  0x00004c6f       0xf6 C:/Hoopoe3/satellite-subsystems/demo/../..//hal/hal/lib\libHALD.a(RTT.o)
 .debug_abbrev  0x00004d65      0x1af C:/Hoopoe3/satellite-subsystems/demo/../..//hal/freertos/lib\libFreeRTOSD.a(queue.o)
 .debug_abbrev  0x00004f14      0x1e9 C:/Hoopoe3/satellite-subsystems/demo/../..//hal/freertos/lib\libFreeRTOSD.a(tasks.o)
 .debug_abbrev  0x000050fd       0x8a C:/Hoopoe3/satellite-subsystems/demo/../..//hal/freertos/lib\libFreeRTOSD.a(hooks.o)
 .debug_abbrev  0x00005187       0xc6 C:/Hoopoe3/satellite-subsystems/demo/../..//hal/freertos/lib\libFreeRTOSD.a(standardMemMang.o)
 .debug_abbrev  0x0000524d      0x1dc C:/Hoopoe3/satellite-subsystems/demo/../..//hal/freertos/lib\libFreeRTOSD.a(port.o)
 .debug_abbrev  0x00005429       0xc0 C:/Hoopoe3/satellite-subsystems/demo/../..//hal/freertos/lib\libFreeRTOSD.a(list.o)
 .debug_abbrev  0x000054e9      0x152 C:/Hoopoe3/satellite-subsystems/demo/../..//hal/at91/lib\libAt91D.a(syscalls.o)
 .debug_abbrev  0x0000563b       0xc3 C:/Hoopoe3/satellite-subsystems/demo/../..//hal/at91/lib\libAt91D.a(aic.o)
 .debug_abbrev  0x000056fe       0x89 C:/Hoopoe3/satellite-subsystems/demo/../..//hal/at91/lib\libAt91D.a(cp15.o)
 .debug_abbrev  0x00005787      0x1f7 C:/Hoopoe3/satellite-subsystems/demo/../..//hal/at91/lib\libAt91D.a(dbgu.o)
 .debug_abbrev  0x0000597e      0x185 C:/Hoopoe3/satellite-subsystems/demo/../..//hal/at91/lib\libAt91D.a(pio.o)
 .debug_abbrev  0x00005b03       0xd3 C:/Hoopoe3/satellite-subsystems/demo/../..//hal/at91/lib\libAt91D.a(pit.o)
 .debug_abbrev  0x00005bd6      0x115 C:/Hoopoe3/satellite-subsystems/demo/../..//hal/at91/lib\libAt91D.a(pmc.o)
 .debug_abbrev  0x00005ceb       0xff C:/Hoopoe3/satellite-subsystems/demo/../..//hal/at91/lib\libAt91D.a(spi_at91.o)
 .debug_abbrev  0x00005dea      0x180 C:/Hoopoe3/satellite-subsystems/demo/../..//hal/at91/lib\libAt91D.a(twi_at91.o)
 .debug_abbrev  0x00005f6a       0xbf C:/Hoopoe3/satellite-subsystems/demo/../..//hal/at91/lib\libAt91D.a(ExitHandler.o)
 .debug_abbrev  0x00006029       0x12 C:/Hoopoe3/satellite-subsystems/demo/../..//hal/at91/lib\libAt91D.a(board_cstartup.o)
 .debug_abbrev  0x0000603b       0x14 C:/Hoopoe3/satellite-subsystems/demo/../..//hal/at91/lib\libAt91D.a(cp15_asm.o)
 .debug_abbrev  0x0000604f       0xea C:/Hoopoe3/satellite-subsystems/demo/../..//hal/at91/lib\libAt91D.a(board_lowlevel.o)
 .debug_abbrev  0x00006139      0x149 C:/Hoopoe3/satellite-subsystems/demo/../..//hal/at91/lib\libAt91D.a(board_memories.o)

.debug_loc      0x00000000     0xc114
 .debug_loc     0x00000000      0x1bc ./src/sub-systemCode/Main/CMD/COMM_CMD.o
 .debug_loc     0x000001bc      0x188 ./src/sub-systemCode/Main/CMD/EPS_CMD.o
 .debug_loc     0x00000344      0x270 ./src/sub-systemCode/Main/CMD/General_CMD.o
 .debug_loc     0x000005b4       0x90 ./src/sub-systemCode/Main/CMD/SW_CMD.o
 .debug_loc     0x00000644      0x108 ./src/sub-systemCode/Main/Ants.o
 .debug_loc     0x0000074c      0x3a8 ./src/sub-systemCode/Main/EPS.o
 .debug_loc     0x00000af4      0x560 ./src/sub-systemCode/Main/HouseKeeping.o
 .debug_loc     0x00001054      0x1b8 ./src/sub-systemCode/Main/Main_Init.o
 .debug_loc     0x0000120c      0x350 ./src/sub-systemCode/Main/commands.o
 .debug_loc     0x0000155c      0x294 ./src/sub-systemCode/Global/Global.o
 .debug_loc     0x000017f0      0x764 ./src/sub-systemCode/Global/GlobalParam.o
 .debug_loc     0x00001f54      0x2c0 ./src/sub-systemCode/Global/TM_managment.o
 .debug_loc     0x00002214       0xb0 ./src/sub-systemCode/COMM/APRS.o
 .debug_loc     0x000022c4      0x198 ./src/sub-systemCode/COMM/DelayedCommand_list.o
 .debug_loc     0x0000245c      0x120 ./src/sub-systemCode/COMM/GSC.o
 .debug_loc     0x0000257c      0x44c ./src/sub-systemCode/COMM/TRXVU.o
 .debug_loc     0x000029c8       0x2c ./src/sub-systemCode/ADCS/ADCS.o
 .debug_loc     0x000029f4      0x630 ./src/sub-systemCode/ADCS/Stage_Table.o
 .debug_loc     0x00003024       0xb0 ./src/main.o
 .debug_loc     0x000030d4      0x420 C:/Hoopoe3/satellite-subsystems/demo/..//satellite-subsystems/lib\libSatelliteSubsystemsD.a(GomEPS.o)
 .debug_loc     0x000034f4      0x268 C:/Hoopoe3/satellite-subsystems/demo/..//satellite-subsystems/lib\libSatelliteSubsystemsD.a(IsisAntS.o)
 .debug_loc     0x0000375c      0x2c0 C:/Hoopoe3/satellite-subsystems/demo/..//satellite-subsystems/lib\libSatelliteSubsystemsD.a(IsisSolarPanelv2.o)
 .debug_loc     0x00003a1c      0x4a4 C:/Hoopoe3/satellite-subsystems/demo/..//satellite-subsystems/lib\libSatelliteSubsystemsD.a(IsisTRXVU.o)
 .debug_loc     0x00003ec0      0xce4 C:/Hoopoe3/satellite-subsystems/demo/..//satellite-subsystems/lib\libSatelliteSubsystemsD.a(cspaceADCS.o)
 .debug_loc     0x00004ba4      0xc8c C:/Hoopoe3/satellite-subsystems/demo/..//satellite-subsystems/lib\libSatelliteSubsystemsD.a(gecko_driver.o)
 .debug_loc     0x00005830      0x294 C:/Hoopoe3/satellite-subsystems/demo/..//satellite-subsystems/lib\libSatelliteSubsystemsD.a(IsisTRXCommon.o)
 .debug_loc     0x00005ac4     0x1398 C:/Hoopoe3/satellite-subsystems/demo/../..//hal/hcc/lib\libHCCD.a(fat_common.o)
 .debug_loc     0x00006e5c      0x974 C:/Hoopoe3/satellite-subsystems/demo/../..//hal/hcc/lib\libHCCD.a(fat_m.o)
 .debug_loc     0x000077d0      0x9cc C:/Hoopoe3/satellite-subsystems/demo/../..//hal/hcc/lib\libHCCD.a(safefat.o)
 .debug_loc     0x0000819c      0x2c0 C:/Hoopoe3/satellite-subsystems/demo/../..//hal/hcc/lib\libHCCD.a(atmel_mcipdc.o)
 .debug_loc     0x0000845c       0xb0 C:/Hoopoe3/satellite-subsystems/demo/../..//hal/hcc/lib\libHCCD.a(oalp_mutex.o)
 .debug_loc     0x0000850c       0x2c C:/Hoopoe3/satellite-subsystems/demo/../..//hal/hcc/lib\libHCCD.a(oalp_task.o)
 .debug_loc     0x00008538       0xb0 C:/Hoopoe3/satellite-subsystems/demo/../..//hal/hcc/lib\libHCCD.a(atmel_mcipdc_hw.o)
 .debug_loc     0x000085e8       0x2c C:/Hoopoe3/satellite-subsystems/demo/../..//hal/hcc/lib\libHCCD.a(psp_rtc.o)
 .debug_loc     0x00008614      0x370 C:/Hoopoe3/satellite-subsystems/demo/../..//hal/hcc/lib\libHCCD.a(hcc_mem.o)
 .debug_loc     0x00008984      0x70c C:/Hoopoe3/satellite-subsystems/demo/../..//hal/hcc/lib\libHCCD.a(fat.o)
 .debug_loc     0x00009090       0x58 C:/Hoopoe3/satellite-subsystems/demo/../..//hal/hcc/lib\libHCCD.a(psp_hcc_mem.o)
 .debug_loc     0x000090e8      0x3c8 C:/Hoopoe3/satellite-subsystems/demo/../..//hal/hal/lib\libHALD.a(I2C.o)
 .debug_loc     0x000094b0      0x210 C:/Hoopoe3/satellite-subsystems/demo/../..//hal/hal/lib\libHALD.a(SPI.o)
 .debug_loc     0x000096c0      0x268 C:/Hoopoe3/satellite-subsystems/demo/../..//hal/hal/lib\libHALD.a(FRAM.o)
 .debug_loc     0x00009928      0x268 C:/Hoopoe3/satellite-subsystems/demo/../..//hal/hal/lib\libHALD.a(Time.o)
 .debug_loc     0x00009b90       0x84 C:/Hoopoe3/satellite-subsystems/demo/../..//hal/hal/lib\libHALD.a(WatchDogTimerNoOS.o)
 .debug_loc     0x00009c14       0xb0 C:/Hoopoe3/satellite-subsystems/demo/../..//hal/hal/lib\libHALD.a(WatchDogTimerOS.o)
 .debug_loc     0x00009cc4      0x134 C:/Hoopoe3/satellite-subsystems/demo/../..//hal/hal/lib\libHALD.a(util.o)
 .debug_loc     0x00009df8      0x134 C:/Hoopoe3/satellite-subsystems/demo/../..//hal/hal/lib\libHALD.a(LED.o)
 .debug_loc     0x00009f2c      0x1b8 C:/Hoopoe3/satellite-subsystems/demo/../..//hal/hal/lib\libHALD.a(RTC.o)
 .debug_loc     0x0000a0e4       0xdc C:/Hoopoe3/satellite-subsystems/demo/../..//hal/hal/lib\libHALD.a(RTT.o)
 .debug_loc     0x0000a1c0      0x420 C:/Hoopoe3/satellite-subsystems/demo/../..//hal/freertos/lib\libFreeRTOSD.a(queue.o)
 .debug_loc     0x0000a5e0      0x65c C:/Hoopoe3/satellite-subsystems/demo/../..//hal/freertos/lib\libFreeRTOSD.a(tasks.o)
 .debug_loc     0x0000ac3c       0x58 C:/Hoopoe3/satellite-subsystems/demo/../..//hal/freertos/lib\libFreeRTOSD.a(hooks.o)
 .debug_loc     0x0000ac94       0xb0 C:/Hoopoe3/satellite-subsystems/demo/../..//hal/freertos/lib\libFreeRTOSD.a(standardMemMang.o)
 .debug_loc     0x0000ad44      0x160 C:/Hoopoe3/satellite-subsystems/demo/../..//hal/freertos/lib\libFreeRTOSD.a(port.o)
 .debug_loc     0x0000aea4       0xdc C:/Hoopoe3/satellite-subsystems/demo/../..//hal/freertos/lib\libFreeRTOSD.a(list.o)
 .debug_loc     0x0000af80      0x324 C:/Hoopoe3/satellite-subsystems/demo/../..//hal/at91/lib\libAt91D.a(syscalls.o)
 .debug_loc     0x0000b2a4       0x84 C:/Hoopoe3/satellite-subsystems/demo/../..//hal/at91/lib\libAt91D.a(aic.o)
 .debug_loc     0x0000b328      0x18c C:/Hoopoe3/satellite-subsystems/demo/../..//hal/at91/lib\libAt91D.a(cp15.o)
 .debug_loc     0x0000b4b4      0x134 C:/Hoopoe3/satellite-subsystems/demo/../..//hal/at91/lib\libAt91D.a(dbgu.o)
 .debug_loc     0x0000b5e8      0x1b8 C:/Hoopoe3/satellite-subsystems/demo/../..//hal/at91/lib\libAt91D.a(pio.o)
 .debug_loc     0x0000b7a0      0x18c C:/Hoopoe3/satellite-subsystems/demo/../..//hal/at91/lib\libAt91D.a(pit.o)
 .debug_loc     0x0000b92c      0x160 C:/Hoopoe3/satellite-subsystems/demo/../..//hal/at91/lib\libAt91D.a(pmc.o)
 .debug_loc     0x0000ba8c      0x18c C:/Hoopoe3/satellite-subsystems/demo/../..//hal/at91/lib\libAt91D.a(spi_at91.o)
 .debug_loc     0x0000bc18      0x294 C:/Hoopoe3/satellite-subsystems/demo/../..//hal/at91/lib\libAt91D.a(twi_at91.o)
 .debug_loc     0x0000beac       0xdc C:/Hoopoe3/satellite-subsystems/demo/../..//hal/at91/lib\libAt91D.a(ExitHandler.o)
 .debug_loc     0x0000bf88       0xdc C:/Hoopoe3/satellite-subsystems/demo/../..//hal/at91/lib\libAt91D.a(board_lowlevel.o)
 .debug_loc     0x0000c064       0xb0 C:/Hoopoe3/satellite-subsystems/demo/../..//hal/at91/lib\libAt91D.a(board_memories.o)

.debug_aranges  0x00000000     0x2940
 .debug_aranges
                0x00000000       0x60 ./src/sub-systemCode/Main/CMD/COMM_CMD.o
 .debug_aranges
                0x00000060       0x50 ./src/sub-systemCode/Main/CMD/EPS_CMD.o
 .debug_aranges
                0x000000b0       0x78 ./src/sub-systemCode/Main/CMD/General_CMD.o
 .debug_aranges
                0x00000128       0x30 ./src/sub-systemCode/Main/CMD/SW_CMD.o
 .debug_aranges
                0x00000158       0x48 ./src/sub-systemCode/Main/Ants.o
 .debug_aranges
                0x000001a0       0xc0 ./src/sub-systemCode/Main/EPS.o
 .debug_aranges
                0x00000260      0x110 ./src/sub-systemCode/Main/HouseKeeping.o
 .debug_aranges
                0x00000370       0x68 ./src/sub-systemCode/Main/Main_Init.o
 .debug_aranges
                0x000003d8       0x98 ./src/sub-systemCode/Main/commands.o
 .debug_aranges
                0x00000470       0x90 ./src/sub-systemCode/Global/Global.o
 .debug_aranges
                0x00000500      0x170 ./src/sub-systemCode/Global/GlobalParam.o
 .debug_aranges
                0x00000670       0x98 ./src/sub-systemCode/Global/TM_managment.o
 .debug_aranges
                0x00000708       0x38 ./src/sub-systemCode/COMM/APRS.o
 .debug_aranges
                0x00000740       0x60 ./src/sub-systemCode/COMM/DelayedCommand_list.o
 .debug_aranges
                0x000007a0       0x48 ./src/sub-systemCode/COMM/GSC.o
 .debug_aranges
                0x000007e8       0xe0 ./src/sub-systemCode/COMM/TRXVU.o
 .debug_aranges
                0x000008c8       0x20 ./src/sub-systemCode/ADCS/ADCS.o
 .debug_aranges
                0x000008e8      0x138 ./src/sub-systemCode/ADCS/Stage_Table.o
 .debug_aranges
                0x00000a20       0x38 ./src/main.o
 .debug_aranges
                0x00000a58       0xd8 C:/Hoopoe3/satellite-subsystems/demo/..//satellite-subsystems/lib\libSatelliteSubsystemsD.a(GomEPS.o)
 .debug_aranges
                0x00000b30       0x88 C:/Hoopoe3/satellite-subsystems/demo/..//satellite-subsystems/lib\libSatelliteSubsystemsD.a(IsisAntS.o)
 .debug_aranges
                0x00000bb8       0x98 C:/Hoopoe3/satellite-subsystems/demo/..//satellite-subsystems/lib\libSatelliteSubsystemsD.a(IsisSolarPanelv2.o)
 .debug_aranges
                0x00000c50       0xf0 C:/Hoopoe3/satellite-subsystems/demo/..//satellite-subsystems/lib\libSatelliteSubsystemsD.a(IsisTRXVU.o)
 .debug_aranges
                0x00000d40      0x270 C:/Hoopoe3/satellite-subsystems/demo/..//satellite-subsystems/lib\libSatelliteSubsystemsD.a(cspaceADCS.o)
 .debug_aranges
                0x00000fb0      0x260 C:/Hoopoe3/satellite-subsystems/demo/..//satellite-subsystems/lib\libSatelliteSubsystemsD.a(gecko_driver.o)
 .debug_aranges
                0x00001210       0x90 C:/Hoopoe3/satellite-subsystems/demo/..//satellite-subsystems/lib\libSatelliteSubsystemsD.a(IsisTRXCommon.o)
 .debug_aranges
                0x000012a0      0x3a8 C:/Hoopoe3/satellite-subsystems/demo/../..//hal/hcc/lib\libHCCD.a(fat_common.o)
 .debug_aranges
                0x00001648      0x1d0 C:/Hoopoe3/satellite-subsystems/demo/../..//hal/hcc/lib\libHCCD.a(fat_m.o)
 .debug_aranges
                0x00001818      0x1e0 C:/Hoopoe3/satellite-subsystems/demo/../..//hal/hcc/lib\libHCCD.a(safefat.o)
 .debug_aranges
                0x000019f8       0x98 C:/Hoopoe3/satellite-subsystems/demo/../..//hal/hcc/lib\libHCCD.a(atmel_mcipdc.o)
 .debug_aranges
                0x00001a90       0x38 C:/Hoopoe3/satellite-subsystems/demo/../..//hal/hcc/lib\libHCCD.a(oalp_mutex.o)
 .debug_aranges
                0x00001ac8       0x20 C:/Hoopoe3/satellite-subsystems/demo/../..//hal/hcc/lib\libHCCD.a(oalp_task.o)
 .debug_aranges
                0x00001ae8       0x38 C:/Hoopoe3/satellite-subsystems/demo/../..//hal/hcc/lib\libHCCD.a(atmel_mcipdc_hw.o)
 .debug_aranges
                0x00001b20       0x20 C:/Hoopoe3/satellite-subsystems/demo/../..//hal/hcc/lib\libHCCD.a(psp_rtc.o)
 .debug_aranges
                0x00001b40       0xb8 C:/Hoopoe3/satellite-subsystems/demo/../..//hal/hcc/lib\libHCCD.a(hcc_mem.o)
 .debug_aranges
                0x00001bf8      0x160 C:/Hoopoe3/satellite-subsystems/demo/../..//hal/hcc/lib\libHCCD.a(fat.o)
 .debug_aranges
                0x00001d58       0x28 C:/Hoopoe3/satellite-subsystems/demo/../..//hal/hcc/lib\libHCCD.a(psp_hcc_mem.o)
 .debug_aranges
                0x00001d80       0xc8 C:/Hoopoe3/satellite-subsystems/demo/../..//hal/hal/lib\libHALD.a(I2C.o)
 .debug_aranges
                0x00001e48       0x78 C:/Hoopoe3/satellite-subsystems/demo/../..//hal/hal/lib\libHALD.a(SPI.o)
 .debug_aranges
                0x00001ec0       0x88 C:/Hoopoe3/satellite-subsystems/demo/../..//hal/hal/lib\libHALD.a(FRAM.o)
 .debug_aranges
                0x00001f48       0x88 C:/Hoopoe3/satellite-subsystems/demo/../..//hal/hal/lib\libHALD.a(Time.o)
 .debug_aranges
                0x00001fd0       0x30 C:/Hoopoe3/satellite-subsystems/demo/../..//hal/hal/lib\libHALD.a(WatchDogTimerNoOS.o)
 .debug_aranges
                0x00002000       0x38 C:/Hoopoe3/satellite-subsystems/demo/../..//hal/hal/lib\libHALD.a(WatchDogTimerOS.o)
 .debug_aranges
                0x00002038       0x50 C:/Hoopoe3/satellite-subsystems/demo/../..//hal/hal/lib\libHALD.a(util.o)
 .debug_aranges
                0x00002088       0x50 C:/Hoopoe3/satellite-subsystems/demo/../..//hal/hal/lib\libHALD.a(LED.o)
 .debug_aranges
                0x000020d8       0x68 C:/Hoopoe3/satellite-subsystems/demo/../..//hal/hal/lib\libHALD.a(RTC.o)
 .debug_aranges
                0x00002140       0x40 C:/Hoopoe3/satellite-subsystems/demo/../..//hal/hal/lib\libHALD.a(RTT.o)
 .debug_aranges
                0x00002180       0xd8 C:/Hoopoe3/satellite-subsystems/demo/../..//hal/freertos/lib\libFreeRTOSD.a(queue.o)
 .debug_aranges
                0x00002258      0x140 C:/Hoopoe3/satellite-subsystems/demo/../..//hal/freertos/lib\libFreeRTOSD.a(tasks.o)
 .debug_aranges
                0x00002398       0x28 C:/Hoopoe3/satellite-subsystems/demo/../..//hal/freertos/lib\libFreeRTOSD.a(hooks.o)
 .debug_aranges
                0x000023c0       0x38 C:/Hoopoe3/satellite-subsystems/demo/../..//hal/freertos/lib\libFreeRTOSD.a(standardMemMang.o)
 .debug_aranges
                0x000023f8       0x70 C:/Hoopoe3/satellite-subsystems/demo/../..//hal/freertos/lib\libFreeRTOSD.a(port.o)
 .debug_aranges
                0x00002468       0x40 C:/Hoopoe3/satellite-subsystems/demo/../..//hal/freertos/lib\libFreeRTOSD.a(list.o)
 .debug_aranges
                0x000024a8       0xa8 C:/Hoopoe3/satellite-subsystems/demo/../..//hal/at91/lib\libAt91D.a(syscalls.o)
 .debug_aranges
                0x00002550       0x30 C:/Hoopoe3/satellite-subsystems/demo/../..//hal/at91/lib\libAt91D.a(aic.o)
 .debug_aranges
                0x00002580       0x60 C:/Hoopoe3/satellite-subsystems/demo/../..//hal/at91/lib\libAt91D.a(cp15.o)
 .debug_aranges
                0x000025e0       0x50 C:/Hoopoe3/satellite-subsystems/demo/../..//hal/at91/lib\libAt91D.a(dbgu.o)
 .debug_aranges
                0x00002630       0x68 C:/Hoopoe3/satellite-subsystems/demo/../..//hal/at91/lib\libAt91D.a(pio.o)
 .debug_aranges
                0x00002698       0x60 C:/Hoopoe3/satellite-subsystems/demo/../..//hal/at91/lib\libAt91D.a(pit.o)
 .debug_aranges
                0x000026f8       0x58 C:/Hoopoe3/satellite-subsystems/demo/../..//hal/at91/lib\libAt91D.a(pmc.o)
 .debug_aranges
                0x00002750       0x60 C:/Hoopoe3/satellite-subsystems/demo/../..//hal/at91/lib\libAt91D.a(spi_at91.o)
 .debug_aranges
                0x000027b0       0x90 C:/Hoopoe3/satellite-subsystems/demo/../..//hal/at91/lib\libAt91D.a(twi_at91.o)
 .debug_aranges
                0x00002840       0x40 C:/Hoopoe3/satellite-subsystems/demo/../..//hal/at91/lib\libAt91D.a(ExitHandler.o)
 .debug_aranges
                0x00002880       0x28 C:/Hoopoe3/satellite-subsystems/demo/../..//hal/at91/lib\libAt91D.a(board_cstartup.o)
 .debug_aranges
                0x000028a8       0x20 C:/Hoopoe3/satellite-subsystems/demo/../..//hal/at91/lib\libAt91D.a(cp15_asm.o)
 .debug_aranges
                0x000028c8       0x40 C:/Hoopoe3/satellite-subsystems/demo/../..//hal/at91/lib\libAt91D.a(board_lowlevel.o)
 .debug_aranges
                0x00002908       0x38 C:/Hoopoe3/satellite-subsystems/demo/../..//hal/at91/lib\libAt91D.a(board_memories.o)

.debug_ranges   0x00000000     0x2610
 .debug_ranges  0x00000000       0x50 ./src/sub-systemCode/Main/CMD/COMM_CMD.o
 .debug_ranges  0x00000050       0x40 ./src/sub-systemCode/Main/CMD/EPS_CMD.o
 .debug_ranges  0x00000090       0x68 ./src/sub-systemCode/Main/CMD/General_CMD.o
 .debug_ranges  0x000000f8       0x20 ./src/sub-systemCode/Main/CMD/SW_CMD.o
 .debug_ranges  0x00000118       0x38 ./src/sub-systemCode/Main/Ants.o
 .debug_ranges  0x00000150       0xb0 ./src/sub-systemCode/Main/EPS.o
 .debug_ranges  0x00000200      0x100 ./src/sub-systemCode/Main/HouseKeeping.o
 .debug_ranges  0x00000300       0x58 ./src/sub-systemCode/Main/Main_Init.o
 .debug_ranges  0x00000358       0x88 ./src/sub-systemCode/Main/commands.o
 .debug_ranges  0x000003e0       0x80 ./src/sub-systemCode/Global/Global.o
 .debug_ranges  0x00000460      0x160 ./src/sub-systemCode/Global/GlobalParam.o
 .debug_ranges  0x000005c0       0xb8 ./src/sub-systemCode/Global/TM_managment.o
 .debug_ranges  0x00000678       0x28 ./src/sub-systemCode/COMM/APRS.o
 .debug_ranges  0x000006a0       0x50 ./src/sub-systemCode/COMM/DelayedCommand_list.o
 .debug_ranges  0x000006f0       0x38 ./src/sub-systemCode/COMM/GSC.o
 .debug_ranges  0x00000728       0xd0 ./src/sub-systemCode/COMM/TRXVU.o
 .debug_ranges  0x000007f8       0x10 ./src/sub-systemCode/ADCS/ADCS.o
 .debug_ranges  0x00000808      0x128 ./src/sub-systemCode/ADCS/Stage_Table.o
 .debug_ranges  0x00000930       0x28 ./src/main.o
 .debug_ranges  0x00000958       0xc8 C:/Hoopoe3/satellite-subsystems/demo/..//satellite-subsystems/lib\libSatelliteSubsystemsD.a(GomEPS.o)
 .debug_ranges  0x00000a20       0x78 C:/Hoopoe3/satellite-subsystems/demo/..//satellite-subsystems/lib\libSatelliteSubsystemsD.a(IsisAntS.o)
 .debug_ranges  0x00000a98       0x88 C:/Hoopoe3/satellite-subsystems/demo/..//satellite-subsystems/lib\libSatelliteSubsystemsD.a(IsisSolarPanelv2.o)
 .debug_ranges  0x00000b20       0xe0 C:/Hoopoe3/satellite-subsystems/demo/..//satellite-subsystems/lib\libSatelliteSubsystemsD.a(IsisTRXVU.o)
 .debug_ranges  0x00000c00      0x260 C:/Hoopoe3/satellite-subsystems/demo/..//satellite-subsystems/lib\libSatelliteSubsystemsD.a(cspaceADCS.o)
 .debug_ranges  0x00000e60      0x250 C:/Hoopoe3/satellite-subsystems/demo/..//satellite-subsystems/lib\libSatelliteSubsystemsD.a(gecko_driver.o)
 .debug_ranges  0x000010b0       0x80 C:/Hoopoe3/satellite-subsystems/demo/..//satellite-subsystems/lib\libSatelliteSubsystemsD.a(IsisTRXCommon.o)
 .debug_ranges  0x00001130      0x3b0 C:/Hoopoe3/satellite-subsystems/demo/../..//hal/hcc/lib\libHCCD.a(fat_common.o)
 .debug_ranges  0x000014e0      0x1c0 C:/Hoopoe3/satellite-subsystems/demo/../..//hal/hcc/lib\libHCCD.a(fat_m.o)
 .debug_ranges  0x000016a0      0x1e8 C:/Hoopoe3/satellite-subsystems/demo/../..//hal/hcc/lib\libHCCD.a(safefat.o)
 .debug_ranges  0x00001888       0x88 C:/Hoopoe3/satellite-subsystems/demo/../..//hal/hcc/lib\libHCCD.a(atmel_mcipdc.o)
 .debug_ranges  0x00001910       0x28 C:/Hoopoe3/satellite-subsystems/demo/../..//hal/hcc/lib\libHCCD.a(oalp_mutex.o)
 .debug_ranges  0x00001938       0x10 C:/Hoopoe3/satellite-subsystems/demo/../..//hal/hcc/lib\libHCCD.a(oalp_task.o)
 .debug_ranges  0x00001948       0x28 C:/Hoopoe3/satellite-subsystems/demo/../..//hal/hcc/lib\libHCCD.a(atmel_mcipdc_hw.o)
 .debug_ranges  0x00001970       0x10 C:/Hoopoe3/satellite-subsystems/demo/../..//hal/hcc/lib\libHCCD.a(psp_rtc.o)
 .debug_ranges  0x00001980       0xc0 C:/Hoopoe3/satellite-subsystems/demo/../..//hal/hcc/lib\libHCCD.a(hcc_mem.o)
 .debug_ranges  0x00001a40      0x1c8 C:/Hoopoe3/satellite-subsystems/demo/../..//hal/hcc/lib\libHCCD.a(fat.o)
 .debug_ranges  0x00001c08       0x18 C:/Hoopoe3/satellite-subsystems/demo/../..//hal/hcc/lib\libHCCD.a(psp_hcc_mem.o)
 .debug_ranges  0x00001c20       0xb8 C:/Hoopoe3/satellite-subsystems/demo/../..//hal/hal/lib\libHALD.a(I2C.o)
 .debug_ranges  0x00001cd8       0x68 C:/Hoopoe3/satellite-subsystems/demo/../..//hal/hal/lib\libHALD.a(SPI.o)
 .debug_ranges  0x00001d40       0x78 C:/Hoopoe3/satellite-subsystems/demo/../..//hal/hal/lib\libHALD.a(FRAM.o)
 .debug_ranges  0x00001db8       0x78 C:/Hoopoe3/satellite-subsystems/demo/../..//hal/hal/lib\libHALD.a(Time.o)
 .debug_ranges  0x00001e30       0x20 C:/Hoopoe3/satellite-subsystems/demo/../..//hal/hal/lib\libHALD.a(WatchDogTimerNoOS.o)
 .debug_ranges  0x00001e50       0x28 C:/Hoopoe3/satellite-subsystems/demo/../..//hal/hal/lib\libHALD.a(WatchDogTimerOS.o)
 .debug_ranges  0x00001e78       0x40 C:/Hoopoe3/satellite-subsystems/demo/../..//hal/hal/lib\libHALD.a(util.o)
 .debug_ranges  0x00001eb8       0x40 C:/Hoopoe3/satellite-subsystems/demo/../..//hal/hal/lib\libHALD.a(LED.o)
 .debug_ranges  0x00001ef8       0x58 C:/Hoopoe3/satellite-subsystems/demo/../..//hal/hal/lib\libHALD.a(RTC.o)
 .debug_ranges  0x00001f50       0x30 C:/Hoopoe3/satellite-subsystems/demo/../..//hal/hal/lib\libHALD.a(RTT.o)
 .debug_ranges  0x00001f80       0xc8 C:/Hoopoe3/satellite-subsystems/demo/../..//hal/freertos/lib\libFreeRTOSD.a(queue.o)
 .debug_ranges  0x00002048      0x148 C:/Hoopoe3/satellite-subsystems/demo/../..//hal/freertos/lib\libFreeRTOSD.a(tasks.o)
 .debug_ranges  0x00002190       0x18 C:/Hoopoe3/satellite-subsystems/demo/../..//hal/freertos/lib\libFreeRTOSD.a(hooks.o)
 .debug_ranges  0x000021a8       0x28 C:/Hoopoe3/satellite-subsystems/demo/../..//hal/freertos/lib\libFreeRTOSD.a(standardMemMang.o)
 .debug_ranges  0x000021d0       0x60 C:/Hoopoe3/satellite-subsystems/demo/../..//hal/freertos/lib\libFreeRTOSD.a(port.o)
 .debug_ranges  0x00002230       0x30 C:/Hoopoe3/satellite-subsystems/demo/../..//hal/freertos/lib\libFreeRTOSD.a(list.o)
 .debug_ranges  0x00002260       0x98 C:/Hoopoe3/satellite-subsystems/demo/../..//hal/at91/lib\libAt91D.a(syscalls.o)
 .debug_ranges  0x000022f8       0x20 C:/Hoopoe3/satellite-subsystems/demo/../..//hal/at91/lib\libAt91D.a(aic.o)
 .debug_ranges  0x00002318       0x50 C:/Hoopoe3/satellite-subsystems/demo/../..//hal/at91/lib\libAt91D.a(cp15.o)
 .debug_ranges  0x00002368       0x40 C:/Hoopoe3/satellite-subsystems/demo/../..//hal/at91/lib\libAt91D.a(dbgu.o)
 .debug_ranges  0x000023a8       0x58 C:/Hoopoe3/satellite-subsystems/demo/../..//hal/at91/lib\libAt91D.a(pio.o)
 .debug_ranges  0x00002400       0x50 C:/Hoopoe3/satellite-subsystems/demo/../..//hal/at91/lib\libAt91D.a(pit.o)
 .debug_ranges  0x00002450       0x48 C:/Hoopoe3/satellite-subsystems/demo/../..//hal/at91/lib\libAt91D.a(pmc.o)
 .debug_ranges  0x00002498       0x50 C:/Hoopoe3/satellite-subsystems/demo/../..//hal/at91/lib\libAt91D.a(spi_at91.o)
 .debug_ranges  0x000024e8       0x80 C:/Hoopoe3/satellite-subsystems/demo/../..//hal/at91/lib\libAt91D.a(twi_at91.o)
 .debug_ranges  0x00002568       0x30 C:/Hoopoe3/satellite-subsystems/demo/../..//hal/at91/lib\libAt91D.a(ExitHandler.o)
 .debug_ranges  0x00002598       0x20 C:/Hoopoe3/satellite-subsystems/demo/../..//hal/at91/lib\libAt91D.a(board_cstartup.o)
 .debug_ranges  0x000025b8       0x30 C:/Hoopoe3/satellite-subsystems/demo/../..//hal/at91/lib\libAt91D.a(board_lowlevel.o)
 .debug_ranges  0x000025e8       0x28 C:/Hoopoe3/satellite-subsystems/demo/../..//hal/at91/lib\libAt91D.a(board_memories.o)

.debug_line     0x00000000    0x10270
 .debug_line    0x00000000      0x28e ./src/sub-systemCode/Main/CMD/COMM_CMD.o
 .debug_line    0x0000028e      0x2d9 ./src/sub-systemCode/Main/CMD/EPS_CMD.o
 .debug_line    0x00000567      0x3b0 ./src/sub-systemCode/Main/CMD/General_CMD.o
 .debug_line    0x00000917      0x208 ./src/sub-systemCode/Main/CMD/SW_CMD.o
 .debug_line    0x00000b1f      0x236 ./src/sub-systemCode/Main/Ants.o
 .debug_line    0x00000d55      0x417 ./src/sub-systemCode/Main/EPS.o
 .debug_line    0x0000116c      0x859 ./src/sub-systemCode/Main/HouseKeeping.o
 .debug_line    0x000019c5      0x396 ./src/sub-systemCode/Main/Main_Init.o
 .debug_line    0x00001d5b      0x441 ./src/sub-systemCode/Main/commands.o
 .debug_line    0x0000219c      0x31f ./src/sub-systemCode/Global/Global.o
 .debug_line    0x000024bb      0x76c ./src/sub-systemCode/Global/GlobalParam.o
 .debug_line    0x00002c27      0x441 ./src/sub-systemCode/Global/TM_managment.o
 .debug_line    0x00003068      0x2dc ./src/sub-systemCode/COMM/APRS.o
 .debug_line    0x00003344      0x268 ./src/sub-systemCode/COMM/DelayedCommand_list.o
 .debug_line    0x000035ac      0x1af ./src/sub-systemCode/COMM/GSC.o
 .debug_line    0x0000375b      0x819 ./src/sub-systemCode/COMM/TRXVU.o
 .debug_line    0x00003f74      0x18f ./src/sub-systemCode/ADCS/ADCS.o
 .debug_line    0x00004103      0x430 ./src/sub-systemCode/ADCS/Stage_Table.o
 .debug_line    0x00004533      0x2b2 ./src/main.o
 .debug_line    0x000047e5      0x67c C:/Hoopoe3/satellite-subsystems/demo/..//satellite-subsystems/lib\libSatelliteSubsystemsD.a(GomEPS.o)
 .debug_line    0x00004e61      0x310 C:/Hoopoe3/satellite-subsystems/demo/..//satellite-subsystems/lib\libSatelliteSubsystemsD.a(IsisAntS.o)
 .debug_line    0x00005171      0x466 C:/Hoopoe3/satellite-subsystems/demo/..//satellite-subsystems/lib\libSatelliteSubsystemsD.a(IsisSolarPanelv2.o)
 .debug_line    0x000055d7      0x48a C:/Hoopoe3/satellite-subsystems/demo/..//satellite-subsystems/lib\libSatelliteSubsystemsD.a(IsisTRXVU.o)
 .debug_line    0x00005a61      0x9d2 C:/Hoopoe3/satellite-subsystems/demo/..//satellite-subsystems/lib\libSatelliteSubsystemsD.a(cspaceADCS.o)
 .debug_line    0x00006433      0xb96 C:/Hoopoe3/satellite-subsystems/demo/..//satellite-subsystems/lib\libSatelliteSubsystemsD.a(gecko_driver.o)
 .debug_line    0x00006fc9      0x279 C:/Hoopoe3/satellite-subsystems/demo/..//satellite-subsystems/lib\libSatelliteSubsystemsD.a(IsisTRXCommon.o)
 .debug_line    0x00007242     0x1b99 C:/Hoopoe3/satellite-subsystems/demo/../..//hal/hcc/lib\libHCCD.a(fat_common.o)
 .debug_line    0x00008ddb      0x637 C:/Hoopoe3/satellite-subsystems/demo/../..//hal/hcc/lib\libHCCD.a(fat_m.o)
 .debug_line    0x00009412      0xcb9 C:/Hoopoe3/satellite-subsystems/demo/../..//hal/hcc/lib\libHCCD.a(safefat.o)
 .debug_line    0x0000a0cb      0x574 C:/Hoopoe3/satellite-subsystems/demo/../..//hal/hcc/lib\libHCCD.a(atmel_mcipdc.o)
 .debug_line    0x0000a63f      0x14d C:/Hoopoe3/satellite-subsystems/demo/../..//hal/hcc/lib\libHCCD.a(oalp_mutex.o)
 .debug_line    0x0000a78c       0x92 C:/Hoopoe3/satellite-subsystems/demo/../..//hal/hcc/lib\libHCCD.a(oalp_task.o)
 .debug_line    0x0000a81e      0x18b C:/Hoopoe3/satellite-subsystems/demo/../..//hal/hcc/lib\libHCCD.a(atmel_mcipdc_hw.o)
 .debug_line    0x0000a9a9      0x132 C:/Hoopoe3/satellite-subsystems/demo/../..//hal/hcc/lib\libHCCD.a(psp_rtc.o)
 .debug_line    0x0000aadb      0x5b7 C:/Hoopoe3/satellite-subsystems/demo/../..//hal/hcc/lib\libHCCD.a(hcc_mem.o)
 .debug_line    0x0000b092     0x1081 C:/Hoopoe3/satellite-subsystems/demo/../..//hal/hcc/lib\libHCCD.a(fat.o)
 .debug_line    0x0000c113      0x133 C:/Hoopoe3/satellite-subsystems/demo/../..//hal/hcc/lib\libHCCD.a(psp_hcc_mem.o)
 .debug_line    0x0000c246      0x4fa C:/Hoopoe3/satellite-subsystems/demo/../..//hal/hal/lib\libHALD.a(I2C.o)
 .debug_line    0x0000c740      0x3d7 C:/Hoopoe3/satellite-subsystems/demo/../..//hal/hal/lib\libHALD.a(SPI.o)
 .debug_line    0x0000cb17      0x352 C:/Hoopoe3/satellite-subsystems/demo/../..//hal/hal/lib\libHALD.a(FRAM.o)
 .debug_line    0x0000ce69      0x379 C:/Hoopoe3/satellite-subsystems/demo/../..//hal/hal/lib\libHALD.a(Time.o)
 .debug_line    0x0000d1e2       0xe3 C:/Hoopoe3/satellite-subsystems/demo/../..//hal/hal/lib\libHALD.a(WatchDogTimerNoOS.o)
 .debug_line    0x0000d2c5      0x147 C:/Hoopoe3/satellite-subsystems/demo/../..//hal/hal/lib\libHALD.a(WatchDogTimerOS.o)
 .debug_line    0x0000d40c      0x1e1 C:/Hoopoe3/satellite-subsystems/demo/../..//hal/hal/lib\libHALD.a(util.o)
 .debug_line    0x0000d5ed      0x1fa C:/Hoopoe3/satellite-subsystems/demo/../..//hal/hal/lib\libHALD.a(LED.o)
 .debug_line    0x0000d7e7      0x26f C:/Hoopoe3/satellite-subsystems/demo/../..//hal/hal/lib\libHALD.a(RTC.o)
 .debug_line    0x0000da56       0xe8 C:/Hoopoe3/satellite-subsystems/demo/../..//hal/hal/lib\libHALD.a(RTT.o)
 .debug_line    0x0000db3e      0x5ae C:/Hoopoe3/satellite-subsystems/demo/../..//hal/freertos/lib\libFreeRTOSD.a(queue.o)
 .debug_line    0x0000e0ec      0x82a C:/Hoopoe3/satellite-subsystems/demo/../..//hal/freertos/lib\libFreeRTOSD.a(tasks.o)
 .debug_line    0x0000e916       0x77 C:/Hoopoe3/satellite-subsystems/demo/../..//hal/freertos/lib\libFreeRTOSD.a(hooks.o)
 .debug_line    0x0000e98d       0xf9 C:/Hoopoe3/satellite-subsystems/demo/../..//hal/freertos/lib\libFreeRTOSD.a(standardMemMang.o)
 .debug_line    0x0000ea86      0x1ea C:/Hoopoe3/satellite-subsystems/demo/../..//hal/freertos/lib\libFreeRTOSD.a(port.o)
 .debug_line    0x0000ec70      0x10e C:/Hoopoe3/satellite-subsystems/demo/../..//hal/freertos/lib\libFreeRTOSD.a(list.o)
 .debug_line    0x0000ed7e      0x356 C:/Hoopoe3/satellite-subsystems/demo/../..//hal/at91/lib\libAt91D.a(syscalls.o)
 .debug_line    0x0000f0d4       0xb2 C:/Hoopoe3/satellite-subsystems/demo/../..//hal/at91/lib\libAt91D.a(aic.o)
 .debug_line    0x0000f186      0x101 C:/Hoopoe3/satellite-subsystems/demo/../..//hal/at91/lib\libAt91D.a(cp15.o)
 .debug_line    0x0000f287      0x2cc C:/Hoopoe3/satellite-subsystems/demo/../..//hal/at91/lib\libAt91D.a(dbgu.o)
 .debug_line    0x0000f553      0x1b7 C:/Hoopoe3/satellite-subsystems/demo/../..//hal/at91/lib\libAt91D.a(pio.o)
 .debug_line    0x0000f70a      0x136 C:/Hoopoe3/satellite-subsystems/demo/../..//hal/at91/lib\libAt91D.a(pit.o)
 .debug_line    0x0000f840      0x145 C:/Hoopoe3/satellite-subsystems/demo/../..//hal/at91/lib\libAt91D.a(pmc.o)
 .debug_line    0x0000f985      0x14e C:/Hoopoe3/satellite-subsystems/demo/../..//hal/at91/lib\libAt91D.a(spi_at91.o)
 .debug_line    0x0000fad3      0x2e9 C:/Hoopoe3/satellite-subsystems/demo/../..//hal/at91/lib\libAt91D.a(twi_at91.o)
 .debug_line    0x0000fdbc       0xda C:/Hoopoe3/satellite-subsystems/demo/../..//hal/at91/lib\libAt91D.a(ExitHandler.o)
 .debug_line    0x0000fe96      0x109 C:/Hoopoe3/satellite-subsystems/demo/../..//hal/at91/lib\libAt91D.a(board_cstartup.o)
 .debug_line    0x0000ff9f       0x6f C:/Hoopoe3/satellite-subsystems/demo/../..//hal/at91/lib\libAt91D.a(cp15_asm.o)
 .debug_line    0x0001000e      0x122 C:/Hoopoe3/satellite-subsystems/demo/../..//hal/at91/lib\libAt91D.a(board_lowlevel.o)
 .debug_line    0x00010130      0x140 C:/Hoopoe3/satellite-subsystems/demo/../..//hal/at91/lib\libAt91D.a(board_memories.o)

.debug_str      0x00000000     0xcf0e
 .debug_str     0x00000000      0x65e ./src/sub-systemCode/Main/CMD/COMM_CMD.o
                                0x6be (size before relaxing)
 .debug_str     0x0000065e      0x194 ./src/sub-systemCode/Main/CMD/EPS_CMD.o
                                0x757 (size before relaxing)
 .debug_str     0x000007f2      0x409 ./src/sub-systemCode/Main/CMD/General_CMD.o
                                0xa3b (size before relaxing)
 .debug_str     0x00000bfb       0x6a ./src/sub-systemCode/Main/CMD/SW_CMD.o
                                0x6a1 (size before relaxing)
 .debug_str     0x00000c65      0x27f ./src/sub-systemCode/Main/Ants.o
                                0x401 (size before relaxing)
 .debug_str     0x00000ee4      0x3bc ./src/sub-systemCode/Main/EPS.o
                                0x67a (size before relaxing)
 .debug_str     0x000012a0      0x653 ./src/sub-systemCode/Main/HouseKeeping.o
                               0x1359 (size before relaxing)
 .debug_str     0x000018f3      0x198 ./src/sub-systemCode/Main/Main_Init.o
                                0x3eb (size before relaxing)
 .debug_str     0x00001a8b      0x131 ./src/sub-systemCode/Main/commands.o
                                0x751 (size before relaxing)
 .debug_str     0x00001bbc      0x1a3 ./src/sub-systemCode/Global/Global.o
                                0x3f7 (size before relaxing)
 .debug_str     0x00001d5f      0x31a ./src/sub-systemCode/Global/GlobalParam.o
                                0x624 (size before relaxing)
 .debug_str     0x00002079      0x2c6 ./src/sub-systemCode/Global/TM_managment.o
                                0x61f (size before relaxing)
 .debug_str     0x0000233f      0x10b ./src/sub-systemCode/COMM/APRS.o
                                0x30d (size before relaxing)
 .debug_str     0x0000244a      0x140 ./src/sub-systemCode/COMM/DelayedCommand_list.o
                                0x2eb (size before relaxing)
 .debug_str     0x0000258a       0x9b ./src/sub-systemCode/COMM/GSC.o
                                0x68b (size before relaxing)
 .debug_str     0x00002625      0x4fb ./src/sub-systemCode/COMM/TRXVU.o
                               0x11ad (size before relaxing)
 .debug_str     0x00002b20       0x84 ./src/sub-systemCode/ADCS/ADCS.o
                                0x1e7 (size before relaxing)
 .debug_str     0x00002ba4      0xc53 ./src/sub-systemCode/ADCS/Stage_Table.o
                                0xe28 (size before relaxing)
 .debug_str     0x000037f7      0x19e ./src/main.o
                                0x359 (size before relaxing)
 .debug_str     0x00003995      0x61a C:/Hoopoe3/satellite-subsystems/demo/..//satellite-subsystems/lib\libSatelliteSubsystemsD.a(GomEPS.o)
                                0xafc (size before relaxing)
 .debug_str     0x00003faf      0x38c C:/Hoopoe3/satellite-subsystems/demo/..//satellite-subsystems/lib\libSatelliteSubsystemsD.a(IsisAntS.o)
                                0x6bd (size before relaxing)
 .debug_str     0x0000433b      0x4a8 C:/Hoopoe3/satellite-subsystems/demo/..//satellite-subsystems/lib\libSatelliteSubsystemsD.a(IsisSolarPanelv2.o)
                                0x8dd (size before relaxing)
 .debug_str     0x000047e3      0x5aa C:/Hoopoe3/satellite-subsystems/demo/..//satellite-subsystems/lib\libSatelliteSubsystemsD.a(IsisTRXVU.o)
                                0xa97 (size before relaxing)
 .debug_str     0x00004d8d     0x221a C:/Hoopoe3/satellite-subsystems/demo/..//satellite-subsystems/lib\libSatelliteSubsystemsD.a(cspaceADCS.o)
                               0x33a2 (size before relaxing)
 .debug_str     0x00006fa7      0x686 C:/Hoopoe3/satellite-subsystems/demo/..//satellite-subsystems/lib\libSatelliteSubsystemsD.a(gecko_driver.o)
                                0xa12 (size before relaxing)
 .debug_str     0x0000762d      0x1ee C:/Hoopoe3/satellite-subsystems/demo/..//satellite-subsystems/lib\libSatelliteSubsystemsD.a(IsisTRXCommon.o)
                                0x436 (size before relaxing)
 .debug_str     0x0000781b     0x120c C:/Hoopoe3/satellite-subsystems/demo/../..//hal/hcc/lib\libHCCD.a(fat_common.o)
                               0x1610 (size before relaxing)
 .debug_str     0x00008a27      0x2f7 C:/Hoopoe3/satellite-subsystems/demo/../..//hal/hcc/lib\libHCCD.a(fat_m.o)
                                0x7fd (size before relaxing)
 .debug_str     0x00008d1e      0x540 C:/Hoopoe3/satellite-subsystems/demo/../..//hal/hcc/lib\libHCCD.a(safefat.o)
                                0xdcf (size before relaxing)
 .debug_str     0x0000925e      0x34d C:/Hoopoe3/satellite-subsystems/demo/../..//hal/hcc/lib\libHCCD.a(atmel_mcipdc.o)
                                0x643 (size before relaxing)
 .debug_str     0x000095ab       0x8d C:/Hoopoe3/satellite-subsystems/demo/../..//hal/hcc/lib\libHCCD.a(oalp_mutex.o)
                                0x1df (size before relaxing)
 .debug_str     0x00009638       0x27 C:/Hoopoe3/satellite-subsystems/demo/../..//hal/hcc/lib\libHCCD.a(oalp_task.o)
                                0x154 (size before relaxing)
 .debug_str     0x0000965f       0xc0 C:/Hoopoe3/satellite-subsystems/demo/../..//hal/hcc/lib\libHCCD.a(atmel_mcipdc_hw.o)
                                0x3bb (size before relaxing)
 .debug_str     0x0000971f       0x34 C:/Hoopoe3/satellite-subsystems/demo/../..//hal/hcc/lib\libHCCD.a(psp_rtc.o)
                                0x1b2 (size before relaxing)
 .debug_str     0x00009753      0x2eb C:/Hoopoe3/satellite-subsystems/demo/../..//hal/hcc/lib\libHCCD.a(hcc_mem.o)
                                0x4fa (size before relaxing)
 .debug_str     0x00009a3e      0x2e4 C:/Hoopoe3/satellite-subsystems/demo/../..//hal/hcc/lib\libHCCD.a(fat.o)
                                0xd16 (size before relaxing)
 .debug_str     0x00009d22       0x7a C:/Hoopoe3/satellite-subsystems/demo/../..//hal/hcc/lib\libHCCD.a(psp_hcc_mem.o)
                                0x1d7 (size before relaxing)
 .debug_str     0x00009d9c      0x5f3 C:/Hoopoe3/satellite-subsystems/demo/../..//hal/hal/lib\libHALD.a(I2C.o)
                                0xa1c (size before relaxing)
 .debug_str     0x0000a38f      0x369 C:/Hoopoe3/satellite-subsystems/demo/../..//hal/hal/lib\libHALD.a(SPI.o)
                                0x8be (size before relaxing)
 .debug_str     0x0000a6f8      0x197 C:/Hoopoe3/satellite-subsystems/demo/../..//hal/hal/lib\libHALD.a(FRAM.o)
                                0x58b (size before relaxing)
 .debug_str     0x0000a88f      0x1ee C:/Hoopoe3/satellite-subsystems/demo/../..//hal/hal/lib\libHALD.a(Time.o)
                                0x398 (size before relaxing)
 .debug_str     0x0000aa7d       0x6b C:/Hoopoe3/satellite-subsystems/demo/../..//hal/hal/lib\libHALD.a(WatchDogTimerNoOS.o)
                                0x2f3 (size before relaxing)
 .debug_str     0x0000aae8       0xef C:/Hoopoe3/satellite-subsystems/demo/../..//hal/hal/lib\libHALD.a(WatchDogTimerOS.o)
                                0x22e (size before relaxing)
 .debug_str     0x0000abd7       0xc4 C:/Hoopoe3/satellite-subsystems/demo/../..//hal/hal/lib\libHALD.a(util.o)
                                0x1e2 (size before relaxing)
 .debug_str     0x0000ac9b       0x6c C:/Hoopoe3/satellite-subsystems/demo/../..//hal/hal/lib\libHALD.a(LED.o)
                                0x31d (size before relaxing)
 .debug_str     0x0000ad07       0xfc C:/Hoopoe3/satellite-subsystems/demo/../..//hal/hal/lib\libHALD.a(RTC.o)
                                0x4eb (size before relaxing)
 .debug_str     0x0000ae03       0x4b C:/Hoopoe3/satellite-subsystems/demo/../..//hal/hal/lib\libHALD.a(RTT.o)
                                0x1b5 (size before relaxing)
 .debug_str     0x0000ae4e      0x50b C:/Hoopoe3/satellite-subsystems/demo/../..//hal/freertos/lib\libFreeRTOSD.a(queue.o)
                                0x643 (size before relaxing)
 .debug_str     0x0000b359      0x707 C:/Hoopoe3/satellite-subsystems/demo/../..//hal/freertos/lib\libFreeRTOSD.a(tasks.o)
                                0x96e (size before relaxing)
 .debug_str     0x0000ba60       0x3a C:/Hoopoe3/satellite-subsystems/demo/../..//hal/freertos/lib\libFreeRTOSD.a(hooks.o)
                                0x17e (size before relaxing)
 .debug_str     0x0000ba9a       0x6f C:/Hoopoe3/satellite-subsystems/demo/../..//hal/freertos/lib\libFreeRTOSD.a(standardMemMang.o)
                                0x18e (size before relaxing)
 .debug_str     0x0000bb09      0x155 C:/Hoopoe3/satellite-subsystems/demo/../..//hal/freertos/lib\libFreeRTOSD.a(port.o)
                                0x2f6 (size before relaxing)
 .debug_str     0x0000bc5e       0xa1 C:/Hoopoe3/satellite-subsystems/demo/../..//hal/freertos/lib\libFreeRTOSD.a(list.o)
                                0x257 (size before relaxing)
 .debug_str     0x0000bcff      0x1b7 C:/Hoopoe3/satellite-subsystems/demo/../..//hal/at91/lib\libAt91D.a(syscalls.o)
                                0x30e (size before relaxing)
 .debug_str     0x0000beb6       0xfd C:/Hoopoe3/satellite-subsystems/demo/../..//hal/at91/lib\libAt91D.a(aic.o)
                                0x1be (size before relaxing)
 .debug_str     0x0000bfb3       0xcd C:/Hoopoe3/satellite-subsystems/demo/../..//hal/at91/lib\libAt91D.a(cp15.o)
                                0x1e9 (size before relaxing)
 .debug_str     0x0000c080      0x4c2 C:/Hoopoe3/satellite-subsystems/demo/../..//hal/at91/lib\libAt91D.a(dbgu.o)
                                0x65a (size before relaxing)
 .debug_str     0x0000c542       0xde C:/Hoopoe3/satellite-subsystems/demo/../..//hal/at91/lib\libAt91D.a(pio.o)
                                0x408 (size before relaxing)
 .debug_str     0x0000c620       0x9b C:/Hoopoe3/satellite-subsystems/demo/../..//hal/at91/lib\libAt91D.a(pit.o)
                                0x17c (size before relaxing)
 .debug_str     0x0000c6bb       0xcf C:/Hoopoe3/satellite-subsystems/demo/../..//hal/at91/lib\libAt91D.a(pmc.o)
                                0x2ac (size before relaxing)
 .debug_str     0x0000c78a       0xaf C:/Hoopoe3/satellite-subsystems/demo/../..//hal/at91/lib\libAt91D.a(spi_at91.o)
                                0x2f4 (size before relaxing)
 .debug_str     0x0000c839      0x161 C:/Hoopoe3/satellite-subsystems/demo/../..//hal/at91/lib\libAt91D.a(twi_at91.o)
                                0x3b0 (size before relaxing)
 .debug_str     0x0000c99a      0x127 C:/Hoopoe3/satellite-subsystems/demo/../..//hal/at91/lib\libAt91D.a(ExitHandler.o)
                                0x24e (size before relaxing)
 .debug_str     0x0000cac1      0x23d C:/Hoopoe3/satellite-subsystems/demo/../..//hal/at91/lib\libAt91D.a(board_lowlevel.o)
                                0x4c6 (size before relaxing)
 .debug_str     0x0000ccfe      0x210 C:/Hoopoe3/satellite-subsystems/demo/../..//hal/at91/lib\libAt91D.a(board_memories.o)
                                0x641 (size before relaxing)
