Archive member included because of file (symbol)

c:/isis/application/toolchain/bin/../lib/gcc/arm-none-eabi/4.7.4/../../../../arm-none-eabi/lib\libc_s.a(lib_a-vfprintf_float.o)
                              (_printf_float)
c:/isis/application/toolchain/bin/../lib/gcc/arm-none-eabi/4.7.4/../../../../arm-none-eabi/lib\libc_s.a(lib_a-vfprintf_i.o)
                              c:/isis/application/toolchain/bin/../lib/gcc/arm-none-eabi/4.7.4/../../../../arm-none-eabi/lib\libc_s.a(lib_a-vfprintf_float.o) (_printf_common)
c:/isis/application/toolchain/bin/../lib/gcc/arm-none-eabi/4.7.4/../../../../arm-none-eabi/lib\libc_s.a(lib_a-vfscanf_float.o)
                              (_scanf_float)
c:/isis/application/toolchain/bin/../lib/gcc/arm-none-eabi/4.7.4/../../../../arm-none-eabi/lib\libc_s.a(lib_a-dtoa.o)
                              c:/isis/application/toolchain/bin/../lib/gcc/arm-none-eabi/4.7.4/../../../../arm-none-eabi/lib\libc_s.a(lib_a-vfprintf_float.o) (_dtoa_r)
c:/isis/application/toolchain/bin/../lib/gcc/arm-none-eabi/4.7.4/../../../../arm-none-eabi/lib\libc_s.a(lib_a-locale.o)
                              c:/isis/application/toolchain/bin/../lib/gcc/arm-none-eabi/4.7.4/../../../../arm-none-eabi/lib\libc_s.a(lib_a-vfprintf_float.o) (_localeconv_r)
c:/isis/application/toolchain/bin/../lib/gcc/arm-none-eabi/4.7.4/../../../../arm-none-eabi/lib\libc_s.a(lib_a-malloc.o)
                              c:/isis/application/toolchain/bin/../lib/gcc/arm-none-eabi/4.7.4/../../../../arm-none-eabi/lib\libc_s.a(lib_a-dtoa.o) (malloc)
c:/isis/application/toolchain/bin/../lib/gcc/arm-none-eabi/4.7.4/../../../../arm-none-eabi/lib\libc_s.a(lib_a-mallocr.o)
                              c:/isis/application/toolchain/bin/../lib/gcc/arm-none-eabi/4.7.4/../../../../arm-none-eabi/lib\libc_s.a(lib_a-malloc.o) (_malloc_r)
c:/isis/application/toolchain/bin/../lib/gcc/arm-none-eabi/4.7.4/../../../../arm-none-eabi/lib\libc_s.a(lib_a-memcpy.o)
                              c:/isis/application/toolchain/bin/../lib/gcc/arm-none-eabi/4.7.4/../../../../arm-none-eabi/lib\libc_s.a(lib_a-dtoa.o) (memcpy)
c:/isis/application/toolchain/bin/../lib/gcc/arm-none-eabi/4.7.4/../../../../arm-none-eabi/lib\libc_s.a(lib_a-mprec.o)
                              c:/isis/application/toolchain/bin/../lib/gcc/arm-none-eabi/4.7.4/../../../../arm-none-eabi/lib\libc_s.a(lib_a-dtoa.o) (_Balloc)
c:/isis/application/toolchain/bin/../lib/gcc/arm-none-eabi/4.7.4/../../../../arm-none-eabi/lib\libc_s.a(lib_a-s_fpclassify.o)
                              c:/isis/application/toolchain/bin/../lib/gcc/arm-none-eabi/4.7.4/../../../../arm-none-eabi/lib\libc_s.a(lib_a-vfprintf_float.o) (__fpclassifyd)
c:/isis/application/toolchain/bin/../lib/gcc/arm-none-eabi/4.7.4/../../../../arm-none-eabi/lib\libc_s.a(lib_a-sbrkr.o)
                              c:/isis/application/toolchain/bin/../lib/gcc/arm-none-eabi/4.7.4/../../../../arm-none-eabi/lib\libc_s.a(lib_a-mallocr.o) (_sbrk_r)
c:/isis/application/toolchain/bin/../lib/gcc/arm-none-eabi/4.7.4/../../../../arm-none-eabi/lib\libc_s.a(lib_a-sf_nan.o)
                              c:/isis/application/toolchain/bin/../lib/gcc/arm-none-eabi/4.7.4/../../../../arm-none-eabi/lib\libc_s.a(lib_a-vfscanf_float.o) (nanf)
c:/isis/application/toolchain/bin/../lib/gcc/arm-none-eabi/4.7.4/../../../../arm-none-eabi/lib\libc_s.a(lib_a-sprintf.o)
                              c:/isis/application/toolchain/bin/../lib/gcc/arm-none-eabi/4.7.4/../../../../arm-none-eabi/lib\libc_s.a(lib_a-vfscanf_float.o) (sprintf)
c:/isis/application/toolchain/bin/../lib/gcc/arm-none-eabi/4.7.4/../../../../arm-none-eabi/lib\libc_s.a(lib_a-strcmp.o)
                              c:/isis/application/toolchain/bin/../lib/gcc/arm-none-eabi/4.7.4/../../../../arm-none-eabi/lib\libc_s.a(lib_a-locale.o) (strcmp)
c:/isis/application/toolchain/bin/../lib/gcc/arm-none-eabi/4.7.4/../../../../arm-none-eabi/lib\libc_s.a(lib_a-strlen.o)
                              c:/isis/application/toolchain/bin/../lib/gcc/arm-none-eabi/4.7.4/../../../../arm-none-eabi/lib\libc_s.a(lib_a-vfprintf_float.o) (strlen)
c:/isis/application/toolchain/bin/../lib/gcc/arm-none-eabi/4.7.4/../../../../arm-none-eabi/lib\libc_s.a(lib_a-strtod.o)
                              c:/isis/application/toolchain/bin/../lib/gcc/arm-none-eabi/4.7.4/../../../../arm-none-eabi/lib\libc_s.a(lib_a-vfscanf_float.o) (_strtod_r)
c:/isis/application/toolchain/bin/../lib/gcc/arm-none-eabi/4.7.4/../../../../arm-none-eabi/lib\libc_s.a(lib_a-strtol.o)
                              c:/isis/application/toolchain/bin/../lib/gcc/arm-none-eabi/4.7.4/../../../../arm-none-eabi/lib\libc_s.a(lib_a-vfscanf_float.o) (_strtol_r)
c:/isis/application/toolchain/bin/../lib/gcc/arm-none-eabi/4.7.4/../../../../arm-none-eabi/lib\libc_s.a(lib_a-svfprintf.o)
                              c:/isis/application/toolchain/bin/../lib/gcc/arm-none-eabi/4.7.4/../../../../arm-none-eabi/lib\libc_s.a(lib_a-sprintf.o) (_svfprintf_r)
c:/isis/application/toolchain/bin/../lib/gcc/arm-none-eabi/4.7.4/../../../../arm-none-eabi/lib\libc_s.a(lib_a-callocr.o)
                              c:/isis/application/toolchain/bin/../lib/gcc/arm-none-eabi/4.7.4/../../../../arm-none-eabi/lib\libc_s.a(lib_a-mprec.o) (_calloc_r)
c:/isis/application/toolchain/bin/../lib/gcc/arm-none-eabi/4.7.4/../../../../arm-none-eabi/lib\libc_s.a(lib_a-ctype_.o)
                              c:/isis/application/toolchain/bin/../lib/gcc/arm-none-eabi/4.7.4/../../../../arm-none-eabi/lib\libc_s.a(lib_a-strtol.o) (__ctype_ptr__)
c:/isis/application/toolchain/bin/../lib/gcc/arm-none-eabi/4.7.4/../../../../arm-none-eabi/lib\libc_s.a(lib_a-freer.o)
                              c:/isis/application/toolchain/bin/../lib/gcc/arm-none-eabi/4.7.4/../../../../arm-none-eabi/lib\libc_s.a(lib_a-malloc.o) (_free_r)
c:/isis/application/toolchain/bin/../lib/gcc/arm-none-eabi/4.7.4/../../../../arm-none-eabi/lib\libc_s.a(lib_a-gdtoa-gethex.o)
                              c:/isis/application/toolchain/bin/../lib/gcc/arm-none-eabi/4.7.4/../../../../arm-none-eabi/lib\libc_s.a(lib_a-strtod.o) (__gethex)
c:/isis/application/toolchain/bin/../lib/gcc/arm-none-eabi/4.7.4/../../../../arm-none-eabi/lib\libc_s.a(lib_a-gdtoa-hexnan.o)
                              c:/isis/application/toolchain/bin/../lib/gcc/arm-none-eabi/4.7.4/../../../../arm-none-eabi/lib\libc_s.a(lib_a-strtod.o) (__hexnan)
c:/isis/application/toolchain/bin/../lib/gcc/arm-none-eabi/4.7.4/../../../../arm-none-eabi/lib\libc_s.a(lib_a-impure.o)
                              c:/isis/application/toolchain/bin/../lib/gcc/arm-none-eabi/4.7.4/../../../../arm-none-eabi/lib\libc_s.a(lib_a-locale.o) (_impure_ptr)
c:/isis/application/toolchain/bin/../lib/gcc/arm-none-eabi/4.7.4/../../../../arm-none-eabi/lib\libc_s.a(lib_a-memchr.o)
                              c:/isis/application/toolchain/bin/../lib/gcc/arm-none-eabi/4.7.4/../../../../arm-none-eabi/lib\libc_s.a(lib_a-svfprintf.o) (memchr)
c:/isis/application/toolchain/bin/../lib/gcc/arm-none-eabi/4.7.4/../../../../arm-none-eabi/lib\libc_s.a(lib_a-memmove.o)
                              c:/isis/application/toolchain/bin/../lib/gcc/arm-none-eabi/4.7.4/../../../../arm-none-eabi/lib\libc_s.a(lib_a-svfprintf.o) (memmove)
c:/isis/application/toolchain/bin/../lib/gcc/arm-none-eabi/4.7.4/../../../../arm-none-eabi/lib\libc_s.a(lib_a-memset.o)
                              c:/isis/application/toolchain/bin/../lib/gcc/arm-none-eabi/4.7.4/../../../../arm-none-eabi/lib\libc_s.a(lib_a-callocr.o) (memset)
c:/isis/application/toolchain/bin/../lib/gcc/arm-none-eabi/4.7.4/../../../../arm-none-eabi/lib\libc_s.a(lib_a-reallocr.o)
                              c:/isis/application/toolchain/bin/../lib/gcc/arm-none-eabi/4.7.4/../../../../arm-none-eabi/lib\libc_s.a(lib_a-svfprintf.o) (_realloc_r)
c:/isis/application/toolchain/bin/../lib/gcc/arm-none-eabi/4.7.4/../../../../arm-none-eabi/lib\libc_s.a(lib_a-reent.o)
                              c:/isis/application/toolchain/bin/../lib/gcc/arm-none-eabi/4.7.4/../../../../arm-none-eabi/lib\libc_s.a(lib_a-sbrkr.o) (errno)
c:/isis/application/toolchain/bin/../lib/gcc/arm-none-eabi/4.7.4/../../../../arm-none-eabi/lib\libc_s.a(lib_a-strncmp.o)
                              c:/isis/application/toolchain/bin/../lib/gcc/arm-none-eabi/4.7.4/../../../../arm-none-eabi/lib\libc_s.a(lib_a-strtod.o) (strncmp)
c:/isis/application/toolchain/bin/../lib/gcc/arm-none-eabi/4.7.4/../../../../arm-none-eabi/lib\libc_s.a(lib_a-msizer.o)
                              c:/isis/application/toolchain/bin/../lib/gcc/arm-none-eabi/4.7.4/../../../../arm-none-eabi/lib\libc_s.a(lib_a-reallocr.o) (_malloc_usable_size_r)
C:/ISIS/workspace/HOOPOE3/satellite-subsystems/demo/..//satellite-subsystems/lib\libSatelliteSubsystemsD.a(GomEPS.o)
                              ./src/sub-systemCode/Main/EPS.o (GomEpsInitialize)
C:/ISIS/workspace/HOOPOE3/satellite-subsystems/demo/..//satellite-subsystems/lib\libSatelliteSubsystemsD.a(IsisAntS.o)
                              ./src/sub-systemCode/Main/Ants.o (IsisAntS_initialize)
C:/ISIS/workspace/HOOPOE3/satellite-subsystems/demo/..//satellite-subsystems/lib\libSatelliteSubsystemsD.a(IsisEPS.o)
                              ./src/sub-systemCode/CUF/CUF.o (IsisEPS_initialize)
C:/ISIS/workspace/HOOPOE3/satellite-subsystems/demo/..//satellite-subsystems/lib\libSatelliteSubsystemsD.a(IsisMTQv1.o)
                              ./src/sub-systemCode/CUF/CUF.o (isisMTQv1_initialize)
C:/ISIS/workspace/HOOPOE3/satellite-subsystems/demo/..//satellite-subsystems/lib\libSatelliteSubsystemsD.a(IsisMTQv2.o)
                              ./src/sub-systemCode/CUF/CUF.o (IsisMTQv2_initialize)
C:/ISIS/workspace/HOOPOE3/satellite-subsystems/demo/..//satellite-subsystems/lib\libSatelliteSubsystemsD.a(IsisSolarPanelv2.o)
                              ./src/sub-systemCode/Main/EPS.o (IsisSolarPanelv2_initialize)
C:/ISIS/workspace/HOOPOE3/satellite-subsystems/demo/..//satellite-subsystems/lib\libSatelliteSubsystemsD.a(IsisTRXVU.o)
                              ./src/sub-systemCode/COMM/TRXVU.o (IsisTrxvu_initialize)
C:/ISIS/workspace/HOOPOE3/satellite-subsystems/demo/..//satellite-subsystems/lib\libSatelliteSubsystemsD.a(cspaceADCS.o)
                              ./src/sub-systemCode/CUF/CUF.o (cspaceADCS_initialize)
C:/ISIS/workspace/HOOPOE3/satellite-subsystems/demo/..//satellite-subsystems/lib\libSatelliteSubsystemsD.a(IsisTRXCommon.o)
                              C:/ISIS/workspace/HOOPOE3/satellite-subsystems/demo/..//satellite-subsystems/lib\libSatelliteSubsystemsD.a(IsisTRXVU.o) (IsisTrxCommon_componentReset)
C:/ISIS/workspace/HOOPOE3/satellite-subsystems/demo/../..//hal/hcc/lib\libHCCD.a(fat_common.o)
                              ./src/sub-systemCode/Global/TLM_management.o (fn_init)
C:/ISIS/workspace/HOOPOE3/satellite-subsystems/demo/../..//hal/hcc/lib\libHCCD.a(fat_m.o)
                              ./src/sub-systemCode/Global/TLM_management.o (fm_initvolume)
C:/ISIS/workspace/HOOPOE3/satellite-subsystems/demo/../..//hal/hcc/lib\libHCCD.a(safefat.o)
                              C:/ISIS/workspace/HOOPOE3/satellite-subsystems/demo/../..//hal/hcc/lib\libHCCD.a(fat_common.o) (safe_fix_filelengths)
C:/ISIS/workspace/HOOPOE3/satellite-subsystems/demo/../..//hal/hcc/lib\libHCCD.a(atmel_mcipdc.o)
                              ./src/sub-systemCode/Global/TLM_management.o (atmel_mcipdc_initfunc)
C:/ISIS/workspace/HOOPOE3/satellite-subsystems/demo/../..//hal/hcc/lib\libHCCD.a(oalp_mutex.o)
                              C:/ISIS/workspace/HOOPOE3/satellite-subsystems/demo/../..//hal/hcc/lib\libHCCD.a(fat_common.o) (oal_mutex_create)
C:/ISIS/workspace/HOOPOE3/satellite-subsystems/demo/../..//hal/hcc/lib\libHCCD.a(oalp_task.o)
                              C:/ISIS/workspace/HOOPOE3/satellite-subsystems/demo/../..//hal/hcc/lib\libHCCD.a(fat_common.o) (oal_task_get_id)
C:/ISIS/workspace/HOOPOE3/satellite-subsystems/demo/../..//hal/hcc/lib\libHCCD.a(atmel_mcipdc_hw.o)
                              C:/ISIS/workspace/HOOPOE3/satellite-subsystems/demo/../..//hal/hcc/lib\libHCCD.a(atmel_mcipdc.o) (mcipdc_hw_init)
C:/ISIS/workspace/HOOPOE3/satellite-subsystems/demo/../..//hal/hcc/lib\libHCCD.a(psp_rand.o)
                              C:/ISIS/workspace/HOOPOE3/satellite-subsystems/demo/../..//hal/hcc/lib\libHCCD.a(fat_common.o) (psp_getrand)
C:/ISIS/workspace/HOOPOE3/satellite-subsystems/demo/../..//hal/hcc/lib\libHCCD.a(psp_rtc.o)
                              C:/ISIS/workspace/HOOPOE3/satellite-subsystems/demo/../..//hal/hcc/lib\libHCCD.a(fat_common.o) (psp_getcurrenttimedate)
C:/ISIS/workspace/HOOPOE3/satellite-subsystems/demo/../..//hal/hcc/lib\libHCCD.a(hcc_mem.o)
                              C:/ISIS/workspace/HOOPOE3/satellite-subsystems/demo/../..//hal/hcc/lib\libHCCD.a(atmel_mcipdc.o) (hcc_mem_alloc)
C:/ISIS/workspace/HOOPOE3/satellite-subsystems/demo/../..//hal/hcc/lib\libHCCD.a(fat.o)
                              C:/ISIS/workspace/HOOPOE3/satellite-subsystems/demo/../..//hal/hcc/lib\libHCCD.a(fat_common.o) (_f_getdirsector)
C:/ISIS/workspace/HOOPOE3/satellite-subsystems/demo/../..//hal/hcc/lib\libHCCD.a(psp_hcc_mem.o)
                              C:/ISIS/workspace/HOOPOE3/satellite-subsystems/demo/../..//hal/hcc/lib\libHCCD.a(hcc_mem.o) (hcc_mem_buf_alloc)
C:/ISIS/workspace/HOOPOE3/satellite-subsystems/demo/../..//hal/hal/lib\libHALD.a(checksum.o)
                              ./src/sub-systemCode/CUF/CUF.o (checksum_verifyCRC8)
C:/ISIS/workspace/HOOPOE3/satellite-subsystems/demo/../..//hal/hal/lib\libHALD.a(supervisor.o)
                              ./src/sub-systemCode/CUF/CUF.o (Supervisor_start)
C:/ISIS/workspace/HOOPOE3/satellite-subsystems/demo/../..//hal/hal/lib\libHALD.a(ADC.o)
                              ./src/sub-systemCode/CUF/CUF.o (ADC_ConvertRaw10bitToMillivolt)
C:/ISIS/workspace/HOOPOE3/satellite-subsystems/demo/../..//hal/hal/lib\libHALD.a(I2C.o)
                              ./src/sub-systemCode/CUF/CUF.o (I2C_queueTransfer)
C:/ISIS/workspace/HOOPOE3/satellite-subsystems/demo/../..//hal/hal/lib\libHALD.a(I2Cslave.o)
                              ./src/sub-systemCode/CUF/CUF.o (I2Cslave_write)
C:/ISIS/workspace/HOOPOE3/satellite-subsystems/demo/../..//hal/hal/lib\libHALD.a(PWM.o)
                              ./src/sub-systemCode/CUF/CUF.o (PWM_setAllDutyCyclesFull)
C:/ISIS/workspace/HOOPOE3/satellite-subsystems/demo/../..//hal/hal/lib\libHALD.a(SPI.o)
                              ./src/sub-systemCode/Main/Main_Init.o (SPI_start)
C:/ISIS/workspace/HOOPOE3/satellite-subsystems/demo/../..//hal/hal/lib\libHALD.a(UART.o)
                              ./src/sub-systemCode/CUF/CUF.o (UART_start)
C:/ISIS/workspace/HOOPOE3/satellite-subsystems/demo/../..//hal/hal/lib\libHALD.a(FRAM.o)
                              ./src/sub-systemCode/Main/Main_Init.o (FRAM_start)
C:/ISIS/workspace/HOOPOE3/satellite-subsystems/demo/../..//hal/hal/lib\libHALD.a(RTC.o)
                              ./src/sub-systemCode/CUF/CUF.o (RTC_printSeconds)
C:/ISIS/workspace/HOOPOE3/satellite-subsystems/demo/../..//hal/hal/lib\libHALD.a(RTT.o)
                              ./src/sub-systemCode/CUF/CUF.o (RTT_start)
C:/ISIS/workspace/HOOPOE3/satellite-subsystems/demo/../..//hal/hal/lib\libHALD.a(Time.o)
                              ./src/sub-systemCode/Main/Main_Init.o (Time_start)
C:/ISIS/workspace/HOOPOE3/satellite-subsystems/demo/../..//hal/hal/lib\libHALD.a(WatchDogTimerNoOS.o)
                              ./src/sub-systemCode/CUF/CUF.o (WDT_start)
C:/ISIS/workspace/HOOPOE3/satellite-subsystems/demo/../..//hal/hal/lib\libHALD.a(WatchDogTimerOS.o)
                              ./src/sub-systemCode/CUF/CUF.o (WDT_startWatchdogKickTask)
C:/ISIS/workspace/HOOPOE3/satellite-subsystems/demo/../..//hal/hal/lib\libHALD.a(util.o)
                              ./src/sub-systemCode/CUF/CUF.o (UTIL_DbguGetString)
C:/ISIS/workspace/HOOPOE3/satellite-subsystems/demo/../..//hal/hal/lib\libHALD.a(LED.o)
                              C:/ISIS/workspace/HOOPOE3/satellite-subsystems/demo/../..//hal/hal/lib\libHALD.a(WatchDogTimerOS.o) (LED_toggle)
C:/ISIS/workspace/HOOPOE3/satellite-subsystems/demo/../..//hal/freertos/lib\libFreeRTOSD.a(croutine.o)
                              ./src/sub-systemCode/CUF/CUF.o (xCoRoutineCreate)
C:/ISIS/workspace/HOOPOE3/satellite-subsystems/demo/../..//hal/freertos/lib\libFreeRTOSD.a(list.o)
                              ./src/sub-systemCode/CUF/CUF.o (vListInitialise)
C:/ISIS/workspace/HOOPOE3/satellite-subsystems/demo/../..//hal/freertos/lib\libFreeRTOSD.a(queue.o)
                              ./src/sub-systemCode/Global/GenericTaskSave.o (xQueueGenericReset)
C:/ISIS/workspace/HOOPOE3/satellite-subsystems/demo/../..//hal/freertos/lib\libFreeRTOSD.a(tasks.o)
                              ./src/sub-systemCode/Main/CMD/COMM_CMD.o (xTaskGenericCreate)
C:/ISIS/workspace/HOOPOE3/satellite-subsystems/demo/../..//hal/freertos/lib\libFreeRTOSD.a(hooks.o)
                              C:/ISIS/workspace/HOOPOE3/satellite-subsystems/demo/../..//hal/freertos/lib\libFreeRTOSD.a(tasks.o) (vApplicationStackOverflowHook)
C:/ISIS/workspace/HOOPOE3/satellite-subsystems/demo/../..//hal/freertos/lib\libFreeRTOSD.a(standardMemMang.o)
                              ./src/sub-systemCode/CUF/CUF.o (pvPortMalloc)
C:/ISIS/workspace/HOOPOE3/satellite-subsystems/demo/../..//hal/freertos/lib\libFreeRTOSD.a(port.o)
                              ./src/sub-systemCode/CUF/CUF.o (pxPortInitialiseStack)
C:/ISIS/workspace/HOOPOE3/satellite-subsystems/demo/../..//hal/at91/lib\libAt91D.a(syscalls.o)
                              c:/isis/application/toolchain/bin/../lib/gcc/arm-none-eabi/4.7.4/../../../../arm-none-eabi/lib\libc_s.a(lib_a-sbrkr.o) (_sbrk)
C:/ISIS/workspace/HOOPOE3/satellite-subsystems/demo/../..//hal/at91/lib\libAt91D.a(board_lowlevel.o)
                              ./src/sub-systemCode/CUF/CUF.o (LowLevelInit)
C:/ISIS/workspace/HOOPOE3/satellite-subsystems/demo/../..//hal/at91/lib\libAt91D.a(board_memories.o)
                              ./src/sub-systemCode/CUF/CUF.o (BOARD_RemapRom)
C:/ISIS/workspace/HOOPOE3/satellite-subsystems/demo/../..//hal/at91/lib\libAt91D.a(NorFlashAmd.o)
                              ./src/sub-systemCode/CUF/CUF.o (amdOperations)
C:/ISIS/workspace/HOOPOE3/satellite-subsystems/demo/../..//hal/at91/lib\libAt91D.a(NorFlashCFI.o)
                              C:/ISIS/workspace/HOOPOE3/satellite-subsystems/demo/../..//hal/at91/lib\libAt91D.a(NorFlashAmd.o) (NorFlash_GetByteAddressInChip)
C:/ISIS/workspace/HOOPOE3/satellite-subsystems/demo/../..//hal/at91/lib\libAt91D.a(NorFlashCommon.o)
                              ./src/sub-systemCode/CUF/CUF.o (WriteCommand)
C:/ISIS/workspace/HOOPOE3/satellite-subsystems/demo/../..//hal/at91/lib\libAt91D.a(NorFlashIntel.o)
                              ./src/sub-systemCode/CUF/CUF.o (intelOperations)
C:/ISIS/workspace/HOOPOE3/satellite-subsystems/demo/../..//hal/at91/lib\libAt91D.a(sdmmc_mci.o)
                              ./src/sub-systemCode/CUF/CUF.o (SD_ReadBlock)
C:/ISIS/workspace/HOOPOE3/satellite-subsystems/demo/../..//hal/at91/lib\libAt91D.a(adc_at91.o)
                              ./src/sub-systemCode/CUF/CUF.o (ADC_Initialize)
C:/ISIS/workspace/HOOPOE3/satellite-subsystems/demo/../..//hal/at91/lib\libAt91D.a(aic.o)
                              ./src/sub-systemCode/CUF/CUF.o (AIC_ConfigureIT)
C:/ISIS/workspace/HOOPOE3/satellite-subsystems/demo/../..//hal/at91/lib\libAt91D.a(cp15.o)
                              ./src/sub-systemCode/CUF/CUF.o (CP15_Is_I_CacheEnabled)
C:/ISIS/workspace/HOOPOE3/satellite-subsystems/demo/../..//hal/at91/lib\libAt91D.a(dbgu.o)
                              C:/ISIS/workspace/HOOPOE3/satellite-subsystems/demo/../..//hal/hal/lib\libHALD.a(util.o) (DBGU_PutChar)
C:/ISIS/workspace/HOOPOE3/satellite-subsystems/demo/../..//hal/at91/lib\libAt91D.a(mci.o)
                              ./src/sub-systemCode/CUF/CUF.o (MCI_Init)
C:/ISIS/workspace/HOOPOE3/satellite-subsystems/demo/../..//hal/at91/lib\libAt91D.a(pio.o)
                              ./src/sub-systemCode/CUF/CUF.o (PIO_Configure)
C:/ISIS/workspace/HOOPOE3/satellite-subsystems/demo/../..//hal/at91/lib\libAt91D.a(pio_it.o)
                              ./src/sub-systemCode/CUF/CUF.o (PIO_InitializeInterrupts)
C:/ISIS/workspace/HOOPOE3/satellite-subsystems/demo/../..//hal/at91/lib\libAt91D.a(pit.o)
                              ./src/sub-systemCode/CUF/CUF.o (PIT_Init)
C:/ISIS/workspace/HOOPOE3/satellite-subsystems/demo/../..//hal/at91/lib\libAt91D.a(pmc.o)
                              ./src/sub-systemCode/CUF/CUF.o (PMC_DisableProcessorClock)
C:/ISIS/workspace/HOOPOE3/satellite-subsystems/demo/../..//hal/at91/lib\libAt91D.a(rstc.o)
                              ./src/sub-systemCode/CUF/CUF.o (RSTC_ConfigureMode)
C:/ISIS/workspace/HOOPOE3/satellite-subsystems/demo/../..//hal/at91/lib\libAt91D.a(spi_at91.o)
                              ./src/sub-systemCode/CUF/CUF.o (SPI_Enable)
C:/ISIS/workspace/HOOPOE3/satellite-subsystems/demo/../..//hal/at91/lib\libAt91D.a(tc.o)
                              ./src/sub-systemCode/CUF/CUF.o (TC_Configure)
C:/ISIS/workspace/HOOPOE3/satellite-subsystems/demo/../..//hal/at91/lib\libAt91D.a(twi_at91.o)
                              ./src/sub-systemCode/CUF/CUF.o (TWI_ConfigureMaster)
C:/ISIS/workspace/HOOPOE3/satellite-subsystems/demo/../..//hal/at91/lib\libAt91D.a(ExitHandler.o)
                              ./src/sub-systemCode/CUF/CUF.o (restart)
C:/ISIS/workspace/HOOPOE3/satellite-subsystems/demo/../..//hal/at91/lib\libAt91D.a(hamming.o)
                              ./src/sub-systemCode/CUF/CUF.o (Hamming_Compute256x)
C:/ISIS/workspace/HOOPOE3/satellite-subsystems/demo/../..//hal/at91/lib\libAt91D.a(board_cstartup.o)
                              (entry)
C:/ISIS/workspace/HOOPOE3/satellite-subsystems/demo/../..//hal/at91/lib\libAt91D.a(cp15_asm.o)
                              ./src/sub-systemCode/CUF/CUF.o (_readControlRegister)
C:/ISIS/workspace/HOOPOE3/satellite-subsystems/demo/../..//hal/at91/lib\libAt91D.a(NorFlashApi.o)
                              C:/ISIS/workspace/HOOPOE3/satellite-subsystems/demo/../..//hal/at91/lib\libAt91D.a(NorFlashCFI.o) (NORFLASH_Reset)
c:/isis/application/toolchain/bin/../lib/gcc/arm-none-eabi/4.7.4\libgcc.a(_udivsi3.o)
                              c:/isis/application/toolchain/bin/../lib/gcc/arm-none-eabi/4.7.4/../../../../arm-none-eabi/lib\libc_s.a(lib_a-vfprintf_i.o) (__aeabi_uidiv)
c:/isis/application/toolchain/bin/../lib/gcc/arm-none-eabi/4.7.4\libgcc.a(_divsi3.o)
                              c:/isis/application/toolchain/bin/../lib/gcc/arm-none-eabi/4.7.4/../../../../arm-none-eabi/lib\libc_s.a(lib_a-vfprintf_float.o) (__aeabi_idiv)
c:/isis/application/toolchain/bin/../lib/gcc/arm-none-eabi/4.7.4\libgcc.a(_dvmd_tls.o)
                              c:/isis/application/toolchain/bin/../lib/gcc/arm-none-eabi/4.7.4\libgcc.a(_udivsi3.o) (__aeabi_idiv0)
c:/isis/application/toolchain/bin/../lib/gcc/arm-none-eabi/4.7.4\libgcc.a(_arm_addsubdf3.o)
                              c:/isis/application/toolchain/bin/../lib/gcc/arm-none-eabi/4.7.4/../../../../arm-none-eabi/lib\libc_s.a(lib_a-dtoa.o) (__aeabi_dsub)
c:/isis/application/toolchain/bin/../lib/gcc/arm-none-eabi/4.7.4\libgcc.a(_arm_muldivdf3.o)
                              c:/isis/application/toolchain/bin/../lib/gcc/arm-none-eabi/4.7.4/../../../../arm-none-eabi/lib\libc_s.a(lib_a-dtoa.o) (__aeabi_dmul)
c:/isis/application/toolchain/bin/../lib/gcc/arm-none-eabi/4.7.4\libgcc.a(_arm_cmpdf2.o)
                              c:/isis/application/toolchain/bin/../lib/gcc/arm-none-eabi/4.7.4/../../../../arm-none-eabi/lib\libc_s.a(lib_a-vfprintf_float.o) (__aeabi_dcmpeq)
c:/isis/application/toolchain/bin/../lib/gcc/arm-none-eabi/4.7.4\libgcc.a(_arm_fixdfsi.o)
                              c:/isis/application/toolchain/bin/../lib/gcc/arm-none-eabi/4.7.4/../../../../arm-none-eabi/lib\libc_s.a(lib_a-dtoa.o) (__aeabi_d2iz)
c:/isis/application/toolchain/bin/../lib/gcc/arm-none-eabi/4.7.4\libgcc.a(_arm_fixunsdfsi.o)
                              c:/isis/application/toolchain/bin/../lib/gcc/arm-none-eabi/4.7.4/../../../../arm-none-eabi/lib\libc_s.a(lib_a-strtod.o) (__aeabi_d2uiz)
c:/isis/application/toolchain/bin/../lib/gcc/arm-none-eabi/4.7.4\libgcc.a(_arm_truncdfsf2.o)
                              c:/isis/application/toolchain/bin/../lib/gcc/arm-none-eabi/4.7.4/../../../../arm-none-eabi/lib\libc_s.a(lib_a-vfscanf_float.o) (__aeabi_d2f)
c:/isis/application/toolchain/bin/../lib/gcc/arm-none-eabi/4.7.4\libgcc.a(_arm_addsubsf3.o)
                              ./src/sub-systemCode/Main/EPS.o (__aeabi_fsub)
c:/isis/application/toolchain/bin/../lib/gcc/arm-none-eabi/4.7.4\libgcc.a(_arm_muldivsf3.o)
                              ./src/sub-systemCode/Main/EPS.o (__aeabi_fmul)
c:/isis/application/toolchain/bin/../lib/gcc/arm-none-eabi/4.7.4\libgcc.a(_arm_cmpsf2.o)
                              ./src/sub-systemCode/Main/CMD/EPS_CMD.o (__aeabi_fcmplt)
c:/isis/application/toolchain/bin/../lib/gcc/arm-none-eabi/4.7.4\libgcc.a(_arm_fixsfsi.o)
                              ./src/sub-systemCode/Global/GlobalParam.o (__aeabi_f2iz)
c:/isis/application/toolchain/bin/../lib/gcc/arm-none-eabi/4.7.4\libgcc.a(_arm_fixunssfsi.o)
                              ./src/sub-systemCode/Main/EPS.o (__aeabi_f2uiz)
c:/isis/application/toolchain/bin/../lib/gcc/arm-none-eabi/4.7.4/../../../../arm-none-eabi/lib\libc_s.a(lib_a-errno.o)
                              C:/ISIS/workspace/HOOPOE3/satellite-subsystems/demo/../..//hal/at91/lib\libAt91D.a(syscalls.o) (__errno)
c:/isis/application/toolchain/bin/../lib/gcc/arm-none-eabi/4.7.4/../../../../arm-none-eabi/lib\libc_s.a(lib_a-memcmp.o)
                              C:/ISIS/workspace/HOOPOE3/satellite-subsystems/demo/../..//hal/hal/lib\libHALD.a(FRAM.o) (memcmp)
c:/isis/application/toolchain/bin/../lib/gcc/arm-none-eabi/4.7.4/../../../../arm-none-eabi/lib\libc_s.a(lib_a-printf.o)
                              ./src/sub-systemCode/Main/CMD/General_CMD.o (printf)
c:/isis/application/toolchain/bin/../lib/gcc/arm-none-eabi/4.7.4/../../../../arm-none-eabi/lib\libc_s.a(lib_a-puts.o)
                              ./src/sub-systemCode/COMM/GSC.o (puts)
c:/isis/application/toolchain/bin/../lib/gcc/arm-none-eabi/4.7.4/../../../../arm-none-eabi/lib\libc_s.a(lib_a-strcpy.o)
                              ./src/sub-systemCode/Main/HouseKeeping.o (strcpy)
c:/isis/application/toolchain/bin/../lib/gcc/arm-none-eabi/4.7.4/../../../../arm-none-eabi/lib\libc_s.a(lib_a-strstr.o)
                              ./src/sub-systemCode/CUF/CUF.o (strstr)
c:/isis/application/toolchain/bin/../lib/gcc/arm-none-eabi/4.7.4/../../../../arm-none-eabi/lib\libc_s.a(lib_a-vfprintf.o)
                              c:/isis/application/toolchain/bin/../lib/gcc/arm-none-eabi/4.7.4/../../../../arm-none-eabi/lib\libc_s.a(lib_a-printf.o) (_vfprintf_r)
c:/isis/application/toolchain/bin/../lib/gcc/arm-none-eabi/4.7.4/../../../../arm-none-eabi/lib\libc_s.a(lib_a-wbuf.o)
                              c:/isis/application/toolchain/bin/../lib/gcc/arm-none-eabi/4.7.4/../../../../arm-none-eabi/lib\libc_s.a(lib_a-vfprintf.o) (__swbuf_r)
c:/isis/application/toolchain/bin/../lib/gcc/arm-none-eabi/4.7.4/../../../../arm-none-eabi/lib\libc_s.a(lib_a-wsetup.o)
                              c:/isis/application/toolchain/bin/../lib/gcc/arm-none-eabi/4.7.4/../../../../arm-none-eabi/lib\libc_s.a(lib_a-vfprintf.o) (__swsetup_r)
c:/isis/application/toolchain/bin/../lib/gcc/arm-none-eabi/4.7.4/../../../../arm-none-eabi/lib\libc_s.a(lib_a-fflush.o)
                              c:/isis/application/toolchain/bin/../lib/gcc/arm-none-eabi/4.7.4/../../../../arm-none-eabi/lib\libc_s.a(lib_a-wbuf.o) (_fflush_r)
c:/isis/application/toolchain/bin/../lib/gcc/arm-none-eabi/4.7.4/../../../../arm-none-eabi/lib\libc_s.a(lib_a-findfp.o)
                              c:/isis/application/toolchain/bin/../lib/gcc/arm-none-eabi/4.7.4/../../../../arm-none-eabi/lib\libc_s.a(lib_a-printf.o) (__sinit)
c:/isis/application/toolchain/bin/../lib/gcc/arm-none-eabi/4.7.4/../../../../arm-none-eabi/lib\libc_s.a(lib_a-fputwc.o)
                              c:/isis/application/toolchain/bin/../lib/gcc/arm-none-eabi/4.7.4/../../../../arm-none-eabi/lib\libc_s.a(lib_a-vfprintf.o) (_fputwc_r)
c:/isis/application/toolchain/bin/../lib/gcc/arm-none-eabi/4.7.4/../../../../arm-none-eabi/lib\libc_s.a(lib_a-fvwrite.o)
                              c:/isis/application/toolchain/bin/../lib/gcc/arm-none-eabi/4.7.4/../../../../arm-none-eabi/lib\libc_s.a(lib_a-vfprintf.o) (__sfvwrite_r)
c:/isis/application/toolchain/bin/../lib/gcc/arm-none-eabi/4.7.4/../../../../arm-none-eabi/lib\libc_s.a(lib_a-fwalk.o)
                              c:/isis/application/toolchain/bin/../lib/gcc/arm-none-eabi/4.7.4/../../../../arm-none-eabi/lib\libc_s.a(lib_a-findfp.o) (_fwalk)
c:/isis/application/toolchain/bin/../lib/gcc/arm-none-eabi/4.7.4/../../../../arm-none-eabi/lib\libc_s.a(lib_a-makebuf.o)
                              c:/isis/application/toolchain/bin/../lib/gcc/arm-none-eabi/4.7.4/../../../../arm-none-eabi/lib\libc_s.a(lib_a-wsetup.o) (__smakebuf_r)
c:/isis/application/toolchain/bin/../lib/gcc/arm-none-eabi/4.7.4/../../../../arm-none-eabi/lib\libc_s.a(lib_a-putc.o)
                              c:/isis/application/toolchain/bin/../lib/gcc/arm-none-eabi/4.7.4/../../../../arm-none-eabi/lib\libc_s.a(lib_a-puts.o) (_putc_r)
c:/isis/application/toolchain/bin/../lib/gcc/arm-none-eabi/4.7.4/../../../../arm-none-eabi/lib\libc_s.a(lib_a-stdio.o)
                              c:/isis/application/toolchain/bin/../lib/gcc/arm-none-eabi/4.7.4/../../../../arm-none-eabi/lib\libc_s.a(lib_a-findfp.o) (__sread)
c:/isis/application/toolchain/bin/../lib/gcc/arm-none-eabi/4.7.4/../../../../arm-none-eabi/lib\libc_s.a(lib_a-wcrtomb.o)
                              c:/isis/application/toolchain/bin/../lib/gcc/arm-none-eabi/4.7.4/../../../../arm-none-eabi/lib\libc_s.a(lib_a-fputwc.o) (_wcrtomb_r)
c:/isis/application/toolchain/bin/../lib/gcc/arm-none-eabi/4.7.4/../../../../arm-none-eabi/lib\libc_s.a(lib_a-wctomb_r.o)
                              c:/isis/application/toolchain/bin/../lib/gcc/arm-none-eabi/4.7.4/../../../../arm-none-eabi/lib\libc_s.a(lib_a-wcrtomb.o) (__wctomb)
c:/isis/application/toolchain/bin/../lib/gcc/arm-none-eabi/4.7.4/../../../../arm-none-eabi/lib\libc_s.a(lib_a-writer.o)
                              c:/isis/application/toolchain/bin/../lib/gcc/arm-none-eabi/4.7.4/../../../../arm-none-eabi/lib\libc_s.a(lib_a-stdio.o) (_write_r)
c:/isis/application/toolchain/bin/../lib/gcc/arm-none-eabi/4.7.4/../../../../arm-none-eabi/lib\libc_s.a(lib_a-closer.o)
                              c:/isis/application/toolchain/bin/../lib/gcc/arm-none-eabi/4.7.4/../../../../arm-none-eabi/lib\libc_s.a(lib_a-stdio.o) (_close_r)
c:/isis/application/toolchain/bin/../lib/gcc/arm-none-eabi/4.7.4/../../../../arm-none-eabi/lib\libc_s.a(lib_a-fstatr.o)
                              c:/isis/application/toolchain/bin/../lib/gcc/arm-none-eabi/4.7.4/../../../../arm-none-eabi/lib\libc_s.a(lib_a-makebuf.o) (_fstat_r)
c:/isis/application/toolchain/bin/../lib/gcc/arm-none-eabi/4.7.4/../../../../arm-none-eabi/lib\libc_s.a(lib_a-isattyr.o)
                              c:/isis/application/toolchain/bin/../lib/gcc/arm-none-eabi/4.7.4/../../../../arm-none-eabi/lib\libc_s.a(lib_a-makebuf.o) (_isatty_r)
c:/isis/application/toolchain/bin/../lib/gcc/arm-none-eabi/4.7.4/../../../../arm-none-eabi/lib\libc_s.a(lib_a-lseekr.o)
                              c:/isis/application/toolchain/bin/../lib/gcc/arm-none-eabi/4.7.4/../../../../arm-none-eabi/lib\libc_s.a(lib_a-stdio.o) (_lseek_r)
c:/isis/application/toolchain/bin/../lib/gcc/arm-none-eabi/4.7.4/../../../../arm-none-eabi/lib\libc_s.a(lib_a-readr.o)
                              c:/isis/application/toolchain/bin/../lib/gcc/arm-none-eabi/4.7.4/../../../../arm-none-eabi/lib\libc_s.a(lib_a-stdio.o) (_read_r)

Allocating common symbols
Common symbol       size              file

g_fatmutex          0x4               C:/ISIS/workspace/HOOPOE3/satellite-subsystems/demo/../..//hal/hcc/lib\libHCCD.a(fat_common.o)
ADCcallback         0x4               C:/ISIS/workspace/HOOPOE3/satellite-subsystems/demo/../..//hal/hal/lib\libHALD.a(ADC.o)
onlineTM_list       0x1db             ./src/sub-systemCode/Global/OnlineTM.o
TlmElements         0x1c2             ./src/sub-systemCode/ADCS/AdcsGetDataAndTlm.o
SD_B                0x10              ./src/sub-systemCode/Global/OnlineTM.o
allocked_write_element
                    0xef              ./src/sub-systemCode/Global/TLM_management.o
NORFlash            0x30              ./src/sub-systemCode/CUF/CUF.o
current_global_param
                    0x36              ./src/sub-systemCode/Global/GlobalParam.o
errno               0x4               c:/isis/application/toolchain/bin/../lib/gcc/arm-none-eabi/4.7.4/../../../../arm-none-eabi/lib\libc_s.a(lib_a-reent.o)
not_first_activation
                    0x4               ./src/sub-systemCode/Global/Global.o
g_multi             0x10a0            C:/ISIS/workspace/HOOPOE3/satellite-subsystems/demo/../..//hal/hcc/lib\libHCCD.a(fat_common.o)
allocked_read_element
                    0x20d258          ./src/sub-systemCode/Global/TLM_management.o
xQueueRegistry      0x100             C:/ISIS/workspace/HOOPOE3/satellite-subsystems/demo/../..//hal/freertos/lib\libFreeRTOSD.a(queue.o)
__hexdig            0x100             c:/isis/application/toolchain/bin/../lib/gcc/arm-none-eabi/4.7.4/../../../../arm-none-eabi/lib\libc_s.a(lib_a-gdtoa-gethex.o)
SD_A                0x10              ./src/sub-systemCode/Global/OnlineTM.o
allow_transponder   0x4               ./src/sub-systemCode/COMM/TRXVU.o
xBeaconTask         0x4               ./src/sub-systemCode/COMM/TRXVU.o
xDumpQueue          0x4               ./src/sub-systemCode/Main/CMD/COMM_CMD.o
xFileOpenHandler    0x4               ./src/sub-systemCode/Global/TLM_management.o
f_format_progress   0x4               C:/ISIS/workspace/HOOPOE3/satellite-subsystems/demo/../..//hal/hcc/lib\libHCCD.a(fat_common.o)
offline_TM_list     0x82              ./src/sub-systemCode/Global/OnlineTM.o
Adcs_raw_12c_command
                    0x12c             ./src/sub-systemCode/ADCS/AdcsCommands.o
command_to_execute  0x1f40            ./src/sub-systemCode/Main/commands.o
VBatt_previous      0x2               ./src/sub-systemCode/Main/EPS.o
xIsTransmitting     0x4               ./src/sub-systemCode/COMM/TRXVU.o
xSD_state           0x4               ./src/sub-systemCode/Global/OnlineTM.o
switches_states     0x1               ./src/sub-systemCode/Main/EPS.o
batteryLastMode     0x1               ./src/sub-systemCode/Main/EPS.o
I2cData             0x12c             ./src/sub-systemCode/ADCS/AdcsCommands.o
enterMode           0x20              ./src/sub-systemCode/Main/EPS.o
xTransponderHandle  0x4               ./src/sub-systemCode/Main/CMD/COMM_CMD.o
saveQueue           0x4               ./src/sub-systemCode/Global/GenericTaskSave.o
xTransponderQueue   0x4               ./src/sub-systemCode/Main/CMD/COMM_CMD.o
allocked_delete_element
                    0xef              ./src/sub-systemCode/Global/TLM_management.o
xDumpHandle         0x4               ./src/sub-systemCode/Main/CMD/COMM_CMD.o

Discarded input sections

 .text          0x00000000        0x0 c:/isis/application/toolchain/bin/../lib/gcc/arm-none-eabi/4.7.4/../../../../arm-none-eabi/lib\libc_s.a(lib_a-vfprintf_float.o)
 .data          0x00000000        0x0 c:/isis/application/toolchain/bin/../lib/gcc/arm-none-eabi/4.7.4/../../../../arm-none-eabi/lib\libc_s.a(lib_a-vfprintf_float.o)
 .bss           0x00000000        0x0 c:/isis/application/toolchain/bin/../lib/gcc/arm-none-eabi/4.7.4/../../../../arm-none-eabi/lib\libc_s.a(lib_a-vfprintf_float.o)
 .text          0x00000000        0x0 c:/isis/application/toolchain/bin/../lib/gcc/arm-none-eabi/4.7.4/../../../../arm-none-eabi/lib\libc_s.a(lib_a-vfprintf_i.o)
 .data          0x00000000        0x0 c:/isis/application/toolchain/bin/../lib/gcc/arm-none-eabi/4.7.4/../../../../arm-none-eabi/lib\libc_s.a(lib_a-vfprintf_i.o)
 .bss           0x00000000        0x0 c:/isis/application/toolchain/bin/../lib/gcc/arm-none-eabi/4.7.4/../../../../arm-none-eabi/lib\libc_s.a(lib_a-vfprintf_i.o)
 .text          0x00000000        0x0 c:/isis/application/toolchain/bin/../lib/gcc/arm-none-eabi/4.7.4/../../../../arm-none-eabi/lib\libc_s.a(lib_a-vfscanf_float.o)
 .data          0x00000000        0x0 c:/isis/application/toolchain/bin/../lib/gcc/arm-none-eabi/4.7.4/../../../../arm-none-eabi/lib\libc_s.a(lib_a-vfscanf_float.o)
 .bss           0x00000000        0x0 c:/isis/application/toolchain/bin/../lib/gcc/arm-none-eabi/4.7.4/../../../../arm-none-eabi/lib\libc_s.a(lib_a-vfscanf_float.o)
 .text          0x00000000        0x0 c:/isis/application/toolchain/bin/../lib/gcc/arm-none-eabi/4.7.4/../../../../arm-none-eabi/lib\libc_s.a(lib_a-dtoa.o)
 .data          0x00000000        0x0 c:/isis/application/toolchain/bin/../lib/gcc/arm-none-eabi/4.7.4/../../../../arm-none-eabi/lib\libc_s.a(lib_a-dtoa.o)
 .bss           0x00000000        0x0 c:/isis/application/toolchain/bin/../lib/gcc/arm-none-eabi/4.7.4/../../../../arm-none-eabi/lib\libc_s.a(lib_a-dtoa.o)
 .text          0x00000000        0x0 c:/isis/application/toolchain/bin/../lib/gcc/arm-none-eabi/4.7.4/../../../../arm-none-eabi/lib\libc_s.a(lib_a-locale.o)
 .data          0x00000000        0x0 c:/isis/application/toolchain/bin/../lib/gcc/arm-none-eabi/4.7.4/../../../../arm-none-eabi/lib\libc_s.a(lib_a-locale.o)
 .bss           0x00000000        0x0 c:/isis/application/toolchain/bin/../lib/gcc/arm-none-eabi/4.7.4/../../../../arm-none-eabi/lib\libc_s.a(lib_a-locale.o)
 .text._setlocale_r
                0x00000000       0x6c c:/isis/application/toolchain/bin/../lib/gcc/arm-none-eabi/4.7.4/../../../../arm-none-eabi/lib\libc_s.a(lib_a-locale.o)
 .text.__locale_charset
                0x00000000        0xc c:/isis/application/toolchain/bin/../lib/gcc/arm-none-eabi/4.7.4/../../../../arm-none-eabi/lib\libc_s.a(lib_a-locale.o)
 .text.__locale_mb_cur_max
                0x00000000       0x10 c:/isis/application/toolchain/bin/../lib/gcc/arm-none-eabi/4.7.4/../../../../arm-none-eabi/lib\libc_s.a(lib_a-locale.o)
 .text.__locale_msgcharset
                0x00000000        0xc c:/isis/application/toolchain/bin/../lib/gcc/arm-none-eabi/4.7.4/../../../../arm-none-eabi/lib\libc_s.a(lib_a-locale.o)
 .text.__locale_cjk_lang
                0x00000000        0x8 c:/isis/application/toolchain/bin/../lib/gcc/arm-none-eabi/4.7.4/../../../../arm-none-eabi/lib\libc_s.a(lib_a-locale.o)
 .text.setlocale
                0x00000000       0x1c c:/isis/application/toolchain/bin/../lib/gcc/arm-none-eabi/4.7.4/../../../../arm-none-eabi/lib\libc_s.a(lib_a-locale.o)
 .text.localeconv
                0x00000000        0xc c:/isis/application/toolchain/bin/../lib/gcc/arm-none-eabi/4.7.4/../../../../arm-none-eabi/lib\libc_s.a(lib_a-locale.o)
 .data.lc_message_charset
                0x00000000       0x20 c:/isis/application/toolchain/bin/../lib/gcc/arm-none-eabi/4.7.4/../../../../arm-none-eabi/lib\libc_s.a(lib_a-locale.o)
 .bss._PathLocale
                0x00000000        0x4 c:/isis/application/toolchain/bin/../lib/gcc/arm-none-eabi/4.7.4/../../../../arm-none-eabi/lib\libc_s.a(lib_a-locale.o)
 .bss.__nlocale_changed
                0x00000000        0x4 c:/isis/application/toolchain/bin/../lib/gcc/arm-none-eabi/4.7.4/../../../../arm-none-eabi/lib\libc_s.a(lib_a-locale.o)
 .bss.__mlocale_changed
                0x00000000        0x4 c:/isis/application/toolchain/bin/../lib/gcc/arm-none-eabi/4.7.4/../../../../arm-none-eabi/lib\libc_s.a(lib_a-locale.o)
 .data.lc_ctype_charset
                0x00000000       0x20 c:/isis/application/toolchain/bin/../lib/gcc/arm-none-eabi/4.7.4/../../../../arm-none-eabi/lib\libc_s.a(lib_a-locale.o)
 .data.__mb_cur_max
                0x00000000        0x4 c:/isis/application/toolchain/bin/../lib/gcc/arm-none-eabi/4.7.4/../../../../arm-none-eabi/lib\libc_s.a(lib_a-locale.o)
 .text          0x00000000        0x0 c:/isis/application/toolchain/bin/../lib/gcc/arm-none-eabi/4.7.4/../../../../arm-none-eabi/lib\libc_s.a(lib_a-malloc.o)
 .data          0x00000000        0x0 c:/isis/application/toolchain/bin/../lib/gcc/arm-none-eabi/4.7.4/../../../../arm-none-eabi/lib\libc_s.a(lib_a-malloc.o)
 .bss           0x00000000        0x0 c:/isis/application/toolchain/bin/../lib/gcc/arm-none-eabi/4.7.4/../../../../arm-none-eabi/lib\libc_s.a(lib_a-malloc.o)
 .text          0x00000000        0x0 c:/isis/application/toolchain/bin/../lib/gcc/arm-none-eabi/4.7.4/../../../../arm-none-eabi/lib\libc_s.a(lib_a-mallocr.o)
 .data          0x00000000        0x0 c:/isis/application/toolchain/bin/../lib/gcc/arm-none-eabi/4.7.4/../../../../arm-none-eabi/lib\libc_s.a(lib_a-mallocr.o)
 .bss           0x00000000        0x0 c:/isis/application/toolchain/bin/../lib/gcc/arm-none-eabi/4.7.4/../../../../arm-none-eabi/lib\libc_s.a(lib_a-mallocr.o)
 .text          0x00000000        0x0 c:/isis/application/toolchain/bin/../lib/gcc/arm-none-eabi/4.7.4/../../../../arm-none-eabi/lib\libc_s.a(lib_a-memcpy.o)
 .data          0x00000000        0x0 c:/isis/application/toolchain/bin/../lib/gcc/arm-none-eabi/4.7.4/../../../../arm-none-eabi/lib\libc_s.a(lib_a-memcpy.o)
 .bss           0x00000000        0x0 c:/isis/application/toolchain/bin/../lib/gcc/arm-none-eabi/4.7.4/../../../../arm-none-eabi/lib\libc_s.a(lib_a-memcpy.o)
 .text          0x00000000        0x0 c:/isis/application/toolchain/bin/../lib/gcc/arm-none-eabi/4.7.4/../../../../arm-none-eabi/lib\libc_s.a(lib_a-mprec.o)
 .data          0x00000000        0x0 c:/isis/application/toolchain/bin/../lib/gcc/arm-none-eabi/4.7.4/../../../../arm-none-eabi/lib\libc_s.a(lib_a-mprec.o)
 .bss           0x00000000        0x0 c:/isis/application/toolchain/bin/../lib/gcc/arm-none-eabi/4.7.4/../../../../arm-none-eabi/lib\libc_s.a(lib_a-mprec.o)
 .text._mprec_log10
                0x00000000       0x4c c:/isis/application/toolchain/bin/../lib/gcc/arm-none-eabi/4.7.4/../../../../arm-none-eabi/lib\libc_s.a(lib_a-mprec.o)
 .rodata.__mprec_tinytens
                0x00000000       0x28 c:/isis/application/toolchain/bin/../lib/gcc/arm-none-eabi/4.7.4/../../../../arm-none-eabi/lib\libc_s.a(lib_a-mprec.o)
 .text          0x00000000        0x0 c:/isis/application/toolchain/bin/../lib/gcc/arm-none-eabi/4.7.4/../../../../arm-none-eabi/lib\libc_s.a(lib_a-s_fpclassify.o)
 .data          0x00000000        0x0 c:/isis/application/toolchain/bin/../lib/gcc/arm-none-eabi/4.7.4/../../../../arm-none-eabi/lib\libc_s.a(lib_a-s_fpclassify.o)
 .bss           0x00000000        0x0 c:/isis/application/toolchain/bin/../lib/gcc/arm-none-eabi/4.7.4/../../../../arm-none-eabi/lib\libc_s.a(lib_a-s_fpclassify.o)
 .text          0x00000000        0x0 c:/isis/application/toolchain/bin/../lib/gcc/arm-none-eabi/4.7.4/../../../../arm-none-eabi/lib\libc_s.a(lib_a-sbrkr.o)
 .data          0x00000000        0x0 c:/isis/application/toolchain/bin/../lib/gcc/arm-none-eabi/4.7.4/../../../../arm-none-eabi/lib\libc_s.a(lib_a-sbrkr.o)
 .bss           0x00000000        0x0 c:/isis/application/toolchain/bin/../lib/gcc/arm-none-eabi/4.7.4/../../../../arm-none-eabi/lib\libc_s.a(lib_a-sbrkr.o)
 .text          0x00000000        0x0 c:/isis/application/toolchain/bin/../lib/gcc/arm-none-eabi/4.7.4/../../../../arm-none-eabi/lib\libc_s.a(lib_a-sf_nan.o)
 .data          0x00000000        0x0 c:/isis/application/toolchain/bin/../lib/gcc/arm-none-eabi/4.7.4/../../../../arm-none-eabi/lib\libc_s.a(lib_a-sf_nan.o)
 .bss           0x00000000        0x0 c:/isis/application/toolchain/bin/../lib/gcc/arm-none-eabi/4.7.4/../../../../arm-none-eabi/lib\libc_s.a(lib_a-sf_nan.o)
 .text          0x00000000        0x0 c:/isis/application/toolchain/bin/../lib/gcc/arm-none-eabi/4.7.4/../../../../arm-none-eabi/lib\libc_s.a(lib_a-sprintf.o)
 .data          0x00000000        0x0 c:/isis/application/toolchain/bin/../lib/gcc/arm-none-eabi/4.7.4/../../../../arm-none-eabi/lib\libc_s.a(lib_a-sprintf.o)
 .bss           0x00000000        0x0 c:/isis/application/toolchain/bin/../lib/gcc/arm-none-eabi/4.7.4/../../../../arm-none-eabi/lib\libc_s.a(lib_a-sprintf.o)
 .text._sprintf_r
                0x00000000       0x60 c:/isis/application/toolchain/bin/../lib/gcc/arm-none-eabi/4.7.4/../../../../arm-none-eabi/lib\libc_s.a(lib_a-sprintf.o)
 .text          0x00000000        0x0 c:/isis/application/toolchain/bin/../lib/gcc/arm-none-eabi/4.7.4/../../../../arm-none-eabi/lib\libc_s.a(lib_a-strcmp.o)
 .data          0x00000000        0x0 c:/isis/application/toolchain/bin/../lib/gcc/arm-none-eabi/4.7.4/../../../../arm-none-eabi/lib\libc_s.a(lib_a-strcmp.o)
 .bss           0x00000000        0x0 c:/isis/application/toolchain/bin/../lib/gcc/arm-none-eabi/4.7.4/../../../../arm-none-eabi/lib\libc_s.a(lib_a-strcmp.o)
 .text          0x00000000        0x0 c:/isis/application/toolchain/bin/../lib/gcc/arm-none-eabi/4.7.4/../../../../arm-none-eabi/lib\libc_s.a(lib_a-strlen.o)
 .data          0x00000000        0x0 c:/isis/application/toolchain/bin/../lib/gcc/arm-none-eabi/4.7.4/../../../../arm-none-eabi/lib\libc_s.a(lib_a-strlen.o)
 .bss           0x00000000        0x0 c:/isis/application/toolchain/bin/../lib/gcc/arm-none-eabi/4.7.4/../../../../arm-none-eabi/lib\libc_s.a(lib_a-strlen.o)
 .text          0x00000000        0x0 c:/isis/application/toolchain/bin/../lib/gcc/arm-none-eabi/4.7.4/../../../../arm-none-eabi/lib\libc_s.a(lib_a-strtod.o)
 .data          0x00000000        0x0 c:/isis/application/toolchain/bin/../lib/gcc/arm-none-eabi/4.7.4/../../../../arm-none-eabi/lib\libc_s.a(lib_a-strtod.o)
 .bss           0x00000000        0x0 c:/isis/application/toolchain/bin/../lib/gcc/arm-none-eabi/4.7.4/../../../../arm-none-eabi/lib\libc_s.a(lib_a-strtod.o)
 .text.strtod   0x00000000       0x1c c:/isis/application/toolchain/bin/../lib/gcc/arm-none-eabi/4.7.4/../../../../arm-none-eabi/lib\libc_s.a(lib_a-strtod.o)
 .text.strtof   0x00000000       0x50 c:/isis/application/toolchain/bin/../lib/gcc/arm-none-eabi/4.7.4/../../../../arm-none-eabi/lib\libc_s.a(lib_a-strtod.o)
 .text          0x00000000        0x0 c:/isis/application/toolchain/bin/../lib/gcc/arm-none-eabi/4.7.4/../../../../arm-none-eabi/lib\libc_s.a(lib_a-strtol.o)
 .data          0x00000000        0x0 c:/isis/application/toolchain/bin/../lib/gcc/arm-none-eabi/4.7.4/../../../../arm-none-eabi/lib\libc_s.a(lib_a-strtol.o)
 .bss           0x00000000        0x0 c:/isis/application/toolchain/bin/../lib/gcc/arm-none-eabi/4.7.4/../../../../arm-none-eabi/lib\libc_s.a(lib_a-strtol.o)
 .text.strtol   0x00000000       0x2c c:/isis/application/toolchain/bin/../lib/gcc/arm-none-eabi/4.7.4/../../../../arm-none-eabi/lib\libc_s.a(lib_a-strtol.o)
 .text          0x00000000        0x0 c:/isis/application/toolchain/bin/../lib/gcc/arm-none-eabi/4.7.4/../../../../arm-none-eabi/lib\libc_s.a(lib_a-svfprintf.o)
 .data          0x00000000        0x0 c:/isis/application/toolchain/bin/../lib/gcc/arm-none-eabi/4.7.4/../../../../arm-none-eabi/lib\libc_s.a(lib_a-svfprintf.o)
 .bss           0x00000000        0x0 c:/isis/application/toolchain/bin/../lib/gcc/arm-none-eabi/4.7.4/../../../../arm-none-eabi/lib\libc_s.a(lib_a-svfprintf.o)
 .text.__ssprint_r
                0x00000000      0x184 c:/isis/application/toolchain/bin/../lib/gcc/arm-none-eabi/4.7.4/../../../../arm-none-eabi/lib\libc_s.a(lib_a-svfprintf.o)
 .text          0x00000000        0x0 c:/isis/application/toolchain/bin/../lib/gcc/arm-none-eabi/4.7.4/../../../../arm-none-eabi/lib\libc_s.a(lib_a-callocr.o)
 .data          0x00000000        0x0 c:/isis/application/toolchain/bin/../lib/gcc/arm-none-eabi/4.7.4/../../../../arm-none-eabi/lib\libc_s.a(lib_a-callocr.o)
 .bss           0x00000000        0x0 c:/isis/application/toolchain/bin/../lib/gcc/arm-none-eabi/4.7.4/../../../../arm-none-eabi/lib\libc_s.a(lib_a-callocr.o)
 .text          0x00000000        0x0 c:/isis/application/toolchain/bin/../lib/gcc/arm-none-eabi/4.7.4/../../../../arm-none-eabi/lib\libc_s.a(lib_a-ctype_.o)
 .data          0x00000000        0x0 c:/isis/application/toolchain/bin/../lib/gcc/arm-none-eabi/4.7.4/../../../../arm-none-eabi/lib\libc_s.a(lib_a-ctype_.o)
 .bss           0x00000000        0x0 c:/isis/application/toolchain/bin/../lib/gcc/arm-none-eabi/4.7.4/../../../../arm-none-eabi/lib\libc_s.a(lib_a-ctype_.o)
 .text          0x00000000        0x0 c:/isis/application/toolchain/bin/../lib/gcc/arm-none-eabi/4.7.4/../../../../arm-none-eabi/lib\libc_s.a(lib_a-freer.o)
 .data          0x00000000        0x0 c:/isis/application/toolchain/bin/../lib/gcc/arm-none-eabi/4.7.4/../../../../arm-none-eabi/lib\libc_s.a(lib_a-freer.o)
 .bss           0x00000000        0x0 c:/isis/application/toolchain/bin/../lib/gcc/arm-none-eabi/4.7.4/../../../../arm-none-eabi/lib\libc_s.a(lib_a-freer.o)
 .text          0x00000000        0x0 c:/isis/application/toolchain/bin/../lib/gcc/arm-none-eabi/4.7.4/../../../../arm-none-eabi/lib\libc_s.a(lib_a-gdtoa-gethex.o)
 .data          0x00000000        0x0 c:/isis/application/toolchain/bin/../lib/gcc/arm-none-eabi/4.7.4/../../../../arm-none-eabi/lib\libc_s.a(lib_a-gdtoa-gethex.o)
 .bss           0x00000000        0x0 c:/isis/application/toolchain/bin/../lib/gcc/arm-none-eabi/4.7.4/../../../../arm-none-eabi/lib\libc_s.a(lib_a-gdtoa-gethex.o)
 .text          0x00000000        0x0 c:/isis/application/toolchain/bin/../lib/gcc/arm-none-eabi/4.7.4/../../../../arm-none-eabi/lib\libc_s.a(lib_a-gdtoa-hexnan.o)
 .data          0x00000000        0x0 c:/isis/application/toolchain/bin/../lib/gcc/arm-none-eabi/4.7.4/../../../../arm-none-eabi/lib\libc_s.a(lib_a-gdtoa-hexnan.o)
 .bss           0x00000000        0x0 c:/isis/application/toolchain/bin/../lib/gcc/arm-none-eabi/4.7.4/../../../../arm-none-eabi/lib\libc_s.a(lib_a-gdtoa-hexnan.o)
 .text          0x00000000        0x0 c:/isis/application/toolchain/bin/../lib/gcc/arm-none-eabi/4.7.4/../../../../arm-none-eabi/lib\libc_s.a(lib_a-impure.o)
 .data          0x00000000        0x0 c:/isis/application/toolchain/bin/../lib/gcc/arm-none-eabi/4.7.4/../../../../arm-none-eabi/lib\libc_s.a(lib_a-impure.o)
 .bss           0x00000000        0x0 c:/isis/application/toolchain/bin/../lib/gcc/arm-none-eabi/4.7.4/../../../../arm-none-eabi/lib\libc_s.a(lib_a-impure.o)
 .text          0x00000000        0x0 c:/isis/application/toolchain/bin/../lib/gcc/arm-none-eabi/4.7.4/../../../../arm-none-eabi/lib\libc_s.a(lib_a-memchr.o)
 .data          0x00000000        0x0 c:/isis/application/toolchain/bin/../lib/gcc/arm-none-eabi/4.7.4/../../../../arm-none-eabi/lib\libc_s.a(lib_a-memchr.o)
 .bss           0x00000000        0x0 c:/isis/application/toolchain/bin/../lib/gcc/arm-none-eabi/4.7.4/../../../../arm-none-eabi/lib\libc_s.a(lib_a-memchr.o)
 .text          0x00000000        0x0 c:/isis/application/toolchain/bin/../lib/gcc/arm-none-eabi/4.7.4/../../../../arm-none-eabi/lib\libc_s.a(lib_a-memmove.o)
 .data          0x00000000        0x0 c:/isis/application/toolchain/bin/../lib/gcc/arm-none-eabi/4.7.4/../../../../arm-none-eabi/lib\libc_s.a(lib_a-memmove.o)
 .bss           0x00000000        0x0 c:/isis/application/toolchain/bin/../lib/gcc/arm-none-eabi/4.7.4/../../../../arm-none-eabi/lib\libc_s.a(lib_a-memmove.o)
 .text.memmove  0x00000000       0x64 c:/isis/application/toolchain/bin/../lib/gcc/arm-none-eabi/4.7.4/../../../../arm-none-eabi/lib\libc_s.a(lib_a-memmove.o)
 .ARM.attributes
                0x00000000       0x30 c:/isis/application/toolchain/bin/../lib/gcc/arm-none-eabi/4.7.4/../../../../arm-none-eabi/lib\libc_s.a(lib_a-memmove.o)
 .debug_frame   0x00000000       0x28 c:/isis/application/toolchain/bin/../lib/gcc/arm-none-eabi/4.7.4/../../../../arm-none-eabi/lib\libc_s.a(lib_a-memmove.o)
 .text          0x00000000        0x0 c:/isis/application/toolchain/bin/../lib/gcc/arm-none-eabi/4.7.4/../../../../arm-none-eabi/lib\libc_s.a(lib_a-memset.o)
 .data          0x00000000        0x0 c:/isis/application/toolchain/bin/../lib/gcc/arm-none-eabi/4.7.4/../../../../arm-none-eabi/lib\libc_s.a(lib_a-memset.o)
 .bss           0x00000000        0x0 c:/isis/application/toolchain/bin/../lib/gcc/arm-none-eabi/4.7.4/../../../../arm-none-eabi/lib\libc_s.a(lib_a-memset.o)
 .text          0x00000000        0x0 c:/isis/application/toolchain/bin/../lib/gcc/arm-none-eabi/4.7.4/../../../../arm-none-eabi/lib\libc_s.a(lib_a-reallocr.o)
 .data          0x00000000        0x0 c:/isis/application/toolchain/bin/../lib/gcc/arm-none-eabi/4.7.4/../../../../arm-none-eabi/lib\libc_s.a(lib_a-reallocr.o)
 .bss           0x00000000        0x0 c:/isis/application/toolchain/bin/../lib/gcc/arm-none-eabi/4.7.4/../../../../arm-none-eabi/lib\libc_s.a(lib_a-reallocr.o)
 .text          0x00000000        0x0 c:/isis/application/toolchain/bin/../lib/gcc/arm-none-eabi/4.7.4/../../../../arm-none-eabi/lib\libc_s.a(lib_a-reent.o)
 .data          0x00000000        0x0 c:/isis/application/toolchain/bin/../lib/gcc/arm-none-eabi/4.7.4/../../../../arm-none-eabi/lib\libc_s.a(lib_a-reent.o)
 .bss           0x00000000        0x0 c:/isis/application/toolchain/bin/../lib/gcc/arm-none-eabi/4.7.4/../../../../arm-none-eabi/lib\libc_s.a(lib_a-reent.o)
 .text.cleanup_glue
                0x00000000       0x2c c:/isis/application/toolchain/bin/../lib/gcc/arm-none-eabi/4.7.4/../../../../arm-none-eabi/lib\libc_s.a(lib_a-reent.o)
 .text._reclaim_reent
                0x00000000      0x13c c:/isis/application/toolchain/bin/../lib/gcc/arm-none-eabi/4.7.4/../../../../arm-none-eabi/lib\libc_s.a(lib_a-reent.o)
 .text._wrapup_reent
                0x00000000       0x5c c:/isis/application/toolchain/bin/../lib/gcc/arm-none-eabi/4.7.4/../../../../arm-none-eabi/lib\libc_s.a(lib_a-reent.o)
 .text          0x00000000        0x0 c:/isis/application/toolchain/bin/../lib/gcc/arm-none-eabi/4.7.4/../../../../arm-none-eabi/lib\libc_s.a(lib_a-strncmp.o)
 .data          0x00000000        0x0 c:/isis/application/toolchain/bin/../lib/gcc/arm-none-eabi/4.7.4/../../../../arm-none-eabi/lib\libc_s.a(lib_a-strncmp.o)
 .bss           0x00000000        0x0 c:/isis/application/toolchain/bin/../lib/gcc/arm-none-eabi/4.7.4/../../../../arm-none-eabi/lib\libc_s.a(lib_a-strncmp.o)
 .text          0x00000000        0x0 c:/isis/application/toolchain/bin/../lib/gcc/arm-none-eabi/4.7.4/../../../../arm-none-eabi/lib\libc_s.a(lib_a-msizer.o)
 .data          0x00000000        0x0 c:/isis/application/toolchain/bin/../lib/gcc/arm-none-eabi/4.7.4/../../../../arm-none-eabi/lib\libc_s.a(lib_a-msizer.o)
 .bss           0x00000000        0x0 c:/isis/application/toolchain/bin/../lib/gcc/arm-none-eabi/4.7.4/../../../../arm-none-eabi/lib\libc_s.a(lib_a-msizer.o)
 .text          0x00000000        0x0 ./src/sub-systemCode/Main/CMD/ADCS_CMD.o
 .text.AdcsCmdQueueGetCount
                0x00000000       0x2c ./src/sub-systemCode/Main/CMD/ADCS_CMD.o
 .text          0x00000000        0x0 ./src/sub-systemCode/Main/CMD/COMM_CMD.o
 .data          0x00000000        0x0 ./src/sub-systemCode/Main/CMD/COMM_CMD.o
 .bss           0x00000000        0x0 ./src/sub-systemCode/Main/CMD/COMM_CMD.o
 .text          0x00000000        0x0 ./src/sub-systemCode/Main/CMD/EPS_CMD.o
 .data          0x00000000        0x0 ./src/sub-systemCode/Main/CMD/EPS_CMD.o
 .bss           0x00000000        0x0 ./src/sub-systemCode/Main/CMD/EPS_CMD.o
 .text          0x00000000        0x0 ./src/sub-systemCode/Main/CMD/General_CMD.o
 .data          0x00000000        0x0 ./src/sub-systemCode/Main/CMD/General_CMD.o
 .bss           0x00000000        0x0 ./src/sub-systemCode/Main/CMD/General_CMD.o
 .text          0x00000000        0x0 ./src/sub-systemCode/Main/CMD/SW_CMD.o
 .data          0x00000000        0x0 ./src/sub-systemCode/Main/CMD/SW_CMD.o
 .bss           0x00000000        0x0 ./src/sub-systemCode/Main/CMD/SW_CMD.o
 .text          0x00000000        0x0 ./src/sub-systemCode/Main/CMD/payload_CMD.o
 .data          0x00000000        0x0 ./src/sub-systemCode/Main/CMD/payload_CMD.o
 .bss           0x00000000        0x0 ./src/sub-systemCode/Main/CMD/payload_CMD.o
 .debug_line    0x00000000        0x0 ./src/sub-systemCode/Main/CMD/payload_CMD.o
 .comment       0x00000000       0x71 ./src/sub-systemCode/Main/CMD/payload_CMD.o
 .ARM.attributes
                0x00000000       0x32 ./src/sub-systemCode/Main/CMD/payload_CMD.o
 .text          0x00000000        0x0 ./src/sub-systemCode/Main/Ants.o
 .data          0x00000000        0x0 ./src/sub-systemCode/Main/Ants.o
 .text          0x00000000        0x0 ./src/sub-systemCode/Main/EPS.o
 .bss           0x00000000        0x0 ./src/sub-systemCode/Main/EPS.o
 .text          0x00000000        0x0 ./src/sub-systemCode/Main/HouseKeeping.o
 .data          0x00000000        0x0 ./src/sub-systemCode/Main/HouseKeeping.o
 .bss           0x00000000        0x0 ./src/sub-systemCode/Main/HouseKeeping.o
 .text          0x00000000        0x0 ./src/sub-systemCode/Main/Main_Init.o
 .data          0x00000000        0x0 ./src/sub-systemCode/Main/Main_Init.o
 .bss           0x00000000        0x0 ./src/sub-systemCode/Main/Main_Init.o
 .text.resetSD  0x00000000      0x118 ./src/sub-systemCode/Main/Main_Init.o
 .text          0x00000000        0x0 ./src/sub-systemCode/Main/commands.o
 .data          0x00000000        0x0 ./src/sub-systemCode/Main/commands.o
 .text.check_number_commands
                0x00000000       0x24 ./src/sub-systemCode/Main/commands.o
 .text          0x00000000        0x0 ./src/sub-systemCode/Global/GenericTaskSave.o
 .data          0x00000000        0x0 ./src/sub-systemCode/Global/GenericTaskSave.o
 .bss           0x00000000        0x0 ./src/sub-systemCode/Global/GenericTaskSave.o
 .text          0x00000000        0x0 ./src/sub-systemCode/Global/Global.o
 .data          0x00000000        0x0 ./src/sub-systemCode/Global/Global.o
 .bss           0x00000000        0x0 ./src/sub-systemCode/Global/Global.o
 COMMON         0x00000000        0x4 ./src/sub-systemCode/Global/Global.o
 .text          0x00000000        0x0 ./src/sub-systemCode/Global/GlobalParam.o
 .data          0x00000000        0x0 ./src/sub-systemCode/Global/GlobalParam.o
 .text          0x00000000        0x0 ./src/sub-systemCode/Global/OnlineTM.o
 .data          0x00000000        0x0 ./src/sub-systemCode/Global/OnlineTM.o
 .bss           0x00000000        0x0 ./src/sub-systemCode/Global/OnlineTM.o
 .text          0x00000000        0x0 ./src/sub-systemCode/Global/TLM_management.o
 .data          0x00000000        0x0 ./src/sub-systemCode/Global/TLM_management.o
 .bss           0x00000000        0x0 ./src/sub-systemCode/Global/TLM_management.o
 .text.setSdIndex
                0x00000000       0x4c ./src/sub-systemCode/Global/TLM_management.o
 .text.fileWrite
                0x00000000       0x6c ./src/sub-systemCode/Global/TLM_management.o
 .text.fileRead
                0x00000000      0x180 ./src/sub-systemCode/Global/TLM_management.o
 .text.print_file
                0x00000000      0x188 ./src/sub-systemCode/Global/TLM_management.o
 .text          0x00000000        0x0 ./src/sub-systemCode/Global/freertosExtended.o
 .data          0x00000000        0x0 ./src/sub-systemCode/Global/freertosExtended.o
 .bss           0x00000000        0x0 ./src/sub-systemCode/Global/freertosExtended.o
 .text          0x00000000        0x0 ./src/sub-systemCode/Global/logger.o
 .data          0x00000000        0x0 ./src/sub-systemCode/Global/logger.o
 .bss           0x00000000        0x0 ./src/sub-systemCode/Global/logger.o
 .text          0x00000000        0x0 ./src/sub-systemCode/CUF/CUF.o
 .data          0x00000000        0x0 ./src/sub-systemCode/CUF/CUF.o
 COMMON         0x00000000       0x30 ./src/sub-systemCode/CUF/CUF.o
 .text          0x00000000        0x0 ./src/sub-systemCode/CUF/uploadCodeTelemetry.o
 .data          0x00000000        0x0 ./src/sub-systemCode/CUF/uploadCodeTelemetry.o
 .text          0x00000000        0x0 ./src/sub-systemCode/COMM/APRS.o
 .data          0x00000000        0x0 ./src/sub-systemCode/COMM/APRS.o
 .bss           0x00000000      0x168 ./src/sub-systemCode/COMM/APRS.o
 .text          0x00000000        0x0 ./src/sub-systemCode/COMM/DelayedCommand_list.o
 .data          0x00000000        0x0 ./src/sub-systemCode/COMM/DelayedCommand_list.o
 .text          0x00000000        0x0 ./src/sub-systemCode/COMM/GSC.o
 .data          0x00000000        0x0 ./src/sub-systemCode/COMM/GSC.o
 .bss           0x00000000        0x0 ./src/sub-systemCode/COMM/GSC.o
 .text          0x00000000        0x0 ./src/sub-systemCode/COMM/TRXVU.o
 .data          0x00000000        0x0 ./src/sub-systemCode/COMM/TRXVU.o
 .text          0x00000000        0x0 ./src/sub-systemCode/ADCS/AdcsCommands.o
 .data          0x00000000        0x0 ./src/sub-systemCode/ADCS/AdcsCommands.o
 .bss           0x00000000        0x0 ./src/sub-systemCode/ADCS/AdcsCommands.o
 .text          0x00000000        0x0 ./src/sub-systemCode/ADCS/AdcsGetDataAndTlm.o
 .bss           0x00000000        0x0 ./src/sub-systemCode/ADCS/AdcsGetDataAndTlm.o
 .text          0x00000000        0x0 ./src/sub-systemCode/ADCS/AdcsMain.o
 .bss           0x00000000        0x0 ./src/sub-systemCode/ADCS/AdcsMain.o
 .text          0x00000000        0x0 ./src/sub-systemCode/ADCS/AdcsTroubleShooting.o
 .data          0x00000000        0x0 ./src/sub-systemCode/ADCS/AdcsTroubleShooting.o
 .bss           0x00000000        0x0 ./src/sub-systemCode/ADCS/AdcsTroubleShooting.o
 .text          0x00000000        0x0 ./src/sub-systemCode/ADCS/StateMachine.o
 .data          0x00000000        0x0 ./src/sub-systemCode/ADCS/StateMachine.o
 .bss           0x00000000        0x0 ./src/sub-systemCode/ADCS/StateMachine.o
 .text          0x00000000        0x0 ./src/main.o
 .data          0x00000000        0x0 ./src/main.o
 .bss           0x00000000        0x0 ./src/main.o
 .text          0x00000000        0x0 C:/ISIS/workspace/HOOPOE3/satellite-subsystems/demo/..//satellite-subsystems/lib\libSatelliteSubsystemsD.a(GomEPS.o)
 .data          0x00000000        0x0 C:/ISIS/workspace/HOOPOE3/satellite-subsystems/demo/..//satellite-subsystems/lib\libSatelliteSubsystemsD.a(GomEPS.o)
 .text          0x00000000        0x0 C:/ISIS/workspace/HOOPOE3/satellite-subsystems/demo/..//satellite-subsystems/lib\libSatelliteSubsystemsD.a(IsisAntS.o)
 .data          0x00000000        0x0 C:/ISIS/workspace/HOOPOE3/satellite-subsystems/demo/..//satellite-subsystems/lib\libSatelliteSubsystemsD.a(IsisAntS.o)
 .text          0x00000000        0x0 C:/ISIS/workspace/HOOPOE3/satellite-subsystems/demo/..//satellite-subsystems/lib\libSatelliteSubsystemsD.a(IsisEPS.o)
 .data          0x00000000        0x0 C:/ISIS/workspace/HOOPOE3/satellite-subsystems/demo/..//satellite-subsystems/lib\libSatelliteSubsystemsD.a(IsisEPS.o)
 .text          0x00000000        0x0 C:/ISIS/workspace/HOOPOE3/satellite-subsystems/demo/..//satellite-subsystems/lib\libSatelliteSubsystemsD.a(IsisMTQv1.o)
 .data          0x00000000        0x0 C:/ISIS/workspace/HOOPOE3/satellite-subsystems/demo/..//satellite-subsystems/lib\libSatelliteSubsystemsD.a(IsisMTQv1.o)
 .text          0x00000000        0x0 C:/ISIS/workspace/HOOPOE3/satellite-subsystems/demo/..//satellite-subsystems/lib\libSatelliteSubsystemsD.a(IsisMTQv2.o)
 .data          0x00000000        0x0 C:/ISIS/workspace/HOOPOE3/satellite-subsystems/demo/..//satellite-subsystems/lib\libSatelliteSubsystemsD.a(IsisMTQv2.o)
 .text.IsisMTQv2_getCoilTemperature
                0x00000000      0x100 C:/ISIS/workspace/HOOPOE3/satellite-subsystems/demo/..//satellite-subsystems/lib\libSatelliteSubsystemsD.a(IsisMTQv2.o)
 .text.IsisMTQv2_getCmdActuationDipole
                0x00000000      0x100 C:/ISIS/workspace/HOOPOE3/satellite-subsystems/demo/..//satellite-subsystems/lib\libSatelliteSubsystemsD.a(IsisMTQv2.o)
 .text.IsisMTQv2_getSelftestDataSingleAxis
                0x00000000      0x17c C:/ISIS/workspace/HOOPOE3/satellite-subsystems/demo/..//satellite-subsystems/lib\libSatelliteSubsystemsD.a(IsisMTQv2.o)
 .text.IsisMTQv2_getSelftestDataAllAxis
                0x00000000      0x2cc C:/ISIS/workspace/HOOPOE3/satellite-subsystems/demo/..//satellite-subsystems/lib\libSatelliteSubsystemsD.a(IsisMTQv2.o)
 .text.IsisMTQv2_getDetumbleData
                0x00000000      0x108 C:/ISIS/workspace/HOOPOE3/satellite-subsystems/demo/..//satellite-subsystems/lib\libSatelliteSubsystemsD.a(IsisMTQv2.o)
 .text.IsisMTQv2_getRawHKData
                0x00000000      0x13c C:/ISIS/workspace/HOOPOE3/satellite-subsystems/demo/..//satellite-subsystems/lib\libSatelliteSubsystemsD.a(IsisMTQv2.o)
 .text.IsisMTQv2_getEngHKData
                0x00000000      0x13c C:/ISIS/workspace/HOOPOE3/satellite-subsystems/demo/..//satellite-subsystems/lib\libSatelliteSubsystemsD.a(IsisMTQv2.o)
 .text.IsisMTQv2_getParSize
                0x00000000      0x11c C:/ISIS/workspace/HOOPOE3/satellite-subsystems/demo/..//satellite-subsystems/lib\libSatelliteSubsystemsD.a(IsisMTQv2.o)
 .text.IsisMTQv2_getParameter
                0x00000000      0x238 C:/ISIS/workspace/HOOPOE3/satellite-subsystems/demo/..//satellite-subsystems/lib\libSatelliteSubsystemsD.a(IsisMTQv2.o)
 .text.IsisMTQv2_setParameter
                0x00000000      0x264 C:/ISIS/workspace/HOOPOE3/satellite-subsystems/demo/..//satellite-subsystems/lib\libSatelliteSubsystemsD.a(IsisMTQv2.o)
 .text.IsisMTQv2_resetParameter
                0x00000000      0x238 C:/ISIS/workspace/HOOPOE3/satellite-subsystems/demo/..//satellite-subsystems/lib\libSatelliteSubsystemsD.a(IsisMTQv2.o)
 .text          0x00000000        0x0 C:/ISIS/workspace/HOOPOE3/satellite-subsystems/demo/..//satellite-subsystems/lib\libSatelliteSubsystemsD.a(IsisSolarPanelv2.o)
 .text.IsisSolarPanelv2_getState
                0x00000000       0x24 C:/ISIS/workspace/HOOPOE3/satellite-subsystems/demo/..//satellite-subsystems/lib\libSatelliteSubsystemsD.a(IsisSolarPanelv2.o)
 .text          0x00000000        0x0 C:/ISIS/workspace/HOOPOE3/satellite-subsystems/demo/..//satellite-subsystems/lib\libSatelliteSubsystemsD.a(IsisTRXVU.o)
 .data          0x00000000        0x0 C:/ISIS/workspace/HOOPOE3/satellite-subsystems/demo/..//satellite-subsystems/lib\libSatelliteSubsystemsD.a(IsisTRXVU.o)
 .text.IsisTrxvu_tcSendAX25OvrClSign
                0x00000000      0x10c C:/ISIS/workspace/HOOPOE3/satellite-subsystems/demo/..//satellite-subsystems/lib\libSatelliteSubsystemsD.a(IsisTRXVU.o)
 .text.IsisTrxvu_tcSetAx25BeaconDefClSign
                0x00000000       0xe4 C:/ISIS/workspace/HOOPOE3/satellite-subsystems/demo/..//satellite-subsystems/lib\libSatelliteSubsystemsD.a(IsisTRXVU.o)
 .text.IsisTrxvu_tcSetAx25BeaconOvrClSign
                0x00000000      0x10c C:/ISIS/workspace/HOOPOE3/satellite-subsystems/demo/..//satellite-subsystems/lib\libSatelliteSubsystemsD.a(IsisTRXVU.o)
 .text.IsisTrxvu_tcClearBeacon
                0x00000000       0x80 C:/ISIS/workspace/HOOPOE3/satellite-subsystems/demo/..//satellite-subsystems/lib\libSatelliteSubsystemsD.a(IsisTRXVU.o)
 .text.IsisTrxvu_tcSetDefToClSign
                0x00000000       0x9c C:/ISIS/workspace/HOOPOE3/satellite-subsystems/demo/..//satellite-subsystems/lib\libSatelliteSubsystemsD.a(IsisTRXVU.o)
 .text.IsisTrxvu_tcSetDefFromClSign
                0x00000000       0x9c C:/ISIS/workspace/HOOPOE3/satellite-subsystems/demo/..//satellite-subsystems/lib\libSatelliteSubsystemsD.a(IsisTRXVU.o)
 .text.IsisTrxvu_tcGetUptime
                0x00000000       0xa0 C:/ISIS/workspace/HOOPOE3/satellite-subsystems/demo/..//satellite-subsystems/lib\libSatelliteSubsystemsD.a(IsisTRXVU.o)
 .text.IsisTrxvu_tcGetLastTxTelemetry
                0x00000000       0xe4 C:/ISIS/workspace/HOOPOE3/satellite-subsystems/demo/..//satellite-subsystems/lib\libSatelliteSubsystemsD.a(IsisTRXVU.o)
 .text.IsisTrxvu_tcGetLastTxTelemetry_revC
                0x00000000       0xe4 C:/ISIS/workspace/HOOPOE3/satellite-subsystems/demo/..//satellite-subsystems/lib\libSatelliteSubsystemsD.a(IsisTRXVU.o)
 .text.IsisTrxvu_tcEstimateTransmissionTime
                0x00000000      0x14c C:/ISIS/workspace/HOOPOE3/satellite-subsystems/demo/..//satellite-subsystems/lib\libSatelliteSubsystemsD.a(IsisTRXVU.o)
 .text.IsisTrxvu_rcGetUptime
                0x00000000       0xa0 C:/ISIS/workspace/HOOPOE3/satellite-subsystems/demo/..//satellite-subsystems/lib\libSatelliteSubsystemsD.a(IsisTRXVU.o)
 .text          0x00000000        0x0 C:/ISIS/workspace/HOOPOE3/satellite-subsystems/demo/..//satellite-subsystems/lib\libSatelliteSubsystemsD.a(cspaceADCS.o)
 .data          0x00000000        0x0 C:/ISIS/workspace/HOOPOE3/satellite-subsystems/demo/..//satellite-subsystems/lib\libSatelliteSubsystemsD.a(cspaceADCS.o)
 .text          0x00000000        0x0 C:/ISIS/workspace/HOOPOE3/satellite-subsystems/demo/..//satellite-subsystems/lib\libSatelliteSubsystemsD.a(IsisTRXCommon.o)
 .data          0x00000000        0x0 C:/ISIS/workspace/HOOPOE3/satellite-subsystems/demo/..//satellite-subsystems/lib\libSatelliteSubsystemsD.a(IsisTRXCommon.o)
 .bss           0x00000000        0x0 C:/ISIS/workspace/HOOPOE3/satellite-subsystems/demo/..//satellite-subsystems/lib\libSatelliteSubsystemsD.a(IsisTRXCommon.o)
 .text.IsisTrxCommon_TxSendAX25OvrClSign
                0x00000000      0x120 C:/ISIS/workspace/HOOPOE3/satellite-subsystems/demo/..//satellite-subsystems/lib\libSatelliteSubsystemsD.a(IsisTRXCommon.o)
 .text.IsisTrxCommon_TxSetAx25BeaconDefClSign
                0x00000000       0xf4 C:/ISIS/workspace/HOOPOE3/satellite-subsystems/demo/..//satellite-subsystems/lib\libSatelliteSubsystemsD.a(IsisTRXCommon.o)
 .text.IsisTrxCommon_TxSetAx25BeaconOvrClSign
                0x00000000      0x124 C:/ISIS/workspace/HOOPOE3/satellite-subsystems/demo/..//satellite-subsystems/lib\libSatelliteSubsystemsD.a(IsisTRXCommon.o)
 .text.IsisTrxCommon_TxClearBeacon
                0x00000000       0x68 C:/ISIS/workspace/HOOPOE3/satellite-subsystems/demo/..//satellite-subsystems/lib\libSatelliteSubsystemsD.a(IsisTRXCommon.o)
 .text.IsisTrxCommon_TxSetDefToClSign
                0x00000000       0x84 C:/ISIS/workspace/HOOPOE3/satellite-subsystems/demo/..//satellite-subsystems/lib\libSatelliteSubsystemsD.a(IsisTRXCommon.o)
 .text.IsisTrxCommon_TxSetDefFromClSign
                0x00000000       0x84 C:/ISIS/workspace/HOOPOE3/satellite-subsystems/demo/..//satellite-subsystems/lib\libSatelliteSubsystemsD.a(IsisTRXCommon.o)
 .text.IsisTrxCommon_RxGetTelemetryAll
                0x00000000       0x8c C:/ISIS/workspace/HOOPOE3/satellite-subsystems/demo/..//satellite-subsystems/lib\libSatelliteSubsystemsD.a(IsisTRXCommon.o)
 .text.IsisTrxCommon_GetUptime
                0x00000000       0x8c C:/ISIS/workspace/HOOPOE3/satellite-subsystems/demo/..//satellite-subsystems/lib\libSatelliteSubsystemsD.a(IsisTRXCommon.o)
 .text          0x00000000        0x0 C:/ISIS/workspace/HOOPOE3/satellite-subsystems/demo/../..//hal/hcc/lib\libHCCD.a(fat_common.o)
 .data          0x00000000        0x0 C:/ISIS/workspace/HOOPOE3/satellite-subsystems/demo/../..//hal/hcc/lib\libHCCD.a(fat_common.o)
 .text._f_ioctl
                0x00000000       0x84 C:/ISIS/workspace/HOOPOE3/satellite-subsystems/demo/../..//hal/hcc/lib\libHCCD.a(fat_common.o)
 .text._f_ioctl_endofdelete
                0x00000000       0x88 C:/ISIS/workspace/HOOPOE3/satellite-subsystems/demo/../..//hal/hcc/lib\libHCCD.a(fat_common.o)
 .text._f_ioctl_multiplesectorerase
                0x00000000       0x5c C:/ISIS/workspace/HOOPOE3/satellite-subsystems/demo/../..//hal/hcc/lib\libHCCD.a(fat_common.o)
 .text          0x00000000        0x0 C:/ISIS/workspace/HOOPOE3/satellite-subsystems/demo/../..//hal/hcc/lib\libHCCD.a(fat_m.o)
 .data          0x00000000        0x0 C:/ISIS/workspace/HOOPOE3/satellite-subsystems/demo/../..//hal/hcc/lib\libHCCD.a(fat_m.o)
 .bss           0x00000000        0x0 C:/ISIS/workspace/HOOPOE3/satellite-subsystems/demo/../..//hal/hcc/lib\libHCCD.a(fat_m.o)
 .text.fm_open_pos
                0x00000000       0x70 C:/ISIS/workspace/HOOPOE3/satellite-subsystems/demo/../..//hal/hcc/lib\libHCCD.a(fat_m.o)
 .text          0x00000000        0x0 C:/ISIS/workspace/HOOPOE3/satellite-subsystems/demo/../..//hal/hcc/lib\libHCCD.a(safefat.o)
 .bss           0x00000000        0x0 C:/ISIS/workspace/HOOPOE3/satellite-subsystems/demo/../..//hal/hcc/lib\libHCCD.a(safefat.o)
 .text          0x00000000        0x0 C:/ISIS/workspace/HOOPOE3/satellite-subsystems/demo/../..//hal/hcc/lib\libHCCD.a(atmel_mcipdc.o)
 .data          0x00000000        0x0 C:/ISIS/workspace/HOOPOE3/satellite-subsystems/demo/../..//hal/hcc/lib\libHCCD.a(atmel_mcipdc.o)
 .text          0x00000000        0x0 C:/ISIS/workspace/HOOPOE3/satellite-subsystems/demo/../..//hal/hcc/lib\libHCCD.a(oalp_mutex.o)
 .data          0x00000000        0x0 C:/ISIS/workspace/HOOPOE3/satellite-subsystems/demo/../..//hal/hcc/lib\libHCCD.a(oalp_mutex.o)
 .bss           0x00000000        0x0 C:/ISIS/workspace/HOOPOE3/satellite-subsystems/demo/../..//hal/hcc/lib\libHCCD.a(oalp_mutex.o)
 .text          0x00000000        0x0 C:/ISIS/workspace/HOOPOE3/satellite-subsystems/demo/../..//hal/hcc/lib\libHCCD.a(oalp_task.o)
 .data          0x00000000        0x0 C:/ISIS/workspace/HOOPOE3/satellite-subsystems/demo/../..//hal/hcc/lib\libHCCD.a(oalp_task.o)
 .bss           0x00000000        0x0 C:/ISIS/workspace/HOOPOE3/satellite-subsystems/demo/../..//hal/hcc/lib\libHCCD.a(oalp_task.o)
 .text          0x00000000        0x0 C:/ISIS/workspace/HOOPOE3/satellite-subsystems/demo/../..//hal/hcc/lib\libHCCD.a(atmel_mcipdc_hw.o)
 .data          0x00000000        0x0 C:/ISIS/workspace/HOOPOE3/satellite-subsystems/demo/../..//hal/hcc/lib\libHCCD.a(atmel_mcipdc_hw.o)
 .bss           0x00000000        0x0 C:/ISIS/workspace/HOOPOE3/satellite-subsystems/demo/../..//hal/hcc/lib\libHCCD.a(atmel_mcipdc_hw.o)
 .text          0x00000000        0x0 C:/ISIS/workspace/HOOPOE3/satellite-subsystems/demo/../..//hal/hcc/lib\libHCCD.a(psp_rand.o)
 .bss           0x00000000        0x0 C:/ISIS/workspace/HOOPOE3/satellite-subsystems/demo/../..//hal/hcc/lib\libHCCD.a(psp_rand.o)
 .text          0x00000000        0x0 C:/ISIS/workspace/HOOPOE3/satellite-subsystems/demo/../..//hal/hcc/lib\libHCCD.a(psp_rtc.o)
 .data          0x00000000        0x0 C:/ISIS/workspace/HOOPOE3/satellite-subsystems/demo/../..//hal/hcc/lib\libHCCD.a(psp_rtc.o)
 .bss           0x00000000        0x0 C:/ISIS/workspace/HOOPOE3/satellite-subsystems/demo/../..//hal/hcc/lib\libHCCD.a(psp_rtc.o)
 .text          0x00000000        0x0 C:/ISIS/workspace/HOOPOE3/satellite-subsystems/demo/../..//hal/hcc/lib\libHCCD.a(hcc_mem.o)
 .data          0x00000000        0x0 C:/ISIS/workspace/HOOPOE3/satellite-subsystems/demo/../..//hal/hcc/lib\libHCCD.a(hcc_mem.o)
 .text._hcc_set_lock_dsc
                0x00000000      0x124 C:/ISIS/workspace/HOOPOE3/satellite-subsystems/demo/../..//hal/hcc/lib\libHCCD.a(hcc_mem.o)
 .text._hcc_mem_lock_get_area
                0x00000000      0x244 C:/ISIS/workspace/HOOPOE3/satellite-subsystems/demo/../..//hal/hcc/lib\libHCCD.a(hcc_mem.o)
 .text.hcc_mem_lock_tr
                0x00000000      0x2cc C:/ISIS/workspace/HOOPOE3/satellite-subsystems/demo/../..//hal/hcc/lib\libHCCD.a(hcc_mem.o)
 .text.hcc_mem_lock
                0x00000000      0x1b0 C:/ISIS/workspace/HOOPOE3/satellite-subsystems/demo/../..//hal/hcc/lib\libHCCD.a(hcc_mem.o)
 .text.hcc_mem_unlock
                0x00000000      0x170 C:/ISIS/workspace/HOOPOE3/satellite-subsystems/demo/../..//hal/hcc/lib\libHCCD.a(hcc_mem.o)
 .text.hcc_mem_unlock_int
                0x00000000      0x1a8 C:/ISIS/workspace/HOOPOE3/satellite-subsystems/demo/../..//hal/hcc/lib\libHCCD.a(hcc_mem.o)
 .text.hcc_mem_get_hdl
                0x00000000       0x8c C:/ISIS/workspace/HOOPOE3/satellite-subsystems/demo/../..//hal/hcc/lib\libHCCD.a(hcc_mem.o)
 .text          0x00000000        0x0 C:/ISIS/workspace/HOOPOE3/satellite-subsystems/demo/../..//hal/hcc/lib\libHCCD.a(fat.o)
 .data          0x00000000        0x0 C:/ISIS/workspace/HOOPOE3/satellite-subsystems/demo/../..//hal/hcc/lib\libHCCD.a(fat.o)
 .bss           0x00000000        0x0 C:/ISIS/workspace/HOOPOE3/satellite-subsystems/demo/../..//hal/hcc/lib\libHCCD.a(fat.o)
 .text.fn_open_pos
                0x00000000       0x48 C:/ISIS/workspace/HOOPOE3/satellite-subsystems/demo/../..//hal/hcc/lib\libHCCD.a(fat.o)
 .text          0x00000000        0x0 C:/ISIS/workspace/HOOPOE3/satellite-subsystems/demo/../..//hal/hcc/lib\libHCCD.a(psp_hcc_mem.o)
 .data          0x00000000        0x0 C:/ISIS/workspace/HOOPOE3/satellite-subsystems/demo/../..//hal/hcc/lib\libHCCD.a(psp_hcc_mem.o)
 .text          0x00000000        0x0 C:/ISIS/workspace/HOOPOE3/satellite-subsystems/demo/../..//hal/hal/lib\libHALD.a(checksum.o)
 .data          0x00000000        0x0 C:/ISIS/workspace/HOOPOE3/satellite-subsystems/demo/../..//hal/hal/lib\libHALD.a(checksum.o)
 .bss           0x00000000        0x0 C:/ISIS/workspace/HOOPOE3/satellite-subsystems/demo/../..//hal/hal/lib\libHALD.a(checksum.o)
 .text.checksum_prepareLUTCRC32
                0x00000000       0x80 C:/ISIS/workspace/HOOPOE3/satellite-subsystems/demo/../..//hal/hal/lib\libHALD.a(checksum.o)
 .text.checksum_calculateCRC32LUT
                0x00000000       0xa8 C:/ISIS/workspace/HOOPOE3/satellite-subsystems/demo/../..//hal/hal/lib\libHALD.a(checksum.o)
 .text.checksum_verifyCRC32
                0x00000000       0xbc C:/ISIS/workspace/HOOPOE3/satellite-subsystems/demo/../..//hal/hal/lib\libHALD.a(checksum.o)
 .text.checksum_calculateCRC32
                0x00000000      0x184 C:/ISIS/workspace/HOOPOE3/satellite-subsystems/demo/../..//hal/hal/lib\libHALD.a(checksum.o)
 .text.checksum_prepareLUTCRC16
                0x00000000       0x8c C:/ISIS/workspace/HOOPOE3/satellite-subsystems/demo/../..//hal/hal/lib\libHALD.a(checksum.o)
 .text.checksum_calculateCRC16LUT
                0x00000000      0x158 C:/ISIS/workspace/HOOPOE3/satellite-subsystems/demo/../..//hal/hal/lib\libHALD.a(checksum.o)
 .text.checksum_calculateCRC16
                0x00000000      0x124 C:/ISIS/workspace/HOOPOE3/satellite-subsystems/demo/../..//hal/hal/lib\libHALD.a(checksum.o)
 .text.checksum_verifyCRC16
                0x00000000       0xb4 C:/ISIS/workspace/HOOPOE3/satellite-subsystems/demo/../..//hal/hal/lib\libHALD.a(checksum.o)
 .text.checksum_calculateCRC8LUT
                0x00000000       0xa0 C:/ISIS/workspace/HOOPOE3/satellite-subsystems/demo/../..//hal/hal/lib\libHALD.a(checksum.o)
 .text          0x00000000        0x0 C:/ISIS/workspace/HOOPOE3/satellite-subsystems/demo/../..//hal/hal/lib\libHALD.a(supervisor.o)
 .text          0x00000000        0x0 C:/ISIS/workspace/HOOPOE3/satellite-subsystems/demo/../..//hal/hal/lib\libHALD.a(ADC.o)
 .text          0x00000000        0x0 C:/ISIS/workspace/HOOPOE3/satellite-subsystems/demo/../..//hal/hal/lib\libHALD.a(I2C.o)
 .text          0x00000000        0x0 C:/ISIS/workspace/HOOPOE3/satellite-subsystems/demo/../..//hal/hal/lib\libHALD.a(I2Cslave.o)
 .data          0x00000000        0x0 C:/ISIS/workspace/HOOPOE3/satellite-subsystems/demo/../..//hal/hal/lib\libHALD.a(I2Cslave.o)
 .text          0x00000000        0x0 C:/ISIS/workspace/HOOPOE3/satellite-subsystems/demo/../..//hal/hal/lib\libHALD.a(PWM.o)
 .text          0x00000000        0x0 C:/ISIS/workspace/HOOPOE3/satellite-subsystems/demo/../..//hal/hal/lib\libHALD.a(SPI.o)
 .text          0x00000000        0x0 C:/ISIS/workspace/HOOPOE3/satellite-subsystems/demo/../..//hal/hal/lib\libHALD.a(UART.o)
 .text          0x00000000        0x0 C:/ISIS/workspace/HOOPOE3/satellite-subsystems/demo/../..//hal/hal/lib\libHALD.a(FRAM.o)
 .text          0x00000000        0x0 C:/ISIS/workspace/HOOPOE3/satellite-subsystems/demo/../..//hal/hal/lib\libHALD.a(RTC.o)
 .bss           0x00000000        0x0 C:/ISIS/workspace/HOOPOE3/satellite-subsystems/demo/../..//hal/hal/lib\libHALD.a(RTC.o)
 .text          0x00000000        0x0 C:/ISIS/workspace/HOOPOE3/satellite-subsystems/demo/../..//hal/hal/lib\libHALD.a(RTT.o)
 .data          0x00000000        0x0 C:/ISIS/workspace/HOOPOE3/satellite-subsystems/demo/../..//hal/hal/lib\libHALD.a(RTT.o)
 .bss           0x00000000        0x0 C:/ISIS/workspace/HOOPOE3/satellite-subsystems/demo/../..//hal/hal/lib\libHALD.a(RTT.o)
 .text          0x00000000        0x0 C:/ISIS/workspace/HOOPOE3/satellite-subsystems/demo/../..//hal/hal/lib\libHALD.a(Time.o)
 .text          0x00000000        0x0 C:/ISIS/workspace/HOOPOE3/satellite-subsystems/demo/../..//hal/hal/lib\libHALD.a(WatchDogTimerNoOS.o)
 .data          0x00000000        0x0 C:/ISIS/workspace/HOOPOE3/satellite-subsystems/demo/../..//hal/hal/lib\libHALD.a(WatchDogTimerNoOS.o)
 .bss           0x00000000        0x0 C:/ISIS/workspace/HOOPOE3/satellite-subsystems/demo/../..//hal/hal/lib\libHALD.a(WatchDogTimerNoOS.o)
 .text          0x00000000        0x0 C:/ISIS/workspace/HOOPOE3/satellite-subsystems/demo/../..//hal/hal/lib\libHALD.a(WatchDogTimerOS.o)
 .data          0x00000000        0x0 C:/ISIS/workspace/HOOPOE3/satellite-subsystems/demo/../..//hal/hal/lib\libHALD.a(WatchDogTimerOS.o)
 .text          0x00000000        0x0 C:/ISIS/workspace/HOOPOE3/satellite-subsystems/demo/../..//hal/hal/lib\libHALD.a(util.o)
 .data          0x00000000        0x0 C:/ISIS/workspace/HOOPOE3/satellite-subsystems/demo/../..//hal/hal/lib\libHALD.a(util.o)
 .bss           0x00000000        0x0 C:/ISIS/workspace/HOOPOE3/satellite-subsystems/demo/../..//hal/hal/lib\libHALD.a(util.o)
 .text.PrintChar
                0x00000000       0x58 C:/ISIS/workspace/HOOPOE3/satellite-subsystems/demo/../..//hal/hal/lib\libHALD.a(util.o)
 .rodata        0x00000000       0xcc C:/ISIS/workspace/HOOPOE3/satellite-subsystems/demo/../..//hal/hal/lib\libHALD.a(util.o)
 .text.UTIL_DbguDumpMemory
                0x00000000      0x254 C:/ISIS/workspace/HOOPOE3/satellite-subsystems/demo/../..//hal/hal/lib\libHALD.a(util.o)
 .text.UTIL_DbguDumpArrayBytes
                0x00000000       0x70 C:/ISIS/workspace/HOOPOE3/satellite-subsystems/demo/../..//hal/hal/lib\libHALD.a(util.o)
 .text.UTIL_DbguGetInteger
                0x00000000      0x124 C:/ISIS/workspace/HOOPOE3/satellite-subsystems/demo/../..//hal/hal/lib\libHALD.a(util.o)
 .text.UTIL_DbguGetIntegerMinMax
                0x00000000       0xa4 C:/ISIS/workspace/HOOPOE3/satellite-subsystems/demo/../..//hal/hal/lib\libHALD.a(util.o)
 .text.UTIL_DbguGetHexa32
                0x00000000      0x174 C:/ISIS/workspace/HOOPOE3/satellite-subsystems/demo/../..//hal/hal/lib\libHALD.a(util.o)
 .text          0x00000000        0x0 C:/ISIS/workspace/HOOPOE3/satellite-subsystems/demo/../..//hal/hal/lib\libHALD.a(LED.o)
 .data          0x00000000        0x0 C:/ISIS/workspace/HOOPOE3/satellite-subsystems/demo/../..//hal/hal/lib\libHALD.a(LED.o)
 .text.uSdelay  0x00000000       0x88 C:/ISIS/workspace/HOOPOE3/satellite-subsystems/demo/../..//hal/hal/lib\libHALD.a(LED.o)
 .text.LED_start
                0x00000000       0x1c C:/ISIS/workspace/HOOPOE3/satellite-subsystems/demo/../..//hal/hal/lib\libHALD.a(LED.o)
 .text.LED_wave
                0x00000000       0xd0 C:/ISIS/workspace/HOOPOE3/satellite-subsystems/demo/../..//hal/hal/lib\libHALD.a(LED.o)
 .text.LED_waveReverse
                0x00000000       0xd0 C:/ISIS/workspace/HOOPOE3/satellite-subsystems/demo/../..//hal/hal/lib\libHALD.a(LED.o)
 .text          0x00000000        0x0 C:/ISIS/workspace/HOOPOE3/satellite-subsystems/demo/../..//hal/freertos/lib\libFreeRTOSD.a(croutine.o)
 .data          0x00000000        0x0 C:/ISIS/workspace/HOOPOE3/satellite-subsystems/demo/../..//hal/freertos/lib\libFreeRTOSD.a(croutine.o)
 .text          0x00000000        0x0 C:/ISIS/workspace/HOOPOE3/satellite-subsystems/demo/../..//hal/freertos/lib\libFreeRTOSD.a(list.o)
 .data          0x00000000        0x0 C:/ISIS/workspace/HOOPOE3/satellite-subsystems/demo/../..//hal/freertos/lib\libFreeRTOSD.a(list.o)
 .bss           0x00000000        0x0 C:/ISIS/workspace/HOOPOE3/satellite-subsystems/demo/../..//hal/freertos/lib\libFreeRTOSD.a(list.o)
 .text          0x00000000        0x0 C:/ISIS/workspace/HOOPOE3/satellite-subsystems/demo/../..//hal/freertos/lib\libFreeRTOSD.a(queue.o)
 .data          0x00000000        0x0 C:/ISIS/workspace/HOOPOE3/satellite-subsystems/demo/../..//hal/freertos/lib\libFreeRTOSD.a(queue.o)
 .bss           0x00000000        0x0 C:/ISIS/workspace/HOOPOE3/satellite-subsystems/demo/../..//hal/freertos/lib\libFreeRTOSD.a(queue.o)
 .text          0x00000000        0x0 C:/ISIS/workspace/HOOPOE3/satellite-subsystems/demo/../..//hal/freertos/lib\libFreeRTOSD.a(tasks.o)
 .text          0x00000000        0x0 C:/ISIS/workspace/HOOPOE3/satellite-subsystems/demo/../..//hal/freertos/lib\libFreeRTOSD.a(hooks.o)
 .data          0x00000000        0x0 C:/ISIS/workspace/HOOPOE3/satellite-subsystems/demo/../..//hal/freertos/lib\libFreeRTOSD.a(hooks.o)
 .bss           0x00000000        0x0 C:/ISIS/workspace/HOOPOE3/satellite-subsystems/demo/../..//hal/freertos/lib\libFreeRTOSD.a(hooks.o)
 .text          0x00000000        0x0 C:/ISIS/workspace/HOOPOE3/satellite-subsystems/demo/../..//hal/freertos/lib\libFreeRTOSD.a(standardMemMang.o)
 .data          0x00000000        0x0 C:/ISIS/workspace/HOOPOE3/satellite-subsystems/demo/../..//hal/freertos/lib\libFreeRTOSD.a(standardMemMang.o)
 .bss           0x00000000        0x0 C:/ISIS/workspace/HOOPOE3/satellite-subsystems/demo/../..//hal/freertos/lib\libFreeRTOSD.a(standardMemMang.o)
 .text          0x00000000        0x0 C:/ISIS/workspace/HOOPOE3/satellite-subsystems/demo/../..//hal/freertos/lib\libFreeRTOSD.a(port.o)
 .bss           0x00000000        0x0 C:/ISIS/workspace/HOOPOE3/satellite-subsystems/demo/../..//hal/freertos/lib\libFreeRTOSD.a(port.o)
 .text.vPortDisableInterruptsFromThumb
                0x00000000       0x18 C:/ISIS/workspace/HOOPOE3/satellite-subsystems/demo/../..//hal/freertos/lib\libFreeRTOSD.a(port.o)
 .text.vPortEnableInterruptsFromThumb
                0x00000000       0x18 C:/ISIS/workspace/HOOPOE3/satellite-subsystems/demo/../..//hal/freertos/lib\libFreeRTOSD.a(port.o)
 .text          0x00000000        0x0 C:/ISIS/workspace/HOOPOE3/satellite-subsystems/demo/../..//hal/at91/lib\libAt91D.a(syscalls.o)
 .data          0x00000000        0x0 C:/ISIS/workspace/HOOPOE3/satellite-subsystems/demo/../..//hal/at91/lib\libAt91D.a(syscalls.o)
 .text._open    0x00000000       0x2c C:/ISIS/workspace/HOOPOE3/satellite-subsystems/demo/../..//hal/at91/lib\libAt91D.a(syscalls.o)
 .text._link    0x00000000       0x28 C:/ISIS/workspace/HOOPOE3/satellite-subsystems/demo/../..//hal/at91/lib\libAt91D.a(syscalls.o)
 .text._rename  0x00000000       0x28 C:/ISIS/workspace/HOOPOE3/satellite-subsystems/demo/../..//hal/at91/lib\libAt91D.a(syscalls.o)
 .text._unlink  0x00000000       0x24 C:/ISIS/workspace/HOOPOE3/satellite-subsystems/demo/../..//hal/at91/lib\libAt91D.a(syscalls.o)
 .text.fsync    0x00000000       0x24 C:/ISIS/workspace/HOOPOE3/satellite-subsystems/demo/../..//hal/at91/lib\libAt91D.a(syscalls.o)
 .text._stat    0x00000000       0x28 C:/ISIS/workspace/HOOPOE3/satellite-subsystems/demo/../..//hal/at91/lib\libAt91D.a(syscalls.o)
 .text.exit     0x00000000       0x28 C:/ISIS/workspace/HOOPOE3/satellite-subsystems/demo/../..//hal/at91/lib\libAt91D.a(syscalls.o)
 .text._exit    0x00000000       0x28 C:/ISIS/workspace/HOOPOE3/satellite-subsystems/demo/../..//hal/at91/lib\libAt91D.a(syscalls.o)
 .text._kill    0x00000000       0x1c C:/ISIS/workspace/HOOPOE3/satellite-subsystems/demo/../..//hal/at91/lib\libAt91D.a(syscalls.o)
 .text._getpid  0x00000000       0x1c C:/ISIS/workspace/HOOPOE3/satellite-subsystems/demo/../..//hal/at91/lib\libAt91D.a(syscalls.o)
 .text._gettimeofday
                0x00000000       0x1c C:/ISIS/workspace/HOOPOE3/satellite-subsystems/demo/../..//hal/at91/lib\libAt91D.a(syscalls.o)
 .text          0x00000000        0x0 C:/ISIS/workspace/HOOPOE3/satellite-subsystems/demo/../..//hal/at91/lib\libAt91D.a(board_lowlevel.o)
 .data          0x00000000        0x0 C:/ISIS/workspace/HOOPOE3/satellite-subsystems/demo/../..//hal/at91/lib\libAt91D.a(board_lowlevel.o)
 .bss           0x00000000        0x0 C:/ISIS/workspace/HOOPOE3/satellite-subsystems/demo/../..//hal/at91/lib\libAt91D.a(board_lowlevel.o)
 .text.assignBusMatrixPriorities
                0x00000000       0x54 C:/ISIS/workspace/HOOPOE3/satellite-subsystems/demo/../..//hal/at91/lib\libAt91D.a(board_lowlevel.o)
 .text          0x00000000        0x0 C:/ISIS/workspace/HOOPOE3/satellite-subsystems/demo/../..//hal/at91/lib\libAt91D.a(board_memories.o)
 .data          0x00000000        0x0 C:/ISIS/workspace/HOOPOE3/satellite-subsystems/demo/../..//hal/at91/lib\libAt91D.a(board_memories.o)
 .bss           0x00000000        0x0 C:/ISIS/workspace/HOOPOE3/satellite-subsystems/demo/../..//hal/at91/lib\libAt91D.a(board_memories.o)
 .text          0x00000000        0x0 C:/ISIS/workspace/HOOPOE3/satellite-subsystems/demo/../..//hal/at91/lib\libAt91D.a(NorFlashAmd.o)
 .data          0x00000000        0x0 C:/ISIS/workspace/HOOPOE3/satellite-subsystems/demo/../..//hal/at91/lib\libAt91D.a(NorFlashAmd.o)
 .bss           0x00000000        0x0 C:/ISIS/workspace/HOOPOE3/satellite-subsystems/demo/../..//hal/at91/lib\libAt91D.a(NorFlashAmd.o)
 .rodata        0x00000000       0x4c C:/ISIS/workspace/HOOPOE3/satellite-subsystems/demo/../..//hal/at91/lib\libAt91D.a(NorFlashAmd.o)
 .text.AMD_Program
                0x00000000      0x184 C:/ISIS/workspace/HOOPOE3/satellite-subsystems/demo/../..//hal/at91/lib\libAt91D.a(NorFlashAmd.o)
 .text.AMD_EraseSector
                0x00000000      0x1c4 C:/ISIS/workspace/HOOPOE3/satellite-subsystems/demo/../..//hal/at91/lib\libAt91D.a(NorFlashAmd.o)
 .text.AMD_EraseChip
                0x00000000      0x1d8 C:/ISIS/workspace/HOOPOE3/satellite-subsystems/demo/../..//hal/at91/lib\libAt91D.a(NorFlashAmd.o)
 .text.AMD_Write_Data
                0x00000000      0x3ac C:/ISIS/workspace/HOOPOE3/satellite-subsystems/demo/../..//hal/at91/lib\libAt91D.a(NorFlashAmd.o)
 .text          0x00000000        0x0 C:/ISIS/workspace/HOOPOE3/satellite-subsystems/demo/../..//hal/at91/lib\libAt91D.a(NorFlashCFI.o)
 .data          0x00000000        0x0 C:/ISIS/workspace/HOOPOE3/satellite-subsystems/demo/../..//hal/at91/lib\libAt91D.a(NorFlashCFI.o)
 .bss           0x00000000        0x0 C:/ISIS/workspace/HOOPOE3/satellite-subsystems/demo/../..//hal/at91/lib\libAt91D.a(NorFlashCFI.o)
 .rodata        0x00000000      0x544 C:/ISIS/workspace/HOOPOE3/satellite-subsystems/demo/../..//hal/at91/lib\libAt91D.a(NorFlashCFI.o)
 .text.NorFlash_CFI_DumpConfigruation
                0x00000000      0x3c4 C:/ISIS/workspace/HOOPOE3/satellite-subsystems/demo/../..//hal/at91/lib\libAt91D.a(NorFlashCFI.o)
 .text.NorFlash_GetDeviceNumOfBlocks
                0x00000000       0xc0 C:/ISIS/workspace/HOOPOE3/satellite-subsystems/demo/../..//hal/at91/lib\libAt91D.a(NorFlashCFI.o)
 .text.NorFlash_GetDeviceMinBlockSize
                0x00000000       0xf0 C:/ISIS/workspace/HOOPOE3/satellite-subsystems/demo/../..//hal/at91/lib\libAt91D.a(NorFlashCFI.o)
 .text.NorFlash_GetDeviceMaxBlockSize
                0x00000000       0xf0 C:/ISIS/workspace/HOOPOE3/satellite-subsystems/demo/../..//hal/at91/lib\libAt91D.a(NorFlashCFI.o)
 .text.NorFlash_GetDeviceBlockSize
                0x00000000      0x128 C:/ISIS/workspace/HOOPOE3/satellite-subsystems/demo/../..//hal/at91/lib\libAt91D.a(NorFlashCFI.o)
 .text.NorFlash_GetDeviceSectorInRegion
                0x00000000      0x160 C:/ISIS/workspace/HOOPOE3/satellite-subsystems/demo/../..//hal/at91/lib\libAt91D.a(NorFlashCFI.o)
 .text.NorFlash_GetDeviceSectorAddress
                0x00000000      0x160 C:/ISIS/workspace/HOOPOE3/satellite-subsystems/demo/../..//hal/at91/lib\libAt91D.a(NorFlashCFI.o)
 .text.NorFlash_GetByteAddress
                0x00000000       0x34 C:/ISIS/workspace/HOOPOE3/satellite-subsystems/demo/../..//hal/at91/lib\libAt91D.a(NorFlashCFI.o)
 .text.NorFlash_GetAddressInChip
                0x00000000       0x34 C:/ISIS/workspace/HOOPOE3/satellite-subsystems/demo/../..//hal/at91/lib\libAt91D.a(NorFlashCFI.o)
 .text.NorFlash_GetDeviceSizeInBytes
                0x00000000       0x34 C:/ISIS/workspace/HOOPOE3/satellite-subsystems/demo/../..//hal/at91/lib\libAt91D.a(NorFlashCFI.o)
 .text.NorFlash_CFI_Detect
                0x00000000      0x198 C:/ISIS/workspace/HOOPOE3/satellite-subsystems/demo/../..//hal/at91/lib\libAt91D.a(NorFlashCFI.o)
 .text          0x00000000        0x0 C:/ISIS/workspace/HOOPOE3/satellite-subsystems/demo/../..//hal/at91/lib\libAt91D.a(NorFlashCommon.o)
 .data          0x00000000        0x0 C:/ISIS/workspace/HOOPOE3/satellite-subsystems/demo/../..//hal/at91/lib\libAt91D.a(NorFlashCommon.o)
 .bss           0x00000000        0x0 C:/ISIS/workspace/HOOPOE3/satellite-subsystems/demo/../..//hal/at91/lib\libAt91D.a(NorFlashCommon.o)
 .text          0x00000000        0x0 C:/ISIS/workspace/HOOPOE3/satellite-subsystems/demo/../..//hal/at91/lib\libAt91D.a(NorFlashIntel.o)
 .data          0x00000000        0x0 C:/ISIS/workspace/HOOPOE3/satellite-subsystems/demo/../..//hal/at91/lib\libAt91D.a(NorFlashIntel.o)
 .bss           0x00000000        0x0 C:/ISIS/workspace/HOOPOE3/satellite-subsystems/demo/../..//hal/at91/lib\libAt91D.a(NorFlashIntel.o)
 .rodata        0x00000000       0x4c C:/ISIS/workspace/HOOPOE3/satellite-subsystems/demo/../..//hal/at91/lib\libAt91D.a(NorFlashIntel.o)
 .text.intel_Reset
                0x00000000       0x54 C:/ISIS/workspace/HOOPOE3/satellite-subsystems/demo/../..//hal/at91/lib\libAt91D.a(NorFlashIntel.o)
 .text.intel_ReadIdentification
                0x00000000       0xa0 C:/ISIS/workspace/HOOPOE3/satellite-subsystems/demo/../..//hal/at91/lib\libAt91D.a(NorFlashIntel.o)
 .text.intel_ReadStatus
                0x00000000       0x74 C:/ISIS/workspace/HOOPOE3/satellite-subsystems/demo/../..//hal/at91/lib\libAt91D.a(NorFlashIntel.o)
 .text.intel_ClearStatus
                0x00000000       0x4c C:/ISIS/workspace/HOOPOE3/satellite-subsystems/demo/../..//hal/at91/lib\libAt91D.a(NorFlashIntel.o)
 .text.intel_UnlockSector
                0x00000000       0x70 C:/ISIS/workspace/HOOPOE3/satellite-subsystems/demo/../..//hal/at91/lib\libAt91D.a(NorFlashIntel.o)
 .text.intel_GetBlockLockStatus
                0x00000000       0x48 C:/ISIS/workspace/HOOPOE3/satellite-subsystems/demo/../..//hal/at91/lib\libAt91D.a(NorFlashIntel.o)
 .text.intel_Program
                0x00000000      0x164 C:/ISIS/workspace/HOOPOE3/satellite-subsystems/demo/../..//hal/at91/lib\libAt91D.a(NorFlashIntel.o)
 .text.INTEL_Reset
                0x00000000       0x28 C:/ISIS/workspace/HOOPOE3/satellite-subsystems/demo/../..//hal/at91/lib\libAt91D.a(NorFlashIntel.o)
 .text.INTEL_ReadManufactoryId
                0x00000000       0x2c C:/ISIS/workspace/HOOPOE3/satellite-subsystems/demo/../..//hal/at91/lib\libAt91D.a(NorFlashIntel.o)
 .text.INTEL_ReadDeviceID
                0x00000000       0x2c C:/ISIS/workspace/HOOPOE3/satellite-subsystems/demo/../..//hal/at91/lib\libAt91D.a(NorFlashIntel.o)
 .text.INTEL_EraseSector
                0x00000000      0x140 C:/ISIS/workspace/HOOPOE3/satellite-subsystems/demo/../..//hal/at91/lib\libAt91D.a(NorFlashIntel.o)
 .text.INTEL_EraseChip
                0x00000000       0x84 C:/ISIS/workspace/HOOPOE3/satellite-subsystems/demo/../..//hal/at91/lib\libAt91D.a(NorFlashIntel.o)
 .text.INTEL_Write_Data
                0x00000000      0x3ac C:/ISIS/workspace/HOOPOE3/satellite-subsystems/demo/../..//hal/at91/lib\libAt91D.a(NorFlashIntel.o)
 .debug_info    0x00000000      0x84b C:/ISIS/workspace/HOOPOE3/satellite-subsystems/demo/../..//hal/at91/lib\libAt91D.a(NorFlashIntel.o)
 .debug_abbrev  0x00000000      0x18a C:/ISIS/workspace/HOOPOE3/satellite-subsystems/demo/../..//hal/at91/lib\libAt91D.a(NorFlashIntel.o)
 .debug_loc     0x00000000      0x23c C:/ISIS/workspace/HOOPOE3/satellite-subsystems/demo/../..//hal/at91/lib\libAt91D.a(NorFlashIntel.o)
 .debug_aranges
                0x00000000       0x80 C:/ISIS/workspace/HOOPOE3/satellite-subsystems/demo/../..//hal/at91/lib\libAt91D.a(NorFlashIntel.o)
 .debug_ranges  0x00000000       0x70 C:/ISIS/workspace/HOOPOE3/satellite-subsystems/demo/../..//hal/at91/lib\libAt91D.a(NorFlashIntel.o)
 .debug_line    0x00000000      0x230 C:/ISIS/workspace/HOOPOE3/satellite-subsystems/demo/../..//hal/at91/lib\libAt91D.a(NorFlashIntel.o)
 .debug_str     0x00000000      0x533 C:/ISIS/workspace/HOOPOE3/satellite-subsystems/demo/../..//hal/at91/lib\libAt91D.a(NorFlashIntel.o)
 .comment       0x00000000       0x71 C:/ISIS/workspace/HOOPOE3/satellite-subsystems/demo/../..//hal/at91/lib\libAt91D.a(NorFlashIntel.o)
 .ARM.attributes
                0x00000000       0x32 C:/ISIS/workspace/HOOPOE3/satellite-subsystems/demo/../..//hal/at91/lib\libAt91D.a(NorFlashIntel.o)
 .debug_frame   0x00000000      0x17c C:/ISIS/workspace/HOOPOE3/satellite-subsystems/demo/../..//hal/at91/lib\libAt91D.a(NorFlashIntel.o)
 .text          0x00000000        0x0 C:/ISIS/workspace/HOOPOE3/satellite-subsystems/demo/../..//hal/at91/lib\libAt91D.a(sdmmc_mci.o)
 .data          0x00000000        0x0 C:/ISIS/workspace/HOOPOE3/satellite-subsystems/demo/../..//hal/at91/lib\libAt91D.a(sdmmc_mci.o)
 .bss           0x00000000        0x0 C:/ISIS/workspace/HOOPOE3/satellite-subsystems/demo/../..//hal/at91/lib\libAt91D.a(sdmmc_mci.o)
 .text.DecodeR1
                0x00000000       0x20 C:/ISIS/workspace/HOOPOE3/satellite-subsystems/demo/../..//hal/at91/lib\libAt91D.a(sdmmc_mci.o)
 .text.DecodeR2
                0x00000000       0x20 C:/ISIS/workspace/HOOPOE3/satellite-subsystems/demo/../..//hal/at91/lib\libAt91D.a(sdmmc_mci.o)
 .text.Cmd58    0x00000000       0x84 C:/ISIS/workspace/HOOPOE3/satellite-subsystems/demo/../..//hal/at91/lib\libAt91D.a(sdmmc_mci.o)
 .text.Cmd59    0x00000000       0x98 C:/ISIS/workspace/HOOPOE3/satellite-subsystems/demo/../..//hal/at91/lib\libAt91D.a(sdmmc_mci.o)
 .text.SD_SPI_Init
                0x00000000      0x37c C:/ISIS/workspace/HOOPOE3/satellite-subsystems/demo/../..//hal/at91/lib\libAt91D.a(sdmmc_mci.o)
 .text          0x00000000        0x0 C:/ISIS/workspace/HOOPOE3/satellite-subsystems/demo/../..//hal/at91/lib\libAt91D.a(adc_at91.o)
 .data          0x00000000        0x0 C:/ISIS/workspace/HOOPOE3/satellite-subsystems/demo/../..//hal/at91/lib\libAt91D.a(adc_at91.o)
 .bss           0x00000000        0x0 C:/ISIS/workspace/HOOPOE3/satellite-subsystems/demo/../..//hal/at91/lib\libAt91D.a(adc_at91.o)
 .text          0x00000000        0x0 C:/ISIS/workspace/HOOPOE3/satellite-subsystems/demo/../..//hal/at91/lib\libAt91D.a(aic.o)
 .data          0x00000000        0x0 C:/ISIS/workspace/HOOPOE3/satellite-subsystems/demo/../..//hal/at91/lib\libAt91D.a(aic.o)
 .bss           0x00000000        0x0 C:/ISIS/workspace/HOOPOE3/satellite-subsystems/demo/../..//hal/at91/lib\libAt91D.a(aic.o)
 .text          0x00000000        0x0 C:/ISIS/workspace/HOOPOE3/satellite-subsystems/demo/../..//hal/at91/lib\libAt91D.a(cp15.o)
 .data          0x00000000        0x0 C:/ISIS/workspace/HOOPOE3/satellite-subsystems/demo/../..//hal/at91/lib\libAt91D.a(cp15.o)
 .bss           0x00000000        0x0 C:/ISIS/workspace/HOOPOE3/satellite-subsystems/demo/../..//hal/at91/lib\libAt91D.a(cp15.o)
 .text.CP15_EnableMMU
                0x00000000       0x5c C:/ISIS/workspace/HOOPOE3/satellite-subsystems/demo/../..//hal/at91/lib\libAt91D.a(cp15.o)
 .text.CP15_Is_DCacheEnabled
                0x00000000       0x38 C:/ISIS/workspace/HOOPOE3/satellite-subsystems/demo/../..//hal/at91/lib\libAt91D.a(cp15.o)
 .text.CP15_Enable_D_Cache
                0x00000000       0x7c C:/ISIS/workspace/HOOPOE3/satellite-subsystems/demo/../..//hal/at91/lib\libAt91D.a(cp15.o)
 .text          0x00000000        0x0 C:/ISIS/workspace/HOOPOE3/satellite-subsystems/demo/../..//hal/at91/lib\libAt91D.a(dbgu.o)
 .data          0x00000000        0x0 C:/ISIS/workspace/HOOPOE3/satellite-subsystems/demo/../..//hal/at91/lib\libAt91D.a(dbgu.o)
 .bss           0x00000000        0x0 C:/ISIS/workspace/HOOPOE3/satellite-subsystems/demo/../..//hal/at91/lib\libAt91D.a(dbgu.o)
 .text.DBGU_Configure
                0x00000000       0x84 C:/ISIS/workspace/HOOPOE3/satellite-subsystems/demo/../..//hal/at91/lib\libAt91D.a(dbgu.o)
 .text.fputc    0x00000000       0x70 C:/ISIS/workspace/HOOPOE3/satellite-subsystems/demo/../..//hal/at91/lib\libAt91D.a(dbgu.o)
 .text.fputs    0x00000000       0x80 C:/ISIS/workspace/HOOPOE3/satellite-subsystems/demo/../..//hal/at91/lib\libAt91D.a(dbgu.o)
 .text.putchar  0x00000000       0x3c C:/ISIS/workspace/HOOPOE3/satellite-subsystems/demo/../..//hal/at91/lib\libAt91D.a(dbgu.o)
 .text          0x00000000        0x0 C:/ISIS/workspace/HOOPOE3/satellite-subsystems/demo/../..//hal/at91/lib\libAt91D.a(mci.o)
 .data          0x00000000        0x0 C:/ISIS/workspace/HOOPOE3/satellite-subsystems/demo/../..//hal/at91/lib\libAt91D.a(mci.o)
 .bss           0x00000000        0x0 C:/ISIS/workspace/HOOPOE3/satellite-subsystems/demo/../..//hal/at91/lib\libAt91D.a(mci.o)
 .text.MCI_CheckBlke
                0x00000000       0x54 C:/ISIS/workspace/HOOPOE3/satellite-subsystems/demo/../..//hal/at91/lib\libAt91D.a(mci.o)
 .text          0x00000000        0x0 C:/ISIS/workspace/HOOPOE3/satellite-subsystems/demo/../..//hal/at91/lib\libAt91D.a(pio.o)
 .data          0x00000000        0x0 C:/ISIS/workspace/HOOPOE3/satellite-subsystems/demo/../..//hal/at91/lib\libAt91D.a(pio.o)
 .bss           0x00000000        0x0 C:/ISIS/workspace/HOOPOE3/satellite-subsystems/demo/../..//hal/at91/lib\libAt91D.a(pio.o)
 .text          0x00000000        0x0 C:/ISIS/workspace/HOOPOE3/satellite-subsystems/demo/../..//hal/at91/lib\libAt91D.a(pio_it.o)
 .data          0x00000000        0x0 C:/ISIS/workspace/HOOPOE3/satellite-subsystems/demo/../..//hal/at91/lib\libAt91D.a(pio_it.o)
 .text          0x00000000        0x0 C:/ISIS/workspace/HOOPOE3/satellite-subsystems/demo/../..//hal/at91/lib\libAt91D.a(pit.o)
 .data          0x00000000        0x0 C:/ISIS/workspace/HOOPOE3/satellite-subsystems/demo/../..//hal/at91/lib\libAt91D.a(pit.o)
 .bss           0x00000000        0x0 C:/ISIS/workspace/HOOPOE3/satellite-subsystems/demo/../..//hal/at91/lib\libAt91D.a(pit.o)
 .text          0x00000000        0x0 C:/ISIS/workspace/HOOPOE3/satellite-subsystems/demo/../..//hal/at91/lib\libAt91D.a(pmc.o)
 .data          0x00000000        0x0 C:/ISIS/workspace/HOOPOE3/satellite-subsystems/demo/../..//hal/at91/lib\libAt91D.a(pmc.o)
 .bss           0x00000000        0x0 C:/ISIS/workspace/HOOPOE3/satellite-subsystems/demo/../..//hal/at91/lib\libAt91D.a(pmc.o)
 .text          0x00000000        0x0 C:/ISIS/workspace/HOOPOE3/satellite-subsystems/demo/../..//hal/at91/lib\libAt91D.a(rstc.o)
 .data          0x00000000        0x0 C:/ISIS/workspace/HOOPOE3/satellite-subsystems/demo/../..//hal/at91/lib\libAt91D.a(rstc.o)
 .bss           0x00000000        0x0 C:/ISIS/workspace/HOOPOE3/satellite-subsystems/demo/../..//hal/at91/lib\libAt91D.a(rstc.o)
 .text.RSTC_GetStatus
                0x00000000       0x28 C:/ISIS/workspace/HOOPOE3/satellite-subsystems/demo/../..//hal/at91/lib\libAt91D.a(rstc.o)
 .text          0x00000000        0x0 C:/ISIS/workspace/HOOPOE3/satellite-subsystems/demo/../..//hal/at91/lib\libAt91D.a(spi_at91.o)
 .data          0x00000000        0x0 C:/ISIS/workspace/HOOPOE3/satellite-subsystems/demo/../..//hal/at91/lib\libAt91D.a(spi_at91.o)
 .bss           0x00000000        0x0 C:/ISIS/workspace/HOOPOE3/satellite-subsystems/demo/../..//hal/at91/lib\libAt91D.a(spi_at91.o)
 .text          0x00000000        0x0 C:/ISIS/workspace/HOOPOE3/satellite-subsystems/demo/../..//hal/at91/lib\libAt91D.a(tc.o)
 .data          0x00000000        0x0 C:/ISIS/workspace/HOOPOE3/satellite-subsystems/demo/../..//hal/at91/lib\libAt91D.a(tc.o)
 .bss           0x00000000        0x0 C:/ISIS/workspace/HOOPOE3/satellite-subsystems/demo/../..//hal/at91/lib\libAt91D.a(tc.o)
 .text          0x00000000        0x0 C:/ISIS/workspace/HOOPOE3/satellite-subsystems/demo/../..//hal/at91/lib\libAt91D.a(twi_at91.o)
 .data          0x00000000        0x0 C:/ISIS/workspace/HOOPOE3/satellite-subsystems/demo/../..//hal/at91/lib\libAt91D.a(twi_at91.o)
 .bss           0x00000000        0x0 C:/ISIS/workspace/HOOPOE3/satellite-subsystems/demo/../..//hal/at91/lib\libAt91D.a(twi_at91.o)
 .text          0x00000000        0x0 C:/ISIS/workspace/HOOPOE3/satellite-subsystems/demo/../..//hal/at91/lib\libAt91D.a(ExitHandler.o)
 .data          0x00000000        0x0 C:/ISIS/workspace/HOOPOE3/satellite-subsystems/demo/../..//hal/at91/lib\libAt91D.a(ExitHandler.o)
 .bss           0x00000000        0x0 C:/ISIS/workspace/HOOPOE3/satellite-subsystems/demo/../..//hal/at91/lib\libAt91D.a(ExitHandler.o)
 .text          0x00000000        0x0 C:/ISIS/workspace/HOOPOE3/satellite-subsystems/demo/../..//hal/at91/lib\libAt91D.a(hamming.o)
 .data          0x00000000        0x0 C:/ISIS/workspace/HOOPOE3/satellite-subsystems/demo/../..//hal/at91/lib\libAt91D.a(hamming.o)
 .bss           0x00000000        0x0 C:/ISIS/workspace/HOOPOE3/satellite-subsystems/demo/../..//hal/at91/lib\libAt91D.a(hamming.o)
 .text          0x00000000        0x0 C:/ISIS/workspace/HOOPOE3/satellite-subsystems/demo/../..//hal/at91/lib\libAt91D.a(board_cstartup.o)
 .data          0x00000000        0x0 C:/ISIS/workspace/HOOPOE3/satellite-subsystems/demo/../..//hal/at91/lib\libAt91D.a(board_cstartup.o)
 .bss           0x00000000        0x0 C:/ISIS/workspace/HOOPOE3/satellite-subsystems/demo/../..//hal/at91/lib\libAt91D.a(board_cstartup.o)
 .data          0x00000000        0x0 C:/ISIS/workspace/HOOPOE3/satellite-subsystems/demo/../..//hal/at91/lib\libAt91D.a(cp15_asm.o)
 .bss           0x00000000        0x0 C:/ISIS/workspace/HOOPOE3/satellite-subsystems/demo/../..//hal/at91/lib\libAt91D.a(cp15_asm.o)
 .text          0x00000000        0x0 C:/ISIS/workspace/HOOPOE3/satellite-subsystems/demo/../..//hal/at91/lib\libAt91D.a(NorFlashApi.o)
 .data          0x00000000        0x0 C:/ISIS/workspace/HOOPOE3/satellite-subsystems/demo/../..//hal/at91/lib\libAt91D.a(NorFlashApi.o)
 .bss           0x00000000        0x0 C:/ISIS/workspace/HOOPOE3/satellite-subsystems/demo/../..//hal/at91/lib\libAt91D.a(NorFlashApi.o)
 .text.NORFLASH_Reset
                0x00000000       0x3c C:/ISIS/workspace/HOOPOE3/satellite-subsystems/demo/../..//hal/at91/lib\libAt91D.a(NorFlashApi.o)
 .text.NORFLASH_ReadManufactoryID
                0x00000000       0x3c C:/ISIS/workspace/HOOPOE3/satellite-subsystems/demo/../..//hal/at91/lib\libAt91D.a(NorFlashApi.o)
 .text.NORFLASH_ReadDeviceID
                0x00000000       0x3c C:/ISIS/workspace/HOOPOE3/satellite-subsystems/demo/../..//hal/at91/lib\libAt91D.a(NorFlashApi.o)
 .text.NORFLASH_EraseSector
                0x00000000       0x44 C:/ISIS/workspace/HOOPOE3/satellite-subsystems/demo/../..//hal/at91/lib\libAt91D.a(NorFlashApi.o)
 .text.NORFLASH_EraseChip
                0x00000000       0x3c C:/ISIS/workspace/HOOPOE3/satellite-subsystems/demo/../..//hal/at91/lib\libAt91D.a(NorFlashApi.o)
 .text.NORFLASH_WriteData
                0x00000000       0x54 C:/ISIS/workspace/HOOPOE3/satellite-subsystems/demo/../..//hal/at91/lib\libAt91D.a(NorFlashApi.o)
 .text.NORFLASH_ReadData
                0x00000000       0xe8 C:/ISIS/workspace/HOOPOE3/satellite-subsystems/demo/../..//hal/at91/lib\libAt91D.a(NorFlashApi.o)
 .debug_info    0x00000000      0x574 C:/ISIS/workspace/HOOPOE3/satellite-subsystems/demo/../..//hal/at91/lib\libAt91D.a(NorFlashApi.o)
 .debug_abbrev  0x00000000      0x113 C:/ISIS/workspace/HOOPOE3/satellite-subsystems/demo/../..//hal/at91/lib\libAt91D.a(NorFlashApi.o)
 .debug_loc     0x00000000      0x134 C:/ISIS/workspace/HOOPOE3/satellite-subsystems/demo/../..//hal/at91/lib\libAt91D.a(NorFlashApi.o)
 .debug_aranges
                0x00000000       0x50 C:/ISIS/workspace/HOOPOE3/satellite-subsystems/demo/../..//hal/at91/lib\libAt91D.a(NorFlashApi.o)
 .debug_ranges  0x00000000       0x40 C:/ISIS/workspace/HOOPOE3/satellite-subsystems/demo/../..//hal/at91/lib\libAt91D.a(NorFlashApi.o)
 .debug_line    0x00000000      0x124 C:/ISIS/workspace/HOOPOE3/satellite-subsystems/demo/../..//hal/at91/lib\libAt91D.a(NorFlashApi.o)
 .debug_str     0x00000000      0x47b C:/ISIS/workspace/HOOPOE3/satellite-subsystems/demo/../..//hal/at91/lib\libAt91D.a(NorFlashApi.o)
 .comment       0x00000000       0x71 C:/ISIS/workspace/HOOPOE3/satellite-subsystems/demo/../..//hal/at91/lib\libAt91D.a(NorFlashApi.o)
 .ARM.attributes
                0x00000000       0x32 C:/ISIS/workspace/HOOPOE3/satellite-subsystems/demo/../..//hal/at91/lib\libAt91D.a(NorFlashApi.o)
 .debug_frame   0x00000000       0xd4 C:/ISIS/workspace/HOOPOE3/satellite-subsystems/demo/../..//hal/at91/lib\libAt91D.a(NorFlashApi.o)
 .data          0x00000000        0x0 c:/isis/application/toolchain/bin/../lib/gcc/arm-none-eabi/4.7.4\libgcc.a(_udivsi3.o)
 .bss           0x00000000        0x0 c:/isis/application/toolchain/bin/../lib/gcc/arm-none-eabi/4.7.4\libgcc.a(_udivsi3.o)
 .data          0x00000000        0x0 c:/isis/application/toolchain/bin/../lib/gcc/arm-none-eabi/4.7.4\libgcc.a(_divsi3.o)
 .bss           0x00000000        0x0 c:/isis/application/toolchain/bin/../lib/gcc/arm-none-eabi/4.7.4\libgcc.a(_divsi3.o)
 .data          0x00000000        0x0 c:/isis/application/toolchain/bin/../lib/gcc/arm-none-eabi/4.7.4\libgcc.a(_dvmd_tls.o)
 .bss           0x00000000        0x0 c:/isis/application/toolchain/bin/../lib/gcc/arm-none-eabi/4.7.4\libgcc.a(_dvmd_tls.o)
 .data          0x00000000        0x0 c:/isis/application/toolchain/bin/../lib/gcc/arm-none-eabi/4.7.4\libgcc.a(_arm_addsubdf3.o)
 .bss           0x00000000        0x0 c:/isis/application/toolchain/bin/../lib/gcc/arm-none-eabi/4.7.4\libgcc.a(_arm_addsubdf3.o)
 .data          0x00000000        0x0 c:/isis/application/toolchain/bin/../lib/gcc/arm-none-eabi/4.7.4\libgcc.a(_arm_muldivdf3.o)
 .bss           0x00000000        0x0 c:/isis/application/toolchain/bin/../lib/gcc/arm-none-eabi/4.7.4\libgcc.a(_arm_muldivdf3.o)
 .data          0x00000000        0x0 c:/isis/application/toolchain/bin/../lib/gcc/arm-none-eabi/4.7.4\libgcc.a(_arm_cmpdf2.o)
 .bss           0x00000000        0x0 c:/isis/application/toolchain/bin/../lib/gcc/arm-none-eabi/4.7.4\libgcc.a(_arm_cmpdf2.o)
 .data          0x00000000        0x0 c:/isis/application/toolchain/bin/../lib/gcc/arm-none-eabi/4.7.4\libgcc.a(_arm_fixdfsi.o)
 .bss           0x00000000        0x0 c:/isis/application/toolchain/bin/../lib/gcc/arm-none-eabi/4.7.4\libgcc.a(_arm_fixdfsi.o)
 .data          0x00000000        0x0 c:/isis/application/toolchain/bin/../lib/gcc/arm-none-eabi/4.7.4\libgcc.a(_arm_fixunsdfsi.o)
 .bss           0x00000000        0x0 c:/isis/application/toolchain/bin/../lib/gcc/arm-none-eabi/4.7.4\libgcc.a(_arm_fixunsdfsi.o)
 .data          0x00000000        0x0 c:/isis/application/toolchain/bin/../lib/gcc/arm-none-eabi/4.7.4\libgcc.a(_arm_truncdfsf2.o)
 .bss           0x00000000        0x0 c:/isis/application/toolchain/bin/../lib/gcc/arm-none-eabi/4.7.4\libgcc.a(_arm_truncdfsf2.o)
 .data          0x00000000        0x0 c:/isis/application/toolchain/bin/../lib/gcc/arm-none-eabi/4.7.4\libgcc.a(_arm_addsubsf3.o)
 .bss           0x00000000        0x0 c:/isis/application/toolchain/bin/../lib/gcc/arm-none-eabi/4.7.4\libgcc.a(_arm_addsubsf3.o)
 .data          0x00000000        0x0 c:/isis/application/toolchain/bin/../lib/gcc/arm-none-eabi/4.7.4\libgcc.a(_arm_muldivsf3.o)
 .bss           0x00000000        0x0 c:/isis/application/toolchain/bin/../lib/gcc/arm-none-eabi/4.7.4\libgcc.a(_arm_muldivsf3.o)
 .data          0x00000000        0x0 c:/isis/application/toolchain/bin/../lib/gcc/arm-none-eabi/4.7.4\libgcc.a(_arm_cmpsf2.o)
 .bss           0x00000000        0x0 c:/isis/application/toolchain/bin/../lib/gcc/arm-none-eabi/4.7.4\libgcc.a(_arm_cmpsf2.o)
 .data          0x00000000        0x0 c:/isis/application/toolchain/bin/../lib/gcc/arm-none-eabi/4.7.4\libgcc.a(_arm_fixsfsi.o)
 .bss           0x00000000        0x0 c:/isis/application/toolchain/bin/../lib/gcc/arm-none-eabi/4.7.4\libgcc.a(_arm_fixsfsi.o)
 .data          0x00000000        0x0 c:/isis/application/toolchain/bin/../lib/gcc/arm-none-eabi/4.7.4\libgcc.a(_arm_fixunssfsi.o)
 .bss           0x00000000        0x0 c:/isis/application/toolchain/bin/../lib/gcc/arm-none-eabi/4.7.4\libgcc.a(_arm_fixunssfsi.o)
 .text          0x00000000        0x0 c:/isis/application/toolchain/bin/../lib/gcc/arm-none-eabi/4.7.4/../../../../arm-none-eabi/lib\libc_s.a(lib_a-errno.o)
 .data          0x00000000        0x0 c:/isis/application/toolchain/bin/../lib/gcc/arm-none-eabi/4.7.4/../../../../arm-none-eabi/lib\libc_s.a(lib_a-errno.o)
 .bss           0x00000000        0x0 c:/isis/application/toolchain/bin/../lib/gcc/arm-none-eabi/4.7.4/../../../../arm-none-eabi/lib\libc_s.a(lib_a-errno.o)
 .text          0x00000000        0x0 c:/isis/application/toolchain/bin/../lib/gcc/arm-none-eabi/4.7.4/../../../../arm-none-eabi/lib\libc_s.a(lib_a-memcmp.o)
 .data          0x00000000        0x0 c:/isis/application/toolchain/bin/../lib/gcc/arm-none-eabi/4.7.4/../../../../arm-none-eabi/lib\libc_s.a(lib_a-memcmp.o)
 .bss           0x00000000        0x0 c:/isis/application/toolchain/bin/../lib/gcc/arm-none-eabi/4.7.4/../../../../arm-none-eabi/lib\libc_s.a(lib_a-memcmp.o)
 .text          0x00000000        0x0 c:/isis/application/toolchain/bin/../lib/gcc/arm-none-eabi/4.7.4/../../../../arm-none-eabi/lib\libc_s.a(lib_a-printf.o)
 .data          0x00000000        0x0 c:/isis/application/toolchain/bin/../lib/gcc/arm-none-eabi/4.7.4/../../../../arm-none-eabi/lib\libc_s.a(lib_a-printf.o)
 .bss           0x00000000        0x0 c:/isis/application/toolchain/bin/../lib/gcc/arm-none-eabi/4.7.4/../../../../arm-none-eabi/lib\libc_s.a(lib_a-printf.o)
 .text._printf_r
                0x00000000       0x40 c:/isis/application/toolchain/bin/../lib/gcc/arm-none-eabi/4.7.4/../../../../arm-none-eabi/lib\libc_s.a(lib_a-printf.o)
 .text          0x00000000        0x0 c:/isis/application/toolchain/bin/../lib/gcc/arm-none-eabi/4.7.4/../../../../arm-none-eabi/lib\libc_s.a(lib_a-puts.o)
 .data          0x00000000        0x0 c:/isis/application/toolchain/bin/../lib/gcc/arm-none-eabi/4.7.4/../../../../arm-none-eabi/lib\libc_s.a(lib_a-puts.o)
 .bss           0x00000000        0x0 c:/isis/application/toolchain/bin/../lib/gcc/arm-none-eabi/4.7.4/../../../../arm-none-eabi/lib\libc_s.a(lib_a-puts.o)
 .text._puts_r  0x00000000       0x58 c:/isis/application/toolchain/bin/../lib/gcc/arm-none-eabi/4.7.4/../../../../arm-none-eabi/lib\libc_s.a(lib_a-puts.o)
 .text          0x00000000        0x0 c:/isis/application/toolchain/bin/../lib/gcc/arm-none-eabi/4.7.4/../../../../arm-none-eabi/lib\libc_s.a(lib_a-strcpy.o)
 .data          0x00000000        0x0 c:/isis/application/toolchain/bin/../lib/gcc/arm-none-eabi/4.7.4/../../../../arm-none-eabi/lib\libc_s.a(lib_a-strcpy.o)
 .bss           0x00000000        0x0 c:/isis/application/toolchain/bin/../lib/gcc/arm-none-eabi/4.7.4/../../../../arm-none-eabi/lib\libc_s.a(lib_a-strcpy.o)
 .text          0x00000000        0x0 c:/isis/application/toolchain/bin/../lib/gcc/arm-none-eabi/4.7.4/../../../../arm-none-eabi/lib\libc_s.a(lib_a-strstr.o)
 .data          0x00000000        0x0 c:/isis/application/toolchain/bin/../lib/gcc/arm-none-eabi/4.7.4/../../../../arm-none-eabi/lib\libc_s.a(lib_a-strstr.o)
 .bss           0x00000000        0x0 c:/isis/application/toolchain/bin/../lib/gcc/arm-none-eabi/4.7.4/../../../../arm-none-eabi/lib\libc_s.a(lib_a-strstr.o)
 .text          0x00000000        0x0 c:/isis/application/toolchain/bin/../lib/gcc/arm-none-eabi/4.7.4/../../../../arm-none-eabi/lib\libc_s.a(lib_a-vfprintf.o)
 .data          0x00000000        0x0 c:/isis/application/toolchain/bin/../lib/gcc/arm-none-eabi/4.7.4/../../../../arm-none-eabi/lib\libc_s.a(lib_a-vfprintf.o)
 .bss           0x00000000        0x0 c:/isis/application/toolchain/bin/../lib/gcc/arm-none-eabi/4.7.4/../../../../arm-none-eabi/lib\libc_s.a(lib_a-vfprintf.o)
 .text.__sprint_r
                0x00000000       0xb0 c:/isis/application/toolchain/bin/../lib/gcc/arm-none-eabi/4.7.4/../../../../arm-none-eabi/lib\libc_s.a(lib_a-vfprintf.o)
 .text.vfprintf
                0x00000000       0x2c c:/isis/application/toolchain/bin/../lib/gcc/arm-none-eabi/4.7.4/../../../../arm-none-eabi/lib\libc_s.a(lib_a-vfprintf.o)
 .text          0x00000000        0x0 c:/isis/application/toolchain/bin/../lib/gcc/arm-none-eabi/4.7.4/../../../../arm-none-eabi/lib\libc_s.a(lib_a-wbuf.o)
 .data          0x00000000        0x0 c:/isis/application/toolchain/bin/../lib/gcc/arm-none-eabi/4.7.4/../../../../arm-none-eabi/lib\libc_s.a(lib_a-wbuf.o)
 .bss           0x00000000        0x0 c:/isis/application/toolchain/bin/../lib/gcc/arm-none-eabi/4.7.4/../../../../arm-none-eabi/lib\libc_s.a(lib_a-wbuf.o)
 .text.__swbuf  0x00000000       0x1c c:/isis/application/toolchain/bin/../lib/gcc/arm-none-eabi/4.7.4/../../../../arm-none-eabi/lib\libc_s.a(lib_a-wbuf.o)
 .text          0x00000000        0x0 c:/isis/application/toolchain/bin/../lib/gcc/arm-none-eabi/4.7.4/../../../../arm-none-eabi/lib\libc_s.a(lib_a-wsetup.o)
 .data          0x00000000        0x0 c:/isis/application/toolchain/bin/../lib/gcc/arm-none-eabi/4.7.4/../../../../arm-none-eabi/lib\libc_s.a(lib_a-wsetup.o)
 .bss           0x00000000        0x0 c:/isis/application/toolchain/bin/../lib/gcc/arm-none-eabi/4.7.4/../../../../arm-none-eabi/lib\libc_s.a(lib_a-wsetup.o)
 .text          0x00000000        0x0 c:/isis/application/toolchain/bin/../lib/gcc/arm-none-eabi/4.7.4/../../../../arm-none-eabi/lib\libc_s.a(lib_a-fflush.o)
 .data          0x00000000        0x0 c:/isis/application/toolchain/bin/../lib/gcc/arm-none-eabi/4.7.4/../../../../arm-none-eabi/lib\libc_s.a(lib_a-fflush.o)
 .bss           0x00000000        0x0 c:/isis/application/toolchain/bin/../lib/gcc/arm-none-eabi/4.7.4/../../../../arm-none-eabi/lib\libc_s.a(lib_a-fflush.o)
 .text.fflush   0x00000000       0x40 c:/isis/application/toolchain/bin/../lib/gcc/arm-none-eabi/4.7.4/../../../../arm-none-eabi/lib\libc_s.a(lib_a-fflush.o)
 .text          0x00000000        0x0 c:/isis/application/toolchain/bin/../lib/gcc/arm-none-eabi/4.7.4/../../../../arm-none-eabi/lib\libc_s.a(lib_a-findfp.o)
 .data          0x00000000        0x0 c:/isis/application/toolchain/bin/../lib/gcc/arm-none-eabi/4.7.4/../../../../arm-none-eabi/lib\libc_s.a(lib_a-findfp.o)
 .bss           0x00000000        0x0 c:/isis/application/toolchain/bin/../lib/gcc/arm-none-eabi/4.7.4/../../../../arm-none-eabi/lib\libc_s.a(lib_a-findfp.o)
 .text.__fp_lock
                0x00000000        0x8 c:/isis/application/toolchain/bin/../lib/gcc/arm-none-eabi/4.7.4/../../../../arm-none-eabi/lib\libc_s.a(lib_a-findfp.o)
 .text.__fp_unlock
                0x00000000        0x8 c:/isis/application/toolchain/bin/../lib/gcc/arm-none-eabi/4.7.4/../../../../arm-none-eabi/lib\libc_s.a(lib_a-findfp.o)
 .text._cleanup
                0x00000000       0x10 c:/isis/application/toolchain/bin/../lib/gcc/arm-none-eabi/4.7.4/../../../../arm-none-eabi/lib\libc_s.a(lib_a-findfp.o)
 .text.__sfp_lock_acquire
                0x00000000        0x4 c:/isis/application/toolchain/bin/../lib/gcc/arm-none-eabi/4.7.4/../../../../arm-none-eabi/lib\libc_s.a(lib_a-findfp.o)
 .text.__sfp_lock_release
                0x00000000        0x4 c:/isis/application/toolchain/bin/../lib/gcc/arm-none-eabi/4.7.4/../../../../arm-none-eabi/lib\libc_s.a(lib_a-findfp.o)
 .text.__sinit_lock_acquire
                0x00000000        0x4 c:/isis/application/toolchain/bin/../lib/gcc/arm-none-eabi/4.7.4/../../../../arm-none-eabi/lib\libc_s.a(lib_a-findfp.o)
 .text.__sinit_lock_release
                0x00000000        0x4 c:/isis/application/toolchain/bin/../lib/gcc/arm-none-eabi/4.7.4/../../../../arm-none-eabi/lib\libc_s.a(lib_a-findfp.o)
 .text.__fp_lock_all
                0x00000000       0x24 c:/isis/application/toolchain/bin/../lib/gcc/arm-none-eabi/4.7.4/../../../../arm-none-eabi/lib\libc_s.a(lib_a-findfp.o)
 .text.__fp_unlock_all
                0x00000000       0x24 c:/isis/application/toolchain/bin/../lib/gcc/arm-none-eabi/4.7.4/../../../../arm-none-eabi/lib\libc_s.a(lib_a-findfp.o)
 .text          0x00000000        0x0 c:/isis/application/toolchain/bin/../lib/gcc/arm-none-eabi/4.7.4/../../../../arm-none-eabi/lib\libc_s.a(lib_a-fputwc.o)
 .data          0x00000000        0x0 c:/isis/application/toolchain/bin/../lib/gcc/arm-none-eabi/4.7.4/../../../../arm-none-eabi/lib\libc_s.a(lib_a-fputwc.o)
 .bss           0x00000000        0x0 c:/isis/application/toolchain/bin/../lib/gcc/arm-none-eabi/4.7.4/../../../../arm-none-eabi/lib\libc_s.a(lib_a-fputwc.o)
 .text._fputwc_r
                0x00000000      0x138 c:/isis/application/toolchain/bin/../lib/gcc/arm-none-eabi/4.7.4/../../../../arm-none-eabi/lib\libc_s.a(lib_a-fputwc.o)
 .text.fputwc   0x00000000       0x84 c:/isis/application/toolchain/bin/../lib/gcc/arm-none-eabi/4.7.4/../../../../arm-none-eabi/lib\libc_s.a(lib_a-fputwc.o)
 .ARM.attributes
                0x00000000       0x30 c:/isis/application/toolchain/bin/../lib/gcc/arm-none-eabi/4.7.4/../../../../arm-none-eabi/lib\libc_s.a(lib_a-fputwc.o)
 .debug_frame   0x00000000       0x50 c:/isis/application/toolchain/bin/../lib/gcc/arm-none-eabi/4.7.4/../../../../arm-none-eabi/lib\libc_s.a(lib_a-fputwc.o)
 .text          0x00000000        0x0 c:/isis/application/toolchain/bin/../lib/gcc/arm-none-eabi/4.7.4/../../../../arm-none-eabi/lib\libc_s.a(lib_a-fvwrite.o)
 .data          0x00000000        0x0 c:/isis/application/toolchain/bin/../lib/gcc/arm-none-eabi/4.7.4/../../../../arm-none-eabi/lib\libc_s.a(lib_a-fvwrite.o)
 .bss           0x00000000        0x0 c:/isis/application/toolchain/bin/../lib/gcc/arm-none-eabi/4.7.4/../../../../arm-none-eabi/lib\libc_s.a(lib_a-fvwrite.o)
 .text.__sfvwrite_r
                0x00000000      0x460 c:/isis/application/toolchain/bin/../lib/gcc/arm-none-eabi/4.7.4/../../../../arm-none-eabi/lib\libc_s.a(lib_a-fvwrite.o)
 .ARM.attributes
                0x00000000       0x30 c:/isis/application/toolchain/bin/../lib/gcc/arm-none-eabi/4.7.4/../../../../arm-none-eabi/lib\libc_s.a(lib_a-fvwrite.o)
 .debug_frame   0x00000000       0x38 c:/isis/application/toolchain/bin/../lib/gcc/arm-none-eabi/4.7.4/../../../../arm-none-eabi/lib\libc_s.a(lib_a-fvwrite.o)
 .text          0x00000000        0x0 c:/isis/application/toolchain/bin/../lib/gcc/arm-none-eabi/4.7.4/../../../../arm-none-eabi/lib\libc_s.a(lib_a-fwalk.o)
 .data          0x00000000        0x0 c:/isis/application/toolchain/bin/../lib/gcc/arm-none-eabi/4.7.4/../../../../arm-none-eabi/lib\libc_s.a(lib_a-fwalk.o)
 .bss           0x00000000        0x0 c:/isis/application/toolchain/bin/../lib/gcc/arm-none-eabi/4.7.4/../../../../arm-none-eabi/lib\libc_s.a(lib_a-fwalk.o)
 .text._fwalk   0x00000000       0x78 c:/isis/application/toolchain/bin/../lib/gcc/arm-none-eabi/4.7.4/../../../../arm-none-eabi/lib\libc_s.a(lib_a-fwalk.o)
 .text._fwalk_reent
                0x00000000       0x7c c:/isis/application/toolchain/bin/../lib/gcc/arm-none-eabi/4.7.4/../../../../arm-none-eabi/lib\libc_s.a(lib_a-fwalk.o)
 .ARM.attributes
                0x00000000       0x30 c:/isis/application/toolchain/bin/../lib/gcc/arm-none-eabi/4.7.4/../../../../arm-none-eabi/lib\libc_s.a(lib_a-fwalk.o)
 .debug_frame   0x00000000       0x54 c:/isis/application/toolchain/bin/../lib/gcc/arm-none-eabi/4.7.4/../../../../arm-none-eabi/lib\libc_s.a(lib_a-fwalk.o)
 .text          0x00000000        0x0 c:/isis/application/toolchain/bin/../lib/gcc/arm-none-eabi/4.7.4/../../../../arm-none-eabi/lib\libc_s.a(lib_a-makebuf.o)
 .data          0x00000000        0x0 c:/isis/application/toolchain/bin/../lib/gcc/arm-none-eabi/4.7.4/../../../../arm-none-eabi/lib\libc_s.a(lib_a-makebuf.o)
 .bss           0x00000000        0x0 c:/isis/application/toolchain/bin/../lib/gcc/arm-none-eabi/4.7.4/../../../../arm-none-eabi/lib\libc_s.a(lib_a-makebuf.o)
 .text          0x00000000        0x0 c:/isis/application/toolchain/bin/../lib/gcc/arm-none-eabi/4.7.4/../../../../arm-none-eabi/lib\libc_s.a(lib_a-putc.o)
 .data          0x00000000        0x0 c:/isis/application/toolchain/bin/../lib/gcc/arm-none-eabi/4.7.4/../../../../arm-none-eabi/lib\libc_s.a(lib_a-putc.o)
 .bss           0x00000000        0x0 c:/isis/application/toolchain/bin/../lib/gcc/arm-none-eabi/4.7.4/../../../../arm-none-eabi/lib\libc_s.a(lib_a-putc.o)
 .text.putc     0x00000000       0x1c c:/isis/application/toolchain/bin/../lib/gcc/arm-none-eabi/4.7.4/../../../../arm-none-eabi/lib\libc_s.a(lib_a-putc.o)
 .text          0x00000000        0x0 c:/isis/application/toolchain/bin/../lib/gcc/arm-none-eabi/4.7.4/../../../../arm-none-eabi/lib\libc_s.a(lib_a-stdio.o)
 .data          0x00000000        0x0 c:/isis/application/toolchain/bin/../lib/gcc/arm-none-eabi/4.7.4/../../../../arm-none-eabi/lib\libc_s.a(lib_a-stdio.o)
 .bss           0x00000000        0x0 c:/isis/application/toolchain/bin/../lib/gcc/arm-none-eabi/4.7.4/../../../../arm-none-eabi/lib\libc_s.a(lib_a-stdio.o)
 .text.__seofread
                0x00000000        0x8 c:/isis/application/toolchain/bin/../lib/gcc/arm-none-eabi/4.7.4/../../../../arm-none-eabi/lib\libc_s.a(lib_a-stdio.o)
 .text          0x00000000        0x0 c:/isis/application/toolchain/bin/../lib/gcc/arm-none-eabi/4.7.4/../../../../arm-none-eabi/lib\libc_s.a(lib_a-wcrtomb.o)
 .data          0x00000000        0x0 c:/isis/application/toolchain/bin/../lib/gcc/arm-none-eabi/4.7.4/../../../../arm-none-eabi/lib\libc_s.a(lib_a-wcrtomb.o)
 .bss           0x00000000        0x0 c:/isis/application/toolchain/bin/../lib/gcc/arm-none-eabi/4.7.4/../../../../arm-none-eabi/lib\libc_s.a(lib_a-wcrtomb.o)
 .text._wcrtomb_r
                0x00000000       0x84 c:/isis/application/toolchain/bin/../lib/gcc/arm-none-eabi/4.7.4/../../../../arm-none-eabi/lib\libc_s.a(lib_a-wcrtomb.o)
 .text.wcrtomb  0x00000000       0x2c c:/isis/application/toolchain/bin/../lib/gcc/arm-none-eabi/4.7.4/../../../../arm-none-eabi/lib\libc_s.a(lib_a-wcrtomb.o)
 .ARM.attributes
                0x00000000       0x30 c:/isis/application/toolchain/bin/../lib/gcc/arm-none-eabi/4.7.4/../../../../arm-none-eabi/lib\libc_s.a(lib_a-wcrtomb.o)
 .debug_frame   0x00000000       0x4c c:/isis/application/toolchain/bin/../lib/gcc/arm-none-eabi/4.7.4/../../../../arm-none-eabi/lib\libc_s.a(lib_a-wcrtomb.o)
 .text          0x00000000        0x0 c:/isis/application/toolchain/bin/../lib/gcc/arm-none-eabi/4.7.4/../../../../arm-none-eabi/lib\libc_s.a(lib_a-wctomb_r.o)
 .data          0x00000000        0x0 c:/isis/application/toolchain/bin/../lib/gcc/arm-none-eabi/4.7.4/../../../../arm-none-eabi/lib\libc_s.a(lib_a-wctomb_r.o)
 .bss           0x00000000        0x0 c:/isis/application/toolchain/bin/../lib/gcc/arm-none-eabi/4.7.4/../../../../arm-none-eabi/lib\libc_s.a(lib_a-wctomb_r.o)
 .text.__ascii_wctomb
                0x00000000       0x2c c:/isis/application/toolchain/bin/../lib/gcc/arm-none-eabi/4.7.4/../../../../arm-none-eabi/lib\libc_s.a(lib_a-wctomb_r.o)
 .text._wctomb_r
                0x00000000       0x48 c:/isis/application/toolchain/bin/../lib/gcc/arm-none-eabi/4.7.4/../../../../arm-none-eabi/lib\libc_s.a(lib_a-wctomb_r.o)
 .data.__wctomb
                0x00000000        0x4 c:/isis/application/toolchain/bin/../lib/gcc/arm-none-eabi/4.7.4/../../../../arm-none-eabi/lib\libc_s.a(lib_a-wctomb_r.o)
 .ARM.attributes
                0x00000000       0x30 c:/isis/application/toolchain/bin/../lib/gcc/arm-none-eabi/4.7.4/../../../../arm-none-eabi/lib\libc_s.a(lib_a-wctomb_r.o)
 .debug_frame   0x00000000       0x44 c:/isis/application/toolchain/bin/../lib/gcc/arm-none-eabi/4.7.4/../../../../arm-none-eabi/lib\libc_s.a(lib_a-wctomb_r.o)
 .text          0x00000000        0x0 c:/isis/application/toolchain/bin/../lib/gcc/arm-none-eabi/4.7.4/../../../../arm-none-eabi/lib\libc_s.a(lib_a-writer.o)
 .data          0x00000000        0x0 c:/isis/application/toolchain/bin/../lib/gcc/arm-none-eabi/4.7.4/../../../../arm-none-eabi/lib\libc_s.a(lib_a-writer.o)
 .bss           0x00000000        0x0 c:/isis/application/toolchain/bin/../lib/gcc/arm-none-eabi/4.7.4/../../../../arm-none-eabi/lib\libc_s.a(lib_a-writer.o)
 .text          0x00000000        0x0 c:/isis/application/toolchain/bin/../lib/gcc/arm-none-eabi/4.7.4/../../../../arm-none-eabi/lib\libc_s.a(lib_a-closer.o)
 .data          0x00000000        0x0 c:/isis/application/toolchain/bin/../lib/gcc/arm-none-eabi/4.7.4/../../../../arm-none-eabi/lib\libc_s.a(lib_a-closer.o)
 .bss           0x00000000        0x0 c:/isis/application/toolchain/bin/../lib/gcc/arm-none-eabi/4.7.4/../../../../arm-none-eabi/lib\libc_s.a(lib_a-closer.o)
 .text          0x00000000        0x0 c:/isis/application/toolchain/bin/../lib/gcc/arm-none-eabi/4.7.4/../../../../arm-none-eabi/lib\libc_s.a(lib_a-fstatr.o)
 .data          0x00000000        0x0 c:/isis/application/toolchain/bin/../lib/gcc/arm-none-eabi/4.7.4/../../../../arm-none-eabi/lib\libc_s.a(lib_a-fstatr.o)
 .bss           0x00000000        0x0 c:/isis/application/toolchain/bin/../lib/gcc/arm-none-eabi/4.7.4/../../../../arm-none-eabi/lib\libc_s.a(lib_a-fstatr.o)
 .text          0x00000000        0x0 c:/isis/application/toolchain/bin/../lib/gcc/arm-none-eabi/4.7.4/../../../../arm-none-eabi/lib\libc_s.a(lib_a-isattyr.o)
 .data          0x00000000        0x0 c:/isis/application/toolchain/bin/../lib/gcc/arm-none-eabi/4.7.4/../../../../arm-none-eabi/lib\libc_s.a(lib_a-isattyr.o)
 .bss           0x00000000        0x0 c:/isis/application/toolchain/bin/../lib/gcc/arm-none-eabi/4.7.4/../../../../arm-none-eabi/lib\libc_s.a(lib_a-isattyr.o)
 .text          0x00000000        0x0 c:/isis/application/toolchain/bin/../lib/gcc/arm-none-eabi/4.7.4/../../../../arm-none-eabi/lib\libc_s.a(lib_a-lseekr.o)
 .data          0x00000000        0x0 c:/isis/application/toolchain/bin/../lib/gcc/arm-none-eabi/4.7.4/../../../../arm-none-eabi/lib\libc_s.a(lib_a-lseekr.o)
 .bss           0x00000000        0x0 c:/isis/application/toolchain/bin/../lib/gcc/arm-none-eabi/4.7.4/../../../../arm-none-eabi/lib\libc_s.a(lib_a-lseekr.o)
 .text          0x00000000        0x0 c:/isis/application/toolchain/bin/../lib/gcc/arm-none-eabi/4.7.4/../../../../arm-none-eabi/lib\libc_s.a(lib_a-readr.o)
 .data          0x00000000        0x0 c:/isis/application/toolchain/bin/../lib/gcc/arm-none-eabi/4.7.4/../../../../arm-none-eabi/lib\libc_s.a(lib_a-readr.o)
 .bss           0x00000000        0x0 c:/isis/application/toolchain/bin/../lib/gcc/arm-none-eabi/4.7.4/../../../../arm-none-eabi/lib\libc_s.a(lib_a-readr.o)

Memory Configuration

Name             Origin             Length             Attributes
sram0            0x00200000         0x00004000         w !xr
sram1            0x00300000         0x00004000         w !xr
sdram            0x20000000         0x02000000         w !xr
*default*        0x00000000         0xffffffff

Linker script and memory map

LOAD c:/isis/application/toolchain/bin/../lib/gcc/arm-none-eabi/4.7.4/../../../../arm-none-eabi/lib\libc_s.a
LOAD ./src/sub-systemCode/Main/CMD/ADCS_CMD.o
LOAD ./src/sub-systemCode/Main/CMD/COMM_CMD.o
LOAD ./src/sub-systemCode/Main/CMD/EPS_CMD.o
LOAD ./src/sub-systemCode/Main/CMD/General_CMD.o
LOAD ./src/sub-systemCode/Main/CMD/SW_CMD.o
LOAD ./src/sub-systemCode/Main/CMD/payload_CMD.o
LOAD ./src/sub-systemCode/Main/Ants.o
LOAD ./src/sub-systemCode/Main/EPS.o
LOAD ./src/sub-systemCode/Main/HouseKeeping.o
LOAD ./src/sub-systemCode/Main/Main_Init.o
LOAD ./src/sub-systemCode/Main/commands.o
LOAD ./src/sub-systemCode/Global/GenericTaskSave.o
LOAD ./src/sub-systemCode/Global/Global.o
LOAD ./src/sub-systemCode/Global/GlobalParam.o
LOAD ./src/sub-systemCode/Global/OnlineTM.o
LOAD ./src/sub-systemCode/Global/TLM_management.o
LOAD ./src/sub-systemCode/Global/freertosExtended.o
LOAD ./src/sub-systemCode/Global/logger.o
LOAD ./src/sub-systemCode/CUF/CUF.o
LOAD ./src/sub-systemCode/CUF/uploadCodeTelemetry.o
LOAD ./src/sub-systemCode/COMM/APRS.o
LOAD ./src/sub-systemCode/COMM/DelayedCommand_list.o
LOAD ./src/sub-systemCode/COMM/GSC.o
LOAD ./src/sub-systemCode/COMM/TRXVU.o
LOAD ./src/sub-systemCode/ADCS/AdcsCommands.o
LOAD ./src/sub-systemCode/ADCS/AdcsGetDataAndTlm.o
LOAD ./src/sub-systemCode/ADCS/AdcsMain.o
LOAD ./src/sub-systemCode/ADCS/AdcsTroubleShooting.o
LOAD ./src/sub-systemCode/ADCS/StateMachine.o
LOAD ./src/main.o
LOAD C:/ISIS/workspace/HOOPOE3/satellite-subsystems/demo/..//satellite-subsystems/lib\libSatelliteSubsystemsD.a
LOAD c:/isis/application/toolchain/bin/../lib/gcc/arm-none-eabi/4.7.4/../../../../arm-none-eabi/lib\libm.a
LOAD C:/ISIS/workspace/HOOPOE3/satellite-subsystems/demo/../..//hal/hcc/lib\libHCCD.a
LOAD C:/ISIS/workspace/HOOPOE3/satellite-subsystems/demo/../..//hal/hal/lib\libHALD.a
LOAD C:/ISIS/workspace/HOOPOE3/satellite-subsystems/demo/../..//hal/freertos/lib\libFreeRTOSD.a
LOAD C:/ISIS/workspace/HOOPOE3/satellite-subsystems/demo/../..//hal/at91/lib\libAt91D.a
START GROUP
LOAD c:/isis/application/toolchain/bin/../lib/gcc/arm-none-eabi/4.7.4\libgcc.a
LOAD c:/isis/application/toolchain/bin/../lib/gcc/arm-none-eabi/4.7.4/../../../../arm-none-eabi/lib\libc_s.a
END GROUP

.fixed          0x20000000    0x67070
                0x20000000                . = ALIGN (0x4)
                0x20000000                _sfixed = .
 *(.startup)
 .startup       0x20000000      0x134 C:/ISIS/workspace/HOOPOE3/satellite-subsystems/demo/../..//hal/at91/lib\libAt91D.a(board_cstartup.o)
                0x20000000                entry
 *(.text)
 .text          0x20000134       0x64 C:/ISIS/workspace/HOOPOE3/satellite-subsystems/demo/../..//hal/at91/lib\libAt91D.a(cp15_asm.o)
                0x20000134                _readControlRegister
                0x20000140                _writeControlRegister
                0x20000148                _waitForInterrupt
                0x20000154                _writeTTB
                0x2000015c                _writeDomain
                0x20000164                _writeITLBLockdown
                0x2000016c                _prefetchICacheLine
                0x20000174                _flushDCache
                0x20000180                _flushWriteBuffer
                0x2000018c                _invalidateIDTLBs
 .text          0x20000198      0x114 c:/isis/application/toolchain/bin/../lib/gcc/arm-none-eabi/4.7.4\libgcc.a(_udivsi3.o)
                0x20000198                __aeabi_uidiv
                0x20000198                __udivsi3
                0x2000028c                __aeabi_uidivmod
 .text          0x200002ac      0x148 c:/isis/application/toolchain/bin/../lib/gcc/arm-none-eabi/4.7.4\libgcc.a(_divsi3.o)
                0x200002ac                __divsi3
                0x200002ac                __aeabi_idiv
                0x200003d4                __aeabi_idivmod
 .text          0x200003f4        0x4 c:/isis/application/toolchain/bin/../lib/gcc/arm-none-eabi/4.7.4\libgcc.a(_dvmd_tls.o)
                0x200003f4                __aeabi_idiv0
                0x200003f4                __aeabi_ldiv0
 .text          0x200003f8      0x41c c:/isis/application/toolchain/bin/../lib/gcc/arm-none-eabi/4.7.4\libgcc.a(_arm_addsubdf3.o)
                0x200003f8                __aeabi_drsub
                0x20000400                __aeabi_dsub
                0x20000400                __subdf3
                0x20000404                __aeabi_dadd
                0x20000404                __adddf3
                0x20000714                __floatunsidf
                0x20000714                __aeabi_ui2d
                0x20000738                __floatsidf
                0x20000738                __aeabi_i2d
                0x20000760                __aeabi_f2d
                0x20000760                __extendsfdf2
                0x200007a0                __floatundidf
                0x200007a0                __aeabi_ul2d
                0x200007b4                __floatdidf
                0x200007b4                __aeabi_l2d
 .text          0x20000814      0x49c c:/isis/application/toolchain/bin/../lib/gcc/arm-none-eabi/4.7.4\libgcc.a(_arm_muldivdf3.o)
                0x20000814                __aeabi_dmul
                0x20000814                __muldf3
                0x20000aa4                __divdf3
                0x20000aa4                __aeabi_ddiv
 .text          0x20000cb0      0x144 c:/isis/application/toolchain/bin/../lib/gcc/arm-none-eabi/4.7.4\libgcc.a(_arm_cmpdf2.o)
                0x20000cb0                __gtdf2
                0x20000cb0                __gedf2
                0x20000cb8                __ltdf2
                0x20000cb8                __ledf2
                0x20000cc0                __nedf2
                0x20000cc0                __eqdf2
                0x20000cc0                __cmpdf2
                0x20000d48                __aeabi_cdrcmple
                0x20000d64                __aeabi_cdcmpeq
                0x20000d64                __aeabi_cdcmple
                0x20000d7c                __aeabi_dcmpeq
                0x20000d94                __aeabi_dcmplt
                0x20000dac                __aeabi_dcmple
                0x20000dc4                __aeabi_dcmpge
                0x20000ddc                __aeabi_dcmpgt
 .text          0x20000df4       0x5c c:/isis/application/toolchain/bin/../lib/gcc/arm-none-eabi/4.7.4\libgcc.a(_arm_fixdfsi.o)
                0x20000df4                __aeabi_d2iz
                0x20000df4                __fixdfsi
 .text          0x20000e50       0x54 c:/isis/application/toolchain/bin/../lib/gcc/arm-none-eabi/4.7.4\libgcc.a(_arm_fixunsdfsi.o)
                0x20000e50                __aeabi_d2uiz
                0x20000e50                __fixunsdfsi
 .text          0x20000ea4       0xa0 c:/isis/application/toolchain/bin/../lib/gcc/arm-none-eabi/4.7.4\libgcc.a(_arm_truncdfsf2.o)
                0x20000ea4                __truncdfsf2
                0x20000ea4                __aeabi_d2f
 .text          0x20000f44      0x2ac c:/isis/application/toolchain/bin/../lib/gcc/arm-none-eabi/4.7.4\libgcc.a(_arm_addsubsf3.o)
                0x20000f44                __aeabi_frsub
                0x20000f4c                __subsf3
                0x20000f4c                __aeabi_fsub
                0x20000f50                __aeabi_fadd
                0x20000f50                __addsf3
                0x2000110c                __aeabi_ui2f
                0x2000110c                __floatunsisf
                0x20001114                __aeabi_i2f
                0x20001114                __floatsisf
                0x20001134                __aeabi_ul2f
                0x20001134                __floatundisf
                0x20001144                __aeabi_l2f
                0x20001144                __floatdisf
 .text          0x200011f0      0x2f8 c:/isis/application/toolchain/bin/../lib/gcc/arm-none-eabi/4.7.4\libgcc.a(_arm_muldivsf3.o)
                0x200011f0                __mulsf3
                0x200011f0                __aeabi_fmul
                0x20001388                __aeabi_fdiv
                0x20001388                __divsf3
 .text          0x200014e8      0x114 c:/isis/application/toolchain/bin/../lib/gcc/arm-none-eabi/4.7.4\libgcc.a(_arm_cmpsf2.o)
                0x200014e8                __gesf2
                0x200014e8                __gtsf2
                0x200014f0                __lesf2
                0x200014f0                __ltsf2
                0x200014f8                __nesf2
                0x200014f8                __eqsf2
                0x200014f8                __cmpsf2
                0x2000155c                __aeabi_cfrcmple
                0x2000156c                __aeabi_cfcmpeq
                0x2000156c                __aeabi_cfcmple
                0x20001584                __aeabi_fcmpeq
                0x2000159c                __aeabi_fcmplt
                0x200015b4                __aeabi_fcmple
                0x200015cc                __aeabi_fcmpge
                0x200015e4                __aeabi_fcmpgt
 .text          0x200015fc       0x5c c:/isis/application/toolchain/bin/../lib/gcc/arm-none-eabi/4.7.4\libgcc.a(_arm_fixsfsi.o)
                0x200015fc                __aeabi_f2iz
                0x200015fc                __fixsfsi
 .text          0x20001658       0x54 c:/isis/application/toolchain/bin/../lib/gcc/arm-none-eabi/4.7.4\libgcc.a(_arm_fixunssfsi.o)
                0x20001658                __fixunssfsi
                0x20001658                __aeabi_f2uiz
 *(.text*)
 .text.__cvt    0x200016ac      0x138 c:/isis/application/toolchain/bin/../lib/gcc/arm-none-eabi/4.7.4/../../../../arm-none-eabi/lib\libc_s.a(lib_a-vfprintf_float.o)
                0x200016ac                __cvt
 .text.__exponent
                0x200017e4       0xa8 c:/isis/application/toolchain/bin/../lib/gcc/arm-none-eabi/4.7.4/../../../../arm-none-eabi/lib\libc_s.a(lib_a-vfprintf_float.o)
                0x200017e4                __exponent
 .text._printf_float
                0x2000188c      0x7dc c:/isis/application/toolchain/bin/../lib/gcc/arm-none-eabi/4.7.4/../../../../arm-none-eabi/lib\libc_s.a(lib_a-vfprintf_float.o)
                0x2000188c                _printf_float
 .text._printf_common
                0x20002068      0x174 c:/isis/application/toolchain/bin/../lib/gcc/arm-none-eabi/4.7.4/../../../../arm-none-eabi/lib\libc_s.a(lib_a-vfprintf_i.o)
                0x20002068                _printf_common
 .text._printf_i
                0x200021dc      0x3c4 c:/isis/application/toolchain/bin/../lib/gcc/arm-none-eabi/4.7.4/../../../../arm-none-eabi/lib\libc_s.a(lib_a-vfprintf_i.o)
                0x200021dc                _printf_i
 .text._scanf_float
                0x200025a0      0x5f4 c:/isis/application/toolchain/bin/../lib/gcc/arm-none-eabi/4.7.4/../../../../arm-none-eabi/lib\libc_s.a(lib_a-vfscanf_float.o)
                0x200025a0                _scanf_float
 .text.quorem   0x20002b94      0x1ac c:/isis/application/toolchain/bin/../lib/gcc/arm-none-eabi/4.7.4/../../../../arm-none-eabi/lib\libc_s.a(lib_a-dtoa.o)
 .text._dtoa_r  0x20002d40     0x1268 c:/isis/application/toolchain/bin/../lib/gcc/arm-none-eabi/4.7.4/../../../../arm-none-eabi/lib\libc_s.a(lib_a-dtoa.o)
                0x20002d40                _dtoa_r
 .text._localeconv_r
                0x20003fa8        0xc c:/isis/application/toolchain/bin/../lib/gcc/arm-none-eabi/4.7.4/../../../../arm-none-eabi/lib\libc_s.a(lib_a-locale.o)
                0x20003fa8                _localeconv_r
 .text.malloc   0x20003fb4       0x20 c:/isis/application/toolchain/bin/../lib/gcc/arm-none-eabi/4.7.4/../../../../arm-none-eabi/lib\libc_s.a(lib_a-malloc.o)
                0x20003fb4                malloc
 .text.free     0x20003fd4       0x20 c:/isis/application/toolchain/bin/../lib/gcc/arm-none-eabi/4.7.4/../../../../arm-none-eabi/lib\libc_s.a(lib_a-malloc.o)
                0x20003fd4                free
 .text._malloc_r
                0x20003ff4       0xfc c:/isis/application/toolchain/bin/../lib/gcc/arm-none-eabi/4.7.4/../../../../arm-none-eabi/lib\libc_s.a(lib_a-mallocr.o)
                0x20003ff4                _malloc_r
 .text.memcpy   0x200040f0       0x20 c:/isis/application/toolchain/bin/../lib/gcc/arm-none-eabi/4.7.4/../../../../arm-none-eabi/lib\libc_s.a(lib_a-memcpy.o)
                0x200040f0                memcpy
 .text._Balloc  0x20004110       0xcc c:/isis/application/toolchain/bin/../lib/gcc/arm-none-eabi/4.7.4/../../../../arm-none-eabi/lib\libc_s.a(lib_a-mprec.o)
                0x20004110                _Balloc
 .text._Bfree   0x200041dc       0x5c c:/isis/application/toolchain/bin/../lib/gcc/arm-none-eabi/4.7.4/../../../../arm-none-eabi/lib\libc_s.a(lib_a-mprec.o)
                0x200041dc                _Bfree
 .text.__multadd
                0x20004238       0xbc c:/isis/application/toolchain/bin/../lib/gcc/arm-none-eabi/4.7.4/../../../../arm-none-eabi/lib\libc_s.a(lib_a-mprec.o)
                0x20004238                __multadd
 .text.__s2b    0x200042f4       0xd8 c:/isis/application/toolchain/bin/../lib/gcc/arm-none-eabi/4.7.4/../../../../arm-none-eabi/lib\libc_s.a(lib_a-mprec.o)
                0x200042f4                __s2b
 .text.__hi0bits
                0x200043cc       0x58 c:/isis/application/toolchain/bin/../lib/gcc/arm-none-eabi/4.7.4/../../../../arm-none-eabi/lib\libc_s.a(lib_a-mprec.o)
                0x200043cc                __hi0bits
 .text.__lo0bits
                0x20004424       0x94 c:/isis/application/toolchain/bin/../lib/gcc/arm-none-eabi/4.7.4/../../../../arm-none-eabi/lib\libc_s.a(lib_a-mprec.o)
                0x20004424                __lo0bits
 .text.__i2b    0x200044b8       0x24 c:/isis/application/toolchain/bin/../lib/gcc/arm-none-eabi/4.7.4/../../../../arm-none-eabi/lib\libc_s.a(lib_a-mprec.o)
                0x200044b8                __i2b
 .text.__multiply
                0x200044dc      0x1ac c:/isis/application/toolchain/bin/../lib/gcc/arm-none-eabi/4.7.4/../../../../arm-none-eabi/lib\libc_s.a(lib_a-mprec.o)
                0x200044dc                __multiply
 .text.__pow5mult
                0x20004688      0x10c c:/isis/application/toolchain/bin/../lib/gcc/arm-none-eabi/4.7.4/../../../../arm-none-eabi/lib\libc_s.a(lib_a-mprec.o)
                0x20004688                __pow5mult
 .text.__lshift
                0x20004794       0xf0 c:/isis/application/toolchain/bin/../lib/gcc/arm-none-eabi/4.7.4/../../../../arm-none-eabi/lib\libc_s.a(lib_a-mprec.o)
                0x20004794                __lshift
 .text.__mcmp   0x20004884       0x60 c:/isis/application/toolchain/bin/../lib/gcc/arm-none-eabi/4.7.4/../../../../arm-none-eabi/lib\libc_s.a(lib_a-mprec.o)
                0x20004884                __mcmp
 .text.__mdiff  0x200048e4      0x128 c:/isis/application/toolchain/bin/../lib/gcc/arm-none-eabi/4.7.4/../../../../arm-none-eabi/lib\libc_s.a(lib_a-mprec.o)
                0x200048e4                __mdiff
 .text.__ulp    0x20004a0c       0x5c c:/isis/application/toolchain/bin/../lib/gcc/arm-none-eabi/4.7.4/../../../../arm-none-eabi/lib\libc_s.a(lib_a-mprec.o)
                0x20004a0c                __ulp
 .text.__b2d    0x20004a68       0xc8 c:/isis/application/toolchain/bin/../lib/gcc/arm-none-eabi/4.7.4/../../../../arm-none-eabi/lib\libc_s.a(lib_a-mprec.o)
                0x20004a68                __b2d
 .text.__d2b    0x20004b30       0xfc c:/isis/application/toolchain/bin/../lib/gcc/arm-none-eabi/4.7.4/../../../../arm-none-eabi/lib\libc_s.a(lib_a-mprec.o)
                0x20004b30                __d2b
 .text.__ratio  0x20004c2c       0x70 c:/isis/application/toolchain/bin/../lib/gcc/arm-none-eabi/4.7.4/../../../../arm-none-eabi/lib\libc_s.a(lib_a-mprec.o)
                0x20004c2c                __ratio
 .text.__copybits
                0x20004c9c       0x4c c:/isis/application/toolchain/bin/../lib/gcc/arm-none-eabi/4.7.4/../../../../arm-none-eabi/lib\libc_s.a(lib_a-mprec.o)
                0x20004c9c                __copybits
 .text.__any_on
                0x20004ce8       0x7c c:/isis/application/toolchain/bin/../lib/gcc/arm-none-eabi/4.7.4/../../../../arm-none-eabi/lib\libc_s.a(lib_a-mprec.o)
                0x20004ce8                __any_on
 .text.__fpclassifyd
                0x20004d64       0x6c c:/isis/application/toolchain/bin/../lib/gcc/arm-none-eabi/4.7.4/../../../../arm-none-eabi/lib\libc_s.a(lib_a-s_fpclassify.o)
                0x20004d64                __fpclassifyd
 .text._sbrk_r  0x20004dd0       0x3c c:/isis/application/toolchain/bin/../lib/gcc/arm-none-eabi/4.7.4/../../../../arm-none-eabi/lib\libc_s.a(lib_a-sbrkr.o)
                0x20004dd0                _sbrk_r
 .text.nanf     0x20004e0c        0xc c:/isis/application/toolchain/bin/../lib/gcc/arm-none-eabi/4.7.4/../../../../arm-none-eabi/lib\libc_s.a(lib_a-sf_nan.o)
                0x20004e0c                nanf
 .text.sprintf  0x20004e18       0x6c c:/isis/application/toolchain/bin/../lib/gcc/arm-none-eabi/4.7.4/../../../../arm-none-eabi/lib\libc_s.a(lib_a-sprintf.o)
                0x20004e18                siprintf
                0x20004e18                sprintf
 .text.strcmp   0x20004e84       0x1c c:/isis/application/toolchain/bin/../lib/gcc/arm-none-eabi/4.7.4/../../../../arm-none-eabi/lib\libc_s.a(lib_a-strcmp.o)
                0x20004e84                strcmp
 .text.strlen   0x20004ea0       0x1c c:/isis/application/toolchain/bin/../lib/gcc/arm-none-eabi/4.7.4/../../../../arm-none-eabi/lib\libc_s.a(lib_a-strlen.o)
                0x20004ea0                strlen
 .text.match    0x20004ebc       0x54 c:/isis/application/toolchain/bin/../lib/gcc/arm-none-eabi/4.7.4/../../../../arm-none-eabi/lib\libc_s.a(lib_a-strtod.o)
 .text._strtod_r
                0x20004f10     0x1168 c:/isis/application/toolchain/bin/../lib/gcc/arm-none-eabi/4.7.4/../../../../arm-none-eabi/lib\libc_s.a(lib_a-strtod.o)
                0x20004f10                _strtod_r
 .text._strtol_r
                0x20006078      0x1b8 c:/isis/application/toolchain/bin/../lib/gcc/arm-none-eabi/4.7.4/../../../../arm-none-eabi/lib\libc_s.a(lib_a-strtol.o)
                0x20006078                _strtol_r
 .text.__ssputc_r
                0x20006230      0x10c c:/isis/application/toolchain/bin/../lib/gcc/arm-none-eabi/4.7.4/../../../../arm-none-eabi/lib\libc_s.a(lib_a-svfprintf.o)
                0x20006230                __ssputc_r
 .text._svfprintf_r
                0x2000633c      0x328 c:/isis/application/toolchain/bin/../lib/gcc/arm-none-eabi/4.7.4/../../../../arm-none-eabi/lib\libc_s.a(lib_a-svfprintf.o)
                0x2000633c                _svfiprintf_r
                0x2000633c                _svfprintf_r
 .text._calloc_r
                0x20006664       0x2c c:/isis/application/toolchain/bin/../lib/gcc/arm-none-eabi/4.7.4/../../../../arm-none-eabi/lib\libc_s.a(lib_a-callocr.o)
                0x20006664                _calloc_r
 .text._free_r  0x20006690      0x108 c:/isis/application/toolchain/bin/../lib/gcc/arm-none-eabi/4.7.4/../../../../arm-none-eabi/lib\libc_s.a(lib_a-freer.o)
                0x20006690                _free_r
 .text.rshift   0x20006798       0xb0 c:/isis/application/toolchain/bin/../lib/gcc/arm-none-eabi/4.7.4/../../../../arm-none-eabi/lib\libc_s.a(lib_a-gdtoa-gethex.o)
 .text.htinit.constprop.0
                0x20006848       0x34 c:/isis/application/toolchain/bin/../lib/gcc/arm-none-eabi/4.7.4/../../../../arm-none-eabi/lib\libc_s.a(lib_a-gdtoa-gethex.o)
 .text.__hexdig_init
                0x2000687c       0x38 c:/isis/application/toolchain/bin/../lib/gcc/arm-none-eabi/4.7.4/../../../../arm-none-eabi/lib\libc_s.a(lib_a-gdtoa-gethex.o)
                0x2000687c                __hexdig_init
 .text.__gethex
                0x200068b4      0x6cc c:/isis/application/toolchain/bin/../lib/gcc/arm-none-eabi/4.7.4/../../../../arm-none-eabi/lib\libc_s.a(lib_a-gdtoa-gethex.o)
                0x200068b4                __gethex
 .text.L_shift  0x20006f80       0x38 c:/isis/application/toolchain/bin/../lib/gcc/arm-none-eabi/4.7.4/../../../../arm-none-eabi/lib\libc_s.a(lib_a-gdtoa-hexnan.o)
 .text.__hexnan
                0x20006fb8      0x1d8 c:/isis/application/toolchain/bin/../lib/gcc/arm-none-eabi/4.7.4/../../../../arm-none-eabi/lib\libc_s.a(lib_a-gdtoa-hexnan.o)
                0x20006fb8                __hexnan
 .text.memchr   0x20007190       0x34 c:/isis/application/toolchain/bin/../lib/gcc/arm-none-eabi/4.7.4/../../../../arm-none-eabi/lib\libc_s.a(lib_a-memchr.o)
                0x20007190                memchr
 .text.memset   0x200071c4       0x1c c:/isis/application/toolchain/bin/../lib/gcc/arm-none-eabi/4.7.4/../../../../arm-none-eabi/lib\libc_s.a(lib_a-memset.o)
                0x200071c4                memset
 .text._realloc_r
                0x200071e0       0x80 c:/isis/application/toolchain/bin/../lib/gcc/arm-none-eabi/4.7.4/../../../../arm-none-eabi/lib\libc_s.a(lib_a-reallocr.o)
                0x200071e0                _realloc_r
 .text.strncmp  0x20007260       0x64 c:/isis/application/toolchain/bin/../lib/gcc/arm-none-eabi/4.7.4/../../../../arm-none-eabi/lib\libc_s.a(lib_a-strncmp.o)
                0x20007260                strncmp
 .text._malloc_usable_size_r
                0x200072c4       0x1c c:/isis/application/toolchain/bin/../lib/gcc/arm-none-eabi/4.7.4/../../../../arm-none-eabi/lib\libc_s.a(lib_a-msizer.o)
                0x200072c4                _malloc_usable_size_r
 .text.AdcsCmdQueueInit
                0x200072e0       0x4c ./src/sub-systemCode/Main/CMD/ADCS_CMD.o
                0x200072e0                AdcsCmdQueueInit
 .text.AdcsCmdQueueGet
                0x2000732c       0x8c ./src/sub-systemCode/Main/CMD/ADCS_CMD.o
                0x2000732c                AdcsCmdQueueGet
 .text.AdcsCmdQueueAdd
                0x200073b8       0x74 ./src/sub-systemCode/Main/CMD/ADCS_CMD.o
                0x200073b8                AdcsCmdQueueAdd
 .text.AdcsCmdQueueIsEmpty
                0x2000742c       0x3c ./src/sub-systemCode/Main/CMD/ADCS_CMD.o
                0x2000742c                AdcsCmdQueueIsEmpty
 .text.getAdcsQueueWaitPointer
                0x20007468       0x20 ./src/sub-systemCode/Main/CMD/ADCS_CMD.o
                0x20007468                getAdcsQueueWaitPointer
 .text.cmd_mute
                0x20007488       0xf4 ./src/sub-systemCode/Main/CMD/COMM_CMD.o
                0x20007488                cmd_mute
 .text.cmd_unmute
                0x2000757c       0x90 ./src/sub-systemCode/Main/CMD/COMM_CMD.o
                0x2000757c                cmd_unmute
 .text.cmd_active_trans
                0x2000760c       0xc0 ./src/sub-systemCode/Main/CMD/COMM_CMD.o
                0x2000760c                cmd_active_trans
 .text.cmd_shut_trans
                0x200076cc       0x8c ./src/sub-systemCode/Main/CMD/COMM_CMD.o
                0x200076cc                cmd_shut_trans
 .text.cmd_change_trans_rssi
                0x20007758      0x140 ./src/sub-systemCode/Main/CMD/COMM_CMD.o
                0x20007758                cmd_change_trans_rssi
 .text.cmd_aprs_dump
                0x20007898       0x38 ./src/sub-systemCode/Main/CMD/COMM_CMD.o
                0x20007898                cmd_aprs_dump
 .text.cmd_stop_dump
                0x200078d0       0x8c ./src/sub-systemCode/Main/CMD/COMM_CMD.o
                0x200078d0                cmd_stop_dump
 .text.cmd_time_frequency
                0x2000795c       0xf8 ./src/sub-systemCode/Main/CMD/COMM_CMD.o
                0x2000795c                cmd_time_frequency
 .text.cmd_change_def_bit_rate
                0x20007a54      0x1a8 ./src/sub-systemCode/Main/CMD/COMM_CMD.o
                0x20007a54                cmd_change_def_bit_rate
 .text.cmd_upload_volt_logic
                0x20007bfc      0x370 ./src/sub-systemCode/Main/CMD/EPS_CMD.o
                0x20007bfc                cmd_upload_volt_logic
 .text.cmd_upload_volt_COMM
                0x20007f6c      0x240 ./src/sub-systemCode/Main/CMD/EPS_CMD.o
                0x20007f6c                cmd_upload_volt_COMM
 .text.cmd_heater_temp
                0x200081ac       0xe4 ./src/sub-systemCode/Main/CMD/EPS_CMD.o
                0x200081ac                cmd_heater_temp
 .text.cmd_SHUT_ADCS
                0x20008290       0x78 ./src/sub-systemCode/Main/CMD/EPS_CMD.o
                0x20008290                cmd_SHUT_ADCS
 .text.cmd_allow_ADCS
                0x20008308       0x78 ./src/sub-systemCode/Main/CMD/EPS_CMD.o
                0x20008308                cmd_allow_ADCS
 .text.cmd_update_alpha
                0x20008380      0x120 ./src/sub-systemCode/Main/CMD/EPS_CMD.o
                0x20008380                cmd_update_alpha
 .text.cmd_resetGWT
                0x200084a0       0xa4 ./src/sub-systemCode/Main/CMD/EPS_CMD.o
                0x200084a0                cmd_resetGWT
 .text.cmd_generic_I2C
                0x20008544       0xe4 ./src/sub-systemCode/Main/CMD/General_CMD.o
                0x20008544                cmd_generic_I2C
 .text.cmd_dump
                0x20008628       0xfc ./src/sub-systemCode/Main/CMD/General_CMD.o
                0x20008628                cmd_dump
 .text.cmd_delete_TM
                0x20008724      0x24c ./src/sub-systemCode/Main/CMD/General_CMD.o
                0x20008724                cmd_delete_TM
 .text.cmd_reset_file
                0x20008970      0x130 ./src/sub-systemCode/Main/CMD/General_CMD.o
                0x20008970                cmd_reset_file
 .text.cmd_format_SD
                0x20008aa0       0xb4 ./src/sub-systemCode/Main/CMD/General_CMD.o
                0x20008aa0                cmd_format_SD
 .text.cmd_dummy_func
                0x20008b54       0x38 ./src/sub-systemCode/Main/CMD/General_CMD.o
                0x20008b54                cmd_dummy_func
 .text.cmd_reset_TLM_SD
                0x20008b8c       0x54 ./src/sub-systemCode/Main/CMD/General_CMD.o
                0x20008b8c                cmd_reset_TLM_SD
 .text.cmd_stop_TM
                0x20008be0       0x7c ./src/sub-systemCode/Main/CMD/General_CMD.o
                0x20008be0                cmd_stop_TM
 .text.cmd_resume_TM
                0x20008c5c       0x7c ./src/sub-systemCode/Main/CMD/General_CMD.o
                0x20008c5c                cmd_resume_TM
 .text.cmd_soft_reset_cmponent
                0x20008cd8       0xd0 ./src/sub-systemCode/Main/CMD/General_CMD.o
                0x20008cd8                cmd_soft_reset_cmponent
 .text.cmd_hard_reset_cmponent
                0x20008da8       0xd0 ./src/sub-systemCode/Main/CMD/General_CMD.o
                0x20008da8                cmd_hard_reset_cmponent
 .text.cmd_reset_satellite
                0x20008e78       0x90 ./src/sub-systemCode/Main/CMD/General_CMD.o
                0x20008e78                cmd_reset_satellite
 .text.cmd_gracefull_reset_satellite
                0x20008f08       0x90 ./src/sub-systemCode/Main/CMD/General_CMD.o
                0x20008f08                cmd_gracefull_reset_satellite
 .text.cmd_upload_time
                0x20008f98       0xc4 ./src/sub-systemCode/Main/CMD/General_CMD.o
                0x20008f98                cmd_upload_time
 .text.cmd_ARM_DIARM
                0x2000905c      0x104 ./src/sub-systemCode/Main/CMD/General_CMD.o
                0x2000905c                cmd_ARM_DIARM
 .text.cmd_deploy_ants
                0x20009160       0xcc ./src/sub-systemCode/Main/CMD/General_CMD.o
                0x20009160                cmd_deploy_ants
 .text.cmd_get_onlineTM
                0x2000922c      0x220 ./src/sub-systemCode/Main/CMD/General_CMD.o
                0x2000922c                cmd_get_onlineTM
 .text.cmd_reset_off_line
                0x2000944c       0x74 ./src/sub-systemCode/Main/CMD/General_CMD.o
                0x2000944c                cmd_reset_off_line
 .text.cmd_add_item_off_line
                0x200094c0      0x124 ./src/sub-systemCode/Main/CMD/General_CMD.o
                0x200094c0                cmd_add_item_off_line
 .text.cmd_delete_item_off_line
                0x200095e4       0xb0 ./src/sub-systemCode/Main/CMD/General_CMD.o
                0x200095e4                cmd_delete_item_off_line
 .text.cmd_get_off_line_setting
                0x20009694      0x1cc ./src/sub-systemCode/Main/CMD/General_CMD.o
                0x20009694                cmd_get_off_line_setting
 .text.cmd_reset_delayed_command_list
                0x20009860       0x38 ./src/sub-systemCode/Main/CMD/SW_CMD.o
                0x20009860                cmd_reset_delayed_command_list
 .text.cmd_reset_APRS_list
                0x20009898       0x3c ./src/sub-systemCode/Main/CMD/SW_CMD.o
                0x20009898                cmd_reset_APRS_list
 .text.cmd_reset_FRAM
                0x200098d4      0x100 ./src/sub-systemCode/Main/CMD/SW_CMD.o
                0x200098d4                cmd_reset_FRAM
 .text.cmd_FRAM_read
                0x200099d4      0x270 ./src/sub-systemCode/Main/CMD/SW_CMD.o
                0x200099d4                cmd_FRAM_read
 .text.cmd_FRAM_write
                0x20009c44      0x114 ./src/sub-systemCode/Main/CMD/SW_CMD.o
                0x20009c44                cmd_FRAM_write
 .text.init_Ants
                0x20009d58       0x90 ./src/sub-systemCode/Main/Ants.o
                0x20009d58                init_Ants
 .text.ARM_ants
                0x20009de8       0xb8 ./src/sub-systemCode/Main/Ants.o
                0x20009de8                ARM_ants
 .text.DISARM_ants
                0x20009ea0       0xf0 ./src/sub-systemCode/Main/Ants.o
                0x20009ea0                DISARM_ants
 .text.deploye_ants
                0x20009f90       0x90 ./src/sub-systemCode/Main/Ants.o
                0x20009f90                deploye_ants
 .text.checkDeployAttempt
                0x2000a020      0x180 ./src/sub-systemCode/Main/Ants.o
                0x2000a020                checkDeployAttempt
 .text.reset_deployStatusFRAM
                0x2000a1a0       0xdc ./src/sub-systemCode/Main/Ants.o
                0x2000a1a0                reset_deployStatusFRAM
 .text.reset_FRAM_ants
                0x2000a27c       0xc4 ./src/sub-systemCode/Main/Ants.o
                0x2000a27c                reset_FRAM_ants
 .text.DeployIfNeeded
                0x2000a340      0x188 ./src/sub-systemCode/Main/Ants.o
                0x2000a340                DeployIfNeeded
 .text.update_stopDeploy_FRAM
                0x2000a4c8       0x64 ./src/sub-systemCode/Main/Ants.o
                0x2000a4c8                update_stopDeploy_FRAM
 .text.round_vol
                0x2000a52c      0x124 ./src/sub-systemCode/Main/EPS.o
                0x2000a52c                round_vol
 .text.get_shut_ADCS
                0x2000a650       0x64 ./src/sub-systemCode/Main/EPS.o
                0x2000a650                get_shut_ADCS
 .text.shut_ADCS
                0x2000a6b4       0x60 ./src/sub-systemCode/Main/EPS.o
                0x2000a6b4                shut_ADCS
 .text.update_powerLines
                0x2000a714      0x124 ./src/sub-systemCode/Main/EPS.o
                0x2000a714                update_powerLines
 .text.get_EPS_mode_t
                0x2000a838       0x24 ./src/sub-systemCode/Main/EPS.o
                0x2000a838                get_EPS_mode_t
 .text.init_enterMode
                0x2000a85c       0x88 ./src/sub-systemCode/Main/EPS.o
                0x2000a85c                init_enterMode
 .text.EPS_Init
                0x2000a8e4      0x190 ./src/sub-systemCode/Main/EPS.o
                0x2000a8e4                EPS_Init
 .text.reset_FRAM_EPS
                0x2000aa74      0x150 ./src/sub-systemCode/Main/EPS.o
                0x2000aa74                reset_FRAM_EPS
 .text.reset_EPS_voltages
                0x2000abc4      0x110 ./src/sub-systemCode/Main/EPS.o
                0x2000abc4                reset_EPS_voltages
 .text.writeState_log
                0x2000acd4       0x94 ./src/sub-systemCode/Main/EPS.o
                0x2000acd4                writeState_log
 .text.battery_downward
                0x2000ad68       0xcc ./src/sub-systemCode/Main/EPS.o
 .text.battery_upward
                0x2000ae34       0xd8 ./src/sub-systemCode/Main/EPS.o
 .text.sanityCheck_EPS
                0x2000af0c      0x1b4 ./src/sub-systemCode/Main/EPS.o
 .text.overRide_ADCS
                0x2000b0c0       0x50 ./src/sub-systemCode/Main/EPS.o
                0x2000b0c0                overRide_ADCS
 .text.EPS_Conditioning
                0x2000b110      0x33c ./src/sub-systemCode/Main/EPS.o
                0x2000b110                EPS_Conditioning
 .text.EnterFullMode
                0x2000b44c       0xd4 ./src/sub-systemCode/Main/EPS.o
                0x2000b44c                EnterFullMode
 .text.EnterCruiseMode
                0x2000b520       0xd4 ./src/sub-systemCode/Main/EPS.o
                0x2000b520                EnterCruiseMode
 .text.EnterSafeMode
                0x2000b5f4       0xd4 ./src/sub-systemCode/Main/EPS.o
                0x2000b5f4                EnterSafeMode
 .text.EnterCriticalMode
                0x2000b6c8       0xc0 ./src/sub-systemCode/Main/EPS.o
                0x2000b6c8                EnterCriticalMode
 .text.get_FRAMVoltageTable
                0x2000b788       0xb0 ./src/sub-systemCode/Main/EPS.o
 .text.WriteCurrentTelemetry
                0x2000b838      0x104 ./src/sub-systemCode/Main/EPS.o
                0x2000b838                WriteCurrentTelemetry
 .text.convert_raw_voltage
                0x2000b93c       0xd8 ./src/sub-systemCode/Main/EPS.o
                0x2000b93c                convert_raw_voltage
 .text.check_EPSTableCorrection
                0x2000ba14      0x120 ./src/sub-systemCode/Main/EPS.o
                0x2000ba14                check_EPSTableCorrection
 .text.save_ACK
                0x2000bb34       0xc8 ./src/sub-systemCode/Main/HouseKeeping.o
                0x2000bb34                save_ACK
 .text.set_GP_EPS
                0x2000bbfc      0x10c ./src/sub-systemCode/Main/HouseKeeping.o
                0x2000bbfc                set_GP_EPS
 .text.set_GP_COMM
                0x2000bd08       0x88 ./src/sub-systemCode/Main/HouseKeeping.o
                0x2000bd08                set_GP_COMM
 .text.SP_HK_collect
                0x2000bd90      0x20c ./src/sub-systemCode/Main/HouseKeeping.o
                0x2000bd90                SP_HK_collect
 .text.EPS_HK_collect
                0x2000bf9c      0x528 ./src/sub-systemCode/Main/HouseKeeping.o
                0x2000bf9c                EPS_HK_collect
 .text.COMM_HK_collect
                0x2000c4c4      0x2d0 ./src/sub-systemCode/Main/HouseKeeping.o
                0x2000c4c4                COMM_HK_collect
 .text.FS_HK_collect
                0x2000c794      0x19c ./src/sub-systemCode/Main/HouseKeeping.o
                0x2000c794                FS_HK_collect
 .text.HK_find_ADCSTM_fileName
                0x2000c930      0x44c ./src/sub-systemCode/Main/HouseKeeping.o
                0x2000c930                HK_find_ADCSTM_fileName
 .text.HK_find_fileName
                0x2000cd7c      0x174 ./src/sub-systemCode/Main/HouseKeeping.o
                0x2000cd7c                HK_find_fileName
 .text.HK_find_ADCSTM_ElementSize
                0x2000cef0      0x1b8 ./src/sub-systemCode/Main/HouseKeeping.o
                0x2000cef0                HK_find_ADCSTM_ElementSize
 .text.HK_findElementSize
                0x2000d0a8       0xd4 ./src/sub-systemCode/Main/HouseKeeping.o
                0x2000d0a8                HK_findElementSize
 .text.build_HK_spl_packet
                0x2000d17c      0x27c ./src/sub-systemCode/Main/HouseKeeping.o
                0x2000d17c                build_HK_spl_packet
 .text.numberOfRestarts
                0x2000d3f8       0x94 ./src/sub-systemCode/Main/Main_Init.o
                0x2000d3f8                numberOfRestarts
 .text.StartFRAM
                0x2000d48c       0x1c ./src/sub-systemCode/Main/Main_Init.o
                0x2000d48c                StartFRAM
 .text.StartI2C
                0x2000d4a8       0x28 ./src/sub-systemCode/Main/Main_Init.o
                0x2000d4a8                StartI2C
 .text.StartSPI
                0x2000d4d0       0x24 ./src/sub-systemCode/Main/Main_Init.o
                0x2000d4d0                StartSPI
 .text.StartTIME
                0x2000d4f4      0x104 ./src/sub-systemCode/Main/Main_Init.o
                0x2000d4f4                StartTIME
 .text.first_activation
                0x2000d5f8       0x7c ./src/sub-systemCode/Main/Main_Init.o
                0x2000d5f8                first_activation
 .text.InitSubsystems
                0x2000d674       0x6c ./src/sub-systemCode/Main/Main_Init.o
                0x2000d674                InitSubsystems
 .text.SubSystemTaskStart
                0x2000d6e0      0x124 ./src/sub-systemCode/Main/Main_Init.o
                0x2000d6e0                SubSystemTaskStart
 .text.copy_command
                0x2000d804       0x80 ./src/sub-systemCode/Main/commands.o
                0x2000d804                copy_command
 .text.reset_command
                0x2000d884       0x28 ./src/sub-systemCode/Main/commands.o
                0x2000d884                reset_command
 .text.init_command
                0x2000d8ac       0xf4 ./src/sub-systemCode/Main/commands.o
                0x2000d8ac                init_command
 .text.add_command
                0x2000d9a0      0x12c ./src/sub-systemCode/Main/commands.o
                0x2000d9a0                add_command
 .text.get_command
                0x2000dacc      0x1c0 ./src/sub-systemCode/Main/commands.o
                0x2000dacc                get_command
 .text.act_upon_command
                0x2000dc8c      0x18c ./src/sub-systemCode/Main/commands.o
                0x2000dc8c                act_upon_command
 .text.cmd_error
                0x2000de18       0x38 ./src/sub-systemCode/Main/commands.o
                0x2000de18                cmd_error
 .text.AUC_COMM
                0x2000de50      0x25c ./src/sub-systemCode/Main/commands.o
                0x2000de50                AUC_COMM
 .text.AUC_general
                0x2000e0ac      0x3ec ./src/sub-systemCode/Main/commands.o
                0x2000e0ac                AUC_general
 .text.AUC_EPS  0x2000e498      0x24c ./src/sub-systemCode/Main/commands.o
                0x2000e498                AUC_EPS
 .text.AUC_SW   0x2000e6e4      0x1cc ./src/sub-systemCode/Main/commands.o
                0x2000e6e4                AUC_SW
 .text.AUC_onlineTM
                0x2000e8b0      0x1f0 ./src/sub-systemCode/Main/commands.o
                0x2000e8b0                AUC_onlineTM
 .text.AUC_CUF  0x2000eaa0      0x160 ./src/sub-systemCode/Main/commands.o
                0x2000eaa0                AUC_CUF
 .text.init_GenericSaveQueue
                0x2000ec00       0x3c ./src/sub-systemCode/Global/GenericTaskSave.o
                0x2000ec00                init_GenericSaveQueue
 .text.add_GenericElement_queue
                0x2000ec3c       0x80 ./src/sub-systemCode/Global/GenericTaskSave.o
                0x2000ec3c                add_GenericElement_queue
 .text.GenericSave_Task
                0x2000ecbc      0x128 ./src/sub-systemCode/Global/GenericTaskSave.o
                0x2000ecbc                GenericSave_Task
 .text.check_int
                0x2000ede4       0x20 ./src/sub-systemCode/Global/Global.o
                0x2000ede4                check_int
 .text.check_portBASE_TYPE
                0x2000ee04       0x20 ./src/sub-systemCode/Global/Global.o
                0x2000ee04                check_portBASE_TYPE
 .text.print_array
                0x2000ee24       0x20 ./src/sub-systemCode/Global/Global.o
                0x2000ee24                print_array
 .text.switch_endian
                0x2000ee44       0xc4 ./src/sub-systemCode/Global/Global.o
                0x2000ee44                switch_endian
 .text.double_little_endian
                0x2000ef08       0x98 ./src/sub-systemCode/Global/Global.o
                0x2000ef08                double_little_endian
 .text.soft_reset_subsystem
                0x2000efa0       0xfc ./src/sub-systemCode/Global/Global.o
                0x2000efa0                soft_reset_subsystem
 .text.hard_reset_subsystem
                0x2000f09c      0x138 ./src/sub-systemCode/Global/Global.o
                0x2000f09c                hard_reset_subsystem
 .text.BigEnE_raw_to_uInt
                0x2000f1d4       0x94 ./src/sub-systemCode/Global/Global.o
                0x2000f1d4                BigEnE_raw_to_uInt
 .text.BigEnE_raw_to_uShort
                0x2000f268       0x50 ./src/sub-systemCode/Global/Global.o
                0x2000f268                BigEnE_raw_to_uShort
 .text.BigEnE_uInt_to_raw
                0x2000f2b8       0x78 ./src/sub-systemCode/Global/Global.o
                0x2000f2b8                BigEnE_uInt_to_raw
 .text.BigEnE_raw_value
                0x2000f330       0xb8 ./src/sub-systemCode/Global/Global.o
                0x2000f330                BigEnE_raw_value
 .text.fram_byte_fix
                0x2000f3e8      0x16c ./src/sub-systemCode/Global/Global.o
                0x2000f3e8                fram_byte_fix
 .text.comapre_string
                0x2000f554       0x84 ./src/sub-systemCode/Global/Global.o
                0x2000f554                comapre_string
 .text.reset_FRAM_MAIN
                0x2000f5d8      0x1cc ./src/sub-systemCode/Global/Global.o
                0x2000f5d8                reset_FRAM_MAIN
 .text.getBitValueByIndex
                0x2000f7a4       0xd0 ./src/sub-systemCode/Global/Global.o
                0x2000f7a4                getBitValueByIndex
 .text.FRAM_write_exte
                0x2000f874       0x84 ./src/sub-systemCode/Global/Global.o
                0x2000f874                FRAM_write_exte
 .text.FRAM_read_exte
                0x2000f8f8       0x84 ./src/sub-systemCode/Global/Global.o
                0x2000f8f8                FRAM_read_exte
 .text.FRAM_writeAndVerify_exte
                0x2000f97c       0x84 ./src/sub-systemCode/Global/Global.o
                0x2000f97c                FRAM_writeAndVerify_exte
 .text.init_GP  0x2000fa00      0x364 ./src/sub-systemCode/Global/GlobalParam.o
                0x2000fa00                init_GP
 .text.get_system_state
                0x2000fd64      0x200 ./src/sub-systemCode/Global/GlobalParam.o
                0x2000fd64                get_system_state
 .text.set_system_state
                0x2000ff64      0x228 ./src/sub-systemCode/Global/GlobalParam.o
                0x2000ff64                set_system_state
 .text.get_systems_state_param
                0x2001018c       0x8c ./src/sub-systemCode/Global/GlobalParam.o
                0x2001018c                get_systems_state_param
 .text.get_current_global_param
                0x20010218      0x55c ./src/sub-systemCode/Global/GlobalParam.o
                0x20010218                get_current_global_param
 .text.set_Vbatt
                0x20010774       0x8c ./src/sub-systemCode/Global/GlobalParam.o
                0x20010774                set_Vbatt
 .text.get_Vbatt
                0x20010800       0x8c ./src/sub-systemCode/Global/GlobalParam.o
                0x20010800                get_Vbatt
 .text.get_curBat
                0x2001088c       0x94 ./src/sub-systemCode/Global/GlobalParam.o
                0x2001088c                get_curBat
 .text.set_curBat
                0x20010920       0x8c ./src/sub-systemCode/Global/GlobalParam.o
                0x20010920                set_curBat
 .text.get_cur3V3
                0x200109ac       0x94 ./src/sub-systemCode/Global/GlobalParam.o
                0x200109ac                get_cur3V3
 .text.set_cur3V3
                0x20010a40       0x8c ./src/sub-systemCode/Global/GlobalParam.o
                0x20010a40                set_cur3V3
 .text.get_cur5V
                0x20010acc       0x94 ./src/sub-systemCode/Global/GlobalParam.o
                0x20010acc                get_cur5V
 .text.set_cur5V
                0x20010b60       0x8c ./src/sub-systemCode/Global/GlobalParam.o
                0x20010b60                set_cur5V
 .text.get_tempComm_LO
                0x20010bec      0x108 ./src/sub-systemCode/Global/GlobalParam.o
                0x20010bec                get_tempComm_LO
 .text.set_tempComm_LO
                0x20010cf4       0x8c ./src/sub-systemCode/Global/GlobalParam.o
                0x20010cf4                set_tempComm_LO
 .text.get_tempComm_PA
                0x20010d80      0x108 ./src/sub-systemCode/Global/GlobalParam.o
                0x20010d80                get_tempComm_PA
 .text.set_tempComm_PA
                0x20010e88       0x8c ./src/sub-systemCode/Global/GlobalParam.o
                0x20010e88                set_tempComm_PA
 .text.get_tempEPS
                0x20010f14       0xe8 ./src/sub-systemCode/Global/GlobalParam.o
                0x20010f14                get_tempEPS
 .text.set_tempEPS
                0x20010ffc       0xc8 ./src/sub-systemCode/Global/GlobalParam.o
                0x20010ffc                set_tempEPS
 .text.get_tempBatt
                0x200110c4       0xe8 ./src/sub-systemCode/Global/GlobalParam.o
                0x200110c4                get_tempBatt
 .text.set_tempBatt
                0x200111ac       0xc8 ./src/sub-systemCode/Global/GlobalParam.o
                0x200111ac                set_tempBatt
 .text.get_RxDoppler
                0x20011274       0x94 ./src/sub-systemCode/Global/GlobalParam.o
                0x20011274                get_RxDoppler
 .text.set_RxDoppler
                0x20011308       0x8c ./src/sub-systemCode/Global/GlobalParam.o
                0x20011308                set_RxDoppler
 .text.get_RxRSSI
                0x20011394       0x94 ./src/sub-systemCode/Global/GlobalParam.o
                0x20011394                get_RxRSSI
 .text.set_RxRSSI
                0x20011428       0x8c ./src/sub-systemCode/Global/GlobalParam.o
                0x20011428                set_RxRSSI
 .text.get_TxRefl
                0x200114b4       0x94 ./src/sub-systemCode/Global/GlobalParam.o
                0x200114b4                get_TxRefl
 .text.set_TxRefl
                0x20011548       0x8c ./src/sub-systemCode/Global/GlobalParam.o
                0x20011548                set_TxRefl
 .text.get_TxForw
                0x200115d4       0x94 ./src/sub-systemCode/Global/GlobalParam.o
                0x200115d4                get_TxForw
 .text.set_TxForw
                0x20011668       0x8c ./src/sub-systemCode/Global/GlobalParam.o
                0x20011668                set_TxForw
 .text.get_Attitude
                0x200116f4      0x120 ./src/sub-systemCode/Global/GlobalParam.o
                0x200116f4                get_Attitude
 .text.set_Attitude
                0x20011814       0xe0 ./src/sub-systemCode/Global/GlobalParam.o
                0x20011814                set_Attitude
 .text.get_FS_failFlag
                0x200118f4       0x94 ./src/sub-systemCode/Global/GlobalParam.o
                0x200118f4                get_FS_failFlag
 .text.set_FS_failFlag
                0x20011988       0x8c ./src/sub-systemCode/Global/GlobalParam.o
                0x20011988                set_FS_failFlag
 .text.get_EPSState
                0x20011a14       0x94 ./src/sub-systemCode/Global/GlobalParam.o
                0x20011a14                get_EPSState
 .text.set_EPSState
                0x20011aa8       0x8c ./src/sub-systemCode/Global/GlobalParam.o
                0x20011aa8                set_EPSState
 .text.get_numOfDelayedCommand
                0x20011b34       0x94 ./src/sub-systemCode/Global/GlobalParam.o
                0x20011b34                get_numOfDelayedCommand
 .text.set_numOfDelayedCommand
                0x20011bc8       0x8c ./src/sub-systemCode/Global/GlobalParam.o
                0x20011bc8                set_numOfDelayedCommand
 .text.set_numOfResets
                0x20011c54       0xac ./src/sub-systemCode/Global/GlobalParam.o
                0x20011c54                set_numOfResets
 .text.get_numOfResets
                0x20011d00       0xa4 ./src/sub-systemCode/Global/GlobalParam.o
                0x20011d00                get_numOfResets
 .text.set_lastReset
                0x20011da4       0xac ./src/sub-systemCode/Global/GlobalParam.o
                0x20011da4                set_lastReset
 .text.get_lastReset
                0x20011e50       0xa4 ./src/sub-systemCode/Global/GlobalParam.o
                0x20011e50                get_lastReset
 .text.set_ground_conn
                0x20011ef4       0xa0 ./src/sub-systemCode/Global/GlobalParam.o
                0x20011ef4                set_ground_conn
 .text.get_ground_conn
                0x20011f94       0xa0 ./src/sub-systemCode/Global/GlobalParam.o
                0x20011f94                get_ground_conn
 .text.IsisAntS_getStatusData_sideA
                0x20012034       0x3c ./src/sub-systemCode/Global/OnlineTM.o
                0x20012034                IsisAntS_getStatusData_sideA
 .text.IsisAntS_getAlltelemetry_sideA
                0x20012070       0x3c ./src/sub-systemCode/Global/OnlineTM.o
                0x20012070                IsisAntS_getAlltelemetry_sideA
 .text.IsisAntS_getTemperature_sideA
                0x200120ac       0x3c ./src/sub-systemCode/Global/OnlineTM.o
                0x200120ac                IsisAntS_getTemperature_sideA
 .text.IsisAntS_getStatusData_sideB
                0x200120e8       0x3c ./src/sub-systemCode/Global/OnlineTM.o
                0x200120e8                IsisAntS_getStatusData_sideB
 .text.IsisAntS_getAlltelemetry_sideB
                0x20012124       0x3c ./src/sub-systemCode/Global/OnlineTM.o
                0x20012124                IsisAntS_getAlltelemetry_sideB
 .text.IsisAntS_getTemperature_sideB
                0x20012160       0x3c ./src/sub-systemCode/Global/OnlineTM.o
                0x20012160                IsisAntS_getTemperature_sideB
 .text.HK_collect_EPS
                0x2001219c       0x30 ./src/sub-systemCode/Global/OnlineTM.o
                0x2001219c                HK_collect_EPS
 .text.HK_collect_COMM
                0x200121cc       0x30 ./src/sub-systemCode/Global/OnlineTM.o
                0x200121cc                HK_collect_COMM
 .text.HK_collect_SP
                0x200121fc       0x30 ./src/sub-systemCode/Global/OnlineTM.o
                0x200121fc                HK_collect_SP
 .text.HK_collect_FS_A
                0x2001222c       0x9c ./src/sub-systemCode/Global/OnlineTM.o
                0x2001222c                HK_collect_FS_A
 .text.HK_collect_FS_B
                0x200122c8       0x9c ./src/sub-systemCode/Global/OnlineTM.o
                0x200122c8                HK_collect_FS_B
 .text.save_offlineSetting_FRAM
                0x20012364      0x26c ./src/sub-systemCode/Global/OnlineTM.o
                0x20012364                save_offlineSetting_FRAM
 .text.get_offlineSetting_FRAM
                0x200125d0       0x58 ./src/sub-systemCode/Global/OnlineTM.o
                0x200125d0                get_offlineSetting_FRAM
 .text.update_offlineSetting_FRAM
                0x20012628      0x360 ./src/sub-systemCode/Global/OnlineTM.o
                0x20012628                update_offlineSetting_FRAM
 .text.get_offlineSettingPacket
                0x20012988       0xc4 ./src/sub-systemCode/Global/OnlineTM.o
                0x20012988                get_offlineSettingPacket
 .text.get_item_by_index
                0x20012a4c       0xdc ./src/sub-systemCode/Global/OnlineTM.o
                0x20012a4c                get_item_by_index
 .text.get_pointer_item_by_index
                0x20012b28       0x48 ./src/sub-systemCode/Global/OnlineTM.o
                0x20012b28                get_pointer_item_by_index
 .text.init_onlineParam
                0x20012b70     0x2d74 ./src/sub-systemCode/Global/OnlineTM.o
                0x20012b70                init_onlineParam
 .text.reset_offline_TM_list
                0x200158e4      0x184 ./src/sub-systemCode/Global/OnlineTM.o
                0x200158e4                reset_offline_TM_list
 .text.get_online_packet
                0x20015a68      0x25c ./src/sub-systemCode/Global/OnlineTM.o
                0x20015a68                get_online_packet
 .text.save_onlineTM_param
                0x20015cc4      0x1b4 ./src/sub-systemCode/Global/OnlineTM.o
                0x20015cc4                save_onlineTM_param
 .text.add_onlineTM_param_to_save_list
                0x20015e78      0x3e4 ./src/sub-systemCode/Global/OnlineTM.o
                0x20015e78                add_onlineTM_param_to_save_list
 .text.delete_onlineTM_param_from_offline
                0x2001625c      0x1a8 ./src/sub-systemCode/Global/OnlineTM.o
                0x2001625c                delete_onlineTM_param_from_offline
 .text.save_onlineTM_logic
                0x20016404      0x2c0 ./src/sub-systemCode/Global/OnlineTM.o
                0x20016404                save_onlineTM_logic
 .text.updateSD_state
                0x200166c4       0xc0 ./src/sub-systemCode/Global/OnlineTM.o
                0x200166c4                updateSD_state
 .text.sleepRTC_second
                0x20016784       0x64 ./src/sub-systemCode/Global/OnlineTM.o
 .text.save_onlineTM_task
                0x200167e8       0xe8 ./src/sub-systemCode/Global/OnlineTM.o
                0x200167e8                save_onlineTM_task
 .text.getSdIndex
                0x200168d0       0x44 ./src/sub-systemCode/Global/TLM_management.o
 .text.reset_FRAM_FS
                0x20016914       0x4c ./src/sub-systemCode/Global/TLM_management.o
                0x20016914                reset_FRAM_FS
 .text.TLMfile  0x20016960       0x64 ./src/sub-systemCode/Global/TLM_management.o
                0x20016960                TLMfile
 .text.sd_format
                0x200169c4       0x28 ./src/sub-systemCode/Global/TLM_management.o
                0x200169c4                sd_format
 .text.deleteDir
                0x200169ec       0xfc ./src/sub-systemCode/Global/TLM_management.o
                0x200169ec                deleteDir
 .text.getNumOfFilesInFS
                0x20016ae8       0x44 ./src/sub-systemCode/Global/TLM_management.o
 .text.setNumOfFilesInFS
                0x20016b2c       0x48 ./src/sub-systemCode/Global/TLM_management.o
 .text.f_managed_enterFS
                0x20016b74       0x18 ./src/sub-systemCode/Global/TLM_management.o
                0x20016b74                f_managed_enterFS
 .text.f_managed_releaseFS
                0x20016b8c       0x18 ./src/sub-systemCode/Global/TLM_management.o
                0x20016b8c                f_managed_releaseFS
 .text.f_managed_open
                0x20016ba4      0x110 ./src/sub-systemCode/Global/TLM_management.o
                0x20016ba4                f_managed_open
 .text.f_managed_close
                0x20016cb4       0x84 ./src/sub-systemCode/Global/TLM_management.o
                0x20016cb4                f_managed_close
 .text.createSemahores_FS
                0x20016d38       0x48 ./src/sub-systemCode/Global/TLM_management.o
                0x20016d38                createSemahores_FS
 .text.InitializeFS
                0x20016d80      0x17c ./src/sub-systemCode/Global/TLM_management.o
                0x20016d80                InitializeFS
 .text.c_fileCreate
                0x20016efc      0x110 ./src/sub-systemCode/Global/TLM_management.o
                0x20016efc                c_fileCreate
 .text.writewithEpochtime
                0x2001700c       0x90 ./src/sub-systemCode/Global/TLM_management.o
 .text.get_C_FILE_struct
                0x2001709c       0xe4 ./src/sub-systemCode/Global/TLM_management.o
 .text.getFileIndex
                0x20017180       0x84 ./src/sub-systemCode/Global/TLM_management.o
 .text.get_file_name_by_index
                0x20017204       0x44 ./src/sub-systemCode/Global/TLM_management.o
                0x20017204                get_file_name_by_index
 .text.c_fileReset
                0x20017248       0xd0 ./src/sub-systemCode/Global/TLM_management.o
                0x20017248                c_fileReset
 .text.c_fileWrite
                0x20017318      0x154 ./src/sub-systemCode/Global/TLM_management.o
                0x20017318                c_fileWrite
 .text.deleteElementsFromFile
                0x2001746c      0x1a0 ./src/sub-systemCode/Global/TLM_management.o
 .text.c_fileDeleteElements
                0x2001760c      0x158 ./src/sub-systemCode/Global/TLM_management.o
                0x2001760c                c_fileDeleteElements
 .text.c_fileRead
                0x20017764      0x3a8 ./src/sub-systemCode/Global/TLM_management.o
                0x20017764                c_fileRead
 .text.DeInitializeFS
                0x20017b0c       0x30 ./src/sub-systemCode/Global/TLM_management.o
                0x20017b0c                DeInitializeFS
 .text.xSemaphoreGive_extended
                0x20017b3c       0x48 ./src/sub-systemCode/Global/freertosExtended.o
                0x20017b3c                xSemaphoreGive_extended
 .text.xSemaphoreTake_extended
                0x20017b84       0x54 ./src/sub-systemCode/Global/freertosExtended.o
                0x20017b84                xSemaphoreTake_extended
 .text.WriteLog
                0x20017bd8       0xa8 ./src/sub-systemCode/Global/logger.o
 .text.WriteErrorLog
                0x20017c80       0x64 ./src/sub-systemCode/Global/logger.o
                0x20017c80                WriteErrorLog
 .text.WriteResetLog
                0x20017ce4       0x54 ./src/sub-systemCode/Global/logger.o
                0x20017ce4                WriteResetLog
 .text.WritePayloadLog
                0x20017d38       0x50 ./src/sub-systemCode/Global/logger.o
                0x20017d38                WritePayloadLog
 .text.WriteEpsLog
                0x20017d88       0x4c ./src/sub-systemCode/Global/logger.o
                0x20017d88                WriteEpsLog
 .text.WriteTransponderLog
                0x20017dd4       0x50 ./src/sub-systemCode/Global/logger.o
                0x20017dd4                WriteTransponderLog
 .text.WriteAdcsLog
                0x20017e24       0x50 ./src/sub-systemCode/Global/logger.o
                0x20017e24                WriteAdcsLog
 .text.WriteCUFLog
                0x20017e74       0x50 ./src/sub-systemCode/Global/logger.o
                0x20017e74                WriteCUFLog
 .text.CUFTestFunction
                0x20017ec4       0x48 ./src/sub-systemCode/CUF/CUF.o
                0x20017ec4                CUFTestFunction
 .text.CUFTestFunction2
                0x20017f0c       0x28 ./src/sub-systemCode/CUF/CUF.o
                0x20017f0c                CUFTestFunction2
 .text.castCharPointerToInt
                0x20017f34       0x84 ./src/sub-systemCode/CUF/CUF.o
                0x20017f34                castCharPointerToInt
 .text.castCharArrayToIntArray
                0x20017fb8       0xa4 ./src/sub-systemCode/CUF/CUF.o
                0x20017fb8                castCharArrayToIntArray
 .text.SavePerminantCUF
                0x2001805c      0x1b0 ./src/sub-systemCode/CUF/CUF.o
                0x2001805c                SavePerminantCUF
 .text.LoadPerminantCUF
                0x2001820c      0x1ac ./src/sub-systemCode/CUF/CUF.o
                0x2001820c                LoadPerminantCUF
 .text.CheckResetThreashold
                0x200183b8      0x160 ./src/sub-systemCode/CUF/CUF.o
                0x200183b8                CheckResetThreashold
 .text.CUFManageRestart
                0x20018518      0x1d0 ./src/sub-systemCode/CUF/CUF.o
                0x20018518                CUFManageRestart
 .text.InitCUF  0x200186e8      0x12c ./src/sub-systemCode/CUF/CUF.o
                0x200186e8                InitCUF
 .text.CUFSwitch
                0x20018814       0x30 ./src/sub-systemCode/CUF/CUF.o
                0x20018814                CUFSwitch
 .text.GenerateSSH
                0x20018844       0xb8 ./src/sub-systemCode/CUF/CUF.o
                0x20018844                GenerateSSH
 .text.getExtendedName
                0x200188fc       0xc4 ./src/sub-systemCode/CUF/CUF.o
                0x200188fc                getExtendedName
 .text.AuthenticateCUF
                0x200189c0       0x84 ./src/sub-systemCode/CUF/CUF.o
                0x200189c0                AuthenticateCUF
 .text.UpdatePerminantCUF
                0x20018a44       0x94 ./src/sub-systemCode/CUF/CUF.o
                0x20018a44                UpdatePerminantCUF
 .text.RemoveCUF
                0x20018ad8      0x1c0 ./src/sub-systemCode/CUF/CUF.o
                0x20018ad8                RemoveCUF
 .text.ExecuteCUF
                0x20018c98       0xd4 ./src/sub-systemCode/CUF/CUF.o
                0x20018c98                ExecuteCUF
 .text.IntegrateCUF
                0x20018d6c      0x170 ./src/sub-systemCode/CUF/CUF.o
                0x20018d6c                IntegrateCUF
 .text.AddToCUFTempArray
                0x20018edc       0xa0 ./src/sub-systemCode/CUF/CUF.o
                0x20018edc                AddToCUFTempArray
 .text.GetFromCUFTempArray
                0x20018f7c       0xe0 ./src/sub-systemCode/CUF/CUF.o
                0x20018f7c                GetFromCUFTempArray
 .text.DisableCUF
                0x2001905c       0xb0 ./src/sub-systemCode/CUF/CUF.o
                0x2001905c                DisableCUF
 .text.EnableCUF
                0x2001910c       0xb0 ./src/sub-systemCode/CUF/CUF.o
                0x2001910c                EnableCUF
 .text.CUFTest  0x200191bc      0x12c ./src/sub-systemCode/CUF/CUF.o
                0x200191bc                CUFTest
 .text.funcsPointerToArr
                0x200192e8     0x35c0 ./src/sub-systemCode/CUF/CUF.o
                0x200192e8                funcsPointerToArr
 .text.initializeUpload
                0x2001c8a8       0x94 ./src/sub-systemCode/CUF/uploadCodeTelemetry.o
                0x2001c8a8                initializeUpload
 .text.removeFiles
                0x2001c93c      0x16c ./src/sub-systemCode/CUF/uploadCodeTelemetry.o
                0x2001c93c                removeFiles
 .text.loadBackup
                0x2001caa8      0x144 ./src/sub-systemCode/CUF/uploadCodeTelemetry.o
                0x2001caa8                loadBackup
 .text.addToArray
                0x2001cbec       0xcc ./src/sub-systemCode/CUF/uploadCodeTelemetry.o
                0x2001cbec                addToArray
 .text.headerHandle
                0x2001ccb8       0xb8 ./src/sub-systemCode/CUF/uploadCodeTelemetry.o
                0x2001ccb8                headerHandle
 .text.startCUFintegration
                0x2001cd70      0x134 ./src/sub-systemCode/CUF/uploadCodeTelemetry.o
                0x2001cd70                startCUFintegration
 .text.saveBackup
                0x2001cea4       0xfc ./src/sub-systemCode/CUF/uploadCodeTelemetry.o
                0x2001cea4                saveBackup
 .text.saveAck  0x2001cfa0       0x1c ./src/sub-systemCode/CUF/uploadCodeTelemetry.o
                0x2001cfa0                saveAck
 .text.reset_APRS_list
                0x2001cfbc       0x20 ./src/sub-systemCode/COMM/APRS.o
                0x2001cfbc                reset_APRS_list
 .text.send_APRS_Dump
                0x2001cfdc       0x20 ./src/sub-systemCode/COMM/APRS.o
                0x2001cfdc                send_APRS_Dump
 .text.check_APRS
                0x2001cffc       0x24 ./src/sub-systemCode/COMM/APRS.o
                0x2001cffc                check_APRS
 .text.get_APRS_list
                0x2001d020       0x18 ./src/sub-systemCode/COMM/APRS.o
                0x2001d020                get_APRS_list
 .text.find_CMD_in_list
                0x2001d038       0x7c ./src/sub-systemCode/COMM/DelayedCommand_list.o
                0x2001d038                find_CMD_in_list
 .text.find_empty_in_list
                0x2001d0b4       0x74 ./src/sub-systemCode/COMM/DelayedCommand_list.o
                0x2001d0b4                find_empty_in_list
 .text.check_delayCommandTime
                0x2001d128       0xa8 ./src/sub-systemCode/COMM/DelayedCommand_list.o
                0x2001d128                check_delayCommandTime
 .text.execute_delayedCommand
                0x2001d1d0       0x64 ./src/sub-systemCode/COMM/DelayedCommand_list.o
                0x2001d1d0                execute_delayedCommand
 .text.check_delaycommand
                0x2001d234      0x1e0 ./src/sub-systemCode/COMM/DelayedCommand_list.o
                0x2001d234                check_delaycommand
 .text.reset_delayCommand
                0x2001d414       0xc0 ./src/sub-systemCode/COMM/DelayedCommand_list.o
                0x2001d414                reset_delayCommand
 .text.add_delayCommand
                0x2001d4d4      0x24c ./src/sub-systemCode/COMM/DelayedCommand_list.o
                0x2001d4d4                add_delayCommand
 .text.get_delayCommand_list
                0x2001d720       0xd0 ./src/sub-systemCode/COMM/DelayedCommand_list.o
                0x2001d720                get_delayCommand_list
 .text.EmptyOldestCommand
                0x2001d7f0       0xfc ./src/sub-systemCode/COMM/DelayedCommand_list.o
                0x2001d7f0                EmptyOldestCommand
 .text.decode_TCpacket
                0x2001d8ec      0x16c ./src/sub-systemCode/COMM/GSC.o
                0x2001d8ec                decode_TCpacket
 .text.encode_TCpacket
                0x2001da58      0x114 ./src/sub-systemCode/COMM/GSC.o
                0x2001da58                encode_TCpacket
 .text.decode_TMpacket
                0x2001db6c       0xfc ./src/sub-systemCode/COMM/GSC.o
                0x2001db6c                decode_TMpacket
 .text.encode_TMpacket
                0x2001dc68      0x104 ./src/sub-systemCode/COMM/GSC.o
                0x2001dc68                encode_TMpacket
 .text.build_raw_ACK
                0x2001dd6c       0xbc ./src/sub-systemCode/COMM/GSC.o
                0x2001dd6c                build_raw_ACK
 .text.build_data_field_ACK
                0x2001de28       0x74 ./src/sub-systemCode/COMM/GSC.o
                0x2001de28                build_data_field_ACK
 .text.print_TM_spl_packet
                0x2001de9c       0xdc ./src/sub-systemCode/COMM/GSC.o
                0x2001de9c                print_TM_spl_packet
 .text.update_FRAM_bitRate
                0x2001df78       0xf8 ./src/sub-systemCode/COMM/TRXVU.o
                0x2001df78                update_FRAM_bitRate
 .text.idle_state_
                0x2001e070       0x78 ./src/sub-systemCode/COMM/TRXVU.o
                0x2001e070                idle_state_
 .text.toggle_idle_state
                0x2001e0e8       0x64 ./src/sub-systemCode/COMM/TRXVU.o
                0x2001e0e8                toggle_idle_state
 .text.TRXVU_init_hardWare
                0x2001e14c       0xc8 ./src/sub-systemCode/COMM/TRXVU.o
                0x2001e14c                TRXVU_init_hardWare
 .text.TRXVU_init_softWare
                0x2001e214      0x124 ./src/sub-systemCode/COMM/TRXVU.o
                0x2001e214                TRXVU_init_softWare
 .text.init_trxvu
                0x2001e338       0x14 ./src/sub-systemCode/COMM/TRXVU.o
                0x2001e338                init_trxvu
 .text.TRXVU_task
                0x2001e34c       0xb8 ./src/sub-systemCode/COMM/TRXVU.o
                0x2001e34c                TRXVU_task
 .text.dump_logic
                0x2001e404      0x3b8 ./src/sub-systemCode/COMM/TRXVU.o
                0x2001e404                dump_logic
 .text.Dump_task
                0x2001e7bc      0x1d4 ./src/sub-systemCode/COMM/TRXVU.o
                0x2001e7bc                Dump_task
 .text.transponder_logic
                0x2001e990      0x128 ./src/sub-systemCode/COMM/TRXVU.o
                0x2001e990                transponder_logic
 .text.Transponder_task
                0x2001eab8      0x1b0 ./src/sub-systemCode/COMM/TRXVU.o
                0x2001eab8                Transponder_task
 .text.lookForRequestToDelete_transponder
                0x2001ec68       0x8c ./src/sub-systemCode/COMM/TRXVU.o
                0x2001ec68                lookForRequestToDelete_transponder
 .text.lookForRequestToDelete_dump
                0x2001ecf4       0x88 ./src/sub-systemCode/COMM/TRXVU.o
                0x2001ecf4                lookForRequestToDelete_dump
 .text.sendRequestToStop_dump
                0x2001ed7c       0x8c ./src/sub-systemCode/COMM/TRXVU.o
                0x2001ed7c                sendRequestToStop_dump
 .text.sendRequestToStop_transponder
                0x2001ee08       0x8c ./src/sub-systemCode/COMM/TRXVU.o
                0x2001ee08                sendRequestToStop_transponder
 .text.Rx_logic
                0x2001ee94      0x1d4 ./src/sub-systemCode/COMM/TRXVU.o
                0x2001ee94                Rx_logic
 .text.pass_above_Ground
                0x2001f068      0x15c ./src/sub-systemCode/COMM/TRXVU.o
                0x2001f068                pass_above_Ground
 .text.check_TRXVUState
                0x2001f1c4      0x18c ./src/sub-systemCode/COMM/TRXVU.o
                0x2001f1c4                check_TRXVUState
 .text.trxvu_logic
                0x2001f350       0x20 ./src/sub-systemCode/COMM/TRXVU.o
                0x2001f350                trxvu_logic
 .text.Beacon_task
                0x2001f370      0x188 ./src/sub-systemCode/COMM/TRXVU.o
                0x2001f370                Beacon_task
 .text.buildAndSend_beacon
                0x2001f4f8      0x5c0 ./src/sub-systemCode/COMM/TRXVU.o
                0x2001f4f8                buildAndSend_beacon
 .text.reset_FRAM_TRXVU
                0x2001fab8      0x204 ./src/sub-systemCode/COMM/TRXVU.o
                0x2001fab8                reset_FRAM_TRXVU
 .text.TRX_sendFrame
                0x2001fcbc      0x1bc ./src/sub-systemCode/COMM/TRXVU.o
                0x2001fcbc                TRX_sendFrame
 .text.TRX_sendFrame_alt
                0x2001fe78      0x168 ./src/sub-systemCode/COMM/TRXVU.o
 .text.TRX_getFrameData
                0x2001ffe0      0x144 ./src/sub-systemCode/COMM/TRXVU.o
                0x2001ffe0                TRX_getFrameData
 .text.mute_Tx  0x20020124       0x64 ./src/sub-systemCode/COMM/TRXVU.o
                0x20020124                mute_Tx
 .text.unmute_Tx
                0x20020188       0x58 ./src/sub-systemCode/COMM/TRXVU.o
                0x20020188                unmute_Tx
 .text.check_time_off_mute
                0x200201e0       0xc4 ./src/sub-systemCode/COMM/TRXVU.o
                0x200201e0                check_time_off_mute
 .text.set_mute_time
                0x200202a4      0x100 ./src/sub-systemCode/COMM/TRXVU.o
                0x200202a4                set_mute_time
 .text.check_Tx_temp
                0x200203a4       0xc0 ./src/sub-systemCode/COMM/TRXVU.o
                0x200203a4                check_Tx_temp
 .text.change_TRXVU_state
                0x20020464      0x114 ./src/sub-systemCode/COMM/TRXVU.o
                0x20020464                change_TRXVU_state
 .text.change_trans_RSSI
                0x20020578       0x7c ./src/sub-systemCode/COMM/TRXVU.o
                0x20020578                change_trans_RSSI
 .text.AdcsReadI2cAck
                0x200205f4       0xfc ./src/sub-systemCode/ADCS/AdcsCommands.o
                0x200205f4                AdcsReadI2cAck
 .text.AdcsGenericI2cCmd
                0x200206f0      0x1b4 ./src/sub-systemCode/ADCS/AdcsCommands.o
                0x200206f0                AdcsGenericI2cCmd
 .text.SendAdcsTlm
                0x200208a4      0x14c ./src/sub-systemCode/ADCS/AdcsCommands.o
                0x200208a4                SendAdcsTlm
 .text.AdcsExecuteCommand
                0x200209f0     0x1bd0 ./src/sub-systemCode/ADCS/AdcsCommands.o
                0x200209f0                AdcsExecuteCommand
 .text.cspaceADCS_getEstimatedAngles
                0x200225c0       0x98 ./src/sub-systemCode/ADCS/AdcsGetDataAndTlm.o
                0x200225c0                cspaceADCS_getEstimatedAngles
 .text.cspaceADCS_getEstimatedAnglesRates
                0x20022658       0x98 ./src/sub-systemCode/ADCS/AdcsGetDataAndTlm.o
                0x20022658                cspaceADCS_getEstimatedAnglesRates
 .text.cspaceADCS_getSatellitePosition
                0x200226f0       0x98 ./src/sub-systemCode/ADCS/AdcsGetDataAndTlm.o
                0x200226f0                cspaceADCS_getSatellitePosition
 .text.InitTlmElements
                0x20022788      0x234 ./src/sub-systemCode/ADCS/AdcsGetDataAndTlm.o
                0x20022788                InitTlmElements
 .text.CreateTlmElementFiles
                0x200229bc      0x178 ./src/sub-systemCode/ADCS/AdcsGetDataAndTlm.o
                0x200229bc                CreateTlmElementFiles
 .text.SaveElementTlmAtIndex
                0x20022b34      0x4b0 ./src/sub-systemCode/ADCS/AdcsGetDataAndTlm.o
                0x20022b34                SaveElementTlmAtIndex
 .text.AdcsGetMeasAngSpeed
                0x20022fe4       0x54 ./src/sub-systemCode/ADCS/AdcsGetDataAndTlm.o
                0x20022fe4                AdcsGetMeasAngSpeed
 .text.AdcsGetCssVector
                0x20023038       0x70 ./src/sub-systemCode/ADCS/AdcsGetDataAndTlm.o
                0x20023038                AdcsGetCssVector
 .text.AdcsGetEstAngles
                0x200230a8       0x5c ./src/sub-systemCode/ADCS/AdcsGetDataAndTlm.o
                0x200230a8                AdcsGetEstAngles
 .text.UpdateTlmElementAtIndex
                0x20023104      0x184 ./src/sub-systemCode/ADCS/AdcsGetDataAndTlm.o
                0x20023104                UpdateTlmElementAtIndex
 .text.UpdateTlmToSaveVector
                0x20023288       0xd0 ./src/sub-systemCode/ADCS/AdcsGetDataAndTlm.o
                0x20023288                UpdateTlmToSaveVector
 .text.GetTlmToSaveVector
                0x20023358       0x94 ./src/sub-systemCode/ADCS/AdcsGetDataAndTlm.o
                0x20023358                GetTlmToSaveVector
 .text.UpdateTlmPeriodVector
                0x200233ec      0x12c ./src/sub-systemCode/ADCS/AdcsGetDataAndTlm.o
                0x200233ec                UpdateTlmPeriodVector
 .text.GetTlmPeriodVector
                0x20023518       0x9c ./src/sub-systemCode/ADCS/AdcsGetDataAndTlm.o
                0x20023518                GetTlmPeriodVector
 .text.GetOperationgFlags
                0x200235b4       0x9c ./src/sub-systemCode/ADCS/AdcsGetDataAndTlm.o
                0x200235b4                GetOperationgFlags
 .text.GetLastSaveTimes
                0x20023650       0xc4 ./src/sub-systemCode/ADCS/AdcsGetDataAndTlm.o
                0x20023650                GetLastSaveTimes
 .text.AdcsGetTlmOverrideFlag
                0x20023714       0x68 ./src/sub-systemCode/ADCS/AdcsGetDataAndTlm.o
                0x20023714                AdcsGetTlmOverrideFlag
 .text.AdcsSetTlmOverrideFlag
                0x2002377c       0xa8 ./src/sub-systemCode/ADCS/AdcsGetDataAndTlm.o
                0x2002377c                AdcsSetTlmOverrideFlag
 .text.RestoreDefaultTlmElement
                0x20023824      0x1f8 ./src/sub-systemCode/ADCS/AdcsGetDataAndTlm.o
                0x20023824                RestoreDefaultTlmElement
 .text.GetTlmElementAtIndex
                0x20023a1c       0x80 ./src/sub-systemCode/ADCS/AdcsGetDataAndTlm.o
                0x20023a1c                GetTlmElementAtIndex
 .text.GatherTlmAndData
                0x20023a9c       0xe0 ./src/sub-systemCode/ADCS/AdcsGetDataAndTlm.o
                0x20023a9c                GatherTlmAndData
 .text.UpdateAdcsFramParameters
                0x20023b7c      0x11c ./src/sub-systemCode/ADCS/AdcsMain.o
                0x20023b7c                UpdateAdcsFramParameters
 .text.AdcsInit
                0x20023c98      0x1e8 ./src/sub-systemCode/ADCS/AdcsMain.o
                0x20023c98                AdcsInit
 .text.AdcsTask
                0x20023e80      0x198 ./src/sub-systemCode/ADCS/AdcsMain.o
                0x20023e80                AdcsTask
 .text.AdcsTroubleShooting
                0x20024018       0x88 ./src/sub-systemCode/ADCS/AdcsTroubleShooting.o
                0x20024018                AdcsTroubleShooting
 .text.InitStateMachine
                0x200240a0       0x1c ./src/sub-systemCode/ADCS/StateMachine.o
                0x200240a0                InitStateMachine
 .text.UpdateAdcsStateMachine
                0x200240bc       0x1c ./src/sub-systemCode/ADCS/StateMachine.o
                0x200240bc                UpdateAdcsStateMachine
 .text.save_time
                0x200240d8       0x9c ./src/main.o
                0x200240d8                save_time
 .text.Command_logic
                0x20024174       0x6c ./src/main.o
                0x20024174                Command_logic
 .text.taskMain
                0x200241e0       0x60 ./src/main.o
                0x200241e0                taskMain
 .text.main     0x20024240       0x70 ./src/main.o
                0x20024240                main
 .text.GomEpsInitialize
                0x200242b0      0x148 C:/ISIS/workspace/HOOPOE3/satellite-subsystems/demo/..//satellite-subsystems/lib\libSatelliteSubsystemsD.a(GomEPS.o)
                0x200242b0                GomEpsInitialize
 .text.makeEPStransfer
                0x200243f8       0x3c C:/ISIS/workspace/HOOPOE3/satellite-subsystems/demo/..//satellite-subsystems/lib\libSatelliteSubsystemsD.a(GomEPS.o)
 .text.GomEpsPing
                0x20024434       0xf8 C:/ISIS/workspace/HOOPOE3/satellite-subsystems/demo/..//satellite-subsystems/lib\libSatelliteSubsystemsD.a(GomEPS.o)
                0x20024434                GomEpsPing
 .text.GomEpsSoftReset
                0x2002452c       0xc4 C:/ISIS/workspace/HOOPOE3/satellite-subsystems/demo/..//satellite-subsystems/lib\libSatelliteSubsystemsD.a(GomEPS.o)
                0x2002452c                GomEpsSoftReset
 .text.GomEpsHardReset
                0x200245f0       0xa8 C:/ISIS/workspace/HOOPOE3/satellite-subsystems/demo/..//satellite-subsystems/lib\libSatelliteSubsystemsD.a(GomEPS.o)
                0x200245f0                GomEpsHardReset
 .text.GomEpsGetHkData_param
                0x20024698      0x29c C:/ISIS/workspace/HOOPOE3/satellite-subsystems/demo/..//satellite-subsystems/lib\libSatelliteSubsystemsD.a(GomEPS.o)
                0x20024698                GomEpsGetHkData_param
 .text.GomEpsGetHkData_general
                0x20024934      0x45c C:/ISIS/workspace/HOOPOE3/satellite-subsystems/demo/..//satellite-subsystems/lib\libSatelliteSubsystemsD.a(GomEPS.o)
                0x20024934                GomEpsGetHkData_general
 .text.GomEpsGetHkData_vi
                0x20024d90      0x188 C:/ISIS/workspace/HOOPOE3/satellite-subsystems/demo/..//satellite-subsystems/lib\libSatelliteSubsystemsD.a(GomEPS.o)
                0x20024d90                GomEpsGetHkData_vi
 .text.GomEpsGetHkData_out
                0x20024f18      0x21c C:/ISIS/workspace/HOOPOE3/satellite-subsystems/demo/..//satellite-subsystems/lib\libSatelliteSubsystemsD.a(GomEPS.o)
                0x20024f18                GomEpsGetHkData_out
 .text.GomEpsGetHkData_wdt
                0x20025134      0x2b4 C:/ISIS/workspace/HOOPOE3/satellite-subsystems/demo/..//satellite-subsystems/lib\libSatelliteSubsystemsD.a(GomEPS.o)
                0x20025134                GomEpsGetHkData_wdt
 .text.GomEpsGetHkData_basic
                0x200253e8      0x22c C:/ISIS/workspace/HOOPOE3/satellite-subsystems/demo/..//satellite-subsystems/lib\libSatelliteSubsystemsD.a(GomEPS.o)
                0x200253e8                GomEpsGetHkData_basic
 .text.GomEpsSetOutput
                0x20025614       0xbc C:/ISIS/workspace/HOOPOE3/satellite-subsystems/demo/..//satellite-subsystems/lib\libSatelliteSubsystemsD.a(GomEPS.o)
                0x20025614                GomEpsSetOutput
 .text.GomEpsSetSingleOutput
                0x200256d0       0xe4 C:/ISIS/workspace/HOOPOE3/satellite-subsystems/demo/..//satellite-subsystems/lib\libSatelliteSubsystemsD.a(GomEPS.o)
                0x200256d0                GomEpsSetSingleOutput
 .text.GomEpsSetPhotovoltaicInputs
                0x200257b4      0x11c C:/ISIS/workspace/HOOPOE3/satellite-subsystems/demo/..//satellite-subsystems/lib\libSatelliteSubsystemsD.a(GomEPS.o)
                0x200257b4                GomEpsSetPhotovoltaicInputs
 .text.GomEpsSetPptMode
                0x200258d0       0xc0 C:/ISIS/workspace/HOOPOE3/satellite-subsystems/demo/..//satellite-subsystems/lib\libSatelliteSubsystemsD.a(GomEPS.o)
                0x200258d0                GomEpsSetPptMode
 .text.GomEpsSetHeaterAutoMode
                0x20025990       0xe8 C:/ISIS/workspace/HOOPOE3/satellite-subsystems/demo/..//satellite-subsystems/lib\libSatelliteSubsystemsD.a(GomEPS.o)
                0x20025990                GomEpsSetHeaterAutoMode
 .text.GomEpsResetCounters
                0x20025a78       0xc4 C:/ISIS/workspace/HOOPOE3/satellite-subsystems/demo/..//satellite-subsystems/lib\libSatelliteSubsystemsD.a(GomEPS.o)
                0x20025a78                GomEpsResetCounters
 .text.GomEpsResetWDT
                0x20025b3c       0xc4 C:/ISIS/workspace/HOOPOE3/satellite-subsystems/demo/..//satellite-subsystems/lib\libSatelliteSubsystemsD.a(GomEPS.o)
                0x20025b3c                GomEpsResetWDT
 .text.GomEpsConfigCMD
                0x20025c00       0xb8 C:/ISIS/workspace/HOOPOE3/satellite-subsystems/demo/..//satellite-subsystems/lib\libSatelliteSubsystemsD.a(GomEPS.o)
                0x20025c00                GomEpsConfigCMD
 .text.GomEpsConfigGet
                0x20025cb8      0x16c C:/ISIS/workspace/HOOPOE3/satellite-subsystems/demo/..//satellite-subsystems/lib\libSatelliteSubsystemsD.a(GomEPS.o)
                0x20025cb8                GomEpsConfigGet
 .text.GomEpsConfigSet
                0x20025e24      0x184 C:/ISIS/workspace/HOOPOE3/satellite-subsystems/demo/..//satellite-subsystems/lib\libSatelliteSubsystemsD.a(GomEPS.o)
                0x20025e24                GomEpsConfigSet
 .text.GomEpsConfig2CMD
                0x20025fa8       0xb8 C:/ISIS/workspace/HOOPOE3/satellite-subsystems/demo/..//satellite-subsystems/lib\libSatelliteSubsystemsD.a(GomEPS.o)
                0x20025fa8                GomEpsConfig2CMD
 .text.GomEpsConfig2Get
                0x20026060      0x16c C:/ISIS/workspace/HOOPOE3/satellite-subsystems/demo/..//satellite-subsystems/lib\libSatelliteSubsystemsD.a(GomEPS.o)
                0x20026060                GomEpsConfig2Get
 .text.GomEpsConfig2Set
                0x200261cc      0x184 C:/ISIS/workspace/HOOPOE3/satellite-subsystems/demo/..//satellite-subsystems/lib\libSatelliteSubsystemsD.a(GomEPS.o)
                0x200261cc                GomEpsConfig2Set
 .text.makeAntStransfer
                0x20026350       0x4c C:/ISIS/workspace/HOOPOE3/satellite-subsystems/demo/..//satellite-subsystems/lib\libSatelliteSubsystemsD.a(IsisAntS.o)
 .text.checkInputsValid
                0x2002639c       0x7c C:/ISIS/workspace/HOOPOE3/satellite-subsystems/demo/..//satellite-subsystems/lib\libSatelliteSubsystemsD.a(IsisAntS.o)
 .text.IsisAntS_initialize
                0x20026418      0x26c C:/ISIS/workspace/HOOPOE3/satellite-subsystems/demo/..//satellite-subsystems/lib\libSatelliteSubsystemsD.a(IsisAntS.o)
                0x20026418                IsisAntS_initialize
 .text.IsisAntS_setArmStatus
                0x20026684      0x104 C:/ISIS/workspace/HOOPOE3/satellite-subsystems/demo/..//satellite-subsystems/lib\libSatelliteSubsystemsD.a(IsisAntS.o)
                0x20026684                IsisAntS_setArmStatus
 .text.IsisAntS_attemptDeployment
                0x20026788      0x168 C:/ISIS/workspace/HOOPOE3/satellite-subsystems/demo/..//satellite-subsystems/lib\libSatelliteSubsystemsD.a(IsisAntS.o)
                0x20026788                IsisAntS_attemptDeployment
 .text.IsisAntS_getStatusData
                0x200268f0      0x120 C:/ISIS/workspace/HOOPOE3/satellite-subsystems/demo/..//satellite-subsystems/lib\libSatelliteSubsystemsD.a(IsisAntS.o)
                0x200268f0                IsisAntS_getStatusData
 .text.IsisAntS_getTemperature
                0x20026a10      0x120 C:/ISIS/workspace/HOOPOE3/satellite-subsystems/demo/..//satellite-subsystems/lib\libSatelliteSubsystemsD.a(IsisAntS.o)
                0x20026a10                IsisAntS_getTemperature
 .text.IsisAntS_getUptime
                0x20026b30      0x120 C:/ISIS/workspace/HOOPOE3/satellite-subsystems/demo/..//satellite-subsystems/lib\libSatelliteSubsystemsD.a(IsisAntS.o)
                0x20026b30                IsisAntS_getUptime
 .text.IsisAntS_getAlltelemetry
                0x20026c50      0x120 C:/ISIS/workspace/HOOPOE3/satellite-subsystems/demo/..//satellite-subsystems/lib\libSatelliteSubsystemsD.a(IsisAntS.o)
                0x20026c50                IsisAntS_getAlltelemetry
 .text.IsisAntS_getActivationCount
                0x20026d70      0x138 C:/ISIS/workspace/HOOPOE3/satellite-subsystems/demo/..//satellite-subsystems/lib\libSatelliteSubsystemsD.a(IsisAntS.o)
                0x20026d70                IsisAntS_getActivationCount
 .text.IsisAntS_getActivationTime
                0x20026ea8      0x138 C:/ISIS/workspace/HOOPOE3/satellite-subsystems/demo/..//satellite-subsystems/lib\libSatelliteSubsystemsD.a(IsisAntS.o)
                0x20026ea8                IsisAntS_getActivationTime
 .text.IsisAntS_reset
                0x20026fe0      0x104 C:/ISIS/workspace/HOOPOE3/satellite-subsystems/demo/..//satellite-subsystems/lib\libSatelliteSubsystemsD.a(IsisAntS.o)
                0x20026fe0                IsisAntS_reset
 .text.IsisAntS_cancelDeployment
                0x200270e4      0x104 C:/ISIS/workspace/HOOPOE3/satellite-subsystems/demo/..//satellite-subsystems/lib\libSatelliteSubsystemsD.a(IsisAntS.o)
                0x200270e4                IsisAntS_cancelDeployment
 .text.IsisAntS_autoDeployment
                0x200271e8      0x114 C:/ISIS/workspace/HOOPOE3/satellite-subsystems/demo/..//satellite-subsystems/lib\libSatelliteSubsystemsD.a(IsisAntS.o)
                0x200271e8                IsisAntS_autoDeployment
 .text._make_IsisEPStransfer
                0x200272fc       0x3c C:/ISIS/workspace/HOOPOE3/satellite-subsystems/demo/..//satellite-subsystems/lib\libSatelliteSubsystemsD.a(IsisEPS.o)
 .text.IsisEPS_initialize
                0x20027338      0x18c C:/ISIS/workspace/HOOPOE3/satellite-subsystems/demo/..//satellite-subsystems/lib\libSatelliteSubsystemsD.a(IsisEPS.o)
                0x20027338                IsisEPS_initialize
 .text.IsisEPS_hardReset
                0x200274c4       0xc8 C:/ISIS/workspace/HOOPOE3/satellite-subsystems/demo/..//satellite-subsystems/lib\libSatelliteSubsystemsD.a(IsisEPS.o)
                0x200274c4                IsisEPS_hardReset
 .text.IsisEPS_noOperation
                0x2002758c       0xac C:/ISIS/workspace/HOOPOE3/satellite-subsystems/demo/..//satellite-subsystems/lib\libSatelliteSubsystemsD.a(IsisEPS.o)
                0x2002758c                IsisEPS_noOperation
 .text.IsisEPS_cancelOperation
                0x20027638       0xac C:/ISIS/workspace/HOOPOE3/satellite-subsystems/demo/..//satellite-subsystems/lib\libSatelliteSubsystemsD.a(IsisEPS.o)
                0x20027638                IsisEPS_cancelOperation
 .text.IsisEPS_resetWDT
                0x200276e4       0xac C:/ISIS/workspace/HOOPOE3/satellite-subsystems/demo/..//satellite-subsystems/lib\libSatelliteSubsystemsD.a(IsisEPS.o)
                0x200276e4                IsisEPS_resetWDT
 .text.IsisEPS_outputBusGroupOn
                0x20027790       0xc4 C:/ISIS/workspace/HOOPOE3/satellite-subsystems/demo/..//satellite-subsystems/lib\libSatelliteSubsystemsD.a(IsisEPS.o)
                0x20027790                IsisEPS_outputBusGroupOn
 .text.IsisEPS_outputBusGroupOff
                0x20027854       0xc4 C:/ISIS/workspace/HOOPOE3/satellite-subsystems/demo/..//satellite-subsystems/lib\libSatelliteSubsystemsD.a(IsisEPS.o)
                0x20027854                IsisEPS_outputBusGroupOff
 .text.IsisEPS_outputBusGroupState
                0x20027918       0xc4 C:/ISIS/workspace/HOOPOE3/satellite-subsystems/demo/..//satellite-subsystems/lib\libSatelliteSubsystemsD.a(IsisEPS.o)
                0x20027918                IsisEPS_outputBusGroupState
 .text.IsisEPS_outputBus3v3On
                0x200279dc       0xbc C:/ISIS/workspace/HOOPOE3/satellite-subsystems/demo/..//satellite-subsystems/lib\libSatelliteSubsystemsD.a(IsisEPS.o)
                0x200279dc                IsisEPS_outputBus3v3On
 .text.IsisEPS_outputBus3v3Off
                0x20027a98       0xbc C:/ISIS/workspace/HOOPOE3/satellite-subsystems/demo/..//satellite-subsystems/lib\libSatelliteSubsystemsD.a(IsisEPS.o)
                0x20027a98                IsisEPS_outputBus3v3Off
 .text.IsisEPS_outputBus5vOn
                0x20027b54       0xbc C:/ISIS/workspace/HOOPOE3/satellite-subsystems/demo/..//satellite-subsystems/lib\libSatelliteSubsystemsD.a(IsisEPS.o)
                0x20027b54                IsisEPS_outputBus5vOn
 .text.IsisEPS_outputBus5vOff
                0x20027c10       0xbc C:/ISIS/workspace/HOOPOE3/satellite-subsystems/demo/..//satellite-subsystems/lib\libSatelliteSubsystemsD.a(IsisEPS.o)
                0x20027c10                IsisEPS_outputBus5vOff
 .text.IsisEPS_outputBusHvOn
                0x20027ccc       0xbc C:/ISIS/workspace/HOOPOE3/satellite-subsystems/demo/..//satellite-subsystems/lib\libSatelliteSubsystemsD.a(IsisEPS.o)
                0x20027ccc                IsisEPS_outputBusHvOn
 .text.IsisEPS_outputBusHvOff
                0x20027d88       0xbc C:/ISIS/workspace/HOOPOE3/satellite-subsystems/demo/..//satellite-subsystems/lib\libSatelliteSubsystemsD.a(IsisEPS.o)
                0x20027d88                IsisEPS_outputBusHvOff
 .text.IsisEPS_getSystemState
                0x20027e44      0x138 C:/ISIS/workspace/HOOPOE3/satellite-subsystems/demo/..//satellite-subsystems/lib\libSatelliteSubsystemsD.a(IsisEPS.o)
                0x20027e44                IsisEPS_getSystemState
 .text.IsisEPS_getRawHKDataMB
                0x20027f7c       0xf8 C:/ISIS/workspace/HOOPOE3/satellite-subsystems/demo/..//satellite-subsystems/lib\libSatelliteSubsystemsD.a(IsisEPS.o)
                0x20027f7c                IsisEPS_getRawHKDataMB
 .text.IsisEPS_getEngHKDataMB
                0x20028074       0xf8 C:/ISIS/workspace/HOOPOE3/satellite-subsystems/demo/..//satellite-subsystems/lib\libSatelliteSubsystemsD.a(IsisEPS.o)
                0x20028074                IsisEPS_getEngHKDataMB
 .text.IsisEPS_getRAEngHKDataMB
                0x2002816c       0xf8 C:/ISIS/workspace/HOOPOE3/satellite-subsystems/demo/..//satellite-subsystems/lib\libSatelliteSubsystemsD.a(IsisEPS.o)
                0x2002816c                IsisEPS_getRAEngHKDataMB
 .text.IsisEPS_getRawHKDataCDB
                0x20028264      0x154 C:/ISIS/workspace/HOOPOE3/satellite-subsystems/demo/..//satellite-subsystems/lib\libSatelliteSubsystemsD.a(IsisEPS.o)
                0x20028264                IsisEPS_getRawHKDataCDB
 .text.IsisEPS_getEngHKDataCDB
                0x200283b8      0x154 C:/ISIS/workspace/HOOPOE3/satellite-subsystems/demo/..//satellite-subsystems/lib\libSatelliteSubsystemsD.a(IsisEPS.o)
                0x200283b8                IsisEPS_getEngHKDataCDB
 .text.IsisEPS_getRAEngHKDataCDB
                0x2002850c      0x154 C:/ISIS/workspace/HOOPOE3/satellite-subsystems/demo/..//satellite-subsystems/lib\libSatelliteSubsystemsD.a(IsisEPS.o)
                0x2002850c                IsisEPS_getRAEngHKDataCDB
 .text.IsisEPS_getLOState3V3
                0x20028660      0x12c C:/ISIS/workspace/HOOPOE3/satellite-subsystems/demo/..//satellite-subsystems/lib\libSatelliteSubsystemsD.a(IsisEPS.o)
                0x20028660                IsisEPS_getLOState3V3
 .text.IsisEPS_getLOState5V
                0x2002878c      0x12c C:/ISIS/workspace/HOOPOE3/satellite-subsystems/demo/..//satellite-subsystems/lib\libSatelliteSubsystemsD.a(IsisEPS.o)
                0x2002878c                IsisEPS_getLOState5V
 .text.IsisEPS_getLOStateBV
                0x200288b8      0x12c C:/ISIS/workspace/HOOPOE3/satellite-subsystems/demo/..//satellite-subsystems/lib\libSatelliteSubsystemsD.a(IsisEPS.o)
                0x200288b8                IsisEPS_getLOStateBV
 .text.IsisEPS_getLOStateHV
                0x200289e4      0x12c C:/ISIS/workspace/HOOPOE3/satellite-subsystems/demo/..//satellite-subsystems/lib\libSatelliteSubsystemsD.a(IsisEPS.o)
                0x200289e4                IsisEPS_getLOStateHV
 .text.IsisEPS_getParSize
                0x20028b10      0x124 C:/ISIS/workspace/HOOPOE3/satellite-subsystems/demo/..//satellite-subsystems/lib\libSatelliteSubsystemsD.a(IsisEPS.o)
                0x20028b10                IsisEPS_getParSize
 .text.IsisEPS_getParameter
                0x20028c34      0x238 C:/ISIS/workspace/HOOPOE3/satellite-subsystems/demo/..//satellite-subsystems/lib\libSatelliteSubsystemsD.a(IsisEPS.o)
                0x20028c34                IsisEPS_getParameter
 .text.IsisEPS_setParameter
                0x20028e6c      0x264 C:/ISIS/workspace/HOOPOE3/satellite-subsystems/demo/..//satellite-subsystems/lib\libSatelliteSubsystemsD.a(IsisEPS.o)
                0x20028e6c                IsisEPS_setParameter
 .text.IsisEPS_resetParameter
                0x200290d0      0x238 C:/ISIS/workspace/HOOPOE3/satellite-subsystems/demo/..//satellite-subsystems/lib\libSatelliteSubsystemsD.a(IsisEPS.o)
                0x200290d0                IsisEPS_resetParameter
 .text.IsisEPS_resetConfig
                0x20029308       0xf4 C:/ISIS/workspace/HOOPOE3/satellite-subsystems/demo/..//satellite-subsystems/lib\libSatelliteSubsystemsD.a(IsisEPS.o)
                0x20029308                IsisEPS_resetConfig
 .text.IsisEPS_loadConfig
                0x200293fc       0xf4 C:/ISIS/workspace/HOOPOE3/satellite-subsystems/demo/..//satellite-subsystems/lib\libSatelliteSubsystemsD.a(IsisEPS.o)
                0x200293fc                IsisEPS_loadConfig
 .text.IsisEPS_saveConfig
                0x200294f0      0x118 C:/ISIS/workspace/HOOPOE3/satellite-subsystems/demo/..//satellite-subsystems/lib\libSatelliteSubsystemsD.a(IsisEPS.o)
                0x200294f0                IsisEPS_saveConfig
 .text.isisMTQv1_initialize
                0x20029608      0x18c C:/ISIS/workspace/HOOPOE3/satellite-subsystems/demo/..//satellite-subsystems/lib\libSatelliteSubsystemsD.a(IsisMTQv1.o)
                0x20029608                isisMTQv1_initialize
 .text.make_isisMTQtransfer
                0x20029794       0x3c C:/ISIS/workspace/HOOPOE3/satellite-subsystems/demo/..//satellite-subsystems/lib\libSatelliteSubsystemsD.a(IsisMTQv1.o)
 .text.IsisMTQv1SetResolution
                0x200297d0       0xb8 C:/ISIS/workspace/HOOPOE3/satellite-subsystems/demo/..//satellite-subsystems/lib\libSatelliteSubsystemsD.a(IsisMTQv1.o)
                0x200297d0                IsisMTQv1SetResolution
 .text.IsisMTQv1GetTemperature
                0x20029888       0xac C:/ISIS/workspace/HOOPOE3/satellite-subsystems/demo/..//satellite-subsystems/lib\libSatelliteSubsystemsD.a(IsisMTQv1.o)
                0x20029888                IsisMTQv1GetTemperature
 .text.IsisMTQv2_initialize
                0x20029934      0x18c C:/ISIS/workspace/HOOPOE3/satellite-subsystems/demo/..//satellite-subsystems/lib\libSatelliteSubsystemsD.a(IsisMTQv2.o)
                0x20029934                IsisMTQv2_initialize
 .text._make_isisMTQtransfer
                0x20029ac0       0x3c C:/ISIS/workspace/HOOPOE3/satellite-subsystems/demo/..//satellite-subsystems/lib\libSatelliteSubsystemsD.a(IsisMTQv2.o)
 .text.IsisMTQv2_softReset
                0x20029afc       0xc8 C:/ISIS/workspace/HOOPOE3/satellite-subsystems/demo/..//satellite-subsystems/lib\libSatelliteSubsystemsD.a(IsisMTQv2.o)
                0x20029afc                IsisMTQv2_softReset
 .text.IsisMTQv2_noOperation
                0x20029bc4       0xac C:/ISIS/workspace/HOOPOE3/satellite-subsystems/demo/..//satellite-subsystems/lib\libSatelliteSubsystemsD.a(IsisMTQv2.o)
                0x20029bc4                IsisMTQv2_noOperation
 .text.IsisMTQv2_cancelOperation
                0x20029c70       0xac C:/ISIS/workspace/HOOPOE3/satellite-subsystems/demo/..//satellite-subsystems/lib\libSatelliteSubsystemsD.a(IsisMTQv2.o)
                0x20029c70                IsisMTQv2_cancelOperation
 .text.IsisMTQv2_startMTMMeasurement
                0x20029d1c       0xac C:/ISIS/workspace/HOOPOE3/satellite-subsystems/demo/..//satellite-subsystems/lib\libSatelliteSubsystemsD.a(IsisMTQv2.o)
                0x20029d1c                IsisMTQv2_startMTMMeasurement
 .text.IsisMTQv2_startMTQActuationCurrent
                0x20029dc8       0xdc C:/ISIS/workspace/HOOPOE3/satellite-subsystems/demo/..//satellite-subsystems/lib\libSatelliteSubsystemsD.a(IsisMTQv2.o)
                0x20029dc8                IsisMTQv2_startMTQActuationCurrent
 .text.IsisMTQv2_startMTQActuationDipole
                0x20029ea4       0xdc C:/ISIS/workspace/HOOPOE3/satellite-subsystems/demo/..//satellite-subsystems/lib\libSatelliteSubsystemsD.a(IsisMTQv2.o)
                0x20029ea4                IsisMTQv2_startMTQActuationDipole
 .text.IsisMTQv2_startMTQActuationPWM
                0x20029f80       0xdc C:/ISIS/workspace/HOOPOE3/satellite-subsystems/demo/..//satellite-subsystems/lib\libSatelliteSubsystemsD.a(IsisMTQv2.o)
                0x20029f80                IsisMTQv2_startMTQActuationPWM
 .text.IsisMTQv2_startSelfTest
                0x2002a05c       0xbc C:/ISIS/workspace/HOOPOE3/satellite-subsystems/demo/..//satellite-subsystems/lib\libSatelliteSubsystemsD.a(IsisMTQv2.o)
                0x2002a05c                IsisMTQv2_startSelfTest
 .text.IsisMTQv2_startDetumble
                0x2002a118       0xd4 C:/ISIS/workspace/HOOPOE3/satellite-subsystems/demo/..//satellite-subsystems/lib\libSatelliteSubsystemsD.a(IsisMTQv2.o)
                0x2002a118                IsisMTQv2_startDetumble
 .text.IsisMTQv2_getSystemState
                0x2002a1ec      0x118 C:/ISIS/workspace/HOOPOE3/satellite-subsystems/demo/..//satellite-subsystems/lib\libSatelliteSubsystemsD.a(IsisMTQv2.o)
                0x2002a1ec                IsisMTQv2_getSystemState
 .text.IsisMTQv2_getRawMTMData
                0x2002a304      0x130 C:/ISIS/workspace/HOOPOE3/satellite-subsystems/demo/..//satellite-subsystems/lib\libSatelliteSubsystemsD.a(IsisMTQv2.o)
                0x2002a304                IsisMTQv2_getRawMTMData
 .text.IsisMTQv2_getCalMTMData
                0x2002a434      0x130 C:/ISIS/workspace/HOOPOE3/satellite-subsystems/demo/..//satellite-subsystems/lib\libSatelliteSubsystemsD.a(IsisMTQv2.o)
                0x2002a434                IsisMTQv2_getCalMTMData
 .text.IsisMTQv2_getCoilCurrent
                0x2002a564      0x100 C:/ISIS/workspace/HOOPOE3/satellite-subsystems/demo/..//satellite-subsystems/lib\libSatelliteSubsystemsD.a(IsisMTQv2.o)
                0x2002a564                IsisMTQv2_getCoilCurrent
 .text.IsisSolarPanelv2_initialize
                0x2002a664       0xb4 C:/ISIS/workspace/HOOPOE3/satellite-subsystems/demo/..//satellite-subsystems/lib\libSatelliteSubsystemsD.a(IsisSolarPanelv2.o)
                0x2002a664                IsisSolarPanelv2_initialize
 .text.IsisSolarPanelv2_getTemperature
                0x2002a718       0xc8 C:/ISIS/workspace/HOOPOE3/satellite-subsystems/demo/..//satellite-subsystems/lib\libSatelliteSubsystemsD.a(IsisSolarPanelv2.o)
                0x2002a718                IsisSolarPanelv2_getTemperature
 .text.IsisSolarPanelv2_sleep
                0x2002a7e0       0xbc C:/ISIS/workspace/HOOPOE3/satellite-subsystems/demo/..//satellite-subsystems/lib\libSatelliteSubsystemsD.a(IsisSolarPanelv2.o)
                0x2002a7e0                IsisSolarPanelv2_sleep
 .text.IsisSolarPanelv2_wakeup
                0x2002a89c       0x80 C:/ISIS/workspace/HOOPOE3/satellite-subsystems/demo/..//satellite-subsystems/lib\libSatelliteSubsystemsD.a(IsisSolarPanelv2.o)
                0x2002a89c                IsisSolarPanelv2_wakeup
 .text._Reset   0x2002a91c       0x20 C:/ISIS/workspace/HOOPOE3/satellite-subsystems/demo/..//satellite-subsystems/lib\libSatelliteSubsystemsD.a(IsisSolarPanelv2.o)
 .text._WaitForStartup
                0x2002a93c       0x90 C:/ISIS/workspace/HOOPOE3/satellite-subsystems/demo/..//satellite-subsystems/lib\libSatelliteSubsystemsD.a(IsisSolarPanelv2.o)
 .text._AssignAllChannels
                0x2002a9cc       0x90 C:/ISIS/workspace/HOOPOE3/satellite-subsystems/demo/..//satellite-subsystems/lib\libSatelliteSubsystemsD.a(IsisSolarPanelv2.o)
 .text._AssignThisChannel
                0x2002aa5c       0xe8 C:/ISIS/workspace/HOOPOE3/satellite-subsystems/demo/..//satellite-subsystems/lib\libSatelliteSubsystemsD.a(IsisSolarPanelv2.o)
 .text._InitiateConversion
                0x2002ab44       0xac C:/ISIS/workspace/HOOPOE3/satellite-subsystems/demo/..//satellite-subsystems/lib\libSatelliteSubsystemsD.a(IsisSolarPanelv2.o)
 .text._WaitForConversionComplete
                0x2002abf0      0x100 C:/ISIS/workspace/HOOPOE3/satellite-subsystems/demo/..//satellite-subsystems/lib\libSatelliteSubsystemsD.a(IsisSolarPanelv2.o)
 .text._ReadResult
                0x2002acf0      0x158 C:/ISIS/workspace/HOOPOE3/satellite-subsystems/demo/..//satellite-subsystems/lib\libSatelliteSubsystemsD.a(IsisSolarPanelv2.o)
 .text._ExtractByte
                0x2002ae48       0x38 C:/ISIS/workspace/HOOPOE3/satellite-subsystems/demo/..//satellite-subsystems/lib\libSatelliteSubsystemsD.a(IsisSolarPanelv2.o)
 .text._ExtendSign
                0x2002ae80       0x6c C:/ISIS/workspace/HOOPOE3/satellite-subsystems/demo/..//satellite-subsystems/lib\libSatelliteSubsystemsD.a(IsisSolarPanelv2.o)
 .text._PinsInit
                0x2002aeec       0x50 C:/ISIS/workspace/HOOPOE3/satellite-subsystems/demo/..//satellite-subsystems/lib\libSatelliteSubsystemsD.a(IsisSolarPanelv2.o)
 .text._SpiWriteRead
                0x2002af3c       0x70 C:/ISIS/workspace/HOOPOE3/satellite-subsystems/demo/..//satellite-subsystems/lib\libSatelliteSubsystemsD.a(IsisSolarPanelv2.o)
 .text.IsisTrxvu_initialize
                0x2002afac      0x2f4 C:/ISIS/workspace/HOOPOE3/satellite-subsystems/demo/..//satellite-subsystems/lib\libSatelliteSubsystemsD.a(IsisTRXVU.o)
                0x2002afac                IsisTrxvu_initialize
 .text.makeTRXVUtransfer
                0x2002b2a0       0x44 C:/ISIS/workspace/HOOPOE3/satellite-subsystems/demo/..//satellite-subsystems/lib\libSatelliteSubsystemsD.a(IsisTRXVU.o)
 .text.IsisTrxvu_componentSoftReset
                0x2002b2e4       0x6c C:/ISIS/workspace/HOOPOE3/satellite-subsystems/demo/..//satellite-subsystems/lib\libSatelliteSubsystemsD.a(IsisTRXVU.o)
                0x2002b2e4                IsisTrxvu_componentSoftReset
 .text.IsisTrxvu_componentHardReset
                0x2002b350       0xc8 C:/ISIS/workspace/HOOPOE3/satellite-subsystems/demo/..//satellite-subsystems/lib\libSatelliteSubsystemsD.a(IsisTRXVU.o)
                0x2002b350                IsisTrxvu_componentHardReset
 .text.IsisTrxvu_softReset
                0x2002b418       0x74 C:/ISIS/workspace/HOOPOE3/satellite-subsystems/demo/..//satellite-subsystems/lib\libSatelliteSubsystemsD.a(IsisTRXVU.o)
                0x2002b418                IsisTrxvu_softReset
 .text.IsisTrxvu_hardReset
                0x2002b48c       0x74 C:/ISIS/workspace/HOOPOE3/satellite-subsystems/demo/..//satellite-subsystems/lib\libSatelliteSubsystemsD.a(IsisTRXVU.o)
                0x2002b48c                IsisTrxvu_hardReset
 .text.IsisTrxvu_tcSendAX25DefClSign
                0x2002b500       0xec C:/ISIS/workspace/HOOPOE3/satellite-subsystems/demo/..//satellite-subsystems/lib\libSatelliteSubsystemsD.a(IsisTRXVU.o)
                0x2002b500                IsisTrxvu_tcSendAX25DefClSign
 .text.IsisTrxvu_tcSetIdlestate
                0x2002b5ec       0xa4 C:/ISIS/workspace/HOOPOE3/satellite-subsystems/demo/..//satellite-subsystems/lib\libSatelliteSubsystemsD.a(IsisTRXVU.o)
                0x2002b5ec                IsisTrxvu_tcSetIdlestate
 .text.IsisTrxvu_tcSetAx25Bitrate
                0x2002b690       0xc4 C:/ISIS/workspace/HOOPOE3/satellite-subsystems/demo/..//satellite-subsystems/lib\libSatelliteSubsystemsD.a(IsisTRXVU.o)
                0x2002b690                IsisTrxvu_tcSetAx25Bitrate
 .text.IsisTrxvu_tcGetState
                0x2002b754       0xd0 C:/ISIS/workspace/HOOPOE3/satellite-subsystems/demo/..//satellite-subsystems/lib\libSatelliteSubsystemsD.a(IsisTRXVU.o)
                0x2002b754                IsisTrxvu_tcGetState
 .text.IsisTrxvu_tcGetTelemetryAll
                0x2002b824       0xd0 C:/ISIS/workspace/HOOPOE3/satellite-subsystems/demo/..//satellite-subsystems/lib\libSatelliteSubsystemsD.a(IsisTRXVU.o)
                0x2002b824                IsisTrxvu_tcGetTelemetryAll
 .text.IsisTrxvu_tcGetTelemetryAll_revC
                0x2002b8f4       0xd0 C:/ISIS/workspace/HOOPOE3/satellite-subsystems/demo/..//satellite-subsystems/lib\libSatelliteSubsystemsD.a(IsisTRXVU.o)
                0x2002b8f4                IsisTrxvu_tcGetTelemetryAll_revC
 .text.IsisTrxvu_rcGetFrameCount
                0x2002b9c4       0xa0 C:/ISIS/workspace/HOOPOE3/satellite-subsystems/demo/..//satellite-subsystems/lib\libSatelliteSubsystemsD.a(IsisTRXVU.o)
                0x2002b9c4                IsisTrxvu_rcGetFrameCount
 .text.IsisTrxvu_rcGetCommandFrame
                0x2002ba64      0x2d8 C:/ISIS/workspace/HOOPOE3/satellite-subsystems/demo/..//satellite-subsystems/lib\libSatelliteSubsystemsD.a(IsisTRXVU.o)
                0x2002ba64                IsisTrxvu_rcGetCommandFrame
 .text.IsisTrxvu_rcGetTelemetryAll
                0x2002bd3c       0xd0 C:/ISIS/workspace/HOOPOE3/satellite-subsystems/demo/..//satellite-subsystems/lib\libSatelliteSubsystemsD.a(IsisTRXVU.o)
                0x2002bd3c                IsisTrxvu_rcGetTelemetryAll
 .text.IsisTrxvu_rcGetTelemetryAll_revC
                0x2002be0c       0xec C:/ISIS/workspace/HOOPOE3/satellite-subsystems/demo/..//satellite-subsystems/lib\libSatelliteSubsystemsD.a(IsisTRXVU.o)
                0x2002be0c                IsisTrxvu_rcGetTelemetryAll_revC
 .text.cspaceADCS_initialize
                0x2002bef8      0x18c C:/ISIS/workspace/HOOPOE3/satellite-subsystems/demo/..//satellite-subsystems/lib\libSatelliteSubsystemsD.a(cspaceADCS.o)
                0x2002bef8                cspaceADCS_initialize
 .text.make_cspaceADCStransfer
                0x2002c084      0x1b4 C:/ISIS/workspace/HOOPOE3/satellite-subsystems/demo/..//satellite-subsystems/lib\libSatelliteSubsystemsD.a(cspaceADCS.o)
 .text.cspaceADCS_componentReset
                0x2002c238       0xbc C:/ISIS/workspace/HOOPOE3/satellite-subsystems/demo/..//satellite-subsystems/lib\libSatelliteSubsystemsD.a(cspaceADCS.o)
                0x2002c238                cspaceADCS_componentReset
 .text.cspaceADCS_setCurrentTime
                0x2002c2f4       0xd0 C:/ISIS/workspace/HOOPOE3/satellite-subsystems/demo/..//satellite-subsystems/lib\libSatelliteSubsystemsD.a(cspaceADCS.o)
                0x2002c2f4                cspaceADCS_setCurrentTime
 .text.cspaceADCS_cacheStateADCS
                0x2002c3c4       0xd0 C:/ISIS/workspace/HOOPOE3/satellite-subsystems/demo/..//satellite-subsystems/lib\libSatelliteSubsystemsD.a(cspaceADCS.o)
                0x2002c3c4                cspaceADCS_cacheStateADCS
 .text.cspaceADCS_deployMagBoomADCS
                0x2002c494       0xbc C:/ISIS/workspace/HOOPOE3/satellite-subsystems/demo/..//satellite-subsystems/lib\libSatelliteSubsystemsD.a(cspaceADCS.o)
                0x2002c494                cspaceADCS_deployMagBoomADCS
 .text.cspaceADCS_setRunMode
                0x2002c550       0xbc C:/ISIS/workspace/HOOPOE3/satellite-subsystems/demo/..//satellite-subsystems/lib\libSatelliteSubsystemsD.a(cspaceADCS.o)
                0x2002c550                cspaceADCS_setRunMode
 .text.cspaceADCS_setPwrCtrlDevice
                0x2002c60c       0xd0 C:/ISIS/workspace/HOOPOE3/satellite-subsystems/demo/..//satellite-subsystems/lib\libSatelliteSubsystemsD.a(cspaceADCS.o)
                0x2002c60c                cspaceADCS_setPwrCtrlDevice
 .text.cspaceADCS_clearErrors
                0x2002c6dc       0xb8 C:/ISIS/workspace/HOOPOE3/satellite-subsystems/demo/..//satellite-subsystems/lib\libSatelliteSubsystemsD.a(cspaceADCS.o)
                0x2002c6dc                cspaceADCS_clearErrors
 .text.cspaceADCS_setAttCtrlMode
                0x2002c794       0xd0 C:/ISIS/workspace/HOOPOE3/satellite-subsystems/demo/..//satellite-subsystems/lib\libSatelliteSubsystemsD.a(cspaceADCS.o)
                0x2002c794                cspaceADCS_setAttCtrlMode
 .text.cspaceADCS_setAttEstMode
                0x2002c864       0xbc C:/ISIS/workspace/HOOPOE3/satellite-subsystems/demo/..//satellite-subsystems/lib\libSatelliteSubsystemsD.a(cspaceADCS.o)
                0x2002c864                cspaceADCS_setAttEstMode
 .text.cspaceADCS_setMagOutput
                0x2002c920       0xd0 C:/ISIS/workspace/HOOPOE3/satellite-subsystems/demo/..//satellite-subsystems/lib\libSatelliteSubsystemsD.a(cspaceADCS.o)
                0x2002c920                cspaceADCS_setMagOutput
 .text.cspaceADCS_setWheelSpeed
                0x2002c9f0       0xd0 C:/ISIS/workspace/HOOPOE3/satellite-subsystems/demo/..//satellite-subsystems/lib\libSatelliteSubsystemsD.a(cspaceADCS.o)
                0x2002c9f0                cspaceADCS_setWheelSpeed
 .text.cspaceADCS_setCam1SensorConfig
                0x2002cac0       0xd0 C:/ISIS/workspace/HOOPOE3/satellite-subsystems/demo/..//satellite-subsystems/lib\libSatelliteSubsystemsD.a(cspaceADCS.o)
                0x2002cac0                cspaceADCS_setCam1SensorConfig
 .text.cspaceADCS_setCam2SensorConfig
                0x2002cb90       0xd0 C:/ISIS/workspace/HOOPOE3/satellite-subsystems/demo/..//satellite-subsystems/lib\libSatelliteSubsystemsD.a(cspaceADCS.o)
                0x2002cb90                cspaceADCS_setCam2SensorConfig
 .text.cspaceADCS_setMagMountConfig
                0x2002cc60       0xd0 C:/ISIS/workspace/HOOPOE3/satellite-subsystems/demo/..//satellite-subsystems/lib\libSatelliteSubsystemsD.a(cspaceADCS.o)
                0x2002cc60                cspaceADCS_setMagMountConfig
 .text.cspaceADCS_setMagOffsetScalingConfig
                0x2002cd30       0xd0 C:/ISIS/workspace/HOOPOE3/satellite-subsystems/demo/..//satellite-subsystems/lib\libSatelliteSubsystemsD.a(cspaceADCS.o)
                0x2002cd30                cspaceADCS_setMagOffsetScalingConfig
 .text.cspaceADCS_setMagSensConfig
                0x2002ce00       0xd0 C:/ISIS/workspace/HOOPOE3/satellite-subsystems/demo/..//satellite-subsystems/lib\libSatelliteSubsystemsD.a(cspaceADCS.o)
                0x2002ce00                cspaceADCS_setMagSensConfig
 .text.cspaceADCS_setRateSensorConfig
                0x2002ced0       0xd0 C:/ISIS/workspace/HOOPOE3/satellite-subsystems/demo/..//satellite-subsystems/lib\libSatelliteSubsystemsD.a(cspaceADCS.o)
                0x2002ced0                cspaceADCS_setRateSensorConfig
 .text.cspaceADCS_setStarTrackerConfig
                0x2002cfa0       0xd0 C:/ISIS/workspace/HOOPOE3/satellite-subsystems/demo/..//satellite-subsystems/lib\libSatelliteSubsystemsD.a(cspaceADCS.o)
                0x2002cfa0                cspaceADCS_setStarTrackerConfig
 .text.cspaceADCS_setEstimationParam1
                0x2002d070       0xd0 C:/ISIS/workspace/HOOPOE3/satellite-subsystems/demo/..//satellite-subsystems/lib\libSatelliteSubsystemsD.a(cspaceADCS.o)
                0x2002d070                cspaceADCS_setEstimationParam1
 .text.cspaceADCS_setEstimationParam2
                0x2002d140       0xd0 C:/ISIS/workspace/HOOPOE3/satellite-subsystems/demo/..//satellite-subsystems/lib\libSatelliteSubsystemsD.a(cspaceADCS.o)
                0x2002d140                cspaceADCS_setEstimationParam2
 .text.cspaceADCS_setSGP4OrbitParameters
                0x2002d210       0xcc C:/ISIS/workspace/HOOPOE3/satellite-subsystems/demo/..//satellite-subsystems/lib\libSatelliteSubsystemsD.a(cspaceADCS.o)
                0x2002d210                cspaceADCS_setSGP4OrbitParameters
 .text.cspaceADCS_setMagnetometerMode
                0x2002d2dc       0xb8 C:/ISIS/workspace/HOOPOE3/satellite-subsystems/demo/..//satellite-subsystems/lib\libSatelliteSubsystemsD.a(cspaceADCS.o)
                0x2002d2dc                cspaceADCS_setMagnetometerMode
 .text.cspaceADCS_saveConfig
                0x2002d394       0xac C:/ISIS/workspace/HOOPOE3/satellite-subsystems/demo/..//satellite-subsystems/lib\libSatelliteSubsystemsD.a(cspaceADCS.o)
                0x2002d394                cspaceADCS_saveConfig
 .text.cspaceADCS_saveOrbitParam
                0x2002d440       0xac C:/ISIS/workspace/HOOPOE3/satellite-subsystems/demo/..//satellite-subsystems/lib\libSatelliteSubsystemsD.a(cspaceADCS.o)
                0x2002d440                cspaceADCS_saveOrbitParam
 .text.cspaceADCS_saveImage
                0x2002d4ec       0xd8 C:/ISIS/workspace/HOOPOE3/satellite-subsystems/demo/..//satellite-subsystems/lib\libSatelliteSubsystemsD.a(cspaceADCS.o)
                0x2002d4ec                cspaceADCS_saveImage
 .text.cspaceADCS_BLSetBootIndex
                0x2002d5c4      0x124 C:/ISIS/workspace/HOOPOE3/satellite-subsystems/demo/..//satellite-subsystems/lib\libSatelliteSubsystemsD.a(cspaceADCS.o)
                0x2002d5c4                cspaceADCS_BLSetBootIndex
 .text.cspaceADCS_BLRunSelectedProgram
                0x2002d6e8      0x114 C:/ISIS/workspace/HOOPOE3/satellite-subsystems/demo/..//satellite-subsystems/lib\libSatelliteSubsystemsD.a(cspaceADCS.o)
                0x2002d6e8                cspaceADCS_BLRunSelectedProgram
 .text.cspaceADCS_getGeneralInfo
                0x2002d7fc       0xc4 C:/ISIS/workspace/HOOPOE3/satellite-subsystems/demo/..//satellite-subsystems/lib\libSatelliteSubsystemsD.a(cspaceADCS.o)
                0x2002d7fc                cspaceADCS_getGeneralInfo
 .text.cspaceADCS_getBootProgramInfo
                0x2002d8c0       0xc4 C:/ISIS/workspace/HOOPOE3/satellite-subsystems/demo/..//satellite-subsystems/lib\libSatelliteSubsystemsD.a(cspaceADCS.o)
                0x2002d8c0                cspaceADCS_getBootProgramInfo
 .text.cspaceADCS_getSRAMLatchupCounters
                0x2002d984       0xc4 C:/ISIS/workspace/HOOPOE3/satellite-subsystems/demo/..//satellite-subsystems/lib\libSatelliteSubsystemsD.a(cspaceADCS.o)
                0x2002d984                cspaceADCS_getSRAMLatchupCounters
 .text.cspaceADCS_getEDACCounters
                0x2002da48       0xc4 C:/ISIS/workspace/HOOPOE3/satellite-subsystems/demo/..//satellite-subsystems/lib\libSatelliteSubsystemsD.a(cspaceADCS.o)
                0x2002da48                cspaceADCS_getEDACCounters
 .text.cspaceADCS_getCurrentTime
                0x2002db0c       0xc4 C:/ISIS/workspace/HOOPOE3/satellite-subsystems/demo/..//satellite-subsystems/lib\libSatelliteSubsystemsD.a(cspaceADCS.o)
                0x2002db0c                cspaceADCS_getCurrentTime
 .text.cspaceADCS_getCommStatus
                0x2002dbd0       0xc4 C:/ISIS/workspace/HOOPOE3/satellite-subsystems/demo/..//satellite-subsystems/lib\libSatelliteSubsystemsD.a(cspaceADCS.o)
                0x2002dbd0                cspaceADCS_getCommStatus
 .text.cspaceADCS_getCurrentState
                0x2002dc94       0xc4 C:/ISIS/workspace/HOOPOE3/satellite-subsystems/demo/..//satellite-subsystems/lib\libSatelliteSubsystemsD.a(cspaceADCS.o)
                0x2002dc94                cspaceADCS_getCurrentState
 .text.cspaceADCS_getMagneticFieldVec
                0x2002dd58       0xc4 C:/ISIS/workspace/HOOPOE3/satellite-subsystems/demo/..//satellite-subsystems/lib\libSatelliteSubsystemsD.a(cspaceADCS.o)
                0x2002dd58                cspaceADCS_getMagneticFieldVec
 .text.cspaceADCS_getCoarseSunVec
                0x2002de1c       0xc4 C:/ISIS/workspace/HOOPOE3/satellite-subsystems/demo/..//satellite-subsystems/lib\libSatelliteSubsystemsD.a(cspaceADCS.o)
                0x2002de1c                cspaceADCS_getCoarseSunVec
 .text.cspaceADCS_getFineSunVec
                0x2002dee0       0xc4 C:/ISIS/workspace/HOOPOE3/satellite-subsystems/demo/..//satellite-subsystems/lib\libSatelliteSubsystemsD.a(cspaceADCS.o)
                0x2002dee0                cspaceADCS_getFineSunVec
 .text.cspaceADCS_getNadirVector
                0x2002dfa4       0xc4 C:/ISIS/workspace/HOOPOE3/satellite-subsystems/demo/..//satellite-subsystems/lib\libSatelliteSubsystemsD.a(cspaceADCS.o)
                0x2002dfa4                cspaceADCS_getNadirVector
 .text.cspaceADCS_getSensorRates
                0x2002e068       0xc4 C:/ISIS/workspace/HOOPOE3/satellite-subsystems/demo/..//satellite-subsystems/lib\libSatelliteSubsystemsD.a(cspaceADCS.o)
                0x2002e068                cspaceADCS_getSensorRates
 .text.cspaceADCS_getWheelSpeed
                0x2002e12c       0xc4 C:/ISIS/workspace/HOOPOE3/satellite-subsystems/demo/..//satellite-subsystems/lib\libSatelliteSubsystemsD.a(cspaceADCS.o)
                0x2002e12c                cspaceADCS_getWheelSpeed
 .text.cspaceADCS_getMagnetorquerCmd
                0x2002e1f0       0xc4 C:/ISIS/workspace/HOOPOE3/satellite-subsystems/demo/..//satellite-subsystems/lib\libSatelliteSubsystemsD.a(cspaceADCS.o)
                0x2002e1f0                cspaceADCS_getMagnetorquerCmd
 .text.cspaceADCS_getWheelSpeedCmd
                0x2002e2b4       0xc4 C:/ISIS/workspace/HOOPOE3/satellite-subsystems/demo/..//satellite-subsystems/lib\libSatelliteSubsystemsD.a(cspaceADCS.o)
                0x2002e2b4                cspaceADCS_getWheelSpeedCmd
 .text.cspaceADCS_getRawCam2Sensor
                0x2002e378       0xc4 C:/ISIS/workspace/HOOPOE3/satellite-subsystems/demo/..//satellite-subsystems/lib\libSatelliteSubsystemsD.a(cspaceADCS.o)
                0x2002e378                cspaceADCS_getRawCam2Sensor
 .text.cspaceADCS_getRawCam1Sensor
                0x2002e43c       0xc4 C:/ISIS/workspace/HOOPOE3/satellite-subsystems/demo/..//satellite-subsystems/lib\libSatelliteSubsystemsD.a(cspaceADCS.o)
                0x2002e43c                cspaceADCS_getRawCam1Sensor
 .text.cspaceADCS_getRawCss1_6Measurements
                0x2002e500       0xc4 C:/ISIS/workspace/HOOPOE3/satellite-subsystems/demo/..//satellite-subsystems/lib\libSatelliteSubsystemsD.a(cspaceADCS.o)
                0x2002e500                cspaceADCS_getRawCss1_6Measurements
 .text.cspaceADCS_getRawCss7_10Measurements
                0x2002e5c4       0xc4 C:/ISIS/workspace/HOOPOE3/satellite-subsystems/demo/..//satellite-subsystems/lib\libSatelliteSubsystemsD.a(cspaceADCS.o)
                0x2002e5c4                cspaceADCS_getRawCss7_10Measurements
 .text.cspaceADCS_getRawMagnetometerMeas
                0x2002e688       0xc4 C:/ISIS/workspace/HOOPOE3/satellite-subsystems/demo/..//satellite-subsystems/lib\libSatelliteSubsystemsD.a(cspaceADCS.o)
                0x2002e688                cspaceADCS_getRawMagnetometerMeas
 .text.cspaceADCS_getCSenseCurrentMeasurements
                0x2002e74c       0xc4 C:/ISIS/workspace/HOOPOE3/satellite-subsystems/demo/..//satellite-subsystems/lib\libSatelliteSubsystemsD.a(cspaceADCS.o)
                0x2002e74c                cspaceADCS_getCSenseCurrentMeasurements
 .text.cspaceADCS_getCControlCurrentMeasurements
                0x2002e810       0xc4 C:/ISIS/workspace/HOOPOE3/satellite-subsystems/demo/..//satellite-subsystems/lib\libSatelliteSubsystemsD.a(cspaceADCS.o)
                0x2002e810                cspaceADCS_getCControlCurrentMeasurements
 .text.cspaceADCS_getWheelCurrentsTlm
                0x2002e8d4       0xc4 C:/ISIS/workspace/HOOPOE3/satellite-subsystems/demo/..//satellite-subsystems/lib\libSatelliteSubsystemsD.a(cspaceADCS.o)
                0x2002e8d4                cspaceADCS_getWheelCurrentsTlm
 .text.cspaceADCS_getADCSTemperatureTlm
                0x2002e998       0xc4 C:/ISIS/workspace/HOOPOE3/satellite-subsystems/demo/..//satellite-subsystems/lib\libSatelliteSubsystemsD.a(cspaceADCS.o)
                0x2002e998                cspaceADCS_getADCSTemperatureTlm
 .text.cspaceADCS_getRateSensorTempTlm
                0x2002ea5c       0xc4 C:/ISIS/workspace/HOOPOE3/satellite-subsystems/demo/..//satellite-subsystems/lib\libSatelliteSubsystemsD.a(cspaceADCS.o)
                0x2002ea5c                cspaceADCS_getRateSensorTempTlm
 .text.cspaceADCS_getRawGpsStatus
                0x2002eb20       0xc4 C:/ISIS/workspace/HOOPOE3/satellite-subsystems/demo/..//satellite-subsystems/lib\libSatelliteSubsystemsD.a(cspaceADCS.o)
                0x2002eb20                cspaceADCS_getRawGpsStatus
 .text.cspaceADCS_getRawGpsTime
                0x2002ebe4       0xc4 C:/ISIS/workspace/HOOPOE3/satellite-subsystems/demo/..//satellite-subsystems/lib\libSatelliteSubsystemsD.a(cspaceADCS.o)
                0x2002ebe4                cspaceADCS_getRawGpsTime
 .text.cspaceADCS_getRawGpsX
                0x2002eca8       0xc4 C:/ISIS/workspace/HOOPOE3/satellite-subsystems/demo/..//satellite-subsystems/lib\libSatelliteSubsystemsD.a(cspaceADCS.o)
                0x2002eca8                cspaceADCS_getRawGpsX
 .text.cspaceADCS_getRawGpsY
                0x2002ed6c       0xc4 C:/ISIS/workspace/HOOPOE3/satellite-subsystems/demo/..//satellite-subsystems/lib\libSatelliteSubsystemsD.a(cspaceADCS.o)
                0x2002ed6c                cspaceADCS_getRawGpsY
 .text.cspaceADCS_getRawGpsZ
                0x2002ee30       0xc4 C:/ISIS/workspace/HOOPOE3/satellite-subsystems/demo/..//satellite-subsystems/lib\libSatelliteSubsystemsD.a(cspaceADCS.o)
                0x2002ee30                cspaceADCS_getRawGpsZ
 .text.cspaceADCS_getStateTlm
                0x2002eef4       0xc4 C:/ISIS/workspace/HOOPOE3/satellite-subsystems/demo/..//satellite-subsystems/lib\libSatelliteSubsystemsD.a(cspaceADCS.o)
                0x2002eef4                cspaceADCS_getStateTlm
 .text.cspaceADCS_getADCSMeasurements
                0x2002efb8       0xc4 C:/ISIS/workspace/HOOPOE3/satellite-subsystems/demo/..//satellite-subsystems/lib\libSatelliteSubsystemsD.a(cspaceADCS.o)
                0x2002efb8                cspaceADCS_getADCSMeasurements
 .text.cspaceADCS_getActuatorsCmds
                0x2002f07c       0xc4 C:/ISIS/workspace/HOOPOE3/satellite-subsystems/demo/..//satellite-subsystems/lib\libSatelliteSubsystemsD.a(cspaceADCS.o)
                0x2002f07c                cspaceADCS_getActuatorsCmds
 .text.cspaceADCS_getEstimationMetadata
                0x2002f140       0xc4 C:/ISIS/workspace/HOOPOE3/satellite-subsystems/demo/..//satellite-subsystems/lib\libSatelliteSubsystemsD.a(cspaceADCS.o)
                0x2002f140                cspaceADCS_getEstimationMetadata
 .text.cspaceADCS_getStartrackerTLM
                0x2002f204       0xc4 C:/ISIS/workspace/HOOPOE3/satellite-subsystems/demo/..//satellite-subsystems/lib\libSatelliteSubsystemsD.a(cspaceADCS.o)
                0x2002f204                cspaceADCS_getStartrackerTLM
 .text.cspaceADCS_getRawSensorMeasurements
                0x2002f2c8       0xc4 C:/ISIS/workspace/HOOPOE3/satellite-subsystems/demo/..//satellite-subsystems/lib\libSatelliteSubsystemsD.a(cspaceADCS.o)
                0x2002f2c8                cspaceADCS_getRawSensorMeasurements
 .text.cspaceADCS_getPowTempMeasTLM
                0x2002f38c       0xc4 C:/ISIS/workspace/HOOPOE3/satellite-subsystems/demo/..//satellite-subsystems/lib\libSatelliteSubsystemsD.a(cspaceADCS.o)
                0x2002f38c                cspaceADCS_getPowTempMeasTLM
 .text.cspaceADCS_getADCSExcTimes
                0x2002f450       0xc4 C:/ISIS/workspace/HOOPOE3/satellite-subsystems/demo/..//satellite-subsystems/lib\libSatelliteSubsystemsD.a(cspaceADCS.o)
                0x2002f450                cspaceADCS_getADCSExcTimes
 .text.cspaceADCS_getPwrCtrlDevice
                0x2002f514       0xc4 C:/ISIS/workspace/HOOPOE3/satellite-subsystems/demo/..//satellite-subsystems/lib\libSatelliteSubsystemsD.a(cspaceADCS.o)
                0x2002f514                cspaceADCS_getPwrCtrlDevice
 .text.cspaceADCS_getMiscCurrentMeas
                0x2002f5d8       0xc4 C:/ISIS/workspace/HOOPOE3/satellite-subsystems/demo/..//satellite-subsystems/lib\libSatelliteSubsystemsD.a(cspaceADCS.o)
                0x2002f5d8                cspaceADCS_getMiscCurrentMeas
 .text.cspaceADCS_getCommandedAttitudeAngles
                0x2002f69c       0xc4 C:/ISIS/workspace/HOOPOE3/satellite-subsystems/demo/..//satellite-subsystems/lib\libSatelliteSubsystemsD.a(cspaceADCS.o)
                0x2002f69c                cspaceADCS_getCommandedAttitudeAngles
 .text.cspaceADCS_getADCSRawGPSMeas
                0x2002f760       0xc4 C:/ISIS/workspace/HOOPOE3/satellite-subsystems/demo/..//satellite-subsystems/lib\libSatelliteSubsystemsD.a(cspaceADCS.o)
                0x2002f760                cspaceADCS_getADCSRawGPSMeas
 .text.cspaceADCS_getADCRawRedMag
                0x2002f824       0xc4 C:/ISIS/workspace/HOOPOE3/satellite-subsystems/demo/..//satellite-subsystems/lib\libSatelliteSubsystemsD.a(cspaceADCS.o)
                0x2002f824                cspaceADCS_getADCRawRedMag
 .text.cspaceADCS_getACPExecutionState
                0x2002f8e8       0xc4 C:/ISIS/workspace/HOOPOE3/satellite-subsystems/demo/..//satellite-subsystems/lib\libSatelliteSubsystemsD.a(cspaceADCS.o)
                0x2002f8e8                cspaceADCS_getACPExecutionState
 .text.cspaceADCS_getADCSConfiguration
                0x2002f9ac       0xc4 C:/ISIS/workspace/HOOPOE3/satellite-subsystems/demo/..//satellite-subsystems/lib\libSatelliteSubsystemsD.a(cspaceADCS.o)
                0x2002f9ac                cspaceADCS_getADCSConfiguration
 .text.cspaceADCS_getSGP4OrbitParameters
                0x2002fa70       0xc4 C:/ISIS/workspace/HOOPOE3/satellite-subsystems/demo/..//satellite-subsystems/lib\libSatelliteSubsystemsD.a(cspaceADCS.o)
                0x2002fa70                cspaceADCS_getSGP4OrbitParameters
 .text.makeTRXCommonTransfer
                0x2002fb34       0x34 C:/ISIS/workspace/HOOPOE3/satellite-subsystems/demo/..//satellite-subsystems/lib\libSatelliteSubsystemsD.a(IsisTRXCommon.o)
 .text.IsisTrxCommon_componentReset
                0x2002fb68       0x68 C:/ISIS/workspace/HOOPOE3/satellite-subsystems/demo/..//satellite-subsystems/lib\libSatelliteSubsystemsD.a(IsisTRXCommon.o)
                0x2002fb68                IsisTrxCommon_componentReset
 .text.IsisTrxCommon_TxSendAX25DefClSign
                0x2002fbd0       0xf4 C:/ISIS/workspace/HOOPOE3/satellite-subsystems/demo/..//satellite-subsystems/lib\libSatelliteSubsystemsD.a(IsisTRXCommon.o)
                0x2002fbd0                IsisTrxCommon_TxSendAX25DefClSign
 .text.IsisTrxCommon_TxSetIdlestate
                0x2002fcc4       0x78 C:/ISIS/workspace/HOOPOE3/satellite-subsystems/demo/..//satellite-subsystems/lib\libSatelliteSubsystemsD.a(IsisTRXCommon.o)
                0x2002fcc4                IsisTrxCommon_TxSetIdlestate
 .text.IsisTrxCommon_TxSetAx25Bitrate
                0x2002fd3c       0x78 C:/ISIS/workspace/HOOPOE3/satellite-subsystems/demo/..//satellite-subsystems/lib\libSatelliteSubsystemsD.a(IsisTRXCommon.o)
                0x2002fd3c                IsisTrxCommon_TxSetAx25Bitrate
 .text.IsisTrxCommon_RxGetFrameCount
                0x2002fdb4       0x8c C:/ISIS/workspace/HOOPOE3/satellite-subsystems/demo/..//satellite-subsystems/lib\libSatelliteSubsystemsD.a(IsisTRXCommon.o)
                0x2002fdb4                IsisTrxCommon_RxGetFrameCount
 .text.IsisTrxCommon_RxGetTelemetryAll_revC
                0x2002fe40       0x8c C:/ISIS/workspace/HOOPOE3/satellite-subsystems/demo/..//satellite-subsystems/lib\libSatelliteSubsystemsD.a(IsisTRXCommon.o)
                0x2002fe40                IsisTrxCommon_RxGetTelemetryAll_revC
 .text.fn_init  0x2002fecc      0x2e0 C:/ISIS/workspace/HOOPOE3/satellite-subsystems/demo/../..//hal/hcc/lib\libHCCD.a(fat_common.o)
                0x2002fecc                fn_init
 .text.fn_start
                0x200301ac       0x1c C:/ISIS/workspace/HOOPOE3/satellite-subsystems/demo/../..//hal/hcc/lib\libHCCD.a(fat_common.o)
                0x200301ac                fn_start
 .text.fn_stop  0x200301c8       0x1c C:/ISIS/workspace/HOOPOE3/satellite-subsystems/demo/../..//hal/hcc/lib\libHCCD.a(fat_common.o)
                0x200301c8                fn_stop
 .text.fsn_delete
                0x200301e4       0xc8 C:/ISIS/workspace/HOOPOE3/satellite-subsystems/demo/../..//hal/hcc/lib\libHCCD.a(fat_common.o)
                0x200301e4                fsn_delete
 .text._f_get16bitl
                0x200302ac       0x4c C:/ISIS/workspace/HOOPOE3/satellite-subsystems/demo/../..//hal/hcc/lib\libHCCD.a(fat_common.o)
                0x200302ac                _f_get16bitl
 .text._f_set16bitl
                0x200302f8       0x54 C:/ISIS/workspace/HOOPOE3/satellite-subsystems/demo/../..//hal/hcc/lib\libHCCD.a(fat_common.o)
                0x200302f8                _f_set16bitl
 .text._f_get32bitl
                0x2003034c       0x68 C:/ISIS/workspace/HOOPOE3/satellite-subsystems/demo/../..//hal/hcc/lib\libHCCD.a(fat_common.o)
                0x2003034c                _f_get32bitl
 .text._f_set32bitl
                0x200303b4       0x78 C:/ISIS/workspace/HOOPOE3/satellite-subsystems/demo/../..//hal/hcc/lib\libHCCD.a(fat_common.o)
                0x200303b4                _f_set32bitl
 .text._get8bit
                0x2003042c       0xa0 C:/ISIS/workspace/HOOPOE3/satellite-subsystems/demo/../..//hal/hcc/lib\libHCCD.a(fat_common.o)
 .text._get16bitl
                0x200304cc       0x40 C:/ISIS/workspace/HOOPOE3/satellite-subsystems/demo/../..//hal/hcc/lib\libHCCD.a(fat_common.o)
 .text._get32bitl
                0x2003050c       0x3c C:/ISIS/workspace/HOOPOE3/satellite-subsystems/demo/../..//hal/hcc/lib\libHCCD.a(fat_common.o)
 .text._set8bitzero
                0x20030548       0x6c C:/ISIS/workspace/HOOPOE3/satellite-subsystems/demo/../..//hal/hcc/lib\libHCCD.a(fat_common.o)
 .text._set8bit
                0x200305b4       0xa0 C:/ISIS/workspace/HOOPOE3/satellite-subsystems/demo/../..//hal/hcc/lib\libHCCD.a(fat_common.o)
 .text._set16bitl
                0x20030654       0x3c C:/ISIS/workspace/HOOPOE3/satellite-subsystems/demo/../..//hal/hcc/lib\libHCCD.a(fat_common.o)
 .text._set32bitl
                0x20030690       0x34 C:/ISIS/workspace/HOOPOE3/satellite-subsystems/demo/../..//hal/hcc/lib\libHCCD.a(fat_common.o)
 .text._f_setcardremoved
                0x200306c4       0x94 C:/ISIS/workspace/HOOPOE3/satellite-subsystems/demo/../..//hal/hcc/lib\libHCCD.a(fat_common.o)
 .text._f_checkstatus
                0x20030758      0x104 C:/ISIS/workspace/HOOPOE3/satellite-subsystems/demo/../..//hal/hcc/lib\libHCCD.a(fat_common.o)
                0x20030758                _f_checkstatus
 .text._f_drvgetphy
                0x2003085c      0x114 C:/ISIS/workspace/HOOPOE3/satellite-subsystems/demo/../..//hal/hcc/lib\libHCCD.a(fat_common.o)
 .text._f_drvwritesector
                0x20030970       0xdc C:/ISIS/workspace/HOOPOE3/satellite-subsystems/demo/../..//hal/hcc/lib\libHCCD.a(fat_common.o)
 .text._f_drvreadsector
                0x20030a4c       0xa8 C:/ISIS/workspace/HOOPOE3/satellite-subsystems/demo/../..//hal/hcc/lib\libHCCD.a(fat_common.o)
 .text._f_writesector
                0x20030af4      0x23c C:/ISIS/workspace/HOOPOE3/satellite-subsystems/demo/../..//hal/hcc/lib\libHCCD.a(fat_common.o)
                0x20030af4                _f_writesector
 .text._f_readsector
                0x20030d30      0x1dc C:/ISIS/workspace/HOOPOE3/satellite-subsystems/demo/../..//hal/hcc/lib\libHCCD.a(fat_common.o)
                0x20030d30                _f_readsector
 .text._f_getmaxcluster
                0x20030f0c       0x94 C:/ISIS/workspace/HOOPOE3/satellite-subsystems/demo/../..//hal/hcc/lib\libHCCD.a(fat_common.o)
                0x20030f0c                _f_getmaxcluster
 .text._getsectorfromcluster
                0x20030fa0       0x68 C:/ISIS/workspace/HOOPOE3/satellite-subsystems/demo/../..//hal/hcc/lib\libHCCD.a(fat_common.o)
 .text._f_buildsectors
                0x20031008      0x268 C:/ISIS/workspace/HOOPOE3/satellite-subsystems/demo/../..//hal/hcc/lib\libHCCD.a(fat_common.o)
 .text._f_getbootrecord
                0x20031270      0x5e4 C:/ISIS/workspace/HOOPOE3/satellite-subsystems/demo/../..//hal/hcc/lib\libHCCD.a(fat_common.o)
 .text.fn_getpartition
                0x20031854      0x514 C:/ISIS/workspace/HOOPOE3/satellite-subsystems/demo/../..//hal/hcc/lib\libHCCD.a(fat_common.o)
                0x20031854                fn_getpartition
 .text._f_readbootrecord
                0x20031d68      0x4f8 C:/ISIS/workspace/HOOPOE3/satellite-subsystems/demo/../..//hal/hcc/lib\libHCCD.a(fat_common.o)
 .text._f_writebootrecord
                0x20032260      0x5e4 C:/ISIS/workspace/HOOPOE3/satellite-subsystems/demo/../..//hal/hcc/lib\libHCCD.a(fat_common.o)
 .text._f_flushcffiles
                0x20032844      0x17c C:/ISIS/workspace/HOOPOE3/satellite-subsystems/demo/../..//hal/hcc/lib\libHCCD.a(fat_common.o)
                0x20032844                _f_flushcffiles
 .text._f_fatcache_flush
                0x200329c0      0x270 C:/ISIS/workspace/HOOPOE3/satellite-subsystems/demo/../..//hal/hcc/lib\libHCCD.a(fat_common.o)
                0x200329c0                _f_fatcache_flush
 .text._f_writefatsector
                0x20032c30      0x100 C:/ISIS/workspace/HOOPOE3/satellite-subsystems/demo/../..//hal/hcc/lib\libHCCD.a(fat_common.o)
                0x20032c30                _f_writefatsector
 .text._f_getfatsector
                0x20032d30      0x3bc C:/ISIS/workspace/HOOPOE3/satellite-subsystems/demo/../..//hal/hcc/lib\libHCCD.a(fat_common.o)
 .text._f_setclustervalue
                0x200330ec      0x490 C:/ISIS/workspace/HOOPOE3/satellite-subsystems/demo/../..//hal/hcc/lib\libHCCD.a(fat_common.o)
                0x200330ec                _f_setclustervalue
 .text._f_getclustervalue
                0x2003357c      0x388 C:/ISIS/workspace/HOOPOE3/satellite-subsystems/demo/../..//hal/hcc/lib\libHCCD.a(fat_common.o)
                0x2003357c                _f_getclustervalue
 .text._f_close_drive_files
                0x20033904       0xac C:/ISIS/workspace/HOOPOE3/satellite-subsystems/demo/../..//hal/hcc/lib\libHCCD.a(fat_common.o)
 .text._f_inc_mount_count
                0x200339b0       0xa4 C:/ISIS/workspace/HOOPOE3/satellite-subsystems/demo/../..//hal/hcc/lib\libHCCD.a(fat_common.o)
 .text._f_getvolume
                0x20033a54      0x2f8 C:/ISIS/workspace/HOOPOE3/satellite-subsystems/demo/../..//hal/hcc/lib\libHCCD.a(fat_common.o)
                0x20033a54                _f_getvolume
 .text.fn_createdriver
                0x20033d4c      0x118 C:/ISIS/workspace/HOOPOE3/satellite-subsystems/demo/../..//hal/hcc/lib\libHCCD.a(fat_common.o)
                0x20033d4c                fn_createdriver
 .text.fn_initvolume
                0x20033e64      0x12c C:/ISIS/workspace/HOOPOE3/satellite-subsystems/demo/../..//hal/hcc/lib\libHCCD.a(fat_common.o)
                0x20033e64                fn_initvolume
 .text.fn_initvolume_nonsafe
                0x20033f90      0x14c C:/ISIS/workspace/HOOPOE3/satellite-subsystems/demo/../..//hal/hcc/lib\libHCCD.a(fat_common.o)
                0x20033f90                fn_initvolume_nonsafe
 .text.fn_releasedriver
                0x200340dc       0xf4 C:/ISIS/workspace/HOOPOE3/satellite-subsystems/demo/../..//hal/hcc/lib\libHCCD.a(fat_common.o)
                0x200340dc                fn_releasedriver
 .text.fn_initvolumepartition_sub
                0x200341d0       0xe0 C:/ISIS/workspace/HOOPOE3/satellite-subsystems/demo/../..//hal/hcc/lib\libHCCD.a(fat_common.o)
 .text.fn_initvolumepartition
                0x200342b0       0xac C:/ISIS/workspace/HOOPOE3/satellite-subsystems/demo/../..//hal/hcc/lib\libHCCD.a(fat_common.o)
                0x200342b0                fn_initvolumepartition
 .text.fn_initvolumepartition_nonsafe
                0x2003435c       0xac C:/ISIS/workspace/HOOPOE3/satellite-subsystems/demo/../..//hal/hcc/lib\libHCCD.a(fat_common.o)
                0x2003435c                fn_initvolumepartition_nonsafe
 .text.fn_checkvolume
                0x20034408       0x44 C:/ISIS/workspace/HOOPOE3/satellite-subsystems/demo/../..//hal/hcc/lib\libHCCD.a(fat_common.o)
                0x20034408                fn_checkvolume
 .text.fn_delvolume
                0x2003444c      0x194 C:/ISIS/workspace/HOOPOE3/satellite-subsystems/demo/../..//hal/hcc/lib\libHCCD.a(fat_common.o)
                0x2003444c                fn_delvolume
 .text.fn_get_volume_count
                0x200345e0       0xa8 C:/ISIS/workspace/HOOPOE3/satellite-subsystems/demo/../..//hal/hcc/lib\libHCCD.a(fat_common.o)
                0x200345e0                fn_get_volume_count
 .text.fn_get_volume_list
                0x20034688       0xc4 C:/ISIS/workspace/HOOPOE3/satellite-subsystems/demo/../..//hal/hcc/lib\libHCCD.a(fat_common.o)
                0x20034688                fn_get_volume_list
 .text._f_clustertopos
                0x2003474c       0xf8 C:/ISIS/workspace/HOOPOE3/satellite-subsystems/demo/../..//hal/hcc/lib\libHCCD.a(fat_common.o)
                0x2003474c                _f_clustertopos
 .text._f_prepareformat
                0x20034844      0x8b8 C:/ISIS/workspace/HOOPOE3/satellite-subsystems/demo/../..//hal/hcc/lib\libHCCD.a(fat_common.o)
 .text._f_resetfatentries
                0x200350fc      0x410 C:/ISIS/workspace/HOOPOE3/satellite-subsystems/demo/../..//hal/hcc/lib\libHCCD.a(fat_common.o)
 .text._f_resetrootdir
                0x2003550c       0xcc C:/ISIS/workspace/HOOPOE3/satellite-subsystems/demo/../..//hal/hcc/lib\libHCCD.a(fat_common.o)
 .text._f_postformat
                0x200355d8      0x178 C:/ISIS/workspace/HOOPOE3/satellite-subsystems/demo/../..//hal/hcc/lib\libHCCD.a(fat_common.o)
 .text.fn_createpartition
                0x20035750      0x56c C:/ISIS/workspace/HOOPOE3/satellite-subsystems/demo/../..//hal/hcc/lib\libHCCD.a(fat_common.o)
                0x20035750                fn_createpartition
 .text.fn_format
                0x20035cbc      0x148 C:/ISIS/workspace/HOOPOE3/satellite-subsystems/demo/../..//hal/hcc/lib\libHCCD.a(fat_common.o)
                0x20035cbc                fn_format
 .text._f_getcurrsector
                0x20035e04      0x6c8 C:/ISIS/workspace/HOOPOE3/satellite-subsystems/demo/../..//hal/hcc/lib\libHCCD.a(fat_common.o)
                0x20035e04                _f_getcurrsector
 .text._f_getdecluster
                0x200364cc       0x90 C:/ISIS/workspace/HOOPOE3/satellite-subsystems/demo/../..//hal/hcc/lib\libHCCD.a(fat_common.o)
                0x200364cc                _f_getdecluster
 .text._f_setdecluster
                0x2003655c       0x8c C:/ISIS/workspace/HOOPOE3/satellite-subsystems/demo/../..//hal/hcc/lib\libHCCD.a(fat_common.o)
                0x2003655c                _f_setdecluster
 .text.fn_getdrive
                0x200365e8       0x30 C:/ISIS/workspace/HOOPOE3/satellite-subsystems/demo/../..//hal/hcc/lib\libHCCD.a(fat_common.o)
                0x200365e8                fn_getdrive
 .text.fn_chdrive
                0x20036618       0xb0 C:/ISIS/workspace/HOOPOE3/satellite-subsystems/demo/../..//hal/hcc/lib\libHCCD.a(fat_common.o)
                0x20036618                fn_chdrive
 .text._f_getcurrenttimedate
                0x200366c8      0x138 C:/ISIS/workspace/HOOPOE3/satellite-subsystems/demo/../..//hal/hcc/lib\libHCCD.a(fat_common.o)
                0x200366c8                _f_getcurrenttimedate
 .text._f_initentry
                0x20036800       0xa0 C:/ISIS/workspace/HOOPOE3/satellite-subsystems/demo/../..//hal/hcc/lib\libHCCD.a(fat_common.o)
                0x20036800                _f_initentry
 .text._f_alloccluster
                0x200368a0      0x344 C:/ISIS/workspace/HOOPOE3/satellite-subsystems/demo/../..//hal/hcc/lib\libHCCD.a(fat_common.o)
                0x200368a0                _f_alloccluster
 .text._f_dobadblock
                0x20036be4      0x2cc C:/ISIS/workspace/HOOPOE3/satellite-subsystems/demo/../..//hal/hcc/lib\libHCCD.a(fat_common.o)
                0x20036be4                _f_dobadblock
 .text._f_checklocked
                0x20036eb0       0xe4 C:/ISIS/workspace/HOOPOE3/satellite-subsystems/demo/../..//hal/hcc/lib\libHCCD.a(fat_common.o)
                0x20036eb0                _f_checklocked
 .text._f_checkappendlocked
                0x20036f94      0x110 C:/ISIS/workspace/HOOPOE3/satellite-subsystems/demo/../..//hal/hcc/lib\libHCCD.a(fat_common.o)
                0x20036f94                _f_checkappendlocked
 .text._f_setsyncafile
                0x200370a4      0x114 C:/ISIS/workspace/HOOPOE3/satellite-subsystems/demo/../..//hal/hcc/lib\libHCCD.a(fat_common.o)
                0x200370a4                _f_setsyncafile
 .text._f_syncfiles
                0x200371b8      0x128 C:/ISIS/workspace/HOOPOE3/satellite-subsystems/demo/../..//hal/hcc/lib\libHCCD.a(fat_common.o)
                0x200371b8                _f_syncfiles
 .text._f_syncfilescontent
                0x200372e0      0x15c C:/ISIS/workspace/HOOPOE3/satellite-subsystems/demo/../..//hal/hcc/lib\libHCCD.a(fat_common.o)
 .text.fn_getfreespace
                0x2003743c      0x4c0 C:/ISIS/workspace/HOOPOE3/satellite-subsystems/demo/../..//hal/hcc/lib\libHCCD.a(fat_common.o)
                0x2003743c                fn_getfreespace
 .text._f_emptywritecache
                0x200378fc      0x4a4 C:/ISIS/workspace/HOOPOE3/satellite-subsystems/demo/../..//hal/hcc/lib\libHCCD.a(fat_common.o)
 .text._f_allocnextcluster
                0x20037da0      0x54c C:/ISIS/workspace/HOOPOE3/satellite-subsystems/demo/../..//hal/hcc/lib\libHCCD.a(fat_common.o)
 .text._f_emptywritebuffer
                0x200382ec      0x20c C:/ISIS/workspace/HOOPOE3/satellite-subsystems/demo/../..//hal/hcc/lib\libHCCD.a(fat_common.o)
 .text._f_writezeros
                0x200384f8       0xf0 C:/ISIS/workspace/HOOPOE3/satellite-subsystems/demo/../..//hal/hcc/lib\libHCCD.a(fat_common.o)
                0x200384f8                _f_writezeros
 .text._f_extend_file
                0x200385e8      0x570 C:/ISIS/workspace/HOOPOE3/satellite-subsystems/demo/../..//hal/hcc/lib\libHCCD.a(fat_common.o)
 .text._f_fseek
                0x20038b58      0x9bc C:/ISIS/workspace/HOOPOE3/satellite-subsystems/demo/../..//hal/hcc/lib\libHCCD.a(fat_common.o)
                0x20038b58                _f_fseek
 .text._f_removechain
                0x20039514      0x104 C:/ISIS/workspace/HOOPOE3/satellite-subsystems/demo/../..//hal/hcc/lib\libHCCD.a(fat_common.o)
                0x20039514                _f_removechain
 .text._f_updatefileentry
                0x20039618      0x1cc C:/ISIS/workspace/HOOPOE3/satellite-subsystems/demo/../..//hal/hcc/lib\libHCCD.a(fat_common.o)
 .text._f_checkreadlocked
                0x200397e4      0x1bc C:/ISIS/workspace/HOOPOE3/satellite-subsystems/demo/../..//hal/hcc/lib\libHCCD.a(fat_common.o)
                0x200397e4                _f_checkreadlocked
 .text._f_check_handle
                0x200399a0       0x98 C:/ISIS/workspace/HOOPOE3/satellite-subsystems/demo/../..//hal/hcc/lib\libHCCD.a(fat_common.o)
                0x200399a0                _f_check_handle
 .text._f_removesyncafile
                0x20039a38      0x1ec C:/ISIS/workspace/HOOPOE3/satellite-subsystems/demo/../..//hal/hcc/lib\libHCCD.a(fat_common.o)
 .text.fn_abortclose
                0x20039c24      0x150 C:/ISIS/workspace/HOOPOE3/satellite-subsystems/demo/../..//hal/hcc/lib\libHCCD.a(fat_common.o)
                0x20039c24                fn_abortclose
 .text.fn_close
                0x20039d74      0x3f8 C:/ISIS/workspace/HOOPOE3/satellite-subsystems/demo/../..//hal/hcc/lib\libHCCD.a(fat_common.o)
                0x20039d74                fn_close
 .text.fn_flush_filebuffer
                0x2003a16c      0x138 C:/ISIS/workspace/HOOPOE3/satellite-subsystems/demo/../..//hal/hcc/lib\libHCCD.a(fat_common.o)
                0x2003a16c                fn_flush_filebuffer
 .text.fn_flush
                0x2003a2a4      0x374 C:/ISIS/workspace/HOOPOE3/satellite-subsystems/demo/../..//hal/hcc/lib\libHCCD.a(fat_common.o)
                0x2003a2a4                fn_flush
 .text.fn_read  0x2003a618      0x690 C:/ISIS/workspace/HOOPOE3/satellite-subsystems/demo/../..//hal/hcc/lib\libHCCD.a(fat_common.o)
                0x2003a618                fn_read
 .text._f_abortwrite
                0x2003aca8      0x100 C:/ISIS/workspace/HOOPOE3/satellite-subsystems/demo/../..//hal/hcc/lib\libHCCD.a(fat_common.o)
 .text._f_checkwritecluster
                0x2003ada8       0xe4 C:/ISIS/workspace/HOOPOE3/satellite-subsystems/demo/../..//hal/hcc/lib\libHCCD.a(fat_common.o)
 .text.fn_write
                0x2003ae8c      0x8a8 C:/ISIS/workspace/HOOPOE3/satellite-subsystems/demo/../..//hal/hcc/lib\libHCCD.a(fat_common.o)
                0x2003ae8c                fn_write
 .text.fn_seek  0x2003b734      0x270 C:/ISIS/workspace/HOOPOE3/satellite-subsystems/demo/../..//hal/hcc/lib\libHCCD.a(fat_common.o)
                0x2003b734                fn_seek
 .text.fn_tell  0x2003b9a4      0x19c C:/ISIS/workspace/HOOPOE3/satellite-subsystems/demo/../..//hal/hcc/lib\libHCCD.a(fat_common.o)
                0x2003b9a4                fn_tell
 .text.fn_eof   0x2003bb40       0xf8 C:/ISIS/workspace/HOOPOE3/satellite-subsystems/demo/../..//hal/hcc/lib\libHCCD.a(fat_common.o)
                0x2003bb40                fn_eof
 .text.fn_rewind
                0x2003bc38       0x38 C:/ISIS/workspace/HOOPOE3/satellite-subsystems/demo/../..//hal/hcc/lib\libHCCD.a(fat_common.o)
                0x2003bc38                fn_rewind
 .text.fn_putc  0x2003bc70       0x68 C:/ISIS/workspace/HOOPOE3/satellite-subsystems/demo/../..//hal/hcc/lib\libHCCD.a(fat_common.o)
                0x2003bc70                fn_putc
 .text.fn_getc  0x2003bcd8       0x58 C:/ISIS/workspace/HOOPOE3/satellite-subsystems/demo/../..//hal/hcc/lib\libHCCD.a(fat_common.o)
                0x2003bcd8                fn_getc
 .text.f_enterFS
                0x2003bd30      0x1c0 C:/ISIS/workspace/HOOPOE3/satellite-subsystems/demo/../..//hal/hcc/lib\libHCCD.a(fat_common.o)
                0x2003bd30                f_enterFS
 .text.f_releaseFS
                0x2003bef0       0xb0 C:/ISIS/workspace/HOOPOE3/satellite-subsystems/demo/../..//hal/hcc/lib\libHCCD.a(fat_common.o)
                0x2003bef0                f_releaseFS
 .text.fnGetTask
                0x2003bfa0       0xfc C:/ISIS/workspace/HOOPOE3/satellite-subsystems/demo/../..//hal/hcc/lib\libHCCD.a(fat_common.o)
                0x2003bfa0                fnGetTask
 .text._f_mutex_get
                0x2003c09c       0x98 C:/ISIS/workspace/HOOPOE3/satellite-subsystems/demo/../..//hal/hcc/lib\libHCCD.a(fat_common.o)
                0x2003c09c                _f_mutex_get
 .text._f_mutex_put
                0x2003c134       0x54 C:/ISIS/workspace/HOOPOE3/satellite-subsystems/demo/../..//hal/hcc/lib\libHCCD.a(fat_common.o)
                0x2003c134                _f_mutex_put
 .text.fn_get_oem
                0x2003c188       0xfc C:/ISIS/workspace/HOOPOE3/satellite-subsystems/demo/../..//hal/hcc/lib\libHCCD.a(fat_common.o)
                0x2003c188                fn_get_oem
 .text.fn_ftruncate
                0x2003c284       0x64 C:/ISIS/workspace/HOOPOE3/satellite-subsystems/demo/../..//hal/hcc/lib\libHCCD.a(fat_common.o)
                0x2003c284                fn_ftruncate
 .text.fn_seteof
                0x2003c2e8      0x468 C:/ISIS/workspace/HOOPOE3/satellite-subsystems/demo/../..//hal/hcc/lib\libHCCD.a(fat_common.o)
                0x2003c2e8                fn_seteof
 .text._fn_initseekdivisor
                0x2003c750      0x158 C:/ISIS/workspace/HOOPOE3/satellite-subsystems/demo/../..//hal/hcc/lib\libHCCD.a(fat_common.o)
                0x2003c750                _fn_initseekdivisor
 .text._fn_updateseekpos
                0x2003c8a8       0xc4 C:/ISIS/workspace/HOOPOE3/satellite-subsystems/demo/../..//hal/hcc/lib\libHCCD.a(fat_common.o)
 .text._fn_removeseekpos
                0x2003c96c       0xc0 C:/ISIS/workspace/HOOPOE3/satellite-subsystems/demo/../..//hal/hcc/lib\libHCCD.a(fat_common.o)
                0x2003c96c                _fn_removeseekpos
 .text._f_findopensize
                0x2003ca2c       0x2c C:/ISIS/workspace/HOOPOE3/satellite-subsystems/demo/../..//hal/hcc/lib\libHCCD.a(fat_common.o)
                0x2003ca2c                _f_findopensize
 .text.fn_fstat
                0x2003ca58      0x250 C:/ISIS/workspace/HOOPOE3/satellite-subsystems/demo/../..//hal/hcc/lib\libHCCD.a(fat_common.o)
                0x2003ca58                fn_fstat
 .text.fn_setlasterror
                0x2003cca8       0x34 C:/ISIS/workspace/HOOPOE3/satellite-subsystems/demo/../..//hal/hcc/lib\libHCCD.a(fat_common.o)
                0x2003cca8                fn_setlasterror
 .text.fn_setlasterror_noret
                0x2003ccdc       0x2c C:/ISIS/workspace/HOOPOE3/satellite-subsystems/demo/../..//hal/hcc/lib\libHCCD.a(fat_common.o)
                0x2003ccdc                fn_setlasterror_noret
 .text.fm_initvolume
                0x2003cd08       0x70 C:/ISIS/workspace/HOOPOE3/satellite-subsystems/demo/../..//hal/hcc/lib\libHCCD.a(fat_m.o)
                0x2003cd08                fm_initvolume
 .text.fm_initvolume_nonsafe
                0x2003cd78       0x70 C:/ISIS/workspace/HOOPOE3/satellite-subsystems/demo/../..//hal/hcc/lib\libHCCD.a(fat_m.o)
                0x2003cd78                fm_initvolume_nonsafe
 .text.fm_createdriver
                0x2003cde8       0x70 C:/ISIS/workspace/HOOPOE3/satellite-subsystems/demo/../..//hal/hcc/lib\libHCCD.a(fat_m.o)
                0x2003cde8                fm_createdriver
 .text.fm_initvolumepartition
                0x2003ce58       0x70 C:/ISIS/workspace/HOOPOE3/satellite-subsystems/demo/../..//hal/hcc/lib\libHCCD.a(fat_m.o)
                0x2003ce58                fm_initvolumepartition
 .text.fm_initvolumepartition_nonsafe
                0x2003cec8       0x70 C:/ISIS/workspace/HOOPOE3/satellite-subsystems/demo/../..//hal/hcc/lib\libHCCD.a(fat_m.o)
                0x2003cec8                fm_initvolumepartition_nonsafe
 .text.fm_createpartition
                0x2003cf38       0x70 C:/ISIS/workspace/HOOPOE3/satellite-subsystems/demo/../..//hal/hcc/lib\libHCCD.a(fat_m.o)
                0x2003cf38                fm_createpartition
 .text.fm_getpartition
                0x2003cfa8       0x68 C:/ISIS/workspace/HOOPOE3/satellite-subsystems/demo/../..//hal/hcc/lib\libHCCD.a(fat_m.o)
                0x2003cfa8                fm_getpartition
 .text.fm_checkvolume
                0x2003d010       0x60 C:/ISIS/workspace/HOOPOE3/satellite-subsystems/demo/../..//hal/hcc/lib\libHCCD.a(fat_m.o)
                0x2003d010                fm_checkvolume
 .text.fm_delvolume
                0x2003d070       0x60 C:/ISIS/workspace/HOOPOE3/satellite-subsystems/demo/../..//hal/hcc/lib\libHCCD.a(fat_m.o)
                0x2003d070                fm_delvolume
 .text.fm_releasedriver
                0x2003d0d0       0x54 C:/ISIS/workspace/HOOPOE3/satellite-subsystems/demo/../..//hal/hcc/lib\libHCCD.a(fat_m.o)
                0x2003d0d0                fm_releasedriver
 .text.fm_get_volume_count
                0x2003d124       0x58 C:/ISIS/workspace/HOOPOE3/satellite-subsystems/demo/../..//hal/hcc/lib\libHCCD.a(fat_m.o)
                0x2003d124                fm_get_volume_count
 .text.fm_get_volume_list
                0x2003d17c       0x60 C:/ISIS/workspace/HOOPOE3/satellite-subsystems/demo/../..//hal/hcc/lib\libHCCD.a(fat_m.o)
                0x2003d17c                fm_get_volume_list
 .text.fm_format
                0x2003d1dc       0x68 C:/ISIS/workspace/HOOPOE3/satellite-subsystems/demo/../..//hal/hcc/lib\libHCCD.a(fat_m.o)
                0x2003d1dc                fm_format
 .text.fm_getcwd
                0x2003d244       0x68 C:/ISIS/workspace/HOOPOE3/satellite-subsystems/demo/../..//hal/hcc/lib\libHCCD.a(fat_m.o)
                0x2003d244                fm_getcwd
 .text.fm_getdcwd
                0x2003d2ac       0x70 C:/ISIS/workspace/HOOPOE3/satellite-subsystems/demo/../..//hal/hcc/lib\libHCCD.a(fat_m.o)
                0x2003d2ac                fm_getdcwd
 .text.fm_chdrive
                0x2003d31c       0x60 C:/ISIS/workspace/HOOPOE3/satellite-subsystems/demo/../..//hal/hcc/lib\libHCCD.a(fat_m.o)
                0x2003d31c                fm_chdrive
 .text.fm_getdrive
                0x2003d37c       0x70 C:/ISIS/workspace/HOOPOE3/satellite-subsystems/demo/../..//hal/hcc/lib\libHCCD.a(fat_m.o)
                0x2003d37c                fm_getdrive
 .text.fm_getfreespace
                0x2003d3ec       0x68 C:/ISIS/workspace/HOOPOE3/satellite-subsystems/demo/../..//hal/hcc/lib\libHCCD.a(fat_m.o)
                0x2003d3ec                fm_getfreespace
 .text.fm_chdir
                0x2003d454       0x60 C:/ISIS/workspace/HOOPOE3/satellite-subsystems/demo/../..//hal/hcc/lib\libHCCD.a(fat_m.o)
                0x2003d454                fm_chdir
 .text.fm_mkdir
                0x2003d4b4       0x60 C:/ISIS/workspace/HOOPOE3/satellite-subsystems/demo/../..//hal/hcc/lib\libHCCD.a(fat_m.o)
                0x2003d4b4                fm_mkdir
 .text.fm_rmdir
                0x2003d514       0x60 C:/ISIS/workspace/HOOPOE3/satellite-subsystems/demo/../..//hal/hcc/lib\libHCCD.a(fat_m.o)
                0x2003d514                fm_rmdir
 .text.fm_findfirst
                0x2003d574       0x68 C:/ISIS/workspace/HOOPOE3/satellite-subsystems/demo/../..//hal/hcc/lib\libHCCD.a(fat_m.o)
                0x2003d574                fm_findfirst
 .text.fm_findnext
                0x2003d5dc       0x60 C:/ISIS/workspace/HOOPOE3/satellite-subsystems/demo/../..//hal/hcc/lib\libHCCD.a(fat_m.o)
                0x2003d5dc                fm_findnext
 .text.fm_move  0x2003d63c       0x68 C:/ISIS/workspace/HOOPOE3/satellite-subsystems/demo/../..//hal/hcc/lib\libHCCD.a(fat_m.o)
                0x2003d63c                fm_move
 .text.fm_rename
                0x2003d6a4       0x68 C:/ISIS/workspace/HOOPOE3/satellite-subsystems/demo/../..//hal/hcc/lib\libHCCD.a(fat_m.o)
                0x2003d6a4                fm_rename
 .text.fm_filelength
                0x2003d70c       0x60 C:/ISIS/workspace/HOOPOE3/satellite-subsystems/demo/../..//hal/hcc/lib\libHCCD.a(fat_m.o)
                0x2003d70c                fm_filelength
 .text.fm_abortclose
                0x2003d76c       0x60 C:/ISIS/workspace/HOOPOE3/satellite-subsystems/demo/../..//hal/hcc/lib\libHCCD.a(fat_m.o)
                0x2003d76c                fm_abortclose
 .text.fm_close
                0x2003d7cc       0x60 C:/ISIS/workspace/HOOPOE3/satellite-subsystems/demo/../..//hal/hcc/lib\libHCCD.a(fat_m.o)
                0x2003d7cc                fm_close
 .text.fm_flush_filebuffer
                0x2003d82c       0x60 C:/ISIS/workspace/HOOPOE3/satellite-subsystems/demo/../..//hal/hcc/lib\libHCCD.a(fat_m.o)
                0x2003d82c                fm_flush_filebuffer
 .text.fm_flush
                0x2003d88c       0x60 C:/ISIS/workspace/HOOPOE3/satellite-subsystems/demo/../..//hal/hcc/lib\libHCCD.a(fat_m.o)
                0x2003d88c                fm_flush
 .text.fm_open  0x2003d8ec       0x68 C:/ISIS/workspace/HOOPOE3/satellite-subsystems/demo/../..//hal/hcc/lib\libHCCD.a(fat_m.o)
                0x2003d8ec                fm_open
 .text.fm_open_nonsafe
                0x2003d954       0x68 C:/ISIS/workspace/HOOPOE3/satellite-subsystems/demo/../..//hal/hcc/lib\libHCCD.a(fat_m.o)
                0x2003d954                fm_open_nonsafe
 .text.fm_read  0x2003d9bc       0x7c C:/ISIS/workspace/HOOPOE3/satellite-subsystems/demo/../..//hal/hcc/lib\libHCCD.a(fat_m.o)
                0x2003d9bc                fm_read
 .text.fm_write
                0x2003da38       0x7c C:/ISIS/workspace/HOOPOE3/satellite-subsystems/demo/../..//hal/hcc/lib\libHCCD.a(fat_m.o)
                0x2003da38                fm_write
 .text.fm_seek  0x2003dab4       0x70 C:/ISIS/workspace/HOOPOE3/satellite-subsystems/demo/../..//hal/hcc/lib\libHCCD.a(fat_m.o)
                0x2003dab4                fm_seek
 .text.fm_tell  0x2003db24       0x60 C:/ISIS/workspace/HOOPOE3/satellite-subsystems/demo/../..//hal/hcc/lib\libHCCD.a(fat_m.o)
                0x2003db24                fm_tell
 .text.fm_getc  0x2003db84       0x60 C:/ISIS/workspace/HOOPOE3/satellite-subsystems/demo/../..//hal/hcc/lib\libHCCD.a(fat_m.o)
                0x2003db84                fm_getc
 .text.fm_putc  0x2003dbe4       0x68 C:/ISIS/workspace/HOOPOE3/satellite-subsystems/demo/../..//hal/hcc/lib\libHCCD.a(fat_m.o)
                0x2003dbe4                fm_putc
 .text.fm_rewind
                0x2003dc4c       0x60 C:/ISIS/workspace/HOOPOE3/satellite-subsystems/demo/../..//hal/hcc/lib\libHCCD.a(fat_m.o)
                0x2003dc4c                fm_rewind
 .text.fm_eof   0x2003dcac       0x60 C:/ISIS/workspace/HOOPOE3/satellite-subsystems/demo/../..//hal/hcc/lib\libHCCD.a(fat_m.o)
                0x2003dcac                fm_eof
 .text.fm_gettimedate
                0x2003dd0c       0x70 C:/ISIS/workspace/HOOPOE3/satellite-subsystems/demo/../..//hal/hcc/lib\libHCCD.a(fat_m.o)
                0x2003dd0c                fm_gettimedate
 .text.fm_stat  0x2003dd7c       0x68 C:/ISIS/workspace/HOOPOE3/satellite-subsystems/demo/../..//hal/hcc/lib\libHCCD.a(fat_m.o)
                0x2003dd7c                fm_stat
 .text.fm_fstat
                0x2003dde4       0x68 C:/ISIS/workspace/HOOPOE3/satellite-subsystems/demo/../..//hal/hcc/lib\libHCCD.a(fat_m.o)
                0x2003dde4                fm_fstat
 .text.fm_settimedate
                0x2003de4c       0x74 C:/ISIS/workspace/HOOPOE3/satellite-subsystems/demo/../..//hal/hcc/lib\libHCCD.a(fat_m.o)
                0x2003de4c                fm_settimedate
 .text.fm_delete
                0x2003dec0       0x64 C:/ISIS/workspace/HOOPOE3/satellite-subsystems/demo/../..//hal/hcc/lib\libHCCD.a(fat_m.o)
                0x2003dec0                fm_delete
 .text.fm_getattr
                0x2003df24       0x68 C:/ISIS/workspace/HOOPOE3/satellite-subsystems/demo/../..//hal/hcc/lib\libHCCD.a(fat_m.o)
                0x2003df24                fm_getattr
 .text.fm_setattr
                0x2003df8c       0x70 C:/ISIS/workspace/HOOPOE3/satellite-subsystems/demo/../..//hal/hcc/lib\libHCCD.a(fat_m.o)
                0x2003df8c                fm_setattr
 .text.fm_getlabel
                0x2003dffc       0x70 C:/ISIS/workspace/HOOPOE3/satellite-subsystems/demo/../..//hal/hcc/lib\libHCCD.a(fat_m.o)
                0x2003dffc                fm_getlabel
 .text.fm_setlabel
                0x2003e06c       0x68 C:/ISIS/workspace/HOOPOE3/satellite-subsystems/demo/../..//hal/hcc/lib\libHCCD.a(fat_m.o)
                0x2003e06c                fm_setlabel
 .text.fm_truncate
                0x2003e0d4       0x68 C:/ISIS/workspace/HOOPOE3/satellite-subsystems/demo/../..//hal/hcc/lib\libHCCD.a(fat_m.o)
                0x2003e0d4                fm_truncate
 .text.fm_get_oem
                0x2003e13c       0x70 C:/ISIS/workspace/HOOPOE3/satellite-subsystems/demo/../..//hal/hcc/lib\libHCCD.a(fat_m.o)
                0x2003e13c                fm_get_oem
 .text.fm_ftruncate
                0x2003e1ac       0x68 C:/ISIS/workspace/HOOPOE3/satellite-subsystems/demo/../..//hal/hcc/lib\libHCCD.a(fat_m.o)
                0x2003e1ac                fm_ftruncate
 .text.fm_seteof
                0x2003e214       0x60 C:/ISIS/workspace/HOOPOE3/satellite-subsystems/demo/../..//hal/hcc/lib\libHCCD.a(fat_m.o)
                0x2003e214                fm_seteof
 .text.fm_getlasterror
                0x2003e274       0x40 C:/ISIS/workspace/HOOPOE3/satellite-subsystems/demo/../..//hal/hcc/lib\libHCCD.a(fat_m.o)
                0x2003e274                fm_getlasterror
 .text._s_checkzeroclusteratend
                0x2003e2b4       0xf8 C:/ISIS/workspace/HOOPOE3/satellite-subsystems/demo/../..//hal/hcc/lib\libHCCD.a(safefat.o)
 .text._s_clearclustercontent
                0x2003e3ac      0x108 C:/ISIS/workspace/HOOPOE3/satellite-subsystems/demo/../..//hal/hcc/lib\libHCCD.a(safefat.o)
 .text._s_clearclustercontentdir
                0x2003e4b4      0x19c C:/ISIS/workspace/HOOPOE3/satellite-subsystems/demo/../..//hal/hcc/lib\libHCCD.a(safefat.o)
 .text._s_writedirsector
                0x2003e650       0xd0 C:/ISIS/workspace/HOOPOE3/satellite-subsystems/demo/../..//hal/hcc/lib\libHCCD.a(safefat.o)
 .text._s_getdirsector
                0x2003e720      0x100 C:/ISIS/workspace/HOOPOE3/satellite-subsystems/demo/../..//hal/hcc/lib\libHCCD.a(safefat.o)
 .text._s_addentry
                0x2003e820      0x394 C:/ISIS/workspace/HOOPOE3/satellite-subsystems/demo/../..//hal/hcc/lib\libHCCD.a(safefat.o)
 .text._s_findfile
                0x2003ebb4      0x33c C:/ISIS/workspace/HOOPOE3/satellite-subsystems/demo/../..//hal/hcc/lib\libHCCD.a(safefat.o)
 .text._s_findsubdir
                0x2003eef0      0x248 C:/ISIS/workspace/HOOPOE3/satellite-subsystems/demo/../..//hal/hcc/lib\libHCCD.a(safefat.o)
 .text._s_createfile
                0x2003f138      0x190 C:/ISIS/workspace/HOOPOE3/satellite-subsystems/demo/../..//hal/hcc/lib\libHCCD.a(safefat.o)
 .text._s_findsaffile
                0x2003f2c8      0x1b8 C:/ISIS/workspace/HOOPOE3/satellite-subsystems/demo/../..//hal/hcc/lib\libHCCD.a(safefat.o)
 .text._s_open  0x2003f480       0xe4 C:/ISIS/workspace/HOOPOE3/satellite-subsystems/demo/../..//hal/hcc/lib\libHCCD.a(safefat.o)
 .text._s_open_saf
                0x2003f564       0xe8 C:/ISIS/workspace/HOOPOE3/satellite-subsystems/demo/../..//hal/hcc/lib\libHCCD.a(safefat.o)
 .text._s_flush
                0x2003f64c       0x84 C:/ISIS/workspace/HOOPOE3/satellite-subsystems/demo/../..//hal/hcc/lib\libHCCD.a(safefat.o)
 .text._s_allocnextcluster
                0x2003f6d0      0x13c C:/ISIS/workspace/HOOPOE3/satellite-subsystems/demo/../..//hal/hcc/lib\libHCCD.a(safefat.o)
 .text._s_getnextsector
                0x2003f80c       0xdc C:/ISIS/workspace/HOOPOE3/satellite-subsystems/demo/../..//hal/hcc/lib\libHCCD.a(safefat.o)
 .text._s_seek  0x2003f8e8      0x1e8 C:/ISIS/workspace/HOOPOE3/satellite-subsystems/demo/../..//hal/hcc/lib\libHCCD.a(safefat.o)
 .text._s_get_len
                0x2003fad0      0x10c C:/ISIS/workspace/HOOPOE3/satellite-subsystems/demo/../..//hal/hcc/lib\libHCCD.a(safefat.o)
 .text._s_set_len
                0x2003fbdc       0xb4 C:/ISIS/workspace/HOOPOE3/satellite-subsystems/demo/../..//hal/hcc/lib\libHCCD.a(safefat.o)
 .text.safe_fix_filelengths
                0x2003fc90       0xcc C:/ISIS/workspace/HOOPOE3/satellite-subsystems/demo/../..//hal/hcc/lib\libHCCD.a(safefat.o)
                0x2003fc90                safe_fix_filelengths
 .text._s_read  0x2003fd5c      0x228 C:/ISIS/workspace/HOOPOE3/satellite-subsystems/demo/../..//hal/hcc/lib\libHCCD.a(safefat.o)
 .text._s_write
                0x2003ff84      0x384 C:/ISIS/workspace/HOOPOE3/satellite-subsystems/demo/../..//hal/hcc/lib\libHCCD.a(safefat.o)
 .text._s_restoreclusters
                0x20040308      0x270 C:/ISIS/workspace/HOOPOE3/satellite-subsystems/demo/../..//hal/hcc/lib\libHCCD.a(safefat.o)
                0x20040308                _s_restoreclusters
 .text._s_findrestore
                0x20040578      0x18c C:/ISIS/workspace/HOOPOE3/satellite-subsystems/demo/../..//hal/hcc/lib\libHCCD.a(safefat.o)
 .text._s_cmd_writede
                0x20040704       0xd8 C:/ISIS/workspace/HOOPOE3/satellite-subsystems/demo/../..//hal/hcc/lib\libHCCD.a(safefat.o)
 .text._s_cmd_setcluster
                0x200407dc       0x88 C:/ISIS/workspace/HOOPOE3/satellite-subsystems/demo/../..//hal/hcc/lib\libHCCD.a(safefat.o)
 .text._s_cmd_deletechain
                0x20040864      0x100 C:/ISIS/workspace/HOOPOE3/satellite-subsystems/demo/../..//hal/hcc/lib\libHCCD.a(safefat.o)
 .text._s_cmd_validatecfn
                0x20040964      0x308 C:/ISIS/workspace/HOOPOE3/satellite-subsystems/demo/../..//hal/hcc/lib\libHCCD.a(safefat.o)
 .text._s_cmd_seteof
                0x20040c6c      0x3c4 C:/ISIS/workspace/HOOPOE3/satellite-subsystems/demo/../..//hal/hcc/lib\libHCCD.a(safefat.o)
 .text.safe_docommands
                0x20041030      0x56c C:/ISIS/workspace/HOOPOE3/satellite-subsystems/demo/../..//hal/hcc/lib\libHCCD.a(safefat.o)
                0x20041030                safe_docommands
 .text.safe_entercommand
                0x2004159c       0x68 C:/ISIS/workspace/HOOPOE3/satellite-subsystems/demo/../..//hal/hcc/lib\libHCCD.a(safefat.o)
                0x2004159c                safe_entercommand
 .text.safe_ready
                0x20041604       0xf4 C:/ISIS/workspace/HOOPOE3/satellite-subsystems/demo/../..//hal/hcc/lib\libHCCD.a(safefat.o)
                0x20041604                safe_ready
 .text.safe_copycfn
                0x200416f8       0xb8 C:/ISIS/workspace/HOOPOE3/satellite-subsystems/demo/../..//hal/hcc/lib\libHCCD.a(safefat.o)
                0x200416f8                safe_copycfn
 .text.safe_cfremove
                0x200417b0       0xb8 C:/ISIS/workspace/HOOPOE3/satellite-subsystems/demo/../..//hal/hcc/lib\libHCCD.a(safefat.o)
                0x200417b0                safe_cfremove
 .text.safe_writede
                0x20041868      0x104 C:/ISIS/workspace/HOOPOE3/satellite-subsystems/demo/../..//hal/hcc/lib\libHCCD.a(safefat.o)
                0x20041868                safe_writede
 .text.safe_setcluster
                0x2004196c       0xcc C:/ISIS/workspace/HOOPOE3/satellite-subsystems/demo/../..//hal/hcc/lib\libHCCD.a(safefat.o)
                0x2004196c                safe_setcluster
 .text.safe_deletechain
                0x20041a38      0x1c8 C:/ISIS/workspace/HOOPOE3/satellite-subsystems/demo/../..//hal/hcc/lib\libHCCD.a(safefat.o)
                0x20041a38                safe_deletechain
 .text.safe_cfclose
                0x20041c00      0x104 C:/ISIS/workspace/HOOPOE3/satellite-subsystems/demo/../..//hal/hcc/lib\libHCCD.a(safefat.o)
                0x20041c00                safe_cfclose
 .text.safe_seteof
                0x20041d04      0x1a0 C:/ISIS/workspace/HOOPOE3/satellite-subsystems/demo/../..//hal/hcc/lib\libHCCD.a(safefat.o)
                0x20041d04                safe_seteof
 .text.safe_cfflush
                0x20041ea4      0x124 C:/ISIS/workspace/HOOPOE3/satellite-subsystems/demo/../..//hal/hcc/lib\libHCCD.a(safefat.o)
                0x20041ea4                safe_cfflush
 .text.safe_reset
                0x20041fc8       0x78 C:/ISIS/workspace/HOOPOE3/satellite-subsystems/demo/../..//hal/hcc/lib\libHCCD.a(safefat.o)
                0x20041fc8                safe_reset
 .text.safe_loadcommands
                0x20042040       0x78 C:/ISIS/workspace/HOOPOE3/satellite-subsystems/demo/../..//hal/hcc/lib\libHCCD.a(safefat.o)
                0x20042040                safe_loadcommands
 .text.safe_poweron
                0x200420b8      0x1fc C:/ISIS/workspace/HOOPOE3/satellite-subsystems/demo/../..//hal/hcc/lib\libHCCD.a(safefat.o)
                0x200420b8                safe_poweron
 .text.cf_getname
                0x200422b4       0xc0 C:/ISIS/workspace/HOOPOE3/satellite-subsystems/demo/../..//hal/hcc/lib\libHCCD.a(safefat.o)
 .text.cf_copyclusterchain
                0x20042374      0x138 C:/ISIS/workspace/HOOPOE3/satellite-subsystems/demo/../..//hal/hcc/lib\libHCCD.a(safefat.o)
 .text.cf_seektozero
                0x200424ac       0x94 C:/ISIS/workspace/HOOPOE3/satellite-subsystems/demo/../..//hal/hcc/lib\libHCCD.a(safefat.o)
                0x200424ac                cf_seektozero
 .text.cf_create
                0x20042540      0x3a8 C:/ISIS/workspace/HOOPOE3/satellite-subsystems/demo/../..//hal/hcc/lib\libHCCD.a(safefat.o)
                0x20042540                cf_create
 .text.cf_copyclustercontent
                0x200428e8      0x128 C:/ISIS/workspace/HOOPOE3/satellite-subsystems/demo/../..//hal/hcc/lib\libHCCD.a(safefat.o)
                0x200428e8                cf_copyclustercontent
 .text.cf_copycfn
                0x20042a10      0x4bc C:/ISIS/workspace/HOOPOE3/satellite-subsystems/demo/../..//hal/hcc/lib\libHCCD.a(safefat.o)
                0x20042a10                cf_copycfn
 .text.cf_remove
                0x20042ecc      0x344 C:/ISIS/workspace/HOOPOE3/satellite-subsystems/demo/../..//hal/hcc/lib\libHCCD.a(safefat.o)
                0x20042ecc                cf_remove
 .text.cf_setclusternew
                0x20043210       0xf0 C:/ISIS/workspace/HOOPOE3/satellite-subsystems/demo/../..//hal/hcc/lib\libHCCD.a(safefat.o)
                0x20043210                cf_setclusternew
 .text.cf_flush
                0x20043300       0x58 C:/ISIS/workspace/HOOPOE3/satellite-subsystems/demo/../..//hal/hcc/lib\libHCCD.a(safefat.o)
                0x20043300                cf_flush
 .text.cf_getcluster
                0x20043358      0x1b4 C:/ISIS/workspace/HOOPOE3/satellite-subsystems/demo/../..//hal/hcc/lib\libHCCD.a(safefat.o)
                0x20043358                cf_getcluster
 .text.cf_setnextcluster
                0x2004350c      0x194 C:/ISIS/workspace/HOOPOE3/satellite-subsystems/demo/../..//hal/hcc/lib\libHCCD.a(safefat.o)
                0x2004350c                cf_setnextcluster
 .text.cf_getpositions
                0x200436a0       0xbc C:/ISIS/workspace/HOOPOE3/satellite-subsystems/demo/../..//hal/hcc/lib\libHCCD.a(safefat.o)
                0x200436a0                cf_getpositions
 .text.cf_setpositions
                0x2004375c       0xb0 C:/ISIS/workspace/HOOPOE3/satellite-subsystems/demo/../..//hal/hcc/lib\libHCCD.a(safefat.o)
                0x2004375c                cf_setpositions
 .text.cf_opensyncafile
                0x2004380c      0x150 C:/ISIS/workspace/HOOPOE3/satellite-subsystems/demo/../..//hal/hcc/lib\libHCCD.a(safefat.o)
                0x2004380c                cf_opensyncafile
 .text.cf_reloadcfo
                0x2004395c       0xd8 C:/ISIS/workspace/HOOPOE3/satellite-subsystems/demo/../..//hal/hcc/lib\libHCCD.a(safefat.o)
                0x2004395c                cf_reloadcfo
 .text.mcipdc_cmd
                0x20043a34      0x22c C:/ISIS/workspace/HOOPOE3/satellite-subsystems/demo/../..//hal/hcc/lib\libHCCD.a(atmel_mcipdc.o)
 .text.mcipdc_stop
                0x20043c60       0xfc C:/ISIS/workspace/HOOPOE3/satellite-subsystems/demo/../..//hal/hcc/lib\libHCCD.a(atmel_mcipdc.o)
                0x20043c60                mcipdc_stop
 .text.mcipdc_read
                0x20043d5c      0x27c C:/ISIS/workspace/HOOPOE3/satellite-subsystems/demo/../..//hal/hcc/lib\libHCCD.a(atmel_mcipdc.o)
 .text.mcipdc_write
                0x20043fd8      0x298 C:/ISIS/workspace/HOOPOE3/satellite-subsystems/demo/../..//hal/hcc/lib\libHCCD.a(atmel_mcipdc.o)
 .text.mcipdc_readsector
                0x20044270       0x9c C:/ISIS/workspace/HOOPOE3/satellite-subsystems/demo/../..//hal/hcc/lib\libHCCD.a(atmel_mcipdc.o)
                0x20044270                mcipdc_readsector
 .text.mcipdc_readmultiplesector
                0x2004430c      0x124 C:/ISIS/workspace/HOOPOE3/satellite-subsystems/demo/../..//hal/hcc/lib\libHCCD.a(atmel_mcipdc.o)
                0x2004430c                mcipdc_readmultiplesector
 .text.mcipdc_writesector
                0x20044430       0x90 C:/ISIS/workspace/HOOPOE3/satellite-subsystems/demo/../..//hal/hcc/lib\libHCCD.a(atmel_mcipdc.o)
                0x20044430                mcipdc_writesector
 .text.mcipdc_writemultiplesector
                0x200444c0      0x120 C:/ISIS/workspace/HOOPOE3/satellite-subsystems/demo/../..//hal/hcc/lib\libHCCD.a(atmel_mcipdc.o)
                0x200444c0                mcipdc_writemultiplesector
 .text.mcipdc_set_speed
                0x200445e0       0xb0 C:/ISIS/workspace/HOOPOE3/satellite-subsystems/demo/../..//hal/hcc/lib\libHCCD.a(atmel_mcipdc.o)
 .text.mcipdc_get_speed
                0x20044690       0x48 C:/ISIS/workspace/HOOPOE3/satellite-subsystems/demo/../..//hal/hcc/lib\libHCCD.a(atmel_mcipdc.o)
 .text._get_csd_bits
                0x200446d8      0x14c C:/ISIS/workspace/HOOPOE3/satellite-subsystems/demo/../..//hal/hcc/lib\libHCCD.a(atmel_mcipdc.o)
 .text.mcipdc_initcard
                0x20044824      0x8f4 C:/ISIS/workspace/HOOPOE3/satellite-subsystems/demo/../..//hal/hcc/lib\libHCCD.a(atmel_mcipdc.o)
 .text.mcipdc_getstatus
                0x20045118       0xe8 C:/ISIS/workspace/HOOPOE3/satellite-subsystems/demo/../..//hal/hcc/lib\libHCCD.a(atmel_mcipdc.o)
 .text.mcipdc_getphy
                0x20045200       0x90 C:/ISIS/workspace/HOOPOE3/satellite-subsystems/demo/../..//hal/hcc/lib\libHCCD.a(atmel_mcipdc.o)
 .text.mcipdc_release
                0x20045290       0x50 C:/ISIS/workspace/HOOPOE3/satellite-subsystems/demo/../..//hal/hcc/lib\libHCCD.a(atmel_mcipdc.o)
 .text.atmel_mcipdc_initfunc
                0x200452e0      0x160 C:/ISIS/workspace/HOOPOE3/satellite-subsystems/demo/../..//hal/hcc/lib\libHCCD.a(atmel_mcipdc.o)
                0x200452e0                atmel_mcipdc_initfunc
 .text.oal_mutex_create
                0x20045440       0x54 C:/ISIS/workspace/HOOPOE3/satellite-subsystems/demo/../..//hal/hcc/lib\libHCCD.a(oalp_mutex.o)
                0x20045440                oal_mutex_create
 .text.oal_mutex_delete
                0x20045494       0x30 C:/ISIS/workspace/HOOPOE3/satellite-subsystems/demo/../..//hal/hcc/lib\libHCCD.a(oalp_mutex.o)
                0x20045494                oal_mutex_delete
 .text.oal_mutex_get
                0x200454c4       0x58 C:/ISIS/workspace/HOOPOE3/satellite-subsystems/demo/../..//hal/hcc/lib\libHCCD.a(oalp_mutex.o)
                0x200454c4                oal_mutex_get
 .text.oal_mutex_put
                0x2004551c       0x58 C:/ISIS/workspace/HOOPOE3/satellite-subsystems/demo/../..//hal/hcc/lib\libHCCD.a(oalp_mutex.o)
                0x2004551c                oal_mutex_put
 .text.oal_task_get_id
                0x20045574       0x18 C:/ISIS/workspace/HOOPOE3/satellite-subsystems/demo/../..//hal/hcc/lib\libHCCD.a(oalp_task.o)
                0x20045574                oal_task_get_id
 .text.mcipdc_hw_init
                0x2004558c       0xe8 C:/ISIS/workspace/HOOPOE3/satellite-subsystems/demo/../..//hal/hcc/lib\libHCCD.a(atmel_mcipdc_hw.o)
                0x2004558c                mcipdc_hw_init
 .text.mcipdc_hw_delete
                0x20045674       0x78 C:/ISIS/workspace/HOOPOE3/satellite-subsystems/demo/../..//hal/hcc/lib\libHCCD.a(atmel_mcipdc_hw.o)
                0x20045674                mcipdc_hw_delete
 .text.mcipdc_hw_card_plugged
                0x200456ec       0x1c C:/ISIS/workspace/HOOPOE3/satellite-subsystems/demo/../..//hal/hcc/lib\libHCCD.a(atmel_mcipdc_hw.o)
                0x200456ec                mcipdc_hw_card_plugged
 .text.mcipdc_hw_card_writeprotect
                0x20045708       0x1c C:/ISIS/workspace/HOOPOE3/satellite-subsystems/demo/../..//hal/hcc/lib\libHCCD.a(atmel_mcipdc_hw.o)
                0x20045708                mcipdc_hw_card_writeprotect
 .text.psp_getrand
                0x20045724      0x14c C:/ISIS/workspace/HOOPOE3/satellite-subsystems/demo/../..//hal/hcc/lib\libHCCD.a(psp_rand.o)
                0x20045724                psp_getrand
 .text.psp_getcurrenttimedate
                0x20045870       0x8c C:/ISIS/workspace/HOOPOE3/satellite-subsystems/demo/../..//hal/hcc/lib\libHCCD.a(psp_rtc.o)
                0x20045870                psp_getcurrenttimedate
 .text._hcc_get_buf_dsc
                0x200458fc       0x8c C:/ISIS/workspace/HOOPOE3/satellite-subsystems/demo/../..//hal/hcc/lib\libHCCD.a(hcc_mem.o)
 .text._hcc_check_free_pages
                0x20045988      0x18c C:/ISIS/workspace/HOOPOE3/satellite-subsystems/demo/../..//hal/hcc/lib\libHCCD.a(hcc_mem.o)
 .text._hcc_mark_pages
                0x20045b14      0x158 C:/ISIS/workspace/HOOPOE3/satellite-subsystems/demo/../..//hal/hcc/lib\libHCCD.a(hcc_mem.o)
 .text._hcc_clear_lock_dsc
                0x20045c6c       0x80 C:/ISIS/workspace/HOOPOE3/satellite-subsystems/demo/../..//hal/hcc/lib\libHCCD.a(hcc_mem.o)
 .text._hcc_lock_access
                0x20045cec      0x128 C:/ISIS/workspace/HOOPOE3/satellite-subsystems/demo/../..//hal/hcc/lib\libHCCD.a(hcc_mem.o)
 .text._hcc_unlock_access
                0x20045e14       0x30 C:/ISIS/workspace/HOOPOE3/satellite-subsystems/demo/../..//hal/hcc/lib\libHCCD.a(hcc_mem.o)
 .text.hcc_mem_alloc
                0x20045e44      0x454 C:/ISIS/workspace/HOOPOE3/satellite-subsystems/demo/../..//hal/hcc/lib\libHCCD.a(hcc_mem.o)
                0x20045e44                hcc_mem_alloc
 .text.hcc_mem_free
                0x20046298      0x178 C:/ISIS/workspace/HOOPOE3/satellite-subsystems/demo/../..//hal/hcc/lib\libHCCD.a(hcc_mem.o)
                0x20046298                hcc_mem_free
 .text.hcc_mem_add
                0x20046410      0x3b0 C:/ISIS/workspace/HOOPOE3/satellite-subsystems/demo/../..//hal/hcc/lib\libHCCD.a(hcc_mem.o)
                0x20046410                hcc_mem_add
 .text.hcc_mem_init
                0x200467c0      0x164 C:/ISIS/workspace/HOOPOE3/satellite-subsystems/demo/../..//hal/hcc/lib\libHCCD.a(hcc_mem.o)
                0x200467c0                hcc_mem_init
 .text.hcc_mem_start
                0x20046924       0x1c C:/ISIS/workspace/HOOPOE3/satellite-subsystems/demo/../..//hal/hcc/lib\libHCCD.a(hcc_mem.o)
                0x20046924                hcc_mem_start
 .text.hcc_mem_stop
                0x20046940       0x1c C:/ISIS/workspace/HOOPOE3/satellite-subsystems/demo/../..//hal/hcc/lib\libHCCD.a(hcc_mem.o)
                0x20046940                hcc_mem_stop
 .text.hcc_mem_delete
                0x2004695c       0x94 C:/ISIS/workspace/HOOPOE3/satellite-subsystems/demo/../..//hal/hcc/lib\libHCCD.a(hcc_mem.o)
                0x2004695c                hcc_mem_delete
 .text._f_invalidatedir
                0x200469f0       0x28 C:/ISIS/workspace/HOOPOE3/satellite-subsystems/demo/../..//hal/hcc/lib\libHCCD.a(fat.o)
                0x200469f0                _f_invalidatedir
 .text._f_getdirsector
                0x20046a18       0x88 C:/ISIS/workspace/HOOPOE3/satellite-subsystems/demo/../..//hal/hcc/lib\libHCCD.a(fat.o)
                0x20046a18                _f_getdirsector
 .text._f_writedirsector
                0x20046aa0       0x74 C:/ISIS/workspace/HOOPOE3/satellite-subsystems/demo/../..//hal/hcc/lib\libHCCD.a(fat.o)
                0x20046aa0                _f_writedirsector
 .text._f_checknameinv
                0x20046b14      0x180 C:/ISIS/workspace/HOOPOE3/satellite-subsystems/demo/../..//hal/hcc/lib\libHCCD.a(fat.o)
 .text._f_checkname
                0x20046c94       0x7c C:/ISIS/workspace/HOOPOE3/satellite-subsystems/demo/../..//hal/hcc/lib\libHCCD.a(fat.o)
 .text._f_checknamewc
                0x20046d10       0xf8 C:/ISIS/workspace/HOOPOE3/satellite-subsystems/demo/../..//hal/hcc/lib\libHCCD.a(fat.o)
 .text._f_setnameext
                0x20046e08      0x300 C:/ISIS/workspace/HOOPOE3/satellite-subsystems/demo/../..//hal/hcc/lib\libHCCD.a(fat.o)
 .text._f_setfsname
                0x20047108      0x584 C:/ISIS/workspace/HOOPOE3/satellite-subsystems/demo/../..//hal/hcc/lib\libHCCD.a(fat.o)
 .text._f_findfile
                0x2004768c      0x30c C:/ISIS/workspace/HOOPOE3/satellite-subsystems/demo/../..//hal/hcc/lib\libHCCD.a(fat.o)
 .text._f_cmp_wname
                0x20047998      0x274 C:/ISIS/workspace/HOOPOE3/satellite-subsystems/demo/../..//hal/hcc/lib\libHCCD.a(fat.o)
 .text._f_to_string
                0x20047c0c      0x130 C:/ISIS/workspace/HOOPOE3/satellite-subsystems/demo/../..//hal/hcc/lib\libHCCD.a(fat.o)
 .text._f_findfilewc
                0x20047d3c      0x278 C:/ISIS/workspace/HOOPOE3/satellite-subsystems/demo/../..//hal/hcc/lib\libHCCD.a(fat.o)
 .text._f_getfilename
                0x20047fb4      0x20c C:/ISIS/workspace/HOOPOE3/satellite-subsystems/demo/../..//hal/hcc/lib\libHCCD.a(fat.o)
 .text._f_findpath
                0x200481c0      0x35c C:/ISIS/workspace/HOOPOE3/satellite-subsystems/demo/../..//hal/hcc/lib\libHCCD.a(fat.o)
 .text.fn_getdcwd
                0x2004851c      0x1e0 C:/ISIS/workspace/HOOPOE3/satellite-subsystems/demo/../..//hal/hcc/lib\libHCCD.a(fat.o)
                0x2004851c                fn_getdcwd
 .text.fn_getcwd
                0x200486fc      0x1e8 C:/ISIS/workspace/HOOPOE3/satellite-subsystems/demo/../..//hal/hcc/lib\libHCCD.a(fat.o)
                0x200486fc                fn_getcwd
 .text.fn_findfirst
                0x200488e4      0x13c C:/ISIS/workspace/HOOPOE3/satellite-subsystems/demo/../..//hal/hcc/lib\libHCCD.a(fat.o)
                0x200488e4                fn_findfirst
 .text.fn_findnext
                0x20048a20      0x360 C:/ISIS/workspace/HOOPOE3/satellite-subsystems/demo/../..//hal/hcc/lib\libHCCD.a(fat.o)
                0x20048a20                fn_findnext
 .text.fn_chdir
                0x20048d80      0x240 C:/ISIS/workspace/HOOPOE3/satellite-subsystems/demo/../..//hal/hcc/lib\libHCCD.a(fat.o)
                0x20048d80                fn_chdir
 .text.fn_move  0x20048fc0      0xad0 C:/ISIS/workspace/HOOPOE3/satellite-subsystems/demo/../..//hal/hcc/lib\libHCCD.a(fat.o)
                0x20048fc0                fn_move
 .text.fn_rename
                0x20049a90      0x214 C:/ISIS/workspace/HOOPOE3/satellite-subsystems/demo/../..//hal/hcc/lib\libHCCD.a(fat.o)
                0x20049a90                fn_rename
 .text._f_lock_resfile
                0x20049ca4       0x6c C:/ISIS/workspace/HOOPOE3/satellite-subsystems/demo/../..//hal/hcc/lib\libHCCD.a(fat.o)
 .text._f_unlock_resfile
                0x20049d10       0x40 C:/ISIS/workspace/HOOPOE3/satellite-subsystems/demo/../..//hal/hcc/lib\libHCCD.a(fat.o)
 .text._f_getintfile
                0x20049d50      0x124 C:/ISIS/workspace/HOOPOE3/satellite-subsystems/demo/../..//hal/hcc/lib\libHCCD.a(fat.o)
 .text._f_addentry
                0x20049e74      0x540 C:/ISIS/workspace/HOOPOE3/satellite-subsystems/demo/../..//hal/hcc/lib\libHCCD.a(fat.o)
 .text.fn_mkdir
                0x2004a3b4      0x75c C:/ISIS/workspace/HOOPOE3/satellite-subsystems/demo/../..//hal/hcc/lib\libHCCD.a(fat.o)
                0x2004a3b4                fn_mkdir
 .text.fn_filelength
                0x2004ab10      0x1cc C:/ISIS/workspace/HOOPOE3/satellite-subsystems/demo/../..//hal/hcc/lib\libHCCD.a(fat.o)
                0x2004ab10                fn_filelength
 .text.fn_open_sub
                0x2004acdc     0x1698 C:/ISIS/workspace/HOOPOE3/satellite-subsystems/demo/../..//hal/hcc/lib\libHCCD.a(fat.o)
 .text.fn_open  0x2004c374       0x44 C:/ISIS/workspace/HOOPOE3/satellite-subsystems/demo/../..//hal/hcc/lib\libHCCD.a(fat.o)
                0x2004c374                fn_open
 .text.fn_open_nonsafe
                0x2004c3b8       0x44 C:/ISIS/workspace/HOOPOE3/satellite-subsystems/demo/../..//hal/hcc/lib\libHCCD.a(fat.o)
                0x2004c3b8                fn_open_nonsafe
 .text.fn_settimedate
                0x2004c3fc      0x324 C:/ISIS/workspace/HOOPOE3/satellite-subsystems/demo/../..//hal/hcc/lib\libHCCD.a(fat.o)
                0x2004c3fc                fn_settimedate
 .text.fn_gettimedate
                0x2004c720      0x1bc C:/ISIS/workspace/HOOPOE3/satellite-subsystems/demo/../..//hal/hcc/lib\libHCCD.a(fat.o)
                0x2004c720                fn_gettimedate
 .text.fn_stat  0x2004c8dc      0x26c C:/ISIS/workspace/HOOPOE3/satellite-subsystems/demo/../..//hal/hcc/lib\libHCCD.a(fat.o)
                0x2004c8dc                fn_stat
 .text.fn_delete
                0x2004cb48      0x490 C:/ISIS/workspace/HOOPOE3/satellite-subsystems/demo/../..//hal/hcc/lib\libHCCD.a(fat.o)
                0x2004cb48                fn_delete
 .text.fn_getattr
                0x2004cfd8      0x17c C:/ISIS/workspace/HOOPOE3/satellite-subsystems/demo/../..//hal/hcc/lib\libHCCD.a(fat.o)
                0x2004cfd8                fn_getattr
 .text.fn_setattr
                0x2004d154      0x328 C:/ISIS/workspace/HOOPOE3/satellite-subsystems/demo/../..//hal/hcc/lib\libHCCD.a(fat.o)
                0x2004d154                fn_setattr
 .text.fn_rmdir
                0x2004d47c      0x5ac C:/ISIS/workspace/HOOPOE3/satellite-subsystems/demo/../..//hal/hcc/lib\libHCCD.a(fat.o)
                0x2004d47c                fn_rmdir
 .text.fn_getlabel
                0x2004da28      0x39c C:/ISIS/workspace/HOOPOE3/satellite-subsystems/demo/../..//hal/hcc/lib\libHCCD.a(fat.o)
                0x2004da28                fn_getlabel
 .text.fn_setlabel
                0x2004ddc4      0x574 C:/ISIS/workspace/HOOPOE3/satellite-subsystems/demo/../..//hal/hcc/lib\libHCCD.a(fat.o)
                0x2004ddc4                fn_setlabel
 .text.fn_truncate
                0x2004e338      0x7b4 C:/ISIS/workspace/HOOPOE3/satellite-subsystems/demo/../..//hal/hcc/lib\libHCCD.a(fat.o)
                0x2004e338                fn_truncate
 .text.hcc_mem_buf_alloc
                0x2004eaec       0xe4 C:/ISIS/workspace/HOOPOE3/satellite-subsystems/demo/../..//hal/hcc/lib\libHCCD.a(psp_hcc_mem.o)
                0x2004eaec                hcc_mem_buf_alloc
 .text.hcc_mem_buf_free
                0x2004ebd0       0x6c C:/ISIS/workspace/HOOPOE3/satellite-subsystems/demo/../..//hal/hcc/lib\libHCCD.a(psp_hcc_mem.o)
                0x2004ebd0                hcc_mem_buf_free
 .text.checksum_prepareLUTCRC8
                0x2004ec3c       0x88 C:/ISIS/workspace/HOOPOE3/satellite-subsystems/demo/../..//hal/hal/lib\libHALD.a(checksum.o)
                0x2004ec3c                checksum_prepareLUTCRC8
 .text.checksum_calculateCRC8
                0x2004ecc4      0x120 C:/ISIS/workspace/HOOPOE3/satellite-subsystems/demo/../..//hal/hal/lib\libHALD.a(checksum.o)
                0x2004ecc4                checksum_calculateCRC8
 .text.checksum_verifyCRC8
                0x2004ede4       0x8c C:/ISIS/workspace/HOOPOE3/satellite-subsystems/demo/../..//hal/hal/lib\libHALD.a(checksum.o)
                0x2004ede4                checksum_verifyCRC8
 .text.Supervisor_start
                0x2004ee70      0x238 C:/ISIS/workspace/HOOPOE3/satellite-subsystems/demo/../..//hal/hal/lib\libHALD.a(supervisor.o)
                0x2004ee70                Supervisor_start
 .text.SuperVisor_prepareAndCommunicateI2C
                0x2004f0a8      0x294 C:/ISIS/workspace/HOOPOE3/satellite-subsystems/demo/../..//hal/hal/lib\libHALD.a(supervisor.o)
 .text.Supervisor_prepareAndCommunicateSPI
                0x2004f33c       0xc8 C:/ISIS/workspace/HOOPOE3/satellite-subsystems/demo/../..//hal/hal/lib\libHALD.a(supervisor.o)
 .text.Supervisor_performCommunication
                0x2004f404      0x320 C:/ISIS/workspace/HOOPOE3/satellite-subsystems/demo/../..//hal/hal/lib\libHALD.a(supervisor.o)
 .text.Supervisor_emergencyReset
                0x2004f724       0x58 C:/ISIS/workspace/HOOPOE3/satellite-subsystems/demo/../..//hal/hal/lib\libHALD.a(supervisor.o)
                0x2004f724                Supervisor_emergencyReset
 .text.Supervisor_reset
                0x2004f77c       0x58 C:/ISIS/workspace/HOOPOE3/satellite-subsystems/demo/../..//hal/hal/lib\libHALD.a(supervisor.o)
                0x2004f77c                Supervisor_reset
 .text.Supervisor_writeOutput
                0x2004f7d4       0x70 C:/ISIS/workspace/HOOPOE3/satellite-subsystems/demo/../..//hal/hal/lib\libHALD.a(supervisor.o)
                0x2004f7d4                Supervisor_writeOutput
 .text.Supervisor_powerCycleIobc
                0x2004f844       0x58 C:/ISIS/workspace/HOOPOE3/satellite-subsystems/demo/../..//hal/hal/lib\libHALD.a(supervisor.o)
                0x2004f844                Supervisor_powerCycleIobc
 .text.Supervisor_getVersion
                0x2004f89c       0x58 C:/ISIS/workspace/HOOPOE3/satellite-subsystems/demo/../..//hal/hal/lib\libHALD.a(supervisor.o)
                0x2004f89c                Supervisor_getVersion
 .text.Supervisor_getHousekeeping
                0x2004f8f4       0x58 C:/ISIS/workspace/HOOPOE3/satellite-subsystems/demo/../..//hal/hal/lib\libHALD.a(supervisor.o)
                0x2004f8f4                Supervisor_getHousekeeping
 .text.Supervisor_calculateAdcValues
                0x2004f94c      0x3c4 C:/ISIS/workspace/HOOPOE3/satellite-subsystems/demo/../..//hal/hal/lib\libHALD.a(supervisor.o)
                0x2004f94c                Supervisor_calculateAdcValues
 .text.Supervisor_voltageToTempBinarySearch
                0x2004fd10      0x1ac C:/ISIS/workspace/HOOPOE3/satellite-subsystems/demo/../..//hal/hal/lib\libHALD.a(supervisor.o)
 .text.Supervisor_CalculateCRC
                0x2004febc       0x8c C:/ISIS/workspace/HOOPOE3/satellite-subsystems/demo/../..//hal/hal/lib\libHALD.a(supervisor.o)
 .text.ADC_ConvertRaw10bitToMillivolt
                0x2004ff48       0x50 C:/ISIS/workspace/HOOPOE3/satellite-subsystems/demo/../..//hal/hal/lib\libHALD.a(ADC.o)
                0x2004ff48                ADC_ConvertRaw10bitToMillivolt
 .text.ADC_ConvertRaw8bitToMillivolt
                0x2004ff98       0x44 C:/ISIS/workspace/HOOPOE3/satellite-subsystems/demo/../..//hal/hal/lib\libHALD.a(ADC.o)
                0x2004ff98                ADC_ConvertRaw8bitToMillivolt
 .text.ADC_SingleShot
                0x2004ffdc      0x230 C:/ISIS/workspace/HOOPOE3/satellite-subsystems/demo/../..//hal/hal/lib\libHALD.a(ADC.o)
                0x2004ffdc                ADC_SingleShot
 .text.ADC_start
                0x2005020c      0x5d8 C:/ISIS/workspace/HOOPOE3/satellite-subsystems/demo/../..//hal/hal/lib\libHALD.a(ADC.o)
                0x2005020c                ADC_start
 .text.clearPDCtransfers
                0x200507e4       0x88 C:/ISIS/workspace/HOOPOE3/satellite-subsystems/demo/../..//hal/hal/lib\libHALD.a(ADC.o)
 .text.ADC_stop
                0x2005086c       0x94 C:/ISIS/workspace/HOOPOE3/satellite-subsystems/demo/../..//hal/hal/lib\libHALD.a(ADC.o)
                0x2005086c                ADC_stop
 .text.validateTransferParameters
                0x20050900      0x10c C:/ISIS/workspace/HOOPOE3/satellite-subsystems/demo/../..//hal/hal/lib\libHALD.a(I2C.o)
 .text.I2C_queueTransfer
                0x20050a0c       0xe8 C:/ISIS/workspace/HOOPOE3/satellite-subsystems/demo/../..//hal/hal/lib\libHALD.a(I2C.o)
                0x20050a0c                I2C_queueTransfer
 .text.I2C_internalCallback
                0x20050af4       0x64 C:/ISIS/workspace/HOOPOE3/satellite-subsystems/demo/../..//hal/hal/lib\libHALD.a(I2C.o)
 .text.I2C_doBlockingTransfer
                0x20050b58      0x160 C:/ISIS/workspace/HOOPOE3/satellite-subsystems/demo/../..//hal/hal/lib\libHALD.a(I2C.o)
 .text.I2C_write
                0x20050cb8      0x110 C:/ISIS/workspace/HOOPOE3/satellite-subsystems/demo/../..//hal/hal/lib\libHALD.a(I2C.o)
                0x20050cb8                I2C_write
 .text.I2C_read
                0x20050dc8      0x110 C:/ISIS/workspace/HOOPOE3/satellite-subsystems/demo/../..//hal/hal/lib\libHALD.a(I2C.o)
                0x20050dc8                I2C_read
 .text.I2C_writeRead
                0x20050ed8      0x180 C:/ISIS/workspace/HOOPOE3/satellite-subsystems/demo/../..//hal/hal/lib\libHALD.a(I2C.o)
                0x20050ed8                I2C_writeRead
 .text.I2C_start
                0x20051058      0x2e8 C:/ISIS/workspace/HOOPOE3/satellite-subsystems/demo/../..//hal/hal/lib\libHALD.a(I2C.o)
                0x20051058                I2C_start
 .text.I2C_stop
                0x20051340      0x184 C:/ISIS/workspace/HOOPOE3/satellite-subsystems/demo/../..//hal/hal/lib\libHALD.a(I2C.o)
                0x20051340                I2C_stop
 .text.I2C_blockBus
                0x200514c4       0x50 C:/ISIS/workspace/HOOPOE3/satellite-subsystems/demo/../..//hal/hal/lib\libHALD.a(I2C.o)
                0x200514c4                I2C_blockBus
 .text.I2C_releaseBus
                0x20051514       0x2c C:/ISIS/workspace/HOOPOE3/satellite-subsystems/demo/../..//hal/hal/lib\libHALD.a(I2C.o)
                0x20051514                I2C_releaseBus
 .text.I2C_setTransferTimeout
                0x20051540       0x48 C:/ISIS/workspace/HOOPOE3/satellite-subsystems/demo/../..//hal/hal/lib\libHALD.a(I2C.o)
                0x20051540                I2C_setTransferTimeout
 .text.I2C_getDriverState
                0x20051588       0x28 C:/ISIS/workspace/HOOPOE3/satellite-subsystems/demo/../..//hal/hal/lib\libHALD.a(I2C.o)
                0x20051588                I2C_getDriverState
 .text.I2C_getCurrentTransferStatus
                0x200515b0       0x28 C:/ISIS/workspace/HOOPOE3/satellite-subsystems/demo/../..//hal/hal/lib\libHALD.a(I2C.o)
                0x200515b0                I2C_getCurrentTransferStatus
 .text.TaskClockStretchingTimeout
                0x200515d8       0xe4 C:/ISIS/workspace/HOOPOE3/satellite-subsystems/demo/../..//hal/hal/lib\libHALD.a(I2Cslave.o)
                0x200515d8                TaskClockStretchingTimeout
 .text.I2Cslave_start
                0x200516bc      0x478 C:/ISIS/workspace/HOOPOE3/satellite-subsystems/demo/../..//hal/hal/lib\libHALD.a(I2Cslave.o)
                0x200516bc                I2Cslave_start
 .text.I2Cslave_stop
                0x20051b34      0x1f4 C:/ISIS/workspace/HOOPOE3/satellite-subsystems/demo/../..//hal/hal/lib\libHALD.a(I2Cslave.o)
                0x20051b34                I2Cslave_stop
 .text.I2Cslave_read
                0x20051d28       0xc4 C:/ISIS/workspace/HOOPOE3/satellite-subsystems/demo/../..//hal/hal/lib\libHALD.a(I2Cslave.o)
                0x20051d28                I2Cslave_read
 .text.I2Cslave_writeNonBlocking
                0x20051dec       0xc0 C:/ISIS/workspace/HOOPOE3/satellite-subsystems/demo/../..//hal/hal/lib\libHALD.a(I2Cslave.o)
 .text.I2Cslave_write
                0x20051eac       0xc8 C:/ISIS/workspace/HOOPOE3/satellite-subsystems/demo/../..//hal/hal/lib\libHALD.a(I2Cslave.o)
                0x20051eac                I2Cslave_write
 .text.I2Cslave_getDriverState
                0x20051f74       0x28 C:/ISIS/workspace/HOOPOE3/satellite-subsystems/demo/../..//hal/hal/lib\libHALD.a(I2Cslave.o)
                0x20051f74                I2Cslave_getDriverState
 .text.I2Cslave_mute
                0x20051f9c       0x40 C:/ISIS/workspace/HOOPOE3/satellite-subsystems/demo/../..//hal/hal/lib\libHALD.a(I2Cslave.o)
                0x20051f9c                I2Cslave_mute
 .text.I2Cslave_unMute
                0x20051fdc       0x34 C:/ISIS/workspace/HOOPOE3/satellite-subsystems/demo/../..//hal/hal/lib\libHALD.a(I2Cslave.o)
                0x20051fdc                I2Cslave_unMute
 .text.PWM_startUp
                0x20052010       0xe8 C:/ISIS/workspace/HOOPOE3/satellite-subsystems/demo/../..//hal/hal/lib\libHALD.a(PWM.o)
 .text.PWM_start
                0x200520f8       0x8c C:/ISIS/workspace/HOOPOE3/satellite-subsystems/demo/../..//hal/hal/lib\libHALD.a(PWM.o)
                0x200520f8                PWM_start
 .text.PWM_startAuto
                0x20052184       0xf8 C:/ISIS/workspace/HOOPOE3/satellite-subsystems/demo/../..//hal/hal/lib\libHALD.a(PWM.o)
                0x20052184                PWM_startAuto
 .text.PWM_setRawDutyCycles
                0x2005227c      0x170 C:/ISIS/workspace/HOOPOE3/satellite-subsystems/demo/../..//hal/hal/lib\libHALD.a(PWM.o)
                0x2005227c                PWM_setRawDutyCycles
 .text.PWM_setAllDutyCyclesZero
                0x200523ec       0x64 C:/ISIS/workspace/HOOPOE3/satellite-subsystems/demo/../..//hal/hal/lib\libHALD.a(PWM.o)
                0x200523ec                PWM_setAllDutyCyclesZero
 .text.PWM_setAllDutyCyclesFull
                0x20052450       0x74 C:/ISIS/workspace/HOOPOE3/satellite-subsystems/demo/../..//hal/hal/lib\libHALD.a(PWM.o)
                0x20052450                PWM_setAllDutyCyclesFull
 .text.PWM_setDutyCycles
                0x200524c4       0xcc C:/ISIS/workspace/HOOPOE3/satellite-subsystems/demo/../..//hal/hal/lib\libHALD.a(PWM.o)
                0x200524c4                PWM_setDutyCycles
 .text.PWM_stop
                0x20052590       0x54 C:/ISIS/workspace/HOOPOE3/satellite-subsystems/demo/../..//hal/hal/lib\libHALD.a(PWM.o)
                0x20052590                PWM_stop
 .text.clearPDCtransfers
                0x200525e4       0xdc C:/ISIS/workspace/HOOPOE3/satellite-subsystems/demo/../..//hal/hal/lib\libHALD.a(SPI.o)
 .text.SPI_start
                0x200526c0      0x4c0 C:/ISIS/workspace/HOOPOE3/satellite-subsystems/demo/../..//hal/hal/lib\libHALD.a(SPI.o)
                0x200526c0                SPI_start
 .text.SPI_stop
                0x20052b80      0x22c C:/ISIS/workspace/HOOPOE3/satellite-subsystems/demo/../..//hal/hal/lib\libHALD.a(SPI.o)
                0x20052b80                SPI_stop
 .text.SPI_queueTransfer
                0x20052dac      0x190 C:/ISIS/workspace/HOOPOE3/satellite-subsystems/demo/../..//hal/hal/lib\libHALD.a(SPI.o)
                0x20052dac                SPI_queueTransfer
 .text.SPI_internalCallback
                0x20052f3c       0x64 C:/ISIS/workspace/HOOPOE3/satellite-subsystems/demo/../..//hal/hal/lib\libHALD.a(SPI.o)
 .text.SPI_writeRead
                0x20052fa0      0x188 C:/ISIS/workspace/HOOPOE3/satellite-subsystems/demo/../..//hal/hal/lib\libHALD.a(SPI.o)
                0x20052fa0                SPI_writeRead
 .text.waitForTransfer
                0x20053128       0x68 C:/ISIS/workspace/HOOPOE3/satellite-subsystems/demo/../..//hal/hal/lib\libHALD.a(SPI.o)
 .text.SPI_getDriverState
                0x20053190       0x58 C:/ISIS/workspace/HOOPOE3/satellite-subsystems/demo/../..//hal/hal/lib\libHALD.a(SPI.o)
                0x20053190                SPI_getDriverState
 .text.clearPDCtransfers
                0x200531e8       0xdc C:/ISIS/workspace/HOOPOE3/satellite-subsystems/demo/../..//hal/hal/lib\libHALD.a(UART.o)
 .text.UART_start
                0x200532c4      0x6d4 C:/ISIS/workspace/HOOPOE3/satellite-subsystems/demo/../..//hal/hal/lib\libHALD.a(UART.o)
                0x200532c4                UART_start
 .text.UART_setRxEnabled
                0x20053998       0xac C:/ISIS/workspace/HOOPOE3/satellite-subsystems/demo/../..//hal/hal/lib\libHALD.a(UART.o)
                0x20053998                UART_setRxEnabled
 .text.UART_isRxEnabled
                0x20053a44       0x54 C:/ISIS/workspace/HOOPOE3/satellite-subsystems/demo/../..//hal/hal/lib\libHALD.a(UART.o)
                0x20053a44                UART_isRxEnabled
 .text.UART_stop
                0x20053a98      0x250 C:/ISIS/workspace/HOOPOE3/satellite-subsystems/demo/../..//hal/hal/lib\libHALD.a(UART.o)
                0x20053a98                UART_stop
 .text.UART_queueTransfer
                0x20053ce8      0x1a8 C:/ISIS/workspace/HOOPOE3/satellite-subsystems/demo/../..//hal/hal/lib\libHALD.a(UART.o)
                0x20053ce8                UART_queueTransfer
 .text.UART_write
                0x20053e90      0x204 C:/ISIS/workspace/HOOPOE3/satellite-subsystems/demo/../..//hal/hal/lib\libHALD.a(UART.o)
                0x20053e90                UART_write
 .text.UART_read
                0x20054094      0x204 C:/ISIS/workspace/HOOPOE3/satellite-subsystems/demo/../..//hal/hal/lib\libHALD.a(UART.o)
                0x20054094                UART_read
 .text.UART_getPrevBytesRead
                0x20054298       0x70 C:/ISIS/workspace/HOOPOE3/satellite-subsystems/demo/../..//hal/hal/lib\libHALD.a(UART.o)
                0x20054298                UART_getPrevBytesRead
 .text.taskWriteRegulator
                0x20054308      0x2c0 C:/ISIS/workspace/HOOPOE3/satellite-subsystems/demo/../..//hal/hal/lib\libHALD.a(UART.o)
 .text.taskReadRegulator
                0x200545c8      0x2b4 C:/ISIS/workspace/HOOPOE3/satellite-subsystems/demo/../..//hal/hal/lib\libHALD.a(UART.o)
 .text.UART_setPostTransferDelay
                0x2005487c       0x60 C:/ISIS/workspace/HOOPOE3/satellite-subsystems/demo/../..//hal/hal/lib\libHALD.a(UART.o)
                0x2005487c                UART_setPostTransferDelay
 .text.UART_getDriverState
                0x200548dc       0x88 C:/ISIS/workspace/HOOPOE3/satellite-subsystems/demo/../..//hal/hal/lib\libHALD.a(UART.o)
                0x200548dc                UART_getDriverState
 .text.FRAM_start
                0x20054964       0xf4 C:/ISIS/workspace/HOOPOE3/satellite-subsystems/demo/../..//hal/hal/lib\libHALD.a(FRAM.o)
                0x20054964                FRAM_start
 .text.FRAM_stop
                0x20054a58       0x6c C:/ISIS/workspace/HOOPOE3/satellite-subsystems/demo/../..//hal/hal/lib\libHALD.a(FRAM.o)
                0x20054a58                FRAM_stop
 .text.FRAM_dummyCallback
                0x20054ac4       0x24 C:/ISIS/workspace/HOOPOE3/satellite-subsystems/demo/../..//hal/hal/lib\libHALD.a(FRAM.o)
                0x20054ac4                FRAM_dummyCallback
 .text.FRAM_unlockingCallback
                0x20054ae8       0x78 C:/ISIS/workspace/HOOPOE3/satellite-subsystems/demo/../..//hal/hal/lib\libHALD.a(FRAM.o)
                0x20054ae8                FRAM_unlockingCallback
 .text.doBlockingTransfer
                0x20054b60       0x88 C:/ISIS/workspace/HOOPOE3/satellite-subsystems/demo/../..//hal/hal/lib\libHALD.a(FRAM.o)
 .text.FRAM_writePacket
                0x20054be8      0x148 C:/ISIS/workspace/HOOPOE3/satellite-subsystems/demo/../..//hal/hal/lib\libHALD.a(FRAM.o)
 .text.FRAM_write
                0x20054d30      0x1c8 C:/ISIS/workspace/HOOPOE3/satellite-subsystems/demo/../..//hal/hal/lib\libHALD.a(FRAM.o)
                0x20054d30                FRAM_write
 .text.FRAM_readPacket
                0x20054ef8      0x114 C:/ISIS/workspace/HOOPOE3/satellite-subsystems/demo/../..//hal/hal/lib\libHALD.a(FRAM.o)
 .text.FRAM_read
                0x2005500c      0x1d4 C:/ISIS/workspace/HOOPOE3/satellite-subsystems/demo/../..//hal/hal/lib\libHALD.a(FRAM.o)
                0x2005500c                FRAM_read
 .text.FRAM_writeAndVerifyPacket
                0x200551e0       0x8c C:/ISIS/workspace/HOOPOE3/satellite-subsystems/demo/../..//hal/hal/lib\libHALD.a(FRAM.o)
 .text.FRAM_writeAndVerify
                0x2005526c      0x1e4 C:/ISIS/workspace/HOOPOE3/satellite-subsystems/demo/../..//hal/hal/lib\libHALD.a(FRAM.o)
                0x2005526c                FRAM_writeAndVerify
 .text.FRAM_protectBlocks
                0x20055450      0x1ec C:/ISIS/workspace/HOOPOE3/satellite-subsystems/demo/../..//hal/hal/lib\libHALD.a(FRAM.o)
                0x20055450                FRAM_protectBlocks
 .text.FRAM_getProtectedBlocks
                0x2005563c      0x108 C:/ISIS/workspace/HOOPOE3/satellite-subsystems/demo/../..//hal/hal/lib\libHALD.a(FRAM.o)
                0x2005563c                FRAM_getProtectedBlocks
 .text.FRAM_getDeviceID
                0x20055744      0x13c C:/ISIS/workspace/HOOPOE3/satellite-subsystems/demo/../..//hal/hal/lib\libHALD.a(FRAM.o)
                0x20055744                FRAM_getDeviceID
 .text.uSdelay  0x20055880       0x8c C:/ISIS/workspace/HOOPOE3/satellite-subsystems/demo/../..//hal/hal/lib\libHALD.a(RTC.o)
 .text.RTC_printSeconds
                0x2005590c       0x8c C:/ISIS/workspace/HOOPOE3/satellite-subsystems/demo/../..//hal/hal/lib\libHALD.a(RTC.o)
                0x2005590c                RTC_printSeconds
 .text.RTC_start
                0x20055998       0x3c C:/ISIS/workspace/HOOPOE3/satellite-subsystems/demo/../..//hal/hal/lib\libHALD.a(RTC.o)
                0x20055998                RTC_start
 .text.RTC_stop
                0x200559d4       0x14 C:/ISIS/workspace/HOOPOE3/satellite-subsystems/demo/../..//hal/hal/lib\libHALD.a(RTC.o)
                0x200559d4                RTC_stop
 .text.RTC_setTime
                0x200559e8      0x2a4 C:/ISIS/workspace/HOOPOE3/satellite-subsystems/demo/../..//hal/hal/lib\libHALD.a(RTC.o)
                0x200559e8                RTC_setTime
 .text.RTC_getTime
                0x20055c8c      0x224 C:/ISIS/workspace/HOOPOE3/satellite-subsystems/demo/../..//hal/hal/lib\libHALD.a(RTC.o)
                0x20055c8c                RTC_getTime
 .text.RTC_testGetSet
                0x20055eb0      0x178 C:/ISIS/workspace/HOOPOE3/satellite-subsystems/demo/../..//hal/hal/lib\libHALD.a(RTC.o)
                0x20055eb0                RTC_testGetSet
 .text.RTC_testSeconds
                0x20056028       0xb8 C:/ISIS/workspace/HOOPOE3/satellite-subsystems/demo/../..//hal/hal/lib\libHALD.a(RTC.o)
                0x20056028                RTC_testSeconds
 .text.RTC_checkTimeValid
                0x200560e0       0xdc C:/ISIS/workspace/HOOPOE3/satellite-subsystems/demo/../..//hal/hal/lib\libHALD.a(RTC.o)
                0x200560e0                RTC_checkTimeValid
 .text.RTC_getTemperature
                0x200561bc      0x104 C:/ISIS/workspace/HOOPOE3/satellite-subsystems/demo/../..//hal/hal/lib\libHALD.a(RTC.o)
                0x200561bc                RTC_getTemperature
 .text.uSdelay  0x200562c0       0x8c C:/ISIS/workspace/HOOPOE3/satellite-subsystems/demo/../..//hal/hal/lib\libHALD.a(RTT.o)
 .text.RTT_start
                0x2005634c       0x24 C:/ISIS/workspace/HOOPOE3/satellite-subsystems/demo/../..//hal/hal/lib\libHALD.a(RTT.o)
                0x2005634c                RTT_start
 .text.RTT_GetTime
                0x20056370       0x24 C:/ISIS/workspace/HOOPOE3/satellite-subsystems/demo/../..//hal/hal/lib\libHALD.a(RTT.o)
                0x20056370                RTT_GetTime
 .text.RTT_GetStatus
                0x20056394       0x24 C:/ISIS/workspace/HOOPOE3/satellite-subsystems/demo/../..//hal/hal/lib\libHALD.a(RTT.o)
                0x20056394                RTT_GetStatus
 .text.RTT_test
                0x200563b8       0x54 C:/ISIS/workspace/HOOPOE3/satellite-subsystems/demo/../..//hal/hal/lib\libHALD.a(RTT.o)
                0x200563b8                RTT_test
 .text.Time_start
                0x2005640c      0x150 C:/ISIS/workspace/HOOPOE3/satellite-subsystems/demo/../..//hal/hal/lib\libHALD.a(Time.o)
                0x2005640c                Time_start
 .text.taskTimeSync
                0x2005655c       0x38 C:/ISIS/workspace/HOOPOE3/satellite-subsystems/demo/../..//hal/hal/lib\libHALD.a(Time.o)
 .text.Time_set
                0x20056594      0x278 C:/ISIS/workspace/HOOPOE3/satellite-subsystems/demo/../..//hal/hal/lib\libHALD.a(Time.o)
                0x20056594                Time_set
 .text.Time_isLeapYear
                0x2005680c       0x98 C:/ISIS/workspace/HOOPOE3/satellite-subsystems/demo/../..//hal/hal/lib\libHALD.a(Time.o)
                0x2005680c                Time_isLeapYear
 .text.Time_get
                0x200568a4      0x410 C:/ISIS/workspace/HOOPOE3/satellite-subsystems/demo/../..//hal/hal/lib\libHALD.a(Time.o)
                0x200568a4                Time_get
 .text.Time_getUnixEpoch
                0x20056cb4       0xf4 C:/ISIS/workspace/HOOPOE3/satellite-subsystems/demo/../..//hal/hal/lib\libHALD.a(Time.o)
                0x20056cb4                Time_getUnixEpoch
 .text.secondsOfYearToTime
                0x20056da8      0x328 C:/ISIS/workspace/HOOPOE3/satellite-subsystems/demo/../..//hal/hal/lib\libHALD.a(Time.o)
 .text.Time_setUnixEpoch
                0x200570d0      0x100 C:/ISIS/workspace/HOOPOE3/satellite-subsystems/demo/../..//hal/hal/lib\libHALD.a(Time.o)
                0x200570d0                Time_setUnixEpoch
 .text.Time_getUptimeSeconds
                0x200571d0       0x28 C:/ISIS/workspace/HOOPOE3/satellite-subsystems/demo/../..//hal/hal/lib\libHALD.a(Time.o)
                0x200571d0                Time_getUptimeSeconds
 .text.Time_sync
                0x200571f8      0x2b8 C:/ISIS/workspace/HOOPOE3/satellite-subsystems/demo/../..//hal/hal/lib\libHALD.a(Time.o)
                0x200571f8                Time_sync
 .text.Time_syncIfNeeded
                0x200574b0       0x70 C:/ISIS/workspace/HOOPOE3/satellite-subsystems/demo/../..//hal/hal/lib\libHALD.a(Time.o)
                0x200574b0                Time_syncIfNeeded
 .text.Time_setSyncInterval
                0x20057520       0x38 C:/ISIS/workspace/HOOPOE3/satellite-subsystems/demo/../..//hal/hal/lib\libHALD.a(Time.o)
                0x20057520                Time_setSyncInterval
 .text.Time_diff
                0x20057558      0x24c C:/ISIS/workspace/HOOPOE3/satellite-subsystems/demo/../..//hal/hal/lib\libHALD.a(Time.o)
                0x20057558                Time_diff
 .text.Time_isRTCworking
                0x200577a4       0x24 C:/ISIS/workspace/HOOPOE3/satellite-subsystems/demo/../..//hal/hal/lib\libHALD.a(Time.o)
                0x200577a4                Time_isRTCworking
 .text.WDT_start
                0x200577c8       0x48 C:/ISIS/workspace/HOOPOE3/satellite-subsystems/demo/../..//hal/hal/lib\libHALD.a(WatchDogTimerNoOS.o)
                0x200577c8                WDT_start
 .text.WDT_startWatchdogKickTask
                0x20057810       0xb4 C:/ISIS/workspace/HOOPOE3/satellite-subsystems/demo/../..//hal/hal/lib\libHALD.a(WatchDogTimerOS.o)
                0x20057810                WDT_startWatchdogKickTask
 .text.WDT_stopWatchdogKickTask
                0x200578c4       0x3c C:/ISIS/workspace/HOOPOE3/satellite-subsystems/demo/../..//hal/hal/lib\libHALD.a(WatchDogTimerOS.o)
                0x200578c4                WDT_stopWatchdogKickTask
 .text.WDT_forceKickEveryNms
                0x20057900       0x50 C:/ISIS/workspace/HOOPOE3/satellite-subsystems/demo/../..//hal/hal/lib\libHALD.a(WatchDogTimerOS.o)
                0x20057900                WDT_forceKickEveryNms
 .text.UTIL_DbguGetString
                0x20057950       0xe0 C:/ISIS/workspace/HOOPOE3/satellite-subsystems/demo/../..//hal/hal/lib\libHALD.a(util.o)
                0x20057950                UTIL_DbguGetString
 .text.LED_glow
                0x20057a30       0x58 C:/ISIS/workspace/HOOPOE3/satellite-subsystems/demo/../..//hal/hal/lib\libHALD.a(LED.o)
                0x20057a30                LED_glow
 .text.LED_dark
                0x20057a88       0x58 C:/ISIS/workspace/HOOPOE3/satellite-subsystems/demo/../..//hal/hal/lib\libHALD.a(LED.o)
                0x20057a88                LED_dark
 .text.LED_toggle
                0x20057ae0       0x50 C:/ISIS/workspace/HOOPOE3/satellite-subsystems/demo/../..//hal/hal/lib\libHALD.a(LED.o)
                0x20057ae0                LED_toggle
 .text.xCoRoutineCreate
                0x20057b30      0x168 C:/ISIS/workspace/HOOPOE3/satellite-subsystems/demo/../..//hal/freertos/lib\libFreeRTOSD.a(croutine.o)
                0x20057b30                xCoRoutineCreate
 .text.vCoRoutineAddToDelayedList
                0x20057c98       0xe0 C:/ISIS/workspace/HOOPOE3/satellite-subsystems/demo/../..//hal/freertos/lib\libFreeRTOSD.a(croutine.o)
                0x20057c98                vCoRoutineAddToDelayedList
 .text.prvCheckPendingReadyList
                0x20057d78       0xe8 C:/ISIS/workspace/HOOPOE3/satellite-subsystems/demo/../..//hal/freertos/lib\libFreeRTOSD.a(croutine.o)
 .text.prvCheckDelayedList
                0x20057e60      0x1d8 C:/ISIS/workspace/HOOPOE3/satellite-subsystems/demo/../..//hal/freertos/lib\libFreeRTOSD.a(croutine.o)
 .text.vCoRoutineSchedule
                0x20058038      0x12c C:/ISIS/workspace/HOOPOE3/satellite-subsystems/demo/../..//hal/freertos/lib\libFreeRTOSD.a(croutine.o)
                0x20058038                vCoRoutineSchedule
 .text.prvInitialiseCoRoutineLists
                0x20058164       0xa4 C:/ISIS/workspace/HOOPOE3/satellite-subsystems/demo/../..//hal/freertos/lib\libFreeRTOSD.a(croutine.o)
 .text.xCoRoutineRemoveFromEventList
                0x20058208       0x8c C:/ISIS/workspace/HOOPOE3/satellite-subsystems/demo/../..//hal/freertos/lib\libFreeRTOSD.a(croutine.o)
                0x20058208                xCoRoutineRemoveFromEventList
 .text.vListInitialise
                0x20058294       0x64 C:/ISIS/workspace/HOOPOE3/satellite-subsystems/demo/../..//hal/freertos/lib\libFreeRTOSD.a(list.o)
                0x20058294                vListInitialise
 .text.vListInitialiseItem
                0x200582f8       0x28 C:/ISIS/workspace/HOOPOE3/satellite-subsystems/demo/../..//hal/freertos/lib\libFreeRTOSD.a(list.o)
                0x200582f8                vListInitialiseItem
 .text.vListInsertEnd
                0x20058320       0x84 C:/ISIS/workspace/HOOPOE3/satellite-subsystems/demo/../..//hal/freertos/lib\libFreeRTOSD.a(list.o)
                0x20058320                vListInsertEnd
 .text.vListInsert
                0x200583a4       0xd4 C:/ISIS/workspace/HOOPOE3/satellite-subsystems/demo/../..//hal/freertos/lib\libFreeRTOSD.a(list.o)
                0x200583a4                vListInsert
 .text.uxListRemove
                0x20058478       0xa0 C:/ISIS/workspace/HOOPOE3/satellite-subsystems/demo/../..//hal/freertos/lib\libFreeRTOSD.a(list.o)
                0x20058478                uxListRemove
 .text.xQueueGenericReset
                0x20058518      0x150 C:/ISIS/workspace/HOOPOE3/satellite-subsystems/demo/../..//hal/freertos/lib\libFreeRTOSD.a(queue.o)
                0x20058518                xQueueGenericReset
 .text.xQueueGenericCreate
                0x20058668       0xfc C:/ISIS/workspace/HOOPOE3/satellite-subsystems/demo/../..//hal/freertos/lib\libFreeRTOSD.a(queue.o)
                0x20058668                xQueueGenericCreate
 .text.xQueueCreateMutex
                0x20058764      0x110 C:/ISIS/workspace/HOOPOE3/satellite-subsystems/demo/../..//hal/freertos/lib\libFreeRTOSD.a(queue.o)
                0x20058764                xQueueCreateMutex
 .text.xQueueGiveMutexRecursive
                0x20058874       0xc0 C:/ISIS/workspace/HOOPOE3/satellite-subsystems/demo/../..//hal/freertos/lib\libFreeRTOSD.a(queue.o)
                0x20058874                xQueueGiveMutexRecursive
 .text.xQueueTakeMutexRecursive
                0x20058934       0xd4 C:/ISIS/workspace/HOOPOE3/satellite-subsystems/demo/../..//hal/freertos/lib\libFreeRTOSD.a(queue.o)
                0x20058934                xQueueTakeMutexRecursive
 .text.xQueueCreateCountingSemaphore
                0x20058a08       0x88 C:/ISIS/workspace/HOOPOE3/satellite-subsystems/demo/../..//hal/freertos/lib\libFreeRTOSD.a(queue.o)
                0x20058a08                xQueueCreateCountingSemaphore
 .text.xQueueGenericSend
                0x20058a90      0x268 C:/ISIS/workspace/HOOPOE3/satellite-subsystems/demo/../..//hal/freertos/lib\libFreeRTOSD.a(queue.o)
                0x20058a90                xQueueGenericSend
 .text.xQueueGenericSendFromISR
                0x20058cf8      0x19c C:/ISIS/workspace/HOOPOE3/satellite-subsystems/demo/../..//hal/freertos/lib\libFreeRTOSD.a(queue.o)
                0x20058cf8                xQueueGenericSendFromISR
 .text.xQueueGenericReceive
                0x20058e94      0x2cc C:/ISIS/workspace/HOOPOE3/satellite-subsystems/demo/../..//hal/freertos/lib\libFreeRTOSD.a(queue.o)
                0x20058e94                xQueueGenericReceive
 .text.xQueueReceiveFromISR
                0x20059160      0x15c C:/ISIS/workspace/HOOPOE3/satellite-subsystems/demo/../..//hal/freertos/lib\libFreeRTOSD.a(queue.o)
                0x20059160                xQueueReceiveFromISR
 .text.xQueuePeekFromISR
                0x200592bc       0xf0 C:/ISIS/workspace/HOOPOE3/satellite-subsystems/demo/../..//hal/freertos/lib\libFreeRTOSD.a(queue.o)
                0x200592bc                xQueuePeekFromISR
 .text.uxQueueMessagesWaiting
                0x200593ac       0x6c C:/ISIS/workspace/HOOPOE3/satellite-subsystems/demo/../..//hal/freertos/lib\libFreeRTOSD.a(queue.o)
                0x200593ac                uxQueueMessagesWaiting
 .text.uxQueueSpacesAvailable
                0x20059418       0x80 C:/ISIS/workspace/HOOPOE3/satellite-subsystems/demo/../..//hal/freertos/lib\libFreeRTOSD.a(queue.o)
                0x20059418                uxQueueSpacesAvailable
 .text.uxQueueMessagesWaitingFromISR
                0x20059498       0x64 C:/ISIS/workspace/HOOPOE3/satellite-subsystems/demo/../..//hal/freertos/lib\libFreeRTOSD.a(queue.o)
                0x20059498                uxQueueMessagesWaitingFromISR
 .text.vQueueDelete
                0x200594fc       0x78 C:/ISIS/workspace/HOOPOE3/satellite-subsystems/demo/../..//hal/freertos/lib\libFreeRTOSD.a(queue.o)
                0x200594fc                vQueueDelete
 .text.prvCopyDataToQueue
                0x20059574      0x190 C:/ISIS/workspace/HOOPOE3/satellite-subsystems/demo/../..//hal/freertos/lib\libFreeRTOSD.a(queue.o)
 .text.prvCopyDataFromQueue
                0x20059704       0x90 C:/ISIS/workspace/HOOPOE3/satellite-subsystems/demo/../..//hal/freertos/lib\libFreeRTOSD.a(queue.o)
 .text.prvUnlockQueue
                0x20059794      0x100 C:/ISIS/workspace/HOOPOE3/satellite-subsystems/demo/../..//hal/freertos/lib\libFreeRTOSD.a(queue.o)
 .text.prvIsQueueEmpty
                0x20059894       0x4c C:/ISIS/workspace/HOOPOE3/satellite-subsystems/demo/../..//hal/freertos/lib\libFreeRTOSD.a(queue.o)
 .text.xQueueIsQueueEmptyFromISR
                0x200598e0       0x7c C:/ISIS/workspace/HOOPOE3/satellite-subsystems/demo/../..//hal/freertos/lib\libFreeRTOSD.a(queue.o)
                0x200598e0                xQueueIsQueueEmptyFromISR
 .text.prvIsQueueFull
                0x2005995c       0x54 C:/ISIS/workspace/HOOPOE3/satellite-subsystems/demo/../..//hal/freertos/lib\libFreeRTOSD.a(queue.o)
 .text.xQueueIsQueueFullFromISR
                0x200599b0       0x84 C:/ISIS/workspace/HOOPOE3/satellite-subsystems/demo/../..//hal/freertos/lib\libFreeRTOSD.a(queue.o)
                0x200599b0                xQueueIsQueueFullFromISR
 .text.vQueueAddToRegistry
                0x20059a34       0x90 C:/ISIS/workspace/HOOPOE3/satellite-subsystems/demo/../..//hal/freertos/lib\libFreeRTOSD.a(queue.o)
                0x20059a34                vQueueAddToRegistry
 .text.vQueueUnregisterQueue
                0x20059ac4       0x80 C:/ISIS/workspace/HOOPOE3/satellite-subsystems/demo/../..//hal/freertos/lib\libFreeRTOSD.a(queue.o)
                0x20059ac4                vQueueUnregisterQueue
 .text.xTaskGenericCreate
                0x20059b44      0x2ac C:/ISIS/workspace/HOOPOE3/satellite-subsystems/demo/../..//hal/freertos/lib\libFreeRTOSD.a(tasks.o)
                0x20059b44                xTaskGenericCreate
 .text.vTaskDelete
                0x20059df0       0xe8 C:/ISIS/workspace/HOOPOE3/satellite-subsystems/demo/../..//hal/freertos/lib\libFreeRTOSD.a(tasks.o)
                0x20059df0                vTaskDelete
 .text.vTaskDelayUntil
                0x20059ed8      0x170 C:/ISIS/workspace/HOOPOE3/satellite-subsystems/demo/../..//hal/freertos/lib\libFreeRTOSD.a(tasks.o)
                0x20059ed8                vTaskDelayUntil
 .text.vTaskDelay
                0x2005a048       0x80 C:/ISIS/workspace/HOOPOE3/satellite-subsystems/demo/../..//hal/freertos/lib\libFreeRTOSD.a(tasks.o)
                0x2005a048                vTaskDelay
 .text.eTaskGetState
                0x2005a0c8       0xe4 C:/ISIS/workspace/HOOPOE3/satellite-subsystems/demo/../..//hal/freertos/lib\libFreeRTOSD.a(tasks.o)
                0x2005a0c8                eTaskGetState
 .text.uxTaskPriorityGet
                0x2005a1ac       0x58 C:/ISIS/workspace/HOOPOE3/satellite-subsystems/demo/../..//hal/freertos/lib\libFreeRTOSD.a(tasks.o)
                0x2005a1ac                uxTaskPriorityGet
 .text.vTaskPrioritySet
                0x2005a204      0x22c C:/ISIS/workspace/HOOPOE3/satellite-subsystems/demo/../..//hal/freertos/lib\libFreeRTOSD.a(tasks.o)
                0x2005a204                vTaskPrioritySet
 .text.vTaskSuspend
                0x2005a430       0xec C:/ISIS/workspace/HOOPOE3/satellite-subsystems/demo/../..//hal/freertos/lib\libFreeRTOSD.a(tasks.o)
                0x2005a430                vTaskSuspend
 .text.xTaskIsTaskSuspended
                0x2005a51c       0xd8 C:/ISIS/workspace/HOOPOE3/satellite-subsystems/demo/../..//hal/freertos/lib\libFreeRTOSD.a(tasks.o)
                0x2005a51c                xTaskIsTaskSuspended
 .text.vTaskResume
                0x2005a5f4      0x12c C:/ISIS/workspace/HOOPOE3/satellite-subsystems/demo/../..//hal/freertos/lib\libFreeRTOSD.a(tasks.o)
                0x2005a5f4                vTaskResume
 .text.xTaskResumeFromISR
                0x2005a720      0x150 C:/ISIS/workspace/HOOPOE3/satellite-subsystems/demo/../..//hal/freertos/lib\libFreeRTOSD.a(tasks.o)
                0x2005a720                xTaskResumeFromISR
 .text.vTaskStartScheduler
                0x2005a870       0xd4 C:/ISIS/workspace/HOOPOE3/satellite-subsystems/demo/../..//hal/freertos/lib\libFreeRTOSD.a(tasks.o)
                0x2005a870                vTaskStartScheduler
 .text.vTaskEndScheduler
                0x2005a944       0x34 C:/ISIS/workspace/HOOPOE3/satellite-subsystems/demo/../..//hal/freertos/lib\libFreeRTOSD.a(tasks.o)
                0x2005a944                vTaskEndScheduler
 .text.vTaskSuspendAll
                0x2005a978       0x2c C:/ISIS/workspace/HOOPOE3/satellite-subsystems/demo/../..//hal/freertos/lib\libFreeRTOSD.a(tasks.o)
                0x2005a978                vTaskSuspendAll
 .text.xTaskResumeAll
                0x2005a9a4      0x1f4 C:/ISIS/workspace/HOOPOE3/satellite-subsystems/demo/../..//hal/freertos/lib\libFreeRTOSD.a(tasks.o)
                0x2005a9a4                xTaskResumeAll
 .text.xTaskGetTickCount
                0x2005ab98       0x34 C:/ISIS/workspace/HOOPOE3/satellite-subsystems/demo/../..//hal/freertos/lib\libFreeRTOSD.a(tasks.o)
                0x2005ab98                xTaskGetTickCount
 .text.xTaskGetTickCountFromISR
                0x2005abcc       0x38 C:/ISIS/workspace/HOOPOE3/satellite-subsystems/demo/../..//hal/freertos/lib\libFreeRTOSD.a(tasks.o)
                0x2005abcc                xTaskGetTickCountFromISR
 .text.uxTaskGetNumberOfTasks
                0x2005ac04       0x24 C:/ISIS/workspace/HOOPOE3/satellite-subsystems/demo/../..//hal/freertos/lib\libFreeRTOSD.a(tasks.o)
                0x2005ac04                uxTaskGetNumberOfTasks
 .text.pcTaskGetTaskName
                0x2005ac28       0x80 C:/ISIS/workspace/HOOPOE3/satellite-subsystems/demo/../..//hal/freertos/lib\libFreeRTOSD.a(tasks.o)
                0x2005ac28                pcTaskGetTaskName
 .text.xTaskIncrementTick
                0x2005aca8      0x298 C:/ISIS/workspace/HOOPOE3/satellite-subsystems/demo/../..//hal/freertos/lib\libFreeRTOSD.a(tasks.o)
                0x2005aca8                xTaskIncrementTick
 .text.vTaskSwitchContext
                0x2005af40      0x18c C:/ISIS/workspace/HOOPOE3/satellite-subsystems/demo/../..//hal/freertos/lib\libFreeRTOSD.a(tasks.o)
                0x2005af40                vTaskSwitchContext
 .text.vTaskPlaceOnEventList
                0x2005b0cc       0xcc C:/ISIS/workspace/HOOPOE3/satellite-subsystems/demo/../..//hal/freertos/lib\libFreeRTOSD.a(tasks.o)
                0x2005b0cc                vTaskPlaceOnEventList
 .text.xTaskRemoveFromEventList
                0x2005b198      0x160 C:/ISIS/workspace/HOOPOE3/satellite-subsystems/demo/../..//hal/freertos/lib\libFreeRTOSD.a(tasks.o)
                0x2005b198                xTaskRemoveFromEventList
 .text.vTaskSetTimeOutState
                0x2005b2f8       0x78 C:/ISIS/workspace/HOOPOE3/satellite-subsystems/demo/../..//hal/freertos/lib\libFreeRTOSD.a(tasks.o)
                0x2005b2f8                vTaskSetTimeOutState
 .text.xTaskCheckForTimeOut
                0x2005b370      0x158 C:/ISIS/workspace/HOOPOE3/satellite-subsystems/demo/../..//hal/freertos/lib\libFreeRTOSD.a(tasks.o)
                0x2005b370                xTaskCheckForTimeOut
 .text.vTaskMissedYield
                0x2005b4c8       0x24 C:/ISIS/workspace/HOOPOE3/satellite-subsystems/demo/../..//hal/freertos/lib\libFreeRTOSD.a(tasks.o)
                0x2005b4c8                vTaskMissedYield
 .text.prvIdleTask
                0x2005b4ec       0x20 C:/ISIS/workspace/HOOPOE3/satellite-subsystems/demo/../..//hal/freertos/lib\libFreeRTOSD.a(tasks.o)
 .text.prvInitialiseTCBVariables
                0x2005b50c      0x110 C:/ISIS/workspace/HOOPOE3/satellite-subsystems/demo/../..//hal/freertos/lib\libFreeRTOSD.a(tasks.o)
 .text.prvInitialiseTaskLists
                0x2005b61c       0xbc C:/ISIS/workspace/HOOPOE3/satellite-subsystems/demo/../..//hal/freertos/lib\libFreeRTOSD.a(tasks.o)
 .text.prvCheckTasksWaitingTermination
                0x2005b6d8       0xbc C:/ISIS/workspace/HOOPOE3/satellite-subsystems/demo/../..//hal/freertos/lib\libFreeRTOSD.a(tasks.o)
 .text.prvAddCurrentTaskToDelayedList
                0x2005b794       0xb4 C:/ISIS/workspace/HOOPOE3/satellite-subsystems/demo/../..//hal/freertos/lib\libFreeRTOSD.a(tasks.o)
 .text.prvAllocateTCBAndStack
                0x2005b848       0xb4 C:/ISIS/workspace/HOOPOE3/satellite-subsystems/demo/../..//hal/freertos/lib\libFreeRTOSD.a(tasks.o)
 .text.prvDeleteTCB
                0x2005b8fc       0x30 C:/ISIS/workspace/HOOPOE3/satellite-subsystems/demo/../..//hal/freertos/lib\libFreeRTOSD.a(tasks.o)
 .text.xTaskGetCurrentTaskHandle
                0x2005b92c       0x30 C:/ISIS/workspace/HOOPOE3/satellite-subsystems/demo/../..//hal/freertos/lib\libFreeRTOSD.a(tasks.o)
                0x2005b92c                xTaskGetCurrentTaskHandle
 .text.xTaskGetSchedulerState
                0x2005b95c       0x68 C:/ISIS/workspace/HOOPOE3/satellite-subsystems/demo/../..//hal/freertos/lib\libFreeRTOSD.a(tasks.o)
                0x2005b95c                xTaskGetSchedulerState
 .text.vTaskPriorityInherit
                0x2005b9c4      0x148 C:/ISIS/workspace/HOOPOE3/satellite-subsystems/demo/../..//hal/freertos/lib\libFreeRTOSD.a(tasks.o)
                0x2005b9c4                vTaskPriorityInherit
 .text.vTaskPriorityDisinherit
                0x2005bb0c       0xdc C:/ISIS/workspace/HOOPOE3/satellite-subsystems/demo/../..//hal/freertos/lib\libFreeRTOSD.a(tasks.o)
                0x2005bb0c                vTaskPriorityDisinherit
 .text.vApplicationStackOverflowHook
                0x2005bbe8       0x4c C:/ISIS/workspace/HOOPOE3/satellite-subsystems/demo/../..//hal/freertos/lib\libFreeRTOSD.a(hooks.o)
                0x2005bbe8                vApplicationStackOverflowHook
 .text.vApplicationIdleHook
                0x2005bc34       0x18 C:/ISIS/workspace/HOOPOE3/satellite-subsystems/demo/../..//hal/freertos/lib\libFreeRTOSD.a(hooks.o)
                0x2005bc34                vApplicationIdleHook
 .text.pvPortMalloc
                0x2005bc4c       0x28 C:/ISIS/workspace/HOOPOE3/satellite-subsystems/demo/../..//hal/freertos/lib\libFreeRTOSD.a(standardMemMang.o)
                0x2005bc4c                pvPortMalloc
 .text.vPortFree
                0x2005bc74       0x20 C:/ISIS/workspace/HOOPOE3/satellite-subsystems/demo/../..//hal/freertos/lib\libFreeRTOSD.a(standardMemMang.o)
                0x2005bc74                vPortFree
 .text.vPortInitialiseBlocks
                0x2005bc94       0x14 C:/ISIS/workspace/HOOPOE3/satellite-subsystems/demo/../..//hal/freertos/lib\libFreeRTOSD.a(standardMemMang.o)
                0x2005bc94                vPortInitialiseBlocks
 .text.xPortGetFreeHeapSize
                0x2005bca8       0x20 C:/ISIS/workspace/HOOPOE3/satellite-subsystems/demo/../..//hal/freertos/lib\libFreeRTOSD.a(standardMemMang.o)
                0x2005bca8                xPortGetFreeHeapSize
 .text.pxPortInitialiseStack
                0x2005bcc8      0x218 C:/ISIS/workspace/HOOPOE3/satellite-subsystems/demo/../..//hal/freertos/lib\libFreeRTOSD.a(port.o)
                0x2005bcc8                pxPortInitialiseStack
 .text.xPortStartScheduler
                0x2005bee0       0x1c C:/ISIS/workspace/HOOPOE3/satellite-subsystems/demo/../..//hal/freertos/lib\libFreeRTOSD.a(port.o)
                0x2005bee0                xPortStartScheduler
 .text.vPortEndScheduler
                0x2005befc       0x14 C:/ISIS/workspace/HOOPOE3/satellite-subsystems/demo/../..//hal/freertos/lib\libFreeRTOSD.a(port.o)
                0x2005befc                vPortEndScheduler
 .text.prvSetupTimerInterrupt
                0x2005bf10       0x54 C:/ISIS/workspace/HOOPOE3/satellite-subsystems/demo/../..//hal/freertos/lib\libFreeRTOSD.a(port.o)
 .text.vPortISRStartFirstTask
                0x2005bf64       0x64 C:/ISIS/workspace/HOOPOE3/satellite-subsystems/demo/../..//hal/freertos/lib\libFreeRTOSD.a(port.o)
 .text.vPortEnterCritical
                0x2005bfc8       0x40 C:/ISIS/workspace/HOOPOE3/satellite-subsystems/demo/../..//hal/freertos/lib\libFreeRTOSD.a(port.o)
                0x2005bfc8                vPortEnterCritical
 .text.vPortExitCritical
                0x2005c008       0x60 C:/ISIS/workspace/HOOPOE3/satellite-subsystems/demo/../..//hal/freertos/lib\libFreeRTOSD.a(port.o)
                0x2005c008                vPortExitCritical
 .text._read    0x2005c068       0xa4 C:/ISIS/workspace/HOOPOE3/satellite-subsystems/demo/../..//hal/at91/lib\libAt91D.a(syscalls.o)
                0x2005c068                _read
 .text._write   0x2005c10c       0xb8 C:/ISIS/workspace/HOOPOE3/satellite-subsystems/demo/../..//hal/at91/lib\libAt91D.a(syscalls.o)
                0x2005c10c                _write
 .text._lseek   0x2005c1c4       0x2c C:/ISIS/workspace/HOOPOE3/satellite-subsystems/demo/../..//hal/at91/lib\libAt91D.a(syscalls.o)
                0x2005c1c4                _lseek
 .text._close   0x2005c1f0       0x24 C:/ISIS/workspace/HOOPOE3/satellite-subsystems/demo/../..//hal/at91/lib\libAt91D.a(syscalls.o)
                0x2005c1f0                _close
 .text._fstat   0x2005c214       0x28 C:/ISIS/workspace/HOOPOE3/satellite-subsystems/demo/../..//hal/at91/lib\libAt91D.a(syscalls.o)
                0x2005c214                _fstat
 .text._isatty  0x2005c23c       0x38 C:/ISIS/workspace/HOOPOE3/satellite-subsystems/demo/../..//hal/at91/lib\libAt91D.a(syscalls.o)
                0x2005c23c                _isatty
 .text._sbrk    0x2005c274       0xac C:/ISIS/workspace/HOOPOE3/satellite-subsystems/demo/../..//hal/at91/lib\libAt91D.a(syscalls.o)
                0x2005c274                _sbrk
 .text.defaultSpuriousHandler
                0x2005c320       0x18 C:/ISIS/workspace/HOOPOE3/satellite-subsystems/demo/../..//hal/at91/lib\libAt91D.a(board_lowlevel.o)
                0x2005c320                defaultSpuriousHandler
 .text.defaultFiqHandler
                0x2005c338       0x18 C:/ISIS/workspace/HOOPOE3/satellite-subsystems/demo/../..//hal/at91/lib\libAt91D.a(board_lowlevel.o)
                0x2005c338                defaultFiqHandler
 .text.defaultIrqHandler
                0x2005c350       0x18 C:/ISIS/workspace/HOOPOE3/satellite-subsystems/demo/../..//hal/at91/lib\libAt91D.a(board_lowlevel.o)
                0x2005c350                defaultIrqHandler
 .text.LowLevelInit
                0x2005c368       0xf4 C:/ISIS/workspace/HOOPOE3/satellite-subsystems/demo/../..//hal/at91/lib\libAt91D.a(board_lowlevel.o)
                0x2005c368                LowLevelInit
 .text.BOARD_RemapRom
                0x2005c45c       0x24 C:/ISIS/workspace/HOOPOE3/satellite-subsystems/demo/../..//hal/at91/lib\libAt91D.a(board_memories.o)
                0x2005c45c                BOARD_RemapRom
 .text.BOARD_RemapRam
                0x2005c480       0x24 C:/ISIS/workspace/HOOPOE3/satellite-subsystems/demo/../..//hal/at91/lib\libAt91D.a(board_memories.o)
                0x2005c480                BOARD_RemapRam
 .text.BOARD_ConfigureSdram
                0x2005c4a4      0x24c C:/ISIS/workspace/HOOPOE3/satellite-subsystems/demo/../..//hal/at91/lib\libAt91D.a(board_memories.o)
                0x2005c4a4                BOARD_ConfigureSdram
 .text.BOARD_ConfigureNorFlash
                0x2005c6f0       0xc4 C:/ISIS/workspace/HOOPOE3/satellite-subsystems/demo/../..//hal/at91/lib\libAt91D.a(board_memories.o)
                0x2005c6f0                BOARD_ConfigureNorFlash
 .text.amd_Reset
                0x2005c7b4       0xa0 C:/ISIS/workspace/HOOPOE3/satellite-subsystems/demo/../..//hal/at91/lib\libAt91D.a(NorFlashAmd.o)
                0x2005c7b4                amd_Reset
 .text.amd_ReadIdentification
                0x2005c854      0x144 C:/ISIS/workspace/HOOPOE3/satellite-subsystems/demo/../..//hal/at91/lib\libAt91D.a(NorFlashAmd.o)
                0x2005c854                amd_ReadIdentification
 .text.AMD_Reset
                0x2005c998       0x28 C:/ISIS/workspace/HOOPOE3/satellite-subsystems/demo/../..//hal/at91/lib\libAt91D.a(NorFlashAmd.o)
                0x2005c998                AMD_Reset
 .text.AMD_ReadManufactoryId
                0x2005c9c0       0x2c C:/ISIS/workspace/HOOPOE3/satellite-subsystems/demo/../..//hal/at91/lib\libAt91D.a(NorFlashAmd.o)
                0x2005c9c0                AMD_ReadManufactoryId
 .text.AMD_ReadDeviceID
                0x2005c9ec       0x2c C:/ISIS/workspace/HOOPOE3/satellite-subsystems/demo/../..//hal/at91/lib\libAt91D.a(NorFlashAmd.o)
                0x2005c9ec                AMD_ReadDeviceID
 .text.NorFlash_GetByteAddressInChip
                0x2005ca18       0x40 C:/ISIS/workspace/HOOPOE3/satellite-subsystems/demo/../..//hal/at91/lib\libAt91D.a(NorFlashCFI.o)
                0x2005ca18                NorFlash_GetByteAddressInChip
 .text.NorFlash_GetDataBusWidth
                0x2005ca58       0x30 C:/ISIS/workspace/HOOPOE3/satellite-subsystems/demo/../..//hal/at91/lib\libAt91D.a(NorFlashCFI.o)
                0x2005ca58                NorFlash_GetDataBusWidth
 .text.WriteCommand
                0x2005ca88       0x8c C:/ISIS/workspace/HOOPOE3/satellite-subsystems/demo/../..//hal/at91/lib\libAt91D.a(NorFlashCommon.o)
                0x2005ca88                WriteCommand
 .text.ReadRawData
                0x2005cb14       0xa0 C:/ISIS/workspace/HOOPOE3/satellite-subsystems/demo/../..//hal/at91/lib\libAt91D.a(NorFlashCommon.o)
                0x2005cb14                ReadRawData
 .text.WriteRawData
                0x2005cbb4       0x94 C:/ISIS/workspace/HOOPOE3/satellite-subsystems/demo/../..//hal/at91/lib\libAt91D.a(NorFlashCommon.o)
                0x2005cbb4                WriteRawData
 .text.SendCommand
                0x2005cc48      0x120 C:/ISIS/workspace/HOOPOE3/satellite-subsystems/demo/../..//hal/at91/lib\libAt91D.a(sdmmc_mci.o)
 .text.Pon      0x2005cd68       0x70 C:/ISIS/workspace/HOOPOE3/satellite-subsystems/demo/../..//hal/at91/lib\libAt91D.a(sdmmc_mci.o)
 .text.Cmd0     0x2005cdd8       0x70 C:/ISIS/workspace/HOOPOE3/satellite-subsystems/demo/../..//hal/at91/lib\libAt91D.a(sdmmc_mci.o)
 .text.Cmd1     0x2005ce48       0xb4 C:/ISIS/workspace/HOOPOE3/satellite-subsystems/demo/../..//hal/at91/lib\libAt91D.a(sdmmc_mci.o)
 .text.Cmd2     0x2005cefc       0x78 C:/ISIS/workspace/HOOPOE3/satellite-subsystems/demo/../..//hal/at91/lib\libAt91D.a(sdmmc_mci.o)
 .text.Cmd3     0x2005cf74       0xe8 C:/ISIS/workspace/HOOPOE3/satellite-subsystems/demo/../..//hal/at91/lib\libAt91D.a(sdmmc_mci.o)
 .text.Cmd7     0x2005d05c       0x80 C:/ISIS/workspace/HOOPOE3/satellite-subsystems/demo/../..//hal/at91/lib\libAt91D.a(sdmmc_mci.o)
 .text.Cmd8     0x2005d0dc       0xe8 C:/ISIS/workspace/HOOPOE3/satellite-subsystems/demo/../..//hal/at91/lib\libAt91D.a(sdmmc_mci.o)
 .text.Cmd9     0x2005d1c4       0x9c C:/ISIS/workspace/HOOPOE3/satellite-subsystems/demo/../..//hal/at91/lib\libAt91D.a(sdmmc_mci.o)
 .text.Cmd12    0x2005d260       0x8c C:/ISIS/workspace/HOOPOE3/satellite-subsystems/demo/../..//hal/at91/lib\libAt91D.a(sdmmc_mci.o)
 .text.Cmd13    0x2005d2ec       0x9c C:/ISIS/workspace/HOOPOE3/satellite-subsystems/demo/../..//hal/at91/lib\libAt91D.a(sdmmc_mci.o)
 .text.Cmd16    0x2005d388       0x94 C:/ISIS/workspace/HOOPOE3/satellite-subsystems/demo/../..//hal/at91/lib\libAt91D.a(sdmmc_mci.o)
 .text.Cmd18    0x2005d41c       0xd4 C:/ISIS/workspace/HOOPOE3/satellite-subsystems/demo/../..//hal/at91/lib\libAt91D.a(sdmmc_mci.o)
 .text.Cmd25    0x2005d4f0       0xc8 C:/ISIS/workspace/HOOPOE3/satellite-subsystems/demo/../..//hal/at91/lib\libAt91D.a(sdmmc_mci.o)
 .text.Cmd55    0x2005d5b8       0x98 C:/ISIS/workspace/HOOPOE3/satellite-subsystems/demo/../..//hal/at91/lib\libAt91D.a(sdmmc_mci.o)
 .text.Acmd6    0x2005d650       0xcc C:/ISIS/workspace/HOOPOE3/satellite-subsystems/demo/../..//hal/at91/lib\libAt91D.a(sdmmc_mci.o)
 .text.Acmd41   0x2005d71c      0x11c C:/ISIS/workspace/HOOPOE3/satellite-subsystems/demo/../..//hal/at91/lib\libAt91D.a(sdmmc_mci.o)
 .text.ContinuousRead
                0x2005d838       0x98 C:/ISIS/workspace/HOOPOE3/satellite-subsystems/demo/../..//hal/at91/lib\libAt91D.a(sdmmc_mci.o)
 .text.ContinuousWrite
                0x2005d8d0       0x98 C:/ISIS/workspace/HOOPOE3/satellite-subsystems/demo/../..//hal/at91/lib\libAt91D.a(sdmmc_mci.o)
 .text.MoveToTransferState
                0x2005d968      0x23c C:/ISIS/workspace/HOOPOE3/satellite-subsystems/demo/../..//hal/at91/lib\libAt91D.a(sdmmc_mci.o)
 .text.SD_ReadBlock
                0x2005dba4      0x164 C:/ISIS/workspace/HOOPOE3/satellite-subsystems/demo/../..//hal/at91/lib\libAt91D.a(sdmmc_mci.o)
                0x2005dba4                SD_ReadBlock
 .text.SD_WriteBlock
                0x2005dd08      0x164 C:/ISIS/workspace/HOOPOE3/satellite-subsystems/demo/../..//hal/at91/lib\libAt91D.a(sdmmc_mci.o)
                0x2005dd08                SD_WriteBlock
 .text.SD_MCI_Init
                0x2005de6c      0x3ec C:/ISIS/workspace/HOOPOE3/satellite-subsystems/demo/../..//hal/at91/lib\libAt91D.a(sdmmc_mci.o)
                0x2005de6c                SD_MCI_Init
 .text.SD_Init  0x2005e258      0x2d0 C:/ISIS/workspace/HOOPOE3/satellite-subsystems/demo/../..//hal/at91/lib\libAt91D.a(sdmmc_mci.o)
                0x2005e258                SD_Init
 .text.SD_Stop  0x2005e528       0xd0 C:/ISIS/workspace/HOOPOE3/satellite-subsystems/demo/../..//hal/at91/lib\libAt91D.a(sdmmc_mci.o)
                0x2005e528                SD_Stop
 .text.ADC_CfgModeReg
                0x2005e5f8       0x68 C:/ISIS/workspace/HOOPOE3/satellite-subsystems/demo/../..//hal/at91/lib\libAt91D.a(adc_at91.o)
 .text.ADC_Initialize
                0x2005e660      0x154 C:/ISIS/workspace/HOOPOE3/satellite-subsystems/demo/../..//hal/at91/lib\libAt91D.a(adc_at91.o)
                0x2005e660                ADC_Initialize
 .text.ADC_GetModeReg
                0x2005e7b4       0x28 C:/ISIS/workspace/HOOPOE3/satellite-subsystems/demo/../..//hal/at91/lib\libAt91D.a(adc_at91.o)
                0x2005e7b4                ADC_GetModeReg
 .text.ADC_EnableChannel
                0x2005e7dc       0x5c C:/ISIS/workspace/HOOPOE3/satellite-subsystems/demo/../..//hal/at91/lib\libAt91D.a(adc_at91.o)
                0x2005e7dc                ADC_EnableChannel
 .text.ADC_DisableChannel
                0x2005e838       0x5c C:/ISIS/workspace/HOOPOE3/satellite-subsystems/demo/../..//hal/at91/lib\libAt91D.a(adc_at91.o)
                0x2005e838                ADC_DisableChannel
 .text.ADC_GetChannelStatus
                0x2005e894       0x28 C:/ISIS/workspace/HOOPOE3/satellite-subsystems/demo/../..//hal/at91/lib\libAt91D.a(adc_at91.o)
                0x2005e894                ADC_GetChannelStatus
 .text.ADC_StartConversion
                0x2005e8bc       0x28 C:/ISIS/workspace/HOOPOE3/satellite-subsystems/demo/../..//hal/at91/lib\libAt91D.a(adc_at91.o)
                0x2005e8bc                ADC_StartConversion
 .text.ADC_SoftReset
                0x2005e8e4       0x28 C:/ISIS/workspace/HOOPOE3/satellite-subsystems/demo/../..//hal/at91/lib\libAt91D.a(adc_at91.o)
                0x2005e8e4                ADC_SoftReset
 .text.ADC_GetLastConvertedData
                0x2005e90c       0x28 C:/ISIS/workspace/HOOPOE3/satellite-subsystems/demo/../..//hal/at91/lib\libAt91D.a(adc_at91.o)
                0x2005e90c                ADC_GetLastConvertedData
 .text.ADC_GetConvertedData
                0x2005e934       0xb4 C:/ISIS/workspace/HOOPOE3/satellite-subsystems/demo/../..//hal/at91/lib\libAt91D.a(adc_at91.o)
                0x2005e934                ADC_GetConvertedData
 .text.ADC_EnableIt
                0x2005e9e8       0xb4 C:/ISIS/workspace/HOOPOE3/satellite-subsystems/demo/../..//hal/at91/lib\libAt91D.a(adc_at91.o)
                0x2005e9e8                ADC_EnableIt
 .text.ADC_EnableDataReadyIt
                0x2005ea9c       0x28 C:/ISIS/workspace/HOOPOE3/satellite-subsystems/demo/../..//hal/at91/lib\libAt91D.a(adc_at91.o)
                0x2005ea9c                ADC_EnableDataReadyIt
 .text.ADC_DisableIt
                0x2005eac4       0xb4 C:/ISIS/workspace/HOOPOE3/satellite-subsystems/demo/../..//hal/at91/lib\libAt91D.a(adc_at91.o)
                0x2005eac4                ADC_DisableIt
 .text.ADC_GetStatus
                0x2005eb78       0x28 C:/ISIS/workspace/HOOPOE3/satellite-subsystems/demo/../..//hal/at91/lib\libAt91D.a(adc_at91.o)
                0x2005eb78                ADC_GetStatus
 .text.ADC_GetInterruptMaskStatus
                0x2005eba0       0x28 C:/ISIS/workspace/HOOPOE3/satellite-subsystems/demo/../..//hal/at91/lib\libAt91D.a(adc_at91.o)
                0x2005eba0                ADC_GetInterruptMaskStatus
 .text.ADC_IsInterruptMasked
                0x2005ebc8       0x34 C:/ISIS/workspace/HOOPOE3/satellite-subsystems/demo/../..//hal/at91/lib\libAt91D.a(adc_at91.o)
                0x2005ebc8                ADC_IsInterruptMasked
 .text.ADC_IsStatusSet
                0x2005ebfc       0x34 C:/ISIS/workspace/HOOPOE3/satellite-subsystems/demo/../..//hal/at91/lib\libAt91D.a(adc_at91.o)
                0x2005ebfc                ADC_IsStatusSet
 .text.ADC_IsChannelInterruptStatusSet
                0x2005ec30       0x68 C:/ISIS/workspace/HOOPOE3/satellite-subsystems/demo/../..//hal/at91/lib\libAt91D.a(adc_at91.o)
                0x2005ec30                ADC_IsChannelInterruptStatusSet
 .text.AIC_ConfigureIT
                0x2005ec98       0x74 C:/ISIS/workspace/HOOPOE3/satellite-subsystems/demo/../..//hal/at91/lib\libAt91D.a(aic.o)
                0x2005ec98                AIC_ConfigureIT
 .text.AIC_EnableIT
                0x2005ed0c       0x34 C:/ISIS/workspace/HOOPOE3/satellite-subsystems/demo/../..//hal/at91/lib\libAt91D.a(aic.o)
                0x2005ed0c                AIC_EnableIT
 .text.AIC_DisableIT
                0x2005ed40       0x34 C:/ISIS/workspace/HOOPOE3/satellite-subsystems/demo/../..//hal/at91/lib\libAt91D.a(aic.o)
                0x2005ed40                AIC_DisableIT
 .text.CP15_Is_I_CacheEnabled
                0x2005ed74       0x38 C:/ISIS/workspace/HOOPOE3/satellite-subsystems/demo/../..//hal/at91/lib\libAt91D.a(cp15.o)
                0x2005ed74                CP15_Is_I_CacheEnabled
 .text.CP15_Enable_I_Cache
                0x2005edac       0x4c C:/ISIS/workspace/HOOPOE3/satellite-subsystems/demo/../..//hal/at91/lib\libAt91D.a(cp15.o)
                0x2005edac                CP15_Enable_I_Cache
 .text.CP15_Disable_I_Cache
                0x2005edf8       0x5c C:/ISIS/workspace/HOOPOE3/satellite-subsystems/demo/../..//hal/at91/lib\libAt91D.a(cp15.o)
                0x2005edf8                CP15_Disable_I_Cache
 .text.CP15_Is_MMUEnabled
                0x2005ee54       0x38 C:/ISIS/workspace/HOOPOE3/satellite-subsystems/demo/../..//hal/at91/lib\libAt91D.a(cp15.o)
                0x2005ee54                CP15_Is_MMUEnabled
 .text.CP15_DisableMMU
                0x2005ee8c       0x68 C:/ISIS/workspace/HOOPOE3/satellite-subsystems/demo/../..//hal/at91/lib\libAt91D.a(cp15.o)
                0x2005ee8c                CP15_DisableMMU
 .text.CP15_Disable_D_Cache
                0x2005eef4       0x5c C:/ISIS/workspace/HOOPOE3/satellite-subsystems/demo/../..//hal/at91/lib\libAt91D.a(cp15.o)
                0x2005eef4                CP15_Disable_D_Cache
 .text.DBGU_PutChar
                0x2005ef50       0x60 C:/ISIS/workspace/HOOPOE3/satellite-subsystems/demo/../..//hal/at91/lib\libAt91D.a(dbgu.o)
                0x2005ef50                DBGU_PutChar
 .text.DBGU_IsRxReady
                0x2005efb0       0x28 C:/ISIS/workspace/HOOPOE3/satellite-subsystems/demo/../..//hal/at91/lib\libAt91D.a(dbgu.o)
                0x2005efb0                DBGU_IsRxReady
 .text.DBGU_GetChar
                0x2005efd8       0x40 C:/ISIS/workspace/HOOPOE3/satellite-subsystems/demo/../..//hal/at91/lib\libAt91D.a(dbgu.o)
                0x2005efd8                DBGU_GetChar
 .text.MCI_Enable
                0x2005f018       0xb4 C:/ISIS/workspace/HOOPOE3/satellite-subsystems/demo/../..//hal/at91/lib\libAt91D.a(mci.o)
                0x2005f018                MCI_Enable
 .text.MCI_Init
                0x2005f0cc      0x198 C:/ISIS/workspace/HOOPOE3/satellite-subsystems/demo/../..//hal/at91/lib\libAt91D.a(mci.o)
                0x2005f0cc                MCI_Init
 .text.MCI_Close
                0x2005f264       0xcc C:/ISIS/workspace/HOOPOE3/satellite-subsystems/demo/../..//hal/at91/lib\libAt91D.a(mci.o)
                0x2005f264                MCI_Close
 .text.MCI_SetSpeed
                0x2005f330      0x120 C:/ISIS/workspace/HOOPOE3/satellite-subsystems/demo/../..//hal/at91/lib\libAt91D.a(mci.o)
                0x2005f330                MCI_SetSpeed
 .text.MCI_SetBusWidth
                0x2005f450       0xb0 C:/ISIS/workspace/HOOPOE3/satellite-subsystems/demo/../..//hal/at91/lib\libAt91D.a(mci.o)
                0x2005f450                MCI_SetBusWidth
 .text.MCI_SendCommand
                0x2005f500      0x420 C:/ISIS/workspace/HOOPOE3/satellite-subsystems/demo/../..//hal/at91/lib\libAt91D.a(mci.o)
                0x2005f500                MCI_SendCommand
 .text.MCI_CheckBusy
                0x2005f920       0x78 C:/ISIS/workspace/HOOPOE3/satellite-subsystems/demo/../..//hal/at91/lib\libAt91D.a(mci.o)
                0x2005f920                MCI_CheckBusy
 .text.MCI_IsTxComplete
                0x2005f998       0x6c C:/ISIS/workspace/HOOPOE3/satellite-subsystems/demo/../..//hal/at91/lib\libAt91D.a(mci.o)
                0x2005f998                MCI_IsTxComplete
 .text.PIO_SetPeripheralA
                0x2005fa04       0x74 C:/ISIS/workspace/HOOPOE3/satellite-subsystems/demo/../..//hal/at91/lib\libAt91D.a(pio.o)
 .text.PIO_SetPeripheralB
                0x2005fa78       0x74 C:/ISIS/workspace/HOOPOE3/satellite-subsystems/demo/../..//hal/at91/lib\libAt91D.a(pio.o)
 .text.PIO_SetInput
                0x2005faec       0x9c C:/ISIS/workspace/HOOPOE3/satellite-subsystems/demo/../..//hal/at91/lib\libAt91D.a(pio.o)
 .text.PIO_SetOutput
                0x2005fb88       0xc4 C:/ISIS/workspace/HOOPOE3/satellite-subsystems/demo/../..//hal/at91/lib\libAt91D.a(pio.o)
 .text.PIO_Configure
                0x2005fc4c      0x1ec C:/ISIS/workspace/HOOPOE3/satellite-subsystems/demo/../..//hal/at91/lib\libAt91D.a(pio.o)
                0x2005fc4c                PIO_Configure
 .text.PIO_Set  0x2005fe38       0x3c C:/ISIS/workspace/HOOPOE3/satellite-subsystems/demo/../..//hal/at91/lib\libAt91D.a(pio.o)
                0x2005fe38                PIO_Set
 .text.PIO_Clear
                0x2005fe74       0x3c C:/ISIS/workspace/HOOPOE3/satellite-subsystems/demo/../..//hal/at91/lib\libAt91D.a(pio.o)
                0x2005fe74                PIO_Clear
 .text.PIO_Get  0x2005feb0       0x9c C:/ISIS/workspace/HOOPOE3/satellite-subsystems/demo/../..//hal/at91/lib\libAt91D.a(pio.o)
                0x2005feb0                PIO_Get
 .text.PIO_GetOutputDataStatus
                0x2005ff4c       0x60 C:/ISIS/workspace/HOOPOE3/satellite-subsystems/demo/../..//hal/at91/lib\libAt91D.a(pio.o)
                0x2005ff4c                PIO_GetOutputDataStatus
 .text.PIO_GetISR
                0x2005ffac       0x40 C:/ISIS/workspace/HOOPOE3/satellite-subsystems/demo/../..//hal/at91/lib\libAt91D.a(pio.o)
                0x2005ffac                PIO_GetISR
 .text.PioInterruptHandler
                0x2005ffec      0x11c C:/ISIS/workspace/HOOPOE3/satellite-subsystems/demo/../..//hal/at91/lib\libAt91D.a(pio_it.o)
 .text.InterruptHandler
                0x20060108       0x3c C:/ISIS/workspace/HOOPOE3/satellite-subsystems/demo/../..//hal/at91/lib\libAt91D.a(pio_it.o)
 .text.PIO_InitializeInterrupts
                0x20060144       0xf8 C:/ISIS/workspace/HOOPOE3/satellite-subsystems/demo/../..//hal/at91/lib\libAt91D.a(pio_it.o)
                0x20060144                PIO_InitializeInterrupts
 .text.PIO_ConfigureIt
                0x2006023c       0x90 C:/ISIS/workspace/HOOPOE3/satellite-subsystems/demo/../..//hal/at91/lib\libAt91D.a(pio_it.o)
                0x2006023c                PIO_ConfigureIt
 .text.PIO_EnableIt
                0x200602cc       0xc4 C:/ISIS/workspace/HOOPOE3/satellite-subsystems/demo/../..//hal/at91/lib\libAt91D.a(pio_it.o)
                0x200602cc                PIO_EnableIt
 .text.PIO_DisableIt
                0x20060390       0x40 C:/ISIS/workspace/HOOPOE3/satellite-subsystems/demo/../..//hal/at91/lib\libAt91D.a(pio_it.o)
                0x20060390                PIO_DisableIt
 .text.PIT_Init
                0x200603d0       0x68 C:/ISIS/workspace/HOOPOE3/satellite-subsystems/demo/../..//hal/at91/lib\libAt91D.a(pit.o)
                0x200603d0                PIT_Init
 .text.PIT_SetPIV
                0x20060438       0x40 C:/ISIS/workspace/HOOPOE3/satellite-subsystems/demo/../..//hal/at91/lib\libAt91D.a(pit.o)
                0x20060438                PIT_SetPIV
 .text.PIT_Enable
                0x20060478       0x2c C:/ISIS/workspace/HOOPOE3/satellite-subsystems/demo/../..//hal/at91/lib\libAt91D.a(pit.o)
                0x20060478                PIT_Enable
 .text.PIT_EnableIT
                0x200604a4       0x2c C:/ISIS/workspace/HOOPOE3/satellite-subsystems/demo/../..//hal/at91/lib\libAt91D.a(pit.o)
                0x200604a4                PIT_EnableIT
 .text.PIT_DisableIT
                0x200604d0       0x2c C:/ISIS/workspace/HOOPOE3/satellite-subsystems/demo/../..//hal/at91/lib\libAt91D.a(pit.o)
                0x200604d0                PIT_DisableIT
 .text.PIT_GetMode
                0x200604fc       0x24 C:/ISIS/workspace/HOOPOE3/satellite-subsystems/demo/../..//hal/at91/lib\libAt91D.a(pit.o)
                0x200604fc                PIT_GetMode
 .text.PIT_GetStatus
                0x20060520       0x24 C:/ISIS/workspace/HOOPOE3/satellite-subsystems/demo/../..//hal/at91/lib\libAt91D.a(pit.o)
                0x20060520                PIT_GetStatus
 .text.PIT_GetPIIR
                0x20060544       0x24 C:/ISIS/workspace/HOOPOE3/satellite-subsystems/demo/../..//hal/at91/lib\libAt91D.a(pit.o)
                0x20060544                PIT_GetPIIR
 .text.PIT_GetPIVR
                0x20060568       0x24 C:/ISIS/workspace/HOOPOE3/satellite-subsystems/demo/../..//hal/at91/lib\libAt91D.a(pit.o)
                0x20060568                PIT_GetPIVR
 .text.PMC_DisableProcessorClock
                0x2006058c       0x3c C:/ISIS/workspace/HOOPOE3/satellite-subsystems/demo/../..//hal/at91/lib\libAt91D.a(pmc.o)
                0x2006058c                PMC_DisableProcessorClock
 .text.PMC_EnablePeripheral
                0x200605c8       0xa4 C:/ISIS/workspace/HOOPOE3/satellite-subsystems/demo/../..//hal/at91/lib\libAt91D.a(pmc.o)
                0x200605c8                PMC_EnablePeripheral
 .text.PMC_DisablePeripheral
                0x2006066c       0xa4 C:/ISIS/workspace/HOOPOE3/satellite-subsystems/demo/../..//hal/at91/lib\libAt91D.a(pmc.o)
                0x2006066c                PMC_DisablePeripheral
 .text.PMC_EnableAllPeripherals
                0x20060710       0x40 C:/ISIS/workspace/HOOPOE3/satellite-subsystems/demo/../..//hal/at91/lib\libAt91D.a(pmc.o)
                0x20060710                PMC_EnableAllPeripherals
 .text.PMC_DisableAllPeripherals
                0x20060750       0x40 C:/ISIS/workspace/HOOPOE3/satellite-subsystems/demo/../..//hal/at91/lib\libAt91D.a(pmc.o)
                0x20060750                PMC_DisableAllPeripherals
 .text.PMC_IsAllPeriphEnabled
                0x20060790       0x34 C:/ISIS/workspace/HOOPOE3/satellite-subsystems/demo/../..//hal/at91/lib\libAt91D.a(pmc.o)
                0x20060790                PMC_IsAllPeriphEnabled
 .text.PMC_IsPeriphEnabled
                0x200607c4       0x3c C:/ISIS/workspace/HOOPOE3/satellite-subsystems/demo/../..//hal/at91/lib\libAt91D.a(pmc.o)
                0x200607c4                PMC_IsPeriphEnabled
 .text.PMC_CPUInIdleMode
                0x20060800       0x14 C:/ISIS/workspace/HOOPOE3/satellite-subsystems/demo/../..//hal/at91/lib\libAt91D.a(pmc.o)
                0x20060800                PMC_CPUInIdleMode
 .text.RSTC_ConfigureMode
                0x20060814       0x3c C:/ISIS/workspace/HOOPOE3/satellite-subsystems/demo/../..//hal/at91/lib\libAt91D.a(rstc.o)
                0x20060814                RSTC_ConfigureMode
 .text.RSTC_SetUserResetEnable
                0x20060850       0x6c C:/ISIS/workspace/HOOPOE3/satellite-subsystems/demo/../..//hal/at91/lib\libAt91D.a(rstc.o)
                0x20060850                RSTC_SetUserResetEnable
 .text.RSTC_SetUserResetInterruptEnable
                0x200608bc       0x6c C:/ISIS/workspace/HOOPOE3/satellite-subsystems/demo/../..//hal/at91/lib\libAt91D.a(rstc.o)
                0x200608bc                RSTC_SetUserResetInterruptEnable
 .text.RSTC_SetExtResetLength
                0x20060928       0x68 C:/ISIS/workspace/HOOPOE3/satellite-subsystems/demo/../..//hal/at91/lib\libAt91D.a(rstc.o)
                0x20060928                RSTC_SetExtResetLength
 .text.RSTC_ProcessorReset
                0x20060990       0x28 C:/ISIS/workspace/HOOPOE3/satellite-subsystems/demo/../..//hal/at91/lib\libAt91D.a(rstc.o)
                0x20060990                RSTC_ProcessorReset
 .text.RSTC_PeripheralReset
                0x200609b8       0x28 C:/ISIS/workspace/HOOPOE3/satellite-subsystems/demo/../..//hal/at91/lib\libAt91D.a(rstc.o)
                0x200609b8                RSTC_PeripheralReset
 .text.RSTC_ExtReset
                0x200609e0       0x28 C:/ISIS/workspace/HOOPOE3/satellite-subsystems/demo/../..//hal/at91/lib\libAt91D.a(rstc.o)
                0x200609e0                RSTC_ExtReset
 .text.RSTC_GetNrstLevel
                0x20060a08       0x3c C:/ISIS/workspace/HOOPOE3/satellite-subsystems/demo/../..//hal/at91/lib\libAt91D.a(rstc.o)
                0x20060a08                RSTC_GetNrstLevel
 .text.RSTC_IsUserResetDetected
                0x20060a44       0x3c C:/ISIS/workspace/HOOPOE3/satellite-subsystems/demo/../..//hal/at91/lib\libAt91D.a(rstc.o)
                0x20060a44                RSTC_IsUserResetDetected
 .text.RSTC_IsBusy
                0x20060a80       0x3c C:/ISIS/workspace/HOOPOE3/satellite-subsystems/demo/../..//hal/at91/lib\libAt91D.a(rstc.o)
                0x20060a80                RSTC_IsBusy
 .text.SPI_Enable
                0x20060abc       0x28 C:/ISIS/workspace/HOOPOE3/satellite-subsystems/demo/../..//hal/at91/lib\libAt91D.a(spi_at91.o)
                0x20060abc                SPI_Enable
 .text.SPI_Disable
                0x20060ae4       0x28 C:/ISIS/workspace/HOOPOE3/satellite-subsystems/demo/../..//hal/at91/lib\libAt91D.a(spi_at91.o)
                0x20060ae4                SPI_Disable
 .text.SPI_Configure
                0x20060b0c       0x6c C:/ISIS/workspace/HOOPOE3/satellite-subsystems/demo/../..//hal/at91/lib\libAt91D.a(spi_at91.o)
                0x20060b0c                SPI_Configure
 .text.SPI_ConfigureNPCS
                0x20060b78       0x38 C:/ISIS/workspace/HOOPOE3/satellite-subsystems/demo/../..//hal/at91/lib\libAt91D.a(spi_at91.o)
                0x20060b78                SPI_ConfigureNPCS
 .text.SPI_Write
                0x20060bb0       0x84 C:/ISIS/workspace/HOOPOE3/satellite-subsystems/demo/../..//hal/at91/lib\libAt91D.a(spi_at91.o)
                0x20060bb0                SPI_Write
 .text.SPI_WriteBuffer
                0x20060c34       0x98 C:/ISIS/workspace/HOOPOE3/satellite-subsystems/demo/../..//hal/at91/lib\libAt91D.a(spi_at91.o)
                0x20060c34                SPI_WriteBuffer
 .text.SPI_IsFinished
                0x20060ccc       0x3c C:/ISIS/workspace/HOOPOE3/satellite-subsystems/demo/../..//hal/at91/lib\libAt91D.a(spi_at91.o)
                0x20060ccc                SPI_IsFinished
 .text.SPI_Read
                0x20060d08       0x48 C:/ISIS/workspace/HOOPOE3/satellite-subsystems/demo/../..//hal/at91/lib\libAt91D.a(spi_at91.o)
                0x20060d08                SPI_Read
 .text.SPI_ReadBuffer
                0x20060d50       0x98 C:/ISIS/workspace/HOOPOE3/satellite-subsystems/demo/../..//hal/at91/lib\libAt91D.a(spi_at91.o)
                0x20060d50                SPI_ReadBuffer
 .text.TC_Configure
                0x20060de8       0x4c C:/ISIS/workspace/HOOPOE3/satellite-subsystems/demo/../..//hal/at91/lib\libAt91D.a(tc.o)
                0x20060de8                TC_Configure
 .text.TC_Start
                0x20060e34       0x28 C:/ISIS/workspace/HOOPOE3/satellite-subsystems/demo/../..//hal/at91/lib\libAt91D.a(tc.o)
                0x20060e34                TC_Start
 .text.TC_Stop  0x20060e5c       0x28 C:/ISIS/workspace/HOOPOE3/satellite-subsystems/demo/../..//hal/at91/lib\libAt91D.a(tc.o)
                0x20060e5c                TC_Stop
 .text.TC_FindMckDivisor
                0x20060e84      0x160 C:/ISIS/workspace/HOOPOE3/satellite-subsystems/demo/../..//hal/at91/lib\libAt91D.a(tc.o)
                0x20060e84                TC_FindMckDivisor
 .text.TWI_ConfigureMaster
                0x20060fe4      0x2a0 C:/ISIS/workspace/HOOPOE3/satellite-subsystems/demo/../..//hal/at91/lib\libAt91D.a(twi_at91.o)
                0x20060fe4                TWI_ConfigureMaster
 .text.TWI_ConfigureSlave
                0x20061284       0xe0 C:/ISIS/workspace/HOOPOE3/satellite-subsystems/demo/../..//hal/at91/lib\libAt91D.a(twi_at91.o)
                0x20061284                TWI_ConfigureSlave
 .text.TWI_Stop
                0x20061364       0x58 C:/ISIS/workspace/HOOPOE3/satellite-subsystems/demo/../..//hal/at91/lib\libAt91D.a(twi_at91.o)
                0x20061364                TWI_Stop
 .text.TWI_StartRead
                0x200613bc      0x134 C:/ISIS/workspace/HOOPOE3/satellite-subsystems/demo/../..//hal/at91/lib\libAt91D.a(twi_at91.o)
                0x200613bc                TWI_StartRead
 .text.TWI_ReadByte
                0x200614f0       0x5c C:/ISIS/workspace/HOOPOE3/satellite-subsystems/demo/../..//hal/at91/lib\libAt91D.a(twi_at91.o)
                0x200614f0                TWI_ReadByte
 .text.TWI_WriteByte
                0x2006154c       0x64 C:/ISIS/workspace/HOOPOE3/satellite-subsystems/demo/../..//hal/at91/lib\libAt91D.a(twi_at91.o)
                0x2006154c                TWI_WriteByte
 .text.TWI_StartWrite
                0x200615b0      0x140 C:/ISIS/workspace/HOOPOE3/satellite-subsystems/demo/../..//hal/at91/lib\libAt91D.a(twi_at91.o)
                0x200615b0                TWI_StartWrite
 .text.TWI_ByteReceived
                0x200616f0       0x3c C:/ISIS/workspace/HOOPOE3/satellite-subsystems/demo/../..//hal/at91/lib\libAt91D.a(twi_at91.o)
                0x200616f0                TWI_ByteReceived
 .text.TWI_ByteSent
                0x2006172c       0x3c C:/ISIS/workspace/HOOPOE3/satellite-subsystems/demo/../..//hal/at91/lib\libAt91D.a(twi_at91.o)
                0x2006172c                TWI_ByteSent
 .text.TWI_TransferComplete
                0x20061768       0x3c C:/ISIS/workspace/HOOPOE3/satellite-subsystems/demo/../..//hal/at91/lib\libAt91D.a(twi_at91.o)
                0x20061768                TWI_TransferComplete
 .text.TWI_EnableIt
                0x200617a4       0x90 C:/ISIS/workspace/HOOPOE3/satellite-subsystems/demo/../..//hal/at91/lib\libAt91D.a(twi_at91.o)
                0x200617a4                TWI_EnableIt
 .text.TWI_DisableIt
                0x20061834       0x94 C:/ISIS/workspace/HOOPOE3/satellite-subsystems/demo/../..//hal/at91/lib\libAt91D.a(twi_at91.o)
                0x20061834                TWI_DisableIt
 .text.TWI_GetStatus
                0x200618c8       0x5c C:/ISIS/workspace/HOOPOE3/satellite-subsystems/demo/../..//hal/at91/lib\libAt91D.a(twi_at91.o)
                0x200618c8                TWI_GetStatus
 .text.TWI_GetMaskedStatus
                0x20061924       0x78 C:/ISIS/workspace/HOOPOE3/satellite-subsystems/demo/../..//hal/at91/lib\libAt91D.a(twi_at91.o)
                0x20061924                TWI_GetMaskedStatus
 .text.TWI_SendSTOPCondition
                0x2006199c       0x64 C:/ISIS/workspace/HOOPOE3/satellite-subsystems/demo/../..//hal/at91/lib\libAt91D.a(twi_at91.o)
                0x2006199c                TWI_SendSTOPCondition
 .text.disableCaches
                0x20061a00       0x18 C:/ISIS/workspace/HOOPOE3/satellite-subsystems/demo/../..//hal/at91/lib\libAt91D.a(ExitHandler.o)
 .text.restart  0x20061a18       0x28 C:/ISIS/workspace/HOOPOE3/satellite-subsystems/demo/../..//hal/at91/lib\libAt91D.a(ExitHandler.o)
                0x20061a18                restart
 .text.restartPrefetchAbort
                0x20061a40       0x28 C:/ISIS/workspace/HOOPOE3/satellite-subsystems/demo/../..//hal/at91/lib\libAt91D.a(ExitHandler.o)
                0x20061a40                restartPrefetchAbort
 .text.restartDataAbort
                0x20061a68       0x28 C:/ISIS/workspace/HOOPOE3/satellite-subsystems/demo/../..//hal/at91/lib\libAt91D.a(ExitHandler.o)
                0x20061a68                restartDataAbort
 .text.CountBitsInByte
                0x20061a90       0x68 C:/ISIS/workspace/HOOPOE3/satellite-subsystems/demo/../..//hal/at91/lib\libAt91D.a(hamming.o)
 .text.CountBitsInCode256
                0x20061af8       0x74 C:/ISIS/workspace/HOOPOE3/satellite-subsystems/demo/../..//hal/at91/lib\libAt91D.a(hamming.o)
 .text.Compute256
                0x20061b6c      0x3c8 C:/ISIS/workspace/HOOPOE3/satellite-subsystems/demo/../..//hal/at91/lib\libAt91D.a(hamming.o)
 .text.Verify256
                0x20061f34      0x2e8 C:/ISIS/workspace/HOOPOE3/satellite-subsystems/demo/../..//hal/at91/lib\libAt91D.a(hamming.o)
 .text.Hamming_Compute256x
                0x2006221c       0x6c C:/ISIS/workspace/HOOPOE3/satellite-subsystems/demo/../..//hal/at91/lib\libAt91D.a(hamming.o)
                0x2006221c                Hamming_Compute256x
 .text.Hamming_Verify256x
                0x20062288       0xb0 C:/ISIS/workspace/HOOPOE3/satellite-subsystems/demo/../..//hal/at91/lib\libAt91D.a(hamming.o)
                0x20062288                Hamming_Verify256x
 .text.__errno  0x20062338       0x10 c:/isis/application/toolchain/bin/../lib/gcc/arm-none-eabi/4.7.4/../../../../arm-none-eabi/lib\libc_s.a(lib_a-errno.o)
                0x20062338                __errno
 .text.memcmp   0x20062348       0x3c c:/isis/application/toolchain/bin/../lib/gcc/arm-none-eabi/4.7.4/../../../../arm-none-eabi/lib\libc_s.a(lib_a-memcmp.o)
                0x20062348                memcmp
 .text.printf   0x20062384       0x50 c:/isis/application/toolchain/bin/../lib/gcc/arm-none-eabi/4.7.4/../../../../arm-none-eabi/lib\libc_s.a(lib_a-printf.o)
                0x20062384                iprintf
                0x20062384                printf
 .text.puts     0x200623d4       0x64 c:/isis/application/toolchain/bin/../lib/gcc/arm-none-eabi/4.7.4/../../../../arm-none-eabi/lib\libc_s.a(lib_a-puts.o)
                0x200623d4                puts
 .text.strcpy   0x20062438       0x18 c:/isis/application/toolchain/bin/../lib/gcc/arm-none-eabi/4.7.4/../../../../arm-none-eabi/lib\libc_s.a(lib_a-strcpy.o)
                0x20062438                strcpy
 .text.strstr   0x20062450       0x68 c:/isis/application/toolchain/bin/../lib/gcc/arm-none-eabi/4.7.4/../../../../arm-none-eabi/lib\libc_s.a(lib_a-strstr.o)
                0x20062450                strstr
 .text.__sfputc_r
                0x200624b8       0x50 c:/isis/application/toolchain/bin/../lib/gcc/arm-none-eabi/4.7.4/../../../../arm-none-eabi/lib\libc_s.a(lib_a-vfprintf.o)
                0x200624b8                __sfputc_r
 .text._vfprintf_r
                0x20062508      0x360 c:/isis/application/toolchain/bin/../lib/gcc/arm-none-eabi/4.7.4/../../../../arm-none-eabi/lib\libc_s.a(lib_a-vfprintf.o)
                0x20062508                _vfprintf_r
                0x20062508                _vfiprintf_r
 .text.__swbuf_r
                0x20062868      0x138 c:/isis/application/toolchain/bin/../lib/gcc/arm-none-eabi/4.7.4/../../../../arm-none-eabi/lib\libc_s.a(lib_a-wbuf.o)
                0x20062868                __swbuf_r
 .text.__swsetup_r
                0x200629a0      0x154 c:/isis/application/toolchain/bin/../lib/gcc/arm-none-eabi/4.7.4/../../../../arm-none-eabi/lib\libc_s.a(lib_a-wsetup.o)
                0x200629a0                __swsetup_r
 .text._fflush_r
                0x20062af4      0x244 c:/isis/application/toolchain/bin/../lib/gcc/arm-none-eabi/4.7.4/../../../../arm-none-eabi/lib\libc_s.a(lib_a-fflush.o)
                0x20062af4                _fflush_r
 .text._cleanup_r
                0x20062d38       0x5c c:/isis/application/toolchain/bin/../lib/gcc/arm-none-eabi/4.7.4/../../../../arm-none-eabi/lib\libc_s.a(lib_a-findfp.o)
                0x20062d38                _cleanup_r
 .text.std.isra.0
                0x20062d94       0x7c c:/isis/application/toolchain/bin/../lib/gcc/arm-none-eabi/4.7.4/../../../../arm-none-eabi/lib\libc_s.a(lib_a-findfp.o)
 .text.__sfmoreglue
                0x20062e10       0x44 c:/isis/application/toolchain/bin/../lib/gcc/arm-none-eabi/4.7.4/../../../../arm-none-eabi/lib\libc_s.a(lib_a-findfp.o)
                0x20062e10                __sfmoreglue
 .text.__sinit  0x20062e54       0x90 c:/isis/application/toolchain/bin/../lib/gcc/arm-none-eabi/4.7.4/../../../../arm-none-eabi/lib\libc_s.a(lib_a-findfp.o)
                0x20062e54                __sinit
 .text.__sfp    0x20062ee4       0xdc c:/isis/application/toolchain/bin/../lib/gcc/arm-none-eabi/4.7.4/../../../../arm-none-eabi/lib\libc_s.a(lib_a-findfp.o)
                0x20062ee4                __sfp
 .text.__smakebuf_r
                0x20062fc0       0xf8 c:/isis/application/toolchain/bin/../lib/gcc/arm-none-eabi/4.7.4/../../../../arm-none-eabi/lib\libc_s.a(lib_a-makebuf.o)
                0x20062fc0                __smakebuf_r
 .text._putc_r  0x200630b8       0xd0 c:/isis/application/toolchain/bin/../lib/gcc/arm-none-eabi/4.7.4/../../../../arm-none-eabi/lib\libc_s.a(lib_a-putc.o)
                0x200630b8                _putc_r
 .text.__sread  0x20063188       0x34 c:/isis/application/toolchain/bin/../lib/gcc/arm-none-eabi/4.7.4/../../../../arm-none-eabi/lib\libc_s.a(lib_a-stdio.o)
                0x20063188                __sread
 .text.__swrite
                0x200631bc       0x54 c:/isis/application/toolchain/bin/../lib/gcc/arm-none-eabi/4.7.4/../../../../arm-none-eabi/lib\libc_s.a(lib_a-stdio.o)
                0x200631bc                __swrite
 .text.__sseek  0x20063210       0x34 c:/isis/application/toolchain/bin/../lib/gcc/arm-none-eabi/4.7.4/../../../../arm-none-eabi/lib\libc_s.a(lib_a-stdio.o)
                0x20063210                __sseek
 .text.__sclose
                0x20063244       0x14 c:/isis/application/toolchain/bin/../lib/gcc/arm-none-eabi/4.7.4/../../../../arm-none-eabi/lib\libc_s.a(lib_a-stdio.o)
                0x20063244                __sclose
 .text._write_r
                0x20063258       0x44 c:/isis/application/toolchain/bin/../lib/gcc/arm-none-eabi/4.7.4/../../../../arm-none-eabi/lib\libc_s.a(lib_a-writer.o)
                0x20063258                _write_r
 .text._close_r
                0x2006329c       0x3c c:/isis/application/toolchain/bin/../lib/gcc/arm-none-eabi/4.7.4/../../../../arm-none-eabi/lib\libc_s.a(lib_a-closer.o)
                0x2006329c                _close_r
 .text._fstat_r
                0x200632d8       0x40 c:/isis/application/toolchain/bin/../lib/gcc/arm-none-eabi/4.7.4/../../../../arm-none-eabi/lib\libc_s.a(lib_a-fstatr.o)
                0x200632d8                _fstat_r
 .text._isatty_r
                0x20063318       0x3c c:/isis/application/toolchain/bin/../lib/gcc/arm-none-eabi/4.7.4/../../../../arm-none-eabi/lib\libc_s.a(lib_a-isattyr.o)
                0x20063318                _isatty_r
 .text._lseek_r
                0x20063354       0x44 c:/isis/application/toolchain/bin/../lib/gcc/arm-none-eabi/4.7.4/../../../../arm-none-eabi/lib\libc_s.a(lib_a-lseekr.o)
                0x20063354                _lseek_r
 .text._read_r  0x20063398       0x44 c:/isis/application/toolchain/bin/../lib/gcc/arm-none-eabi/4.7.4/../../../../arm-none-eabi/lib\libc_s.a(lib_a-readr.o)
                0x20063398                _read_r
 *fill*         0x200633dc        0x4 00
 .text._read_r.stub
                0x200633e0       0x10 linker stubs
 *(.rodata)
 .rodata        0x200633f0       0x90 ./src/sub-systemCode/Main/CMD/COMM_CMD.o
 .rodata        0x20063480      0x19c ./src/sub-systemCode/Main/CMD/EPS_CMD.o
 .rodata        0x2006361c       0x64 ./src/sub-systemCode/Main/CMD/General_CMD.o
 .rodata        0x20063680      0x174 ./src/sub-systemCode/Main/Ants.o
 .rodata        0x200637f4      0x280 ./src/sub-systemCode/Main/EPS.o
 .rodata        0x20063a74      0x180 ./src/sub-systemCode/Main/HouseKeeping.o
 .rodata        0x20063bf4      0x110 ./src/sub-systemCode/Main/Main_Init.o
 .rodata        0x20063d04       0x78 ./src/sub-systemCode/Main/commands.o
 .rodata        0x20063d7c       0x20 ./src/sub-systemCode/Global/GenericTaskSave.o
 .rodata        0x20063d9c      0x1d4 ./src/sub-systemCode/Global/Global.o
 .rodata        0x20063f70      0x4c4 ./src/sub-systemCode/Global/GlobalParam.o
 .rodata        0x20064434      0x100 ./src/sub-systemCode/Global/OnlineTM.o
 .rodata        0x20064534       0x50 ./src/sub-systemCode/Global/TLM_management.o
 .rodata        0x20064584        0x8 ./src/sub-systemCode/Global/logger.o
 .rodata        0x2006458c       0xa0 ./src/sub-systemCode/CUF/CUF.o
 .rodata        0x2006462c      0x1d8 ./src/sub-systemCode/CUF/uploadCodeTelemetry.o
 .rodata        0x20064804      0x1a4 ./src/sub-systemCode/COMM/DelayedCommand_list.o
 .rodata        0x200649a8       0x40 ./src/sub-systemCode/COMM/GSC.o
 .rodata        0x200649e8      0x518 ./src/sub-systemCode/COMM/TRXVU.o
 .rodata        0x20064f00      0x1c4 ./src/sub-systemCode/ADCS/AdcsGetDataAndTlm.o
 .rodata        0x200650c4       0x54 ./src/main.o
 .rodata        0x20065118       0x20 C:/ISIS/workspace/HOOPOE3/satellite-subsystems/demo/..//satellite-subsystems/lib\libSatelliteSubsystemsD.a(GomEPS.o)
 .rodata        0x20065138       0x80 C:/ISIS/workspace/HOOPOE3/satellite-subsystems/demo/..//satellite-subsystems/lib\libSatelliteSubsystemsD.a(IsisEPS.o)
 .rodata        0x200651b8      0x26c C:/ISIS/workspace/HOOPOE3/satellite-subsystems/demo/..//satellite-subsystems/lib\libSatelliteSubsystemsD.a(IsisMTQv2.o)
 .rodata        0x20065424       0x50 C:/ISIS/workspace/HOOPOE3/satellite-subsystems/demo/..//satellite-subsystems/lib\libSatelliteSubsystemsD.a(IsisSolarPanelv2.o)
 .rodata        0x20065474       0x6c C:/ISIS/workspace/HOOPOE3/satellite-subsystems/demo/../..//hal/hcc/lib\libHCCD.a(fat_common.o)
 .rodata        0x200654e0       0x60 C:/ISIS/workspace/HOOPOE3/satellite-subsystems/demo/../..//hal/hcc/lib\libHCCD.a(safefat.o)
 .rodata        0x20065540       0x30 C:/ISIS/workspace/HOOPOE3/satellite-subsystems/demo/../..//hal/hcc/lib\libHCCD.a(atmel_mcipdc.o)
 .rodata        0x20065570       0x54 C:/ISIS/workspace/HOOPOE3/satellite-subsystems/demo/../..//hal/hcc/lib\libHCCD.a(atmel_mcipdc_hw.o)
 .rodata        0x200655c4       0x20 C:/ISIS/workspace/HOOPOE3/satellite-subsystems/demo/../..//hal/hcc/lib\libHCCD.a(fat.o)
 .rodata        0x200655e4      0x25c C:/ISIS/workspace/HOOPOE3/satellite-subsystems/demo/../..//hal/hal/lib\libHALD.a(supervisor.o)
 .rodata        0x20065840        0xc C:/ISIS/workspace/HOOPOE3/satellite-subsystems/demo/../..//hal/hal/lib\libHALD.a(ADC.o)
 .rodata        0x2006584c       0xf4 C:/ISIS/workspace/HOOPOE3/satellite-subsystems/demo/../..//hal/hal/lib\libHALD.a(I2C.o)
 .rodata        0x20065940       0x28 C:/ISIS/workspace/HOOPOE3/satellite-subsystems/demo/../..//hal/hal/lib\libHALD.a(I2Cslave.o)
 .rodata        0x20065968       0x14 C:/ISIS/workspace/HOOPOE3/satellite-subsystems/demo/../..//hal/hal/lib\libHALD.a(PWM.o)
 .rodata        0x2006597c      0x324 C:/ISIS/workspace/HOOPOE3/satellite-subsystems/demo/../..//hal/hal/lib\libHALD.a(SPI.o)
 .rodata        0x20065ca0      0x190 C:/ISIS/workspace/HOOPOE3/satellite-subsystems/demo/../..//hal/hal/lib\libHALD.a(UART.o)
 .rodata        0x20065e30       0x58 C:/ISIS/workspace/HOOPOE3/satellite-subsystems/demo/../..//hal/hal/lib\libHALD.a(RTC.o)
 .rodata        0x20065e88       0x98 C:/ISIS/workspace/HOOPOE3/satellite-subsystems/demo/../..//hal/hal/lib\libHALD.a(Time.o)
 .rodata        0x20065f20        0xc C:/ISIS/workspace/HOOPOE3/satellite-subsystems/demo/../..//hal/hal/lib\libHALD.a(WatchDogTimerNoOS.o)
 .rodata        0x20065f2c       0x14 C:/ISIS/workspace/HOOPOE3/satellite-subsystems/demo/../..//hal/hal/lib\libHALD.a(WatchDogTimerOS.o)
 .rodata        0x20065f40       0x30 C:/ISIS/workspace/HOOPOE3/satellite-subsystems/demo/../..//hal/hal/lib\libHALD.a(LED.o)
 .rodata        0x20065f70       0x40 C:/ISIS/workspace/HOOPOE3/satellite-subsystems/demo/../..//hal/freertos/lib\libFreeRTOSD.a(queue.o)
 .rodata        0x20065fb0       0x48 C:/ISIS/workspace/HOOPOE3/satellite-subsystems/demo/../..//hal/freertos/lib\libFreeRTOSD.a(tasks.o)
 .rodata        0x20065ff8       0x58 C:/ISIS/workspace/HOOPOE3/satellite-subsystems/demo/../..//hal/freertos/lib\libFreeRTOSD.a(hooks.o)
 .rodata        0x20066050       0x3c C:/ISIS/workspace/HOOPOE3/satellite-subsystems/demo/../..//hal/at91/lib\libAt91D.a(syscalls.o)
 .rodata        0x2006608c       0xa8 C:/ISIS/workspace/HOOPOE3/satellite-subsystems/demo/../..//hal/at91/lib\libAt91D.a(board_lowlevel.o)
 .rodata        0x20066134        0xc C:/ISIS/workspace/HOOPOE3/satellite-subsystems/demo/../..//hal/at91/lib\libAt91D.a(board_memories.o)
 .rodata        0x20066140      0x378 C:/ISIS/workspace/HOOPOE3/satellite-subsystems/demo/../..//hal/at91/lib\libAt91D.a(sdmmc_mci.o)
 .rodata        0x200664b8      0x128 C:/ISIS/workspace/HOOPOE3/satellite-subsystems/demo/../..//hal/at91/lib\libAt91D.a(adc_at91.o)
 .rodata        0x200665e0      0x158 C:/ISIS/workspace/HOOPOE3/satellite-subsystems/demo/../..//hal/at91/lib\libAt91D.a(cp15.o)
 .rodata        0x20066738       0x7c C:/ISIS/workspace/HOOPOE3/satellite-subsystems/demo/../..//hal/at91/lib\libAt91D.a(mci.o)
 .rodata        0x200667b4      0x118 C:/ISIS/workspace/HOOPOE3/satellite-subsystems/demo/../..//hal/at91/lib\libAt91D.a(pmc.o)
 .rodata        0x200668cc       0x14 C:/ISIS/workspace/HOOPOE3/satellite-subsystems/demo/../..//hal/at91/lib\libAt91D.a(tc.o)
 .rodata        0x200668e0       0x98 C:/ISIS/workspace/HOOPOE3/satellite-subsystems/demo/../..//hal/at91/lib\libAt91D.a(twi_at91.o)
 .rodata        0x20066978       0x8c C:/ISIS/workspace/HOOPOE3/satellite-subsystems/demo/../..//hal/at91/lib\libAt91D.a(ExitHandler.o)
 .rodata        0x20066a04       0xac C:/ISIS/workspace/HOOPOE3/satellite-subsystems/demo/../..//hal/at91/lib\libAt91D.a(hamming.o)
 *(.rodata*)
 .rodata.str1.1
                0x20066ab0       0x10 c:/isis/application/toolchain/bin/../lib/gcc/arm-none-eabi/4.7.4/../../../../arm-none-eabi/lib\libc_s.a(lib_a-vfprintf_float.o)
 .rodata.str1.1
                0x20066ac0       0x22 c:/isis/application/toolchain/bin/../lib/gcc/arm-none-eabi/4.7.4/../../../../arm-none-eabi/lib\libc_s.a(lib_a-vfprintf_i.o)
 .rodata.str1.1
                0x20066ae2        0x5 c:/isis/application/toolchain/bin/../lib/gcc/arm-none-eabi/4.7.4/../../../../arm-none-eabi/lib\libc_s.a(lib_a-vfscanf_float.o)
 .rodata.str1.1
                0x20066ae7        0xf c:/isis/application/toolchain/bin/../lib/gcc/arm-none-eabi/4.7.4/../../../../arm-none-eabi/lib\libc_s.a(lib_a-dtoa.o)
 .rodata.str1.1
                0x20066af6        0xa c:/isis/application/toolchain/bin/../lib/gcc/arm-none-eabi/4.7.4/../../../../arm-none-eabi/lib\libc_s.a(lib_a-locale.o)
                                  0xb (size before relaxing)
 *fill*         0x20066b00        0x0 00
 .rodata.__mprec_tens
                0x20066b00       0xc8 c:/isis/application/toolchain/bin/../lib/gcc/arm-none-eabi/4.7.4/../../../../arm-none-eabi/lib\libc_s.a(lib_a-mprec.o)
                0x20066b00                __mprec_tens
 .rodata.p05.5252
                0x20066bc8        0xc c:/isis/application/toolchain/bin/../lib/gcc/arm-none-eabi/4.7.4/../../../../arm-none-eabi/lib\libc_s.a(lib_a-mprec.o)
 *fill*         0x20066bd4        0x4 00
 .rodata.__mprec_bigtens
                0x20066bd8       0x28 c:/isis/application/toolchain/bin/../lib/gcc/arm-none-eabi/4.7.4/../../../../arm-none-eabi/lib\libc_s.a(lib_a-mprec.o)
                0x20066bd8                __mprec_bigtens
 .rodata.str1.1
                0x00000000        0xa c:/isis/application/toolchain/bin/../lib/gcc/arm-none-eabi/4.7.4/../../../../arm-none-eabi/lib\libc_s.a(lib_a-strtod.o)
                                  0xc (size before relaxing)
 .rodata.tinytens
                0x20066c00       0x28 c:/isis/application/toolchain/bin/../lib/gcc/arm-none-eabi/4.7.4/../../../../arm-none-eabi/lib\libc_s.a(lib_a-strtod.o)
 .rodata.str1.1
                0x20066c28       0x11 c:/isis/application/toolchain/bin/../lib/gcc/arm-none-eabi/4.7.4/../../../../arm-none-eabi/lib\libc_s.a(lib_a-svfprintf.o)
 .rodata._ctype_
                0x20066c39      0x101 c:/isis/application/toolchain/bin/../lib/gcc/arm-none-eabi/4.7.4/../../../../arm-none-eabi/lib\libc_s.a(lib_a-ctype_.o)
                0x20066c39                _ctype_
 .rodata.str1.1
                0x20066d3a        0xb c:/isis/application/toolchain/bin/../lib/gcc/arm-none-eabi/4.7.4/../../../../arm-none-eabi/lib\libc_s.a(lib_a-gdtoa-gethex.o)
                                 0x19 (size before relaxing)
 .rodata.str1.1
                0x00000000        0x2 c:/isis/application/toolchain/bin/../lib/gcc/arm-none-eabi/4.7.4/../../../../arm-none-eabi/lib\libc_s.a(lib_a-impure.o)
 *fill*         0x20066d45        0x3 00
 .rodata._global_impure_ptr
                0x20066d48        0x4 c:/isis/application/toolchain/bin/../lib/gcc/arm-none-eabi/4.7.4/../../../../arm-none-eabi/lib\libc_s.a(lib_a-impure.o)
                0x20066d48                _global_impure_ptr
 .rodata.str1.1
                0x00000000       0x11 c:/isis/application/toolchain/bin/../lib/gcc/arm-none-eabi/4.7.4/../../../../arm-none-eabi/lib\libc_s.a(lib_a-vfprintf.o)
 .rodata.__sf_fake_stdin
                0x20066d4c       0x20 c:/isis/application/toolchain/bin/../lib/gcc/arm-none-eabi/4.7.4/../../../../arm-none-eabi/lib\libc_s.a(lib_a-findfp.o)
                0x20066d4c                __sf_fake_stdin
 .rodata.__sf_fake_stdout
                0x20066d6c       0x20 c:/isis/application/toolchain/bin/../lib/gcc/arm-none-eabi/4.7.4/../../../../arm-none-eabi/lib\libc_s.a(lib_a-findfp.o)
                0x20066d6c                __sf_fake_stdout
 .rodata.__sf_fake_stderr
                0x20066d8c       0x20 c:/isis/application/toolchain/bin/../lib/gcc/arm-none-eabi/4.7.4/../../../../arm-none-eabi/lib\libc_s.a(lib_a-findfp.o)
                0x20066d8c                __sf_fake_stderr
 *(.rodata.*)
 *(.glue_7)
 .glue_7        0x00000000        0x0 linker stubs
 *(.glue_7t)
 .glue_7t       0x00000000        0x0 linker stubs
 *(.vfp11_veneer)
 .vfp11_veneer  0x00000000        0x0 linker stubs
 *(.v4_bx)
 .v4_bx         0x00000000        0x0 linker stubs
 *(.data)
 .data          0x20066dac        0x4 ./src/sub-systemCode/Main/CMD/ADCS_CMD.o
                0x20066dac                queue_wait
 .data          0x20066db0        0x4 ./src/sub-systemCode/Main/EPS.o
                0x20066db0                alpha
 .data          0x20066db4        0x4 ./src/sub-systemCode/ADCS/AdcsGetDataAndTlm.o
                0x20066db4                OverrideSaveTLM
 .data          0x20066db8        0x8 ./src/sub-systemCode/ADCS/AdcsMain.o
                0x20066db8                delay_loop
                0x20066dbc                system_off_delay
 .data          0x20066dc0       0x28 C:/ISIS/workspace/HOOPOE3/satellite-subsystems/demo/..//satellite-subsystems/lib\libSatelliteSubsystemsD.a(IsisSolarPanelv2.o)
 .data          0x20066de8       0x20 C:/ISIS/workspace/HOOPOE3/satellite-subsystems/demo/../..//hal/hcc/lib\libHCCD.a(safefat.o)
                0x20066de8                s_subdir
 .data          0x20066e08        0x4 C:/ISIS/workspace/HOOPOE3/satellite-subsystems/demo/../..//hal/hcc/lib\libHCCD.a(psp_rand.o)
 .data          0x20066e0c       0xa4 C:/ISIS/workspace/HOOPOE3/satellite-subsystems/demo/../..//hal/hal/lib\libHALD.a(supervisor.o)
 .data          0x20066eb0        0x4 C:/ISIS/workspace/HOOPOE3/satellite-subsystems/demo/../..//hal/hal/lib\libHALD.a(ADC.o)
 .data          0x20066eb4        0x8 C:/ISIS/workspace/HOOPOE3/satellite-subsystems/demo/../..//hal/hal/lib\libHALD.a(I2C.o)
 .data          0x20066ebc       0x94 C:/ISIS/workspace/HOOPOE3/satellite-subsystems/demo/../..//hal/hal/lib\libHALD.a(PWM.o)
 .data          0x20066f50        0xc C:/ISIS/workspace/HOOPOE3/satellite-subsystems/demo/../..//hal/hal/lib\libHALD.a(SPI.o)
 .data          0x20066f5c       0x1c C:/ISIS/workspace/HOOPOE3/satellite-subsystems/demo/../..//hal/hal/lib\libHALD.a(UART.o)
 .data          0x20066f78       0x10 C:/ISIS/workspace/HOOPOE3/satellite-subsystems/demo/../..//hal/hal/lib\libHALD.a(FRAM.o)
 .data          0x20066f88       0x10 C:/ISIS/workspace/HOOPOE3/satellite-subsystems/demo/../..//hal/hal/lib\libHALD.a(RTC.o)
 .data          0x20066f98        0x4 C:/ISIS/workspace/HOOPOE3/satellite-subsystems/demo/../..//hal/hal/lib\libHALD.a(Time.o)
 .data          0x20066f9c        0x4 C:/ISIS/workspace/HOOPOE3/satellite-subsystems/demo/../..//hal/freertos/lib\libFreeRTOSD.a(tasks.o)
 .data          0x20066fa0        0x4 C:/ISIS/workspace/HOOPOE3/satellite-subsystems/demo/../..//hal/freertos/lib\libFreeRTOSD.a(port.o)
                0x20066fa0                ulCriticalNesting
 *(.data.*)
 .data.lconv    0x20066fa4       0x38 c:/isis/application/toolchain/bin/../lib/gcc/arm-none-eabi/4.7.4/../../../../arm-none-eabi/lib\libc_s.a(lib_a-locale.o)
 .data.fpi.5208
                0x20066fdc       0x14 c:/isis/application/toolchain/bin/../lib/gcc/arm-none-eabi/4.7.4/../../../../arm-none-eabi/lib\libc_s.a(lib_a-strtod.o)
 .data.fpinan.5244
                0x20066ff0       0x14 c:/isis/application/toolchain/bin/../lib/gcc/arm-none-eabi/4.7.4/../../../../arm-none-eabi/lib\libc_s.a(lib_a-strtod.o)
 .data.__ctype_ptr__
                0x20067004        0x4 c:/isis/application/toolchain/bin/../lib/gcc/arm-none-eabi/4.7.4/../../../../arm-none-eabi/lib\libc_s.a(lib_a-ctype_.o)
                0x20067004                __ctype_ptr__
 .data.impure_data
                0x20067008       0x64 c:/isis/application/toolchain/bin/../lib/gcc/arm-none-eabi/4.7.4/../../../../arm-none-eabi/lib\libc_s.a(lib_a-impure.o)
 .data._impure_ptr
                0x2006706c        0x4 c:/isis/application/toolchain/bin/../lib/gcc/arm-none-eabi/4.7.4/../../../../arm-none-eabi/lib\libc_s.a(lib_a-impure.o)
                0x2006706c                _impure_ptr
 *(.dyn)
 *(.iplt)
 .iplt          0x00000000        0x0 c:/isis/application/toolchain/bin/../lib/gcc/arm-none-eabi/4.7.4/../../../../arm-none-eabi/lib\libc_s.a(lib_a-vfprintf_float.o)
 *(.igot)
 *(.igot.plt)
 .igot.plt      0x00000000        0x0 c:/isis/application/toolchain/bin/../lib/gcc/arm-none-eabi/4.7.4/../../../../arm-none-eabi/lib\libc_s.a(lib_a-vfprintf_float.o)
 *(.rel.dyn)
 *(.rel.iplt)
 .rel.iplt      0x00000000        0x0 c:/isis/application/toolchain/bin/../lib/gcc/arm-none-eabi/4.7.4/../../../../arm-none-eabi/lib\libc_s.a(lib_a-vfprintf_float.o)
                0x20067070                . = ALIGN (0x4)
                0x20067070                _efixed = .

.ARM.exidx      0x20067070        0x0
 *(.ARM.exidx)
                0x20067070                _eexidx = .

.ARM.extab      0x20067070        0x0
 *(.ARM.extab)
                0x20067070                _eextab = .

.prerelocate    0x00000000        0x0 load address 0x20067070
                0x00000000                . = ALIGN (0x4)
                0x00000000                _sprerelocate = .
                0x00000000                . = ALIGN (0x4)
                0x00000000                _eprerelocate = .

.postrelocate   0x00200000     0x3010 load address 0x20067070
                0x00200000                . = ALIGN (0x4)
                0x00200000                _spostrelocate = .
 *(.vectors)
 .vectors       0x00200000       0xd4 C:/ISIS/workspace/HOOPOE3/satellite-subsystems/demo/../..//hal/at91/lib\libAt91D.a(board_cstartup.o)
 *(.sramfunc)
 .sramfunc      0x002000d4       0xc0 C:/ISIS/workspace/HOOPOE3/satellite-subsystems/demo/../..//hal/hal/lib\libHALD.a(ADC.o)
                0x002000d4                ISR_ADC
 .sramfunc      0x00200194      0xe1c C:/ISIS/workspace/HOOPOE3/satellite-subsystems/demo/../..//hal/hal/lib\libHALD.a(I2C.o)
                0x00200a4c                ISR_I2Cmaster
                0x00200dfc                taskI2Cregulator
 .sramfunc      0x00200fb0      0x9bc C:/ISIS/workspace/HOOPOE3/satellite-subsystems/demo/../..//hal/hal/lib\libHALD.a(I2Cslave.o)
                0x00200fb0                ISR_I2Cslave
 .sramfunc      0x0020196c      0xa58 C:/ISIS/workspace/HOOPOE3/satellite-subsystems/demo/../..//hal/hal/lib\libHALD.a(SPI.o)
                0x0020196c                taskSPI0regulator
                0x00201e14                taskSPI1regulator
                0x00202198                ISR_SPI0master
                0x00202258                ISR_SPI1master
 .sramfunc      0x002023c4      0x5ec C:/ISIS/workspace/HOOPOE3/satellite-subsystems/demo/../..//hal/hal/lib\libHALD.a(UART.o)
                0x002024a8                ISR_UART0
                0x0020272c                ISR_UART2
 .sramfunc      0x002029b0       0x98 C:/ISIS/workspace/HOOPOE3/satellite-subsystems/demo/../..//hal/hal/lib\libHALD.a(WatchDogTimerNoOS.o)
                0x002029b0                WDT_kickEveryNcalls
                0x002029f8                WDT_forceKick
 .sramfunc      0x00202a48       0x50 C:/ISIS/workspace/HOOPOE3/satellite-subsystems/demo/../..//hal/hal/lib\libHALD.a(WatchDogTimerOS.o)
                0x00202a48                taskWatchdogKick
 .sramfunc      0x00202a98       0xf0 C:/ISIS/workspace/HOOPOE3/satellite-subsystems/demo/../..//hal/freertos/lib\libFreeRTOSD.a(port.o)
                0x00202a98                vPortTickISR
                0x00202ad4                vPortYieldProcessor
 .sramfunc      0x00202b88      0x35c C:/ISIS/workspace/HOOPOE3/satellite-subsystems/demo/../..//hal/at91/lib\libAt91D.a(mci.o)
                0x00202b88                MCI_Handler
 .sramfunc      0x00202ee4       0x48 C:/ISIS/workspace/HOOPOE3/satellite-subsystems/demo/../..//hal/at91/lib\libAt91D.a(ExitHandler.o)
                0x00202ee4                gracefulReset
 *fill*         0x00202f2c        0x4 00
 .sramfunc.stub
                0x00202f30       0xe0 linker stubs
 *(.ramfunc)
                0x00203010                . = ALIGN (0x4)
                0x00203010                _epostrelocate = .

.sramdata       0x00300000      0x464 load address 0x2006a080
                0x00300000                . = ALIGN (0x4)
                0x00300000                _ssramdata = .
 *(.sramdata)
 .sramdata      0x00300000      0x458 C:/ISIS/workspace/HOOPOE3/satellite-subsystems/demo/../..//hal/hal/lib\libHALD.a(I2Cslave.o)
                0x00300000                WriteTransfer
                0x00300018                ReadTransfer
 .sramdata      0x00300458        0x4 C:/ISIS/workspace/HOOPOE3/satellite-subsystems/demo/../..//hal/hal/lib\libHALD.a(WatchDogTimerNoOS.o)
 .sramdata      0x0030045c        0x8 C:/ISIS/workspace/HOOPOE3/satellite-subsystems/demo/../..//hal/hal/lib\libHALD.a(WatchDogTimerOS.o)
                0x00300464                . = ALIGN (0x4)
                0x00300464                _esramdata = .

.srambss        0x00300464        0x0
                0x00300464                . = ALIGN (0x4)
                0x00300464                _ssrambss = .
 *(.srambss)
                0x00300464                . = ALIGN (0x4)
                0x00300464                _esrambss = .

.bss            0x20067070   0x276954
                0x20067070                _szero = .
 *(.bss)
 .bss           0x20067070        0x4 ./src/sub-systemCode/Main/CMD/ADCS_CMD.o
 .bss           0x20067074        0x1 ./src/sub-systemCode/Main/Ants.o
 *fill*         0x20067075        0x3 00
 .bss           0x20067078        0x8 ./src/sub-systemCode/Main/commands.o
                0x20067078                xCTE
                0x2006707c                place_in_list
 .bss           0x20067080        0x4 ./src/sub-systemCode/Global/GlobalParam.o
                0x20067080                xCGP_semaphore
 .bss           0x20067084     0x3200 ./src/sub-systemCode/CUF/CUF.o
 .bss           0x2006a284     0x8430 ./src/sub-systemCode/CUF/uploadCodeTelemetry.o
 .bss           0x200726b4     0xc738 ./src/sub-systemCode/COMM/DelayedCommand_list.o
 .bss           0x2007edec     0x4e28 ./src/sub-systemCode/COMM/TRXVU.o
 .bss           0x20083c14        0x8 C:/ISIS/workspace/HOOPOE3/satellite-subsystems/demo/..//satellite-subsystems/lib\libSatelliteSubsystemsD.a(GomEPS.o)
 .bss           0x20083c1c        0x8 C:/ISIS/workspace/HOOPOE3/satellite-subsystems/demo/..//satellite-subsystems/lib\libSatelliteSubsystemsD.a(IsisAntS.o)
 .bss           0x20083c24        0x8 C:/ISIS/workspace/HOOPOE3/satellite-subsystems/demo/..//satellite-subsystems/lib\libSatelliteSubsystemsD.a(IsisEPS.o)
 .bss           0x20083c2c        0x8 C:/ISIS/workspace/HOOPOE3/satellite-subsystems/demo/..//satellite-subsystems/lib\libSatelliteSubsystemsD.a(IsisMTQv1.o)
 .bss           0x20083c34        0x8 C:/ISIS/workspace/HOOPOE3/satellite-subsystems/demo/..//satellite-subsystems/lib\libSatelliteSubsystemsD.a(IsisMTQv2.o)
 .bss           0x20083c3c        0x1 C:/ISIS/workspace/HOOPOE3/satellite-subsystems/demo/..//satellite-subsystems/lib\libSatelliteSubsystemsD.a(IsisSolarPanelv2.o)
 *fill*         0x20083c3d        0x3 00
 .bss           0x20083c40        0x8 C:/ISIS/workspace/HOOPOE3/satellite-subsystems/demo/..//satellite-subsystems/lib\libSatelliteSubsystemsD.a(IsisTRXVU.o)
 .bss           0x20083c48        0x8 C:/ISIS/workspace/HOOPOE3/satellite-subsystems/demo/..//satellite-subsystems/lib\libSatelliteSubsystemsD.a(cspaceADCS.o)
 .bss           0x20083c50    0x44780 C:/ISIS/workspace/HOOPOE3/satellite-subsystems/demo/../..//hal/hcc/lib\libHCCD.a(fat_common.o)
                0x200c83cc                p_filesystem
 .bss           0x200c83d0       0x60 C:/ISIS/workspace/HOOPOE3/satellite-subsystems/demo/../..//hal/hcc/lib\libHCCD.a(atmel_mcipdc.o)
                0x200c842c                mmcsd_dma_buf
 .bss           0x200c8430       0x90 C:/ISIS/workspace/HOOPOE3/satellite-subsystems/demo/../..//hal/hcc/lib\libHCCD.a(hcc_mem.o)
 .bss           0x200c84c0     0x4024 C:/ISIS/workspace/HOOPOE3/satellite-subsystems/demo/../..//hal/hcc/lib\libHCCD.a(psp_hcc_mem.o)
 .bss           0x200cc4e4      0x1e0 C:/ISIS/workspace/HOOPOE3/satellite-subsystems/demo/../..//hal/hal/lib\libHALD.a(supervisor.o)
 .bss           0x200cc6c4       0x14 C:/ISIS/workspace/HOOPOE3/satellite-subsystems/demo/../..//hal/hal/lib\libHALD.a(ADC.o)
 .bss           0x200cc6d8       0x54 C:/ISIS/workspace/HOOPOE3/satellite-subsystems/demo/../..//hal/hal/lib\libHALD.a(I2C.o)
                0x200cc6e0                RescheduleFlag
 .bss           0x200cc72c       0x10 C:/ISIS/workspace/HOOPOE3/satellite-subsystems/demo/../..//hal/hal/lib\libHALD.a(I2Cslave.o)
 .bss           0x200cc73c        0x8 C:/ISIS/workspace/HOOPOE3/satellite-subsystems/demo/../..//hal/hal/lib\libHALD.a(PWM.o)
 .bss           0x200cc744       0x50 C:/ISIS/workspace/HOOPOE3/satellite-subsystems/demo/../..//hal/hal/lib\libHALD.a(SPI.o)
 .bss           0x200cc794       0xe0 C:/ISIS/workspace/HOOPOE3/satellite-subsystems/demo/../..//hal/hal/lib\libHALD.a(UART.o)
 .bss           0x200cc874      0x214 C:/ISIS/workspace/HOOPOE3/satellite-subsystems/demo/../..//hal/hal/lib\libHALD.a(FRAM.o)
 .bss           0x200cca88       0x18 C:/ISIS/workspace/HOOPOE3/satellite-subsystems/demo/../..//hal/hal/lib\libHALD.a(Time.o)
 .bss           0x200ccaa0        0x8 C:/ISIS/workspace/HOOPOE3/satellite-subsystems/demo/../..//hal/hal/lib\libHALD.a(WatchDogTimerOS.o)
 .bss           0x200ccaa8       0x10 C:/ISIS/workspace/HOOPOE3/satellite-subsystems/demo/../..//hal/hal/lib\libHALD.a(LED.o)
 .bss           0x200ccab8       0x80 C:/ISIS/workspace/HOOPOE3/satellite-subsystems/demo/../..//hal/freertos/lib\libFreeRTOSD.a(croutine.o)
                0x200ccb24                pxCurrentCoRoutine
 .bss           0x200ccb38       0xfc C:/ISIS/workspace/HOOPOE3/satellite-subsystems/demo/../..//hal/freertos/lib\libFreeRTOSD.a(tasks.o)
                0x200ccb38                pxCurrentTCB
 .bss           0x200ccc34        0x4 C:/ISIS/workspace/HOOPOE3/satellite-subsystems/demo/../..//hal/at91/lib\libAt91D.a(syscalls.o)
 .bss           0x200ccc38       0x3c C:/ISIS/workspace/HOOPOE3/satellite-subsystems/demo/../..//hal/at91/lib\libAt91D.a(pio_it.o)
 *(.bss.*)
 .bss.__malloc_free_list
                0x200ccc74        0x4 c:/isis/application/toolchain/bin/../lib/gcc/arm-none-eabi/4.7.4/../../../../arm-none-eabi/lib\libc_s.a(lib_a-mallocr.o)
                0x200ccc74                __malloc_free_list
 *(COMMON)
 COMMON         0x200ccc78      0x100 c:/isis/application/toolchain/bin/../lib/gcc/arm-none-eabi/4.7.4/../../../../arm-none-eabi/lib\libc_s.a(lib_a-gdtoa-gethex.o)
                0x200ccc78                __hexdig
 COMMON         0x200ccd78        0x4 c:/isis/application/toolchain/bin/../lib/gcc/arm-none-eabi/4.7.4/../../../../arm-none-eabi/lib\libc_s.a(lib_a-reent.o)
                0x200ccd78                errno
 COMMON         0x200ccd7c       0x10 ./src/sub-systemCode/Main/CMD/COMM_CMD.o
                0x200ccd7c                xDumpQueue
                0x200ccd80                xTransponderHandle
                0x200ccd84                xTransponderQueue
                0x200ccd88                xDumpHandle
 COMMON         0x200ccd8c       0x28 ./src/sub-systemCode/Main/EPS.o
                0x200ccd8c                VBatt_previous
                0x200ccd90                switches_states
                0x200ccd91                batteryLastMode
                0x200ccd94                enterMode
 COMMON         0x200ccdb4     0x1f40 ./src/sub-systemCode/Main/commands.o
                0x200ccdb4                command_to_execute
 COMMON         0x200cecf4        0x4 ./src/sub-systemCode/Global/GenericTaskSave.o
                0x200cecf4                saveQueue
 COMMON         0x200cecf8       0x36 ./src/sub-systemCode/Global/GlobalParam.o
                0x200cecf8                current_global_param
 *fill*         0x200ced2e        0x2 00
 COMMON         0x200ced30      0x284 ./src/sub-systemCode/Global/OnlineTM.o
                0x200ced30                onlineTM_list
                0x200cef0c                SD_B
                0x200cef1c                SD_A
                0x200cef2c                offline_TM_list
                0x200cefb0                xSD_state
 COMMON         0x200cefb4   0x20d43b ./src/sub-systemCode/Global/TLM_management.o
                0x200cefb4                allocked_write_element
                0x200cf0a4                allocked_read_element
                0x202dc2fc                xFileOpenHandler
                0x202dc300                allocked_delete_element
 *fill*         0x202dc3ef        0x1 00
 COMMON         0x202dc3f0        0xc ./src/sub-systemCode/COMM/TRXVU.o
                0x202dc3f0                allow_transponder
                0x202dc3f4                xBeaconTask
                0x202dc3f8                xIsTransmitting
 COMMON         0x202dc3fc      0x258 ./src/sub-systemCode/ADCS/AdcsCommands.o
                0x202dc3fc                Adcs_raw_12c_command
                0x202dc528                I2cData
 COMMON         0x202dc654      0x1c2 ./src/sub-systemCode/ADCS/AdcsGetDataAndTlm.o
                0x202dc654                TlmElements
 *fill*         0x202dc816        0x2 00
 COMMON         0x202dc818     0x10a8 C:/ISIS/workspace/HOOPOE3/satellite-subsystems/demo/../..//hal/hcc/lib\libHCCD.a(fat_common.o)
                0x202dc818                g_fatmutex
                0x202dc81c                g_multi
                0x202dd8bc                f_format_progress
 COMMON         0x202dd8c0        0x4 C:/ISIS/workspace/HOOPOE3/satellite-subsystems/demo/../..//hal/hal/lib\libHALD.a(ADC.o)
                0x202dd8c0                ADCcallback
 COMMON         0x202dd8c4      0x100 C:/ISIS/workspace/HOOPOE3/satellite-subsystems/demo/../..//hal/freertos/lib\libFreeRTOSD.a(queue.o)
                0x202dd8c4                xQueueRegistry
 *(COMMON.*)
                0x202dd9c4                . = ALIGN (0x4)
                0x202dd9c4                _ezero = .
                0x202dd9c4                _sheap_ = .
                0x21700000                _eheap_ = 0x21700000
                0x21fffc00                _sstack = 0x21fffc00
                0x202dd9c4                end = .
OUTPUT(Hoopoe3.elf elf32-littlearm)

.ARM.attributes
                0x00000000       0x30
 .ARM.attributes
                0x00000000       0x30 c:/isis/application/toolchain/bin/../lib/gcc/arm-none-eabi/4.7.4/../../../../arm-none-eabi/lib\libc_s.a(lib_a-vfprintf_float.o)
 .ARM.attributes
                0x00000030       0x30 c:/isis/application/toolchain/bin/../lib/gcc/arm-none-eabi/4.7.4/../../../../arm-none-eabi/lib\libc_s.a(lib_a-vfprintf_i.o)
 .ARM.attributes
                0x00000060       0x30 c:/isis/application/toolchain/bin/../lib/gcc/arm-none-eabi/4.7.4/../../../../arm-none-eabi/lib\libc_s.a(lib_a-vfscanf_float.o)
 .ARM.attributes
                0x00000090       0x30 c:/isis/application/toolchain/bin/../lib/gcc/arm-none-eabi/4.7.4/../../../../arm-none-eabi/lib\libc_s.a(lib_a-dtoa.o)
 .ARM.attributes
                0x000000c0       0x30 c:/isis/application/toolchain/bin/../lib/gcc/arm-none-eabi/4.7.4/../../../../arm-none-eabi/lib\libc_s.a(lib_a-locale.o)
 .ARM.attributes
                0x000000f0       0x30 c:/isis/application/toolchain/bin/../lib/gcc/arm-none-eabi/4.7.4/../../../../arm-none-eabi/lib\libc_s.a(lib_a-malloc.o)
 .ARM.attributes
                0x00000120       0x30 c:/isis/application/toolchain/bin/../lib/gcc/arm-none-eabi/4.7.4/../../../../arm-none-eabi/lib\libc_s.a(lib_a-mallocr.o)
 .ARM.attributes
                0x00000150       0x30 c:/isis/application/toolchain/bin/../lib/gcc/arm-none-eabi/4.7.4/../../../../arm-none-eabi/lib\libc_s.a(lib_a-memcpy.o)
 .ARM.attributes
                0x00000180       0x30 c:/isis/application/toolchain/bin/../lib/gcc/arm-none-eabi/4.7.4/../../../../arm-none-eabi/lib\libc_s.a(lib_a-mprec.o)
 .ARM.attributes
                0x000001b0       0x30 c:/isis/application/toolchain/bin/../lib/gcc/arm-none-eabi/4.7.4/../../../../arm-none-eabi/lib\libc_s.a(lib_a-s_fpclassify.o)
 .ARM.attributes
                0x000001e0       0x30 c:/isis/application/toolchain/bin/../lib/gcc/arm-none-eabi/4.7.4/../../../../arm-none-eabi/lib\libc_s.a(lib_a-sbrkr.o)
 .ARM.attributes
                0x00000210       0x30 c:/isis/application/toolchain/bin/../lib/gcc/arm-none-eabi/4.7.4/../../../../arm-none-eabi/lib\libc_s.a(lib_a-sf_nan.o)
 .ARM.attributes
                0x00000240       0x30 c:/isis/application/toolchain/bin/../lib/gcc/arm-none-eabi/4.7.4/../../../../arm-none-eabi/lib\libc_s.a(lib_a-sprintf.o)
 .ARM.attributes
                0x00000270       0x30 c:/isis/application/toolchain/bin/../lib/gcc/arm-none-eabi/4.7.4/../../../../arm-none-eabi/lib\libc_s.a(lib_a-strcmp.o)
 .ARM.attributes
                0x000002a0       0x30 c:/isis/application/toolchain/bin/../lib/gcc/arm-none-eabi/4.7.4/../../../../arm-none-eabi/lib\libc_s.a(lib_a-strlen.o)
 .ARM.attributes
                0x000002d0       0x30 c:/isis/application/toolchain/bin/../lib/gcc/arm-none-eabi/4.7.4/../../../../arm-none-eabi/lib\libc_s.a(lib_a-strtod.o)
 .ARM.attributes
                0x00000300       0x30 c:/isis/application/toolchain/bin/../lib/gcc/arm-none-eabi/4.7.4/../../../../arm-none-eabi/lib\libc_s.a(lib_a-strtol.o)
 .ARM.attributes
                0x00000330       0x30 c:/isis/application/toolchain/bin/../lib/gcc/arm-none-eabi/4.7.4/../../../../arm-none-eabi/lib\libc_s.a(lib_a-svfprintf.o)
 .ARM.attributes
                0x00000360       0x30 c:/isis/application/toolchain/bin/../lib/gcc/arm-none-eabi/4.7.4/../../../../arm-none-eabi/lib\libc_s.a(lib_a-callocr.o)
 .ARM.attributes
                0x00000390       0x30 c:/isis/application/toolchain/bin/../lib/gcc/arm-none-eabi/4.7.4/../../../../arm-none-eabi/lib\libc_s.a(lib_a-ctype_.o)
 .ARM.attributes
                0x000003c0       0x30 c:/isis/application/toolchain/bin/../lib/gcc/arm-none-eabi/4.7.4/../../../../arm-none-eabi/lib\libc_s.a(lib_a-freer.o)
 .ARM.attributes
                0x000003f0       0x30 c:/isis/application/toolchain/bin/../lib/gcc/arm-none-eabi/4.7.4/../../../../arm-none-eabi/lib\libc_s.a(lib_a-gdtoa-gethex.o)
 .ARM.attributes
                0x00000420       0x30 c:/isis/application/toolchain/bin/../lib/gcc/arm-none-eabi/4.7.4/../../../../arm-none-eabi/lib\libc_s.a(lib_a-gdtoa-hexnan.o)
 .ARM.attributes
                0x00000450       0x30 c:/isis/application/toolchain/bin/../lib/gcc/arm-none-eabi/4.7.4/../../../../arm-none-eabi/lib\libc_s.a(lib_a-impure.o)
 .ARM.attributes
                0x00000480       0x30 c:/isis/application/toolchain/bin/../lib/gcc/arm-none-eabi/4.7.4/../../../../arm-none-eabi/lib\libc_s.a(lib_a-memchr.o)
 .ARM.attributes
                0x000004b0       0x30 c:/isis/application/toolchain/bin/../lib/gcc/arm-none-eabi/4.7.4/../../../../arm-none-eabi/lib\libc_s.a(lib_a-memset.o)
 .ARM.attributes
                0x000004e0       0x30 c:/isis/application/toolchain/bin/../lib/gcc/arm-none-eabi/4.7.4/../../../../arm-none-eabi/lib\libc_s.a(lib_a-reallocr.o)
 .ARM.attributes
                0x00000510       0x30 c:/isis/application/toolchain/bin/../lib/gcc/arm-none-eabi/4.7.4/../../../../arm-none-eabi/lib\libc_s.a(lib_a-reent.o)
 .ARM.attributes
                0x00000540       0x30 c:/isis/application/toolchain/bin/../lib/gcc/arm-none-eabi/4.7.4/../../../../arm-none-eabi/lib\libc_s.a(lib_a-strncmp.o)
 .ARM.attributes
                0x00000570       0x30 c:/isis/application/toolchain/bin/../lib/gcc/arm-none-eabi/4.7.4/../../../../arm-none-eabi/lib\libc_s.a(lib_a-msizer.o)
 .ARM.attributes
                0x000005a0       0x32 ./src/sub-systemCode/Main/CMD/ADCS_CMD.o
 .ARM.attributes
                0x000005d2       0x32 ./src/sub-systemCode/Main/CMD/COMM_CMD.o
 .ARM.attributes
                0x00000604       0x32 ./src/sub-systemCode/Main/CMD/EPS_CMD.o
 .ARM.attributes
                0x00000636       0x32 ./src/sub-systemCode/Main/CMD/General_CMD.o
 .ARM.attributes
                0x00000668       0x32 ./src/sub-systemCode/Main/CMD/SW_CMD.o
 .ARM.attributes
                0x0000069a       0x32 ./src/sub-systemCode/Main/Ants.o
 .ARM.attributes
                0x000006cc       0x32 ./src/sub-systemCode/Main/EPS.o
 .ARM.attributes
                0x000006fe       0x32 ./src/sub-systemCode/Main/HouseKeeping.o
 .ARM.attributes
                0x00000730       0x32 ./src/sub-systemCode/Main/Main_Init.o
 .ARM.attributes
                0x00000762       0x32 ./src/sub-systemCode/Main/commands.o
 .ARM.attributes
                0x00000794       0x32 ./src/sub-systemCode/Global/GenericTaskSave.o
 .ARM.attributes
                0x000007c6       0x32 ./src/sub-systemCode/Global/Global.o
 .ARM.attributes
                0x000007f8       0x32 ./src/sub-systemCode/Global/GlobalParam.o
 .ARM.attributes
                0x0000082a       0x32 ./src/sub-systemCode/Global/OnlineTM.o
 .ARM.attributes
                0x0000085c       0x32 ./src/sub-systemCode/Global/TLM_management.o
 .ARM.attributes
                0x0000088e       0x32 ./src/sub-systemCode/Global/freertosExtended.o
 .ARM.attributes
                0x000008c0       0x32 ./src/sub-systemCode/Global/logger.o
 .ARM.attributes
                0x000008f2       0x32 ./src/sub-systemCode/CUF/CUF.o
 .ARM.attributes
                0x00000924       0x32 ./src/sub-systemCode/CUF/uploadCodeTelemetry.o
 .ARM.attributes
                0x00000956       0x32 ./src/sub-systemCode/COMM/APRS.o
 .ARM.attributes
                0x00000988       0x32 ./src/sub-systemCode/COMM/DelayedCommand_list.o
 .ARM.attributes
                0x000009ba       0x32 ./src/sub-systemCode/COMM/GSC.o
 .ARM.attributes
                0x000009ec       0x32 ./src/sub-systemCode/COMM/TRXVU.o
 .ARM.attributes
                0x00000a1e       0x32 ./src/sub-systemCode/ADCS/AdcsCommands.o
 .ARM.attributes
                0x00000a50       0x32 ./src/sub-systemCode/ADCS/AdcsGetDataAndTlm.o
 .ARM.attributes
                0x00000a82       0x32 ./src/sub-systemCode/ADCS/AdcsMain.o
 .ARM.attributes
                0x00000ab4       0x32 ./src/sub-systemCode/ADCS/AdcsTroubleShooting.o
 .ARM.attributes
                0x00000ae6       0x32 ./src/sub-systemCode/ADCS/StateMachine.o
 .ARM.attributes
                0x00000b18       0x32 ./src/main.o
 .ARM.attributes
                0x00000b4a       0x32 C:/ISIS/workspace/HOOPOE3/satellite-subsystems/demo/..//satellite-subsystems/lib\libSatelliteSubsystemsD.a(GomEPS.o)
 .ARM.attributes
                0x00000b7c       0x32 C:/ISIS/workspace/HOOPOE3/satellite-subsystems/demo/..//satellite-subsystems/lib\libSatelliteSubsystemsD.a(IsisAntS.o)
 .ARM.attributes
                0x00000bae       0x32 C:/ISIS/workspace/HOOPOE3/satellite-subsystems/demo/..//satellite-subsystems/lib\libSatelliteSubsystemsD.a(IsisEPS.o)
 .ARM.attributes
                0x00000be0       0x32 C:/ISIS/workspace/HOOPOE3/satellite-subsystems/demo/..//satellite-subsystems/lib\libSatelliteSubsystemsD.a(IsisMTQv1.o)
 .ARM.attributes
                0x00000c12       0x32 C:/ISIS/workspace/HOOPOE3/satellite-subsystems/demo/..//satellite-subsystems/lib\libSatelliteSubsystemsD.a(IsisMTQv2.o)
 .ARM.attributes
                0x00000c44       0x32 C:/ISIS/workspace/HOOPOE3/satellite-subsystems/demo/..//satellite-subsystems/lib\libSatelliteSubsystemsD.a(IsisSolarPanelv2.o)
 .ARM.attributes
                0x00000c76       0x32 C:/ISIS/workspace/HOOPOE3/satellite-subsystems/demo/..//satellite-subsystems/lib\libSatelliteSubsystemsD.a(IsisTRXVU.o)
 .ARM.attributes
                0x00000ca8       0x32 C:/ISIS/workspace/HOOPOE3/satellite-subsystems/demo/..//satellite-subsystems/lib\libSatelliteSubsystemsD.a(cspaceADCS.o)
 .ARM.attributes
                0x00000cda       0x32 C:/ISIS/workspace/HOOPOE3/satellite-subsystems/demo/..//satellite-subsystems/lib\libSatelliteSubsystemsD.a(IsisTRXCommon.o)
 .ARM.attributes
                0x00000d0c       0x32 C:/ISIS/workspace/HOOPOE3/satellite-subsystems/demo/../..//hal/hcc/lib\libHCCD.a(fat_common.o)
 .ARM.attributes
                0x00000d3e       0x32 C:/ISIS/workspace/HOOPOE3/satellite-subsystems/demo/../..//hal/hcc/lib\libHCCD.a(fat_m.o)
 .ARM.attributes
                0x00000d70       0x32 C:/ISIS/workspace/HOOPOE3/satellite-subsystems/demo/../..//hal/hcc/lib\libHCCD.a(safefat.o)
 .ARM.attributes
                0x00000da2       0x32 C:/ISIS/workspace/HOOPOE3/satellite-subsystems/demo/../..//hal/hcc/lib\libHCCD.a(atmel_mcipdc.o)
 .ARM.attributes
                0x00000dd4       0x32 C:/ISIS/workspace/HOOPOE3/satellite-subsystems/demo/../..//hal/hcc/lib\libHCCD.a(oalp_mutex.o)
 .ARM.attributes
                0x00000e06       0x32 C:/ISIS/workspace/HOOPOE3/satellite-subsystems/demo/../..//hal/hcc/lib\libHCCD.a(oalp_task.o)
 .ARM.attributes
                0x00000e38       0x32 C:/ISIS/workspace/HOOPOE3/satellite-subsystems/demo/../..//hal/hcc/lib\libHCCD.a(atmel_mcipdc_hw.o)
 .ARM.attributes
                0x00000e6a       0x32 C:/ISIS/workspace/HOOPOE3/satellite-subsystems/demo/../..//hal/hcc/lib\libHCCD.a(psp_rand.o)
 .ARM.attributes
                0x00000e9c       0x32 C:/ISIS/workspace/HOOPOE3/satellite-subsystems/demo/../..//hal/hcc/lib\libHCCD.a(psp_rtc.o)
 .ARM.attributes
                0x00000ece       0x32 C:/ISIS/workspace/HOOPOE3/satellite-subsystems/demo/../..//hal/hcc/lib\libHCCD.a(hcc_mem.o)
 .ARM.attributes
                0x00000f00       0x32 C:/ISIS/workspace/HOOPOE3/satellite-subsystems/demo/../..//hal/hcc/lib\libHCCD.a(fat.o)
 .ARM.attributes
                0x00000f32       0x32 C:/ISIS/workspace/HOOPOE3/satellite-subsystems/demo/../..//hal/hcc/lib\libHCCD.a(psp_hcc_mem.o)
 .ARM.attributes
                0x00000f64       0x32 C:/ISIS/workspace/HOOPOE3/satellite-subsystems/demo/../..//hal/hal/lib\libHALD.a(checksum.o)
 .ARM.attributes
                0x00000f96       0x32 C:/ISIS/workspace/HOOPOE3/satellite-subsystems/demo/../..//hal/hal/lib\libHALD.a(supervisor.o)
 .ARM.attributes
                0x00000fc8       0x32 C:/ISIS/workspace/HOOPOE3/satellite-subsystems/demo/../..//hal/hal/lib\libHALD.a(ADC.o)
 .ARM.attributes
                0x00000ffa       0x32 C:/ISIS/workspace/HOOPOE3/satellite-subsystems/demo/../..//hal/hal/lib\libHALD.a(I2C.o)
 .ARM.attributes
                0x0000102c       0x32 C:/ISIS/workspace/HOOPOE3/satellite-subsystems/demo/../..//hal/hal/lib\libHALD.a(I2Cslave.o)
 .ARM.attributes
                0x0000105e       0x32 C:/ISIS/workspace/HOOPOE3/satellite-subsystems/demo/../..//hal/hal/lib\libHALD.a(PWM.o)
 .ARM.attributes
                0x00001090       0x32 C:/ISIS/workspace/HOOPOE3/satellite-subsystems/demo/../..//hal/hal/lib\libHALD.a(SPI.o)
 .ARM.attributes
                0x000010c2       0x32 C:/ISIS/workspace/HOOPOE3/satellite-subsystems/demo/../..//hal/hal/lib\libHALD.a(UART.o)
 .ARM.attributes
                0x000010f4       0x32 C:/ISIS/workspace/HOOPOE3/satellite-subsystems/demo/../..//hal/hal/lib\libHALD.a(FRAM.o)
 .ARM.attributes
                0x00001126       0x32 C:/ISIS/workspace/HOOPOE3/satellite-subsystems/demo/../..//hal/hal/lib\libHALD.a(RTC.o)
 .ARM.attributes
                0x00001158       0x32 C:/ISIS/workspace/HOOPOE3/satellite-subsystems/demo/../..//hal/hal/lib\libHALD.a(RTT.o)
 .ARM.attributes
                0x0000118a       0x32 C:/ISIS/workspace/HOOPOE3/satellite-subsystems/demo/../..//hal/hal/lib\libHALD.a(Time.o)
 .ARM.attributes
                0x000011bc       0x32 C:/ISIS/workspace/HOOPOE3/satellite-subsystems/demo/../..//hal/hal/lib\libHALD.a(WatchDogTimerNoOS.o)
 .ARM.attributes
                0x000011ee       0x32 C:/ISIS/workspace/HOOPOE3/satellite-subsystems/demo/../..//hal/hal/lib\libHALD.a(WatchDogTimerOS.o)
 .ARM.attributes
                0x00001220       0x32 C:/ISIS/workspace/HOOPOE3/satellite-subsystems/demo/../..//hal/hal/lib\libHALD.a(util.o)
 .ARM.attributes
                0x00001252       0x32 C:/ISIS/workspace/HOOPOE3/satellite-subsystems/demo/../..//hal/hal/lib\libHALD.a(LED.o)
 .ARM.attributes
                0x00001284       0x32 C:/ISIS/workspace/HOOPOE3/satellite-subsystems/demo/../..//hal/freertos/lib\libFreeRTOSD.a(croutine.o)
 .ARM.attributes
                0x000012b6       0x32 C:/ISIS/workspace/HOOPOE3/satellite-subsystems/demo/../..//hal/freertos/lib\libFreeRTOSD.a(list.o)
 .ARM.attributes
                0x000012e8       0x32 C:/ISIS/workspace/HOOPOE3/satellite-subsystems/demo/../..//hal/freertos/lib\libFreeRTOSD.a(queue.o)
 .ARM.attributes
                0x0000131a       0x32 C:/ISIS/workspace/HOOPOE3/satellite-subsystems/demo/../..//hal/freertos/lib\libFreeRTOSD.a(tasks.o)
 .ARM.attributes
                0x0000134c       0x32 C:/ISIS/workspace/HOOPOE3/satellite-subsystems/demo/../..//hal/freertos/lib\libFreeRTOSD.a(hooks.o)
 .ARM.attributes
                0x0000137e       0x32 C:/ISIS/workspace/HOOPOE3/satellite-subsystems/demo/../..//hal/freertos/lib\libFreeRTOSD.a(standardMemMang.o)
 .ARM.attributes
                0x000013b0       0x32 C:/ISIS/workspace/HOOPOE3/satellite-subsystems/demo/../..//hal/freertos/lib\libFreeRTOSD.a(port.o)
 .ARM.attributes
                0x000013e2       0x32 C:/ISIS/workspace/HOOPOE3/satellite-subsystems/demo/../..//hal/at91/lib\libAt91D.a(syscalls.o)
 .ARM.attributes
                0x00001414       0x32 C:/ISIS/workspace/HOOPOE3/satellite-subsystems/demo/../..//hal/at91/lib\libAt91D.a(board_lowlevel.o)
 .ARM.attributes
                0x00001446       0x32 C:/ISIS/workspace/HOOPOE3/satellite-subsystems/demo/../..//hal/at91/lib\libAt91D.a(board_memories.o)
 .ARM.attributes
                0x00001478       0x32 C:/ISIS/workspace/HOOPOE3/satellite-subsystems/demo/../..//hal/at91/lib\libAt91D.a(NorFlashAmd.o)
 .ARM.attributes
                0x000014aa       0x32 C:/ISIS/workspace/HOOPOE3/satellite-subsystems/demo/../..//hal/at91/lib\libAt91D.a(NorFlashCFI.o)
 .ARM.attributes
                0x000014dc       0x32 C:/ISIS/workspace/HOOPOE3/satellite-subsystems/demo/../..//hal/at91/lib\libAt91D.a(NorFlashCommon.o)
 .ARM.attributes
                0x0000150e       0x32 C:/ISIS/workspace/HOOPOE3/satellite-subsystems/demo/../..//hal/at91/lib\libAt91D.a(sdmmc_mci.o)
 .ARM.attributes
                0x00001540       0x32 C:/ISIS/workspace/HOOPOE3/satellite-subsystems/demo/../..//hal/at91/lib\libAt91D.a(adc_at91.o)
 .ARM.attributes
                0x00001572       0x32 C:/ISIS/workspace/HOOPOE3/satellite-subsystems/demo/../..//hal/at91/lib\libAt91D.a(aic.o)
 .ARM.attributes
                0x000015a4       0x32 C:/ISIS/workspace/HOOPOE3/satellite-subsystems/demo/../..//hal/at91/lib\libAt91D.a(cp15.o)
 .ARM.attributes
                0x000015d6       0x32 C:/ISIS/workspace/HOOPOE3/satellite-subsystems/demo/../..//hal/at91/lib\libAt91D.a(dbgu.o)
 .ARM.attributes
                0x00001608       0x32 C:/ISIS/workspace/HOOPOE3/satellite-subsystems/demo/../..//hal/at91/lib\libAt91D.a(mci.o)
 .ARM.attributes
                0x0000163a       0x32 C:/ISIS/workspace/HOOPOE3/satellite-subsystems/demo/../..//hal/at91/lib\libAt91D.a(pio.o)
 .ARM.attributes
                0x0000166c       0x32 C:/ISIS/workspace/HOOPOE3/satellite-subsystems/demo/../..//hal/at91/lib\libAt91D.a(pio_it.o)
 .ARM.attributes
                0x0000169e       0x32 C:/ISIS/workspace/HOOPOE3/satellite-subsystems/demo/../..//hal/at91/lib\libAt91D.a(pit.o)
 .ARM.attributes
                0x000016d0       0x32 C:/ISIS/workspace/HOOPOE3/satellite-subsystems/demo/../..//hal/at91/lib\libAt91D.a(pmc.o)
 .ARM.attributes
                0x00001702       0x32 C:/ISIS/workspace/HOOPOE3/satellite-subsystems/demo/../..//hal/at91/lib\libAt91D.a(rstc.o)
 .ARM.attributes
                0x00001734       0x32 C:/ISIS/workspace/HOOPOE3/satellite-subsystems/demo/../..//hal/at91/lib\libAt91D.a(spi_at91.o)
 .ARM.attributes
                0x00001766       0x32 C:/ISIS/workspace/HOOPOE3/satellite-subsystems/demo/../..//hal/at91/lib\libAt91D.a(tc.o)
 .ARM.attributes
                0x00001798       0x32 C:/ISIS/workspace/HOOPOE3/satellite-subsystems/demo/../..//hal/at91/lib\libAt91D.a(twi_at91.o)
 .ARM.attributes
                0x000017ca       0x32 C:/ISIS/workspace/HOOPOE3/satellite-subsystems/demo/../..//hal/at91/lib\libAt91D.a(ExitHandler.o)
 .ARM.attributes
                0x000017fc       0x32 C:/ISIS/workspace/HOOPOE3/satellite-subsystems/demo/../..//hal/at91/lib\libAt91D.a(hamming.o)
 .ARM.attributes
                0x0000182e       0x22 C:/ISIS/workspace/HOOPOE3/satellite-subsystems/demo/../..//hal/at91/lib\libAt91D.a(board_cstartup.o)
 .ARM.attributes
                0x00001850       0x22 C:/ISIS/workspace/HOOPOE3/satellite-subsystems/demo/../..//hal/at91/lib\libAt91D.a(cp15_asm.o)
 .ARM.attributes
                0x00001872       0x18 c:/isis/application/toolchain/bin/../lib/gcc/arm-none-eabi/4.7.4\libgcc.a(_udivsi3.o)
 .ARM.attributes
                0x0000188a       0x18 c:/isis/application/toolchain/bin/../lib/gcc/arm-none-eabi/4.7.4\libgcc.a(_divsi3.o)
 .ARM.attributes
                0x000018a2       0x18 c:/isis/application/toolchain/bin/../lib/gcc/arm-none-eabi/4.7.4\libgcc.a(_dvmd_tls.o)
 .ARM.attributes
                0x000018ba       0x18 c:/isis/application/toolchain/bin/../lib/gcc/arm-none-eabi/4.7.4\libgcc.a(_arm_addsubdf3.o)
 .ARM.attributes
                0x000018d2       0x18 c:/isis/application/toolchain/bin/../lib/gcc/arm-none-eabi/4.7.4\libgcc.a(_arm_muldivdf3.o)
 .ARM.attributes
                0x000018ea       0x18 c:/isis/application/toolchain/bin/../lib/gcc/arm-none-eabi/4.7.4\libgcc.a(_arm_cmpdf2.o)
 .ARM.attributes
                0x00001902       0x18 c:/isis/application/toolchain/bin/../lib/gcc/arm-none-eabi/4.7.4\libgcc.a(_arm_fixdfsi.o)
 .ARM.attributes
                0x0000191a       0x18 c:/isis/application/toolchain/bin/../lib/gcc/arm-none-eabi/4.7.4\libgcc.a(_arm_fixunsdfsi.o)
 .ARM.attributes
                0x00001932       0x18 c:/isis/application/toolchain/bin/../lib/gcc/arm-none-eabi/4.7.4\libgcc.a(_arm_truncdfsf2.o)
 .ARM.attributes
                0x0000194a       0x18 c:/isis/application/toolchain/bin/../lib/gcc/arm-none-eabi/4.7.4\libgcc.a(_arm_addsubsf3.o)
 .ARM.attributes
                0x00001962       0x18 c:/isis/application/toolchain/bin/../lib/gcc/arm-none-eabi/4.7.4\libgcc.a(_arm_muldivsf3.o)
 .ARM.attributes
                0x0000197a       0x18 c:/isis/application/toolchain/bin/../lib/gcc/arm-none-eabi/4.7.4\libgcc.a(_arm_cmpsf2.o)
 .ARM.attributes
                0x00001992       0x18 c:/isis/application/toolchain/bin/../lib/gcc/arm-none-eabi/4.7.4\libgcc.a(_arm_fixsfsi.o)
 .ARM.attributes
                0x000019aa       0x18 c:/isis/application/toolchain/bin/../lib/gcc/arm-none-eabi/4.7.4\libgcc.a(_arm_fixunssfsi.o)
 .ARM.attributes
                0x000019c2       0x30 c:/isis/application/toolchain/bin/../lib/gcc/arm-none-eabi/4.7.4/../../../../arm-none-eabi/lib\libc_s.a(lib_a-errno.o)
 .ARM.attributes
                0x000019f2       0x30 c:/isis/application/toolchain/bin/../lib/gcc/arm-none-eabi/4.7.4/../../../../arm-none-eabi/lib\libc_s.a(lib_a-memcmp.o)
 .ARM.attributes
                0x00001a22       0x30 c:/isis/application/toolchain/bin/../lib/gcc/arm-none-eabi/4.7.4/../../../../arm-none-eabi/lib\libc_s.a(lib_a-printf.o)
 .ARM.attributes
                0x00001a52       0x30 c:/isis/application/toolchain/bin/../lib/gcc/arm-none-eabi/4.7.4/../../../../arm-none-eabi/lib\libc_s.a(lib_a-puts.o)
 .ARM.attributes
                0x00001a82       0x30 c:/isis/application/toolchain/bin/../lib/gcc/arm-none-eabi/4.7.4/../../../../arm-none-eabi/lib\libc_s.a(lib_a-strcpy.o)
 .ARM.attributes
                0x00001ab2       0x30 c:/isis/application/toolchain/bin/../lib/gcc/arm-none-eabi/4.7.4/../../../../arm-none-eabi/lib\libc_s.a(lib_a-strstr.o)
 .ARM.attributes
                0x00001ae2       0x30 c:/isis/application/toolchain/bin/../lib/gcc/arm-none-eabi/4.7.4/../../../../arm-none-eabi/lib\libc_s.a(lib_a-vfprintf.o)
 .ARM.attributes
                0x00001b12       0x30 c:/isis/application/toolchain/bin/../lib/gcc/arm-none-eabi/4.7.4/../../../../arm-none-eabi/lib\libc_s.a(lib_a-wbuf.o)
 .ARM.attributes
                0x00001b42       0x30 c:/isis/application/toolchain/bin/../lib/gcc/arm-none-eabi/4.7.4/../../../../arm-none-eabi/lib\libc_s.a(lib_a-wsetup.o)
 .ARM.attributes
                0x00001b72       0x30 c:/isis/application/toolchain/bin/../lib/gcc/arm-none-eabi/4.7.4/../../../../arm-none-eabi/lib\libc_s.a(lib_a-fflush.o)
 .ARM.attributes
                0x00001ba2       0x30 c:/isis/application/toolchain/bin/../lib/gcc/arm-none-eabi/4.7.4/../../../../arm-none-eabi/lib\libc_s.a(lib_a-findfp.o)
 .ARM.attributes
                0x00001bd2       0x30 c:/isis/application/toolchain/bin/../lib/gcc/arm-none-eabi/4.7.4/../../../../arm-none-eabi/lib\libc_s.a(lib_a-makebuf.o)
 .ARM.attributes
                0x00001c02       0x30 c:/isis/application/toolchain/bin/../lib/gcc/arm-none-eabi/4.7.4/../../../../arm-none-eabi/lib\libc_s.a(lib_a-putc.o)
 .ARM.attributes
                0x00001c32       0x30 c:/isis/application/toolchain/bin/../lib/gcc/arm-none-eabi/4.7.4/../../../../arm-none-eabi/lib\libc_s.a(lib_a-stdio.o)
 .ARM.attributes
                0x00001c62       0x30 c:/isis/application/toolchain/bin/../lib/gcc/arm-none-eabi/4.7.4/../../../../arm-none-eabi/lib\libc_s.a(lib_a-writer.o)
 .ARM.attributes
                0x00001c92       0x30 c:/isis/application/toolchain/bin/../lib/gcc/arm-none-eabi/4.7.4/../../../../arm-none-eabi/lib\libc_s.a(lib_a-closer.o)
 .ARM.attributes
                0x00001cc2       0x30 c:/isis/application/toolchain/bin/../lib/gcc/arm-none-eabi/4.7.4/../../../../arm-none-eabi/lib\libc_s.a(lib_a-fstatr.o)
 .ARM.attributes
                0x00001cf2       0x30 c:/isis/application/toolchain/bin/../lib/gcc/arm-none-eabi/4.7.4/../../../../arm-none-eabi/lib\libc_s.a(lib_a-isattyr.o)
 .ARM.attributes
                0x00001d22       0x30 c:/isis/application/toolchain/bin/../lib/gcc/arm-none-eabi/4.7.4/../../../../arm-none-eabi/lib\libc_s.a(lib_a-lseekr.o)
 .ARM.attributes
                0x00001d52       0x30 c:/isis/application/toolchain/bin/../lib/gcc/arm-none-eabi/4.7.4/../../../../arm-none-eabi/lib\libc_s.a(lib_a-readr.o)

.comment        0x00000000       0x70
 .comment       0x00000000       0x70 ./src/sub-systemCode/Main/CMD/ADCS_CMD.o
                                 0x71 (size before relaxing)
 .comment       0x00000000       0x71 ./src/sub-systemCode/Main/CMD/COMM_CMD.o
 .comment       0x00000000       0x71 ./src/sub-systemCode/Main/CMD/EPS_CMD.o
 .comment       0x00000000       0x71 ./src/sub-systemCode/Main/CMD/General_CMD.o
 .comment       0x00000000       0x71 ./src/sub-systemCode/Main/CMD/SW_CMD.o
 .comment       0x00000000       0x71 ./src/sub-systemCode/Main/Ants.o
 .comment       0x00000000       0x71 ./src/sub-systemCode/Main/EPS.o
 .comment       0x00000000       0x71 ./src/sub-systemCode/Main/HouseKeeping.o
 .comment       0x00000000       0x71 ./src/sub-systemCode/Main/Main_Init.o
 .comment       0x00000000       0x71 ./src/sub-systemCode/Main/commands.o
 .comment       0x00000000       0x71 ./src/sub-systemCode/Global/GenericTaskSave.o
 .comment       0x00000000       0x71 ./src/sub-systemCode/Global/Global.o
 .comment       0x00000000       0x71 ./src/sub-systemCode/Global/GlobalParam.o
 .comment       0x00000000       0x71 ./src/sub-systemCode/Global/OnlineTM.o
 .comment       0x00000000       0x71 ./src/sub-systemCode/Global/TLM_management.o
 .comment       0x00000000       0x71 ./src/sub-systemCode/Global/freertosExtended.o
 .comment       0x00000000       0x71 ./src/sub-systemCode/Global/logger.o
 .comment       0x00000000       0x71 ./src/sub-systemCode/CUF/CUF.o
 .comment       0x00000000       0x71 ./src/sub-systemCode/CUF/uploadCodeTelemetry.o
 .comment       0x00000000       0x71 ./src/sub-systemCode/COMM/APRS.o
 .comment       0x00000000       0x71 ./src/sub-systemCode/COMM/DelayedCommand_list.o
 .comment       0x00000000       0x71 ./src/sub-systemCode/COMM/GSC.o
 .comment       0x00000000       0x71 ./src/sub-systemCode/COMM/TRXVU.o
 .comment       0x00000000       0x71 ./src/sub-systemCode/ADCS/AdcsCommands.o
 .comment       0x00000000       0x71 ./src/sub-systemCode/ADCS/AdcsGetDataAndTlm.o
 .comment       0x00000000       0x71 ./src/sub-systemCode/ADCS/AdcsMain.o
 .comment       0x00000000       0x71 ./src/sub-systemCode/ADCS/AdcsTroubleShooting.o
 .comment       0x00000000       0x71 ./src/sub-systemCode/ADCS/StateMachine.o
 .comment       0x00000000       0x71 ./src/main.o
 .comment       0x00000000       0x71 C:/ISIS/workspace/HOOPOE3/satellite-subsystems/demo/..//satellite-subsystems/lib\libSatelliteSubsystemsD.a(GomEPS.o)
 .comment       0x00000000       0x71 C:/ISIS/workspace/HOOPOE3/satellite-subsystems/demo/..//satellite-subsystems/lib\libSatelliteSubsystemsD.a(IsisAntS.o)
 .comment       0x00000000       0x71 C:/ISIS/workspace/HOOPOE3/satellite-subsystems/demo/..//satellite-subsystems/lib\libSatelliteSubsystemsD.a(IsisEPS.o)
 .comment       0x00000000       0x71 C:/ISIS/workspace/HOOPOE3/satellite-subsystems/demo/..//satellite-subsystems/lib\libSatelliteSubsystemsD.a(IsisMTQv1.o)
 .comment       0x00000000       0x71 C:/ISIS/workspace/HOOPOE3/satellite-subsystems/demo/..//satellite-subsystems/lib\libSatelliteSubsystemsD.a(IsisMTQv2.o)
 .comment       0x00000000       0x71 C:/ISIS/workspace/HOOPOE3/satellite-subsystems/demo/..//satellite-subsystems/lib\libSatelliteSubsystemsD.a(IsisSolarPanelv2.o)
 .comment       0x00000000       0x71 C:/ISIS/workspace/HOOPOE3/satellite-subsystems/demo/..//satellite-subsystems/lib\libSatelliteSubsystemsD.a(IsisTRXVU.o)
 .comment       0x00000000       0x71 C:/ISIS/workspace/HOOPOE3/satellite-subsystems/demo/..//satellite-subsystems/lib\libSatelliteSubsystemsD.a(cspaceADCS.o)
 .comment       0x00000000       0x71 C:/ISIS/workspace/HOOPOE3/satellite-subsystems/demo/..//satellite-subsystems/lib\libSatelliteSubsystemsD.a(IsisTRXCommon.o)
 .comment       0x00000000       0x71 C:/ISIS/workspace/HOOPOE3/satellite-subsystems/demo/../..//hal/hcc/lib\libHCCD.a(fat_common.o)
 .comment       0x00000000       0x71 C:/ISIS/workspace/HOOPOE3/satellite-subsystems/demo/../..//hal/hcc/lib\libHCCD.a(fat_m.o)
 .comment       0x00000000       0x71 C:/ISIS/workspace/HOOPOE3/satellite-subsystems/demo/../..//hal/hcc/lib\libHCCD.a(safefat.o)
 .comment       0x00000000       0x71 C:/ISIS/workspace/HOOPOE3/satellite-subsystems/demo/../..//hal/hcc/lib\libHCCD.a(atmel_mcipdc.o)
 .comment       0x00000000       0x71 C:/ISIS/workspace/HOOPOE3/satellite-subsystems/demo/../..//hal/hcc/lib\libHCCD.a(oalp_mutex.o)
 .comment       0x00000000       0x71 C:/ISIS/workspace/HOOPOE3/satellite-subsystems/demo/../..//hal/hcc/lib\libHCCD.a(oalp_task.o)
 .comment       0x00000000       0x71 C:/ISIS/workspace/HOOPOE3/satellite-subsystems/demo/../..//hal/hcc/lib\libHCCD.a(atmel_mcipdc_hw.o)
 .comment       0x00000000       0x71 C:/ISIS/workspace/HOOPOE3/satellite-subsystems/demo/../..//hal/hcc/lib\libHCCD.a(psp_rand.o)
 .comment       0x00000000       0x71 C:/ISIS/workspace/HOOPOE3/satellite-subsystems/demo/../..//hal/hcc/lib\libHCCD.a(psp_rtc.o)
 .comment       0x00000000       0x71 C:/ISIS/workspace/HOOPOE3/satellite-subsystems/demo/../..//hal/hcc/lib\libHCCD.a(hcc_mem.o)
 .comment       0x00000000       0x71 C:/ISIS/workspace/HOOPOE3/satellite-subsystems/demo/../..//hal/hcc/lib\libHCCD.a(fat.o)
 .comment       0x00000000       0x71 C:/ISIS/workspace/HOOPOE3/satellite-subsystems/demo/../..//hal/hcc/lib\libHCCD.a(psp_hcc_mem.o)
 .comment       0x00000000       0x71 C:/ISIS/workspace/HOOPOE3/satellite-subsystems/demo/../..//hal/hal/lib\libHALD.a(checksum.o)
 .comment       0x00000000       0x71 C:/ISIS/workspace/HOOPOE3/satellite-subsystems/demo/../..//hal/hal/lib\libHALD.a(supervisor.o)
 .comment       0x00000000       0x71 C:/ISIS/workspace/HOOPOE3/satellite-subsystems/demo/../..//hal/hal/lib\libHALD.a(ADC.o)
 .comment       0x00000000       0x71 C:/ISIS/workspace/HOOPOE3/satellite-subsystems/demo/../..//hal/hal/lib\libHALD.a(I2C.o)
 .comment       0x00000000       0x71 C:/ISIS/workspace/HOOPOE3/satellite-subsystems/demo/../..//hal/hal/lib\libHALD.a(I2Cslave.o)
 .comment       0x00000000       0x71 C:/ISIS/workspace/HOOPOE3/satellite-subsystems/demo/../..//hal/hal/lib\libHALD.a(PWM.o)
 .comment       0x00000000       0x71 C:/ISIS/workspace/HOOPOE3/satellite-subsystems/demo/../..//hal/hal/lib\libHALD.a(SPI.o)
 .comment       0x00000000       0x71 C:/ISIS/workspace/HOOPOE3/satellite-subsystems/demo/../..//hal/hal/lib\libHALD.a(UART.o)
 .comment       0x00000000       0x71 C:/ISIS/workspace/HOOPOE3/satellite-subsystems/demo/../..//hal/hal/lib\libHALD.a(FRAM.o)
 .comment       0x00000000       0x71 C:/ISIS/workspace/HOOPOE3/satellite-subsystems/demo/../..//hal/hal/lib\libHALD.a(RTC.o)
 .comment       0x00000000       0x71 C:/ISIS/workspace/HOOPOE3/satellite-subsystems/demo/../..//hal/hal/lib\libHALD.a(RTT.o)
 .comment       0x00000000       0x71 C:/ISIS/workspace/HOOPOE3/satellite-subsystems/demo/../..//hal/hal/lib\libHALD.a(Time.o)
 .comment       0x00000000       0x71 C:/ISIS/workspace/HOOPOE3/satellite-subsystems/demo/../..//hal/hal/lib\libHALD.a(WatchDogTimerNoOS.o)
 .comment       0x00000000       0x71 C:/ISIS/workspace/HOOPOE3/satellite-subsystems/demo/../..//hal/hal/lib\libHALD.a(WatchDogTimerOS.o)
 .comment       0x00000000       0x71 C:/ISIS/workspace/HOOPOE3/satellite-subsystems/demo/../..//hal/hal/lib\libHALD.a(util.o)
 .comment       0x00000000       0x71 C:/ISIS/workspace/HOOPOE3/satellite-subsystems/demo/../..//hal/hal/lib\libHALD.a(LED.o)
 .comment       0x00000000       0x71 C:/ISIS/workspace/HOOPOE3/satellite-subsystems/demo/../..//hal/freertos/lib\libFreeRTOSD.a(croutine.o)
 .comment       0x00000000       0x71 C:/ISIS/workspace/HOOPOE3/satellite-subsystems/demo/../..//hal/freertos/lib\libFreeRTOSD.a(list.o)
 .comment       0x00000000       0x71 C:/ISIS/workspace/HOOPOE3/satellite-subsystems/demo/../..//hal/freertos/lib\libFreeRTOSD.a(queue.o)
 .comment       0x00000000       0x71 C:/ISIS/workspace/HOOPOE3/satellite-subsystems/demo/../..//hal/freertos/lib\libFreeRTOSD.a(tasks.o)
 .comment       0x00000000       0x71 C:/ISIS/workspace/HOOPOE3/satellite-subsystems/demo/../..//hal/freertos/lib\libFreeRTOSD.a(hooks.o)
 .comment       0x00000000       0x71 C:/ISIS/workspace/HOOPOE3/satellite-subsystems/demo/../..//hal/freertos/lib\libFreeRTOSD.a(standardMemMang.o)
 .comment       0x00000000       0x71 C:/ISIS/workspace/HOOPOE3/satellite-subsystems/demo/../..//hal/freertos/lib\libFreeRTOSD.a(port.o)
 .comment       0x00000000       0x71 C:/ISIS/workspace/HOOPOE3/satellite-subsystems/demo/../..//hal/at91/lib\libAt91D.a(syscalls.o)
 .comment       0x00000000       0x71 C:/ISIS/workspace/HOOPOE3/satellite-subsystems/demo/../..//hal/at91/lib\libAt91D.a(board_lowlevel.o)
 .comment       0x00000000       0x71 C:/ISIS/workspace/HOOPOE3/satellite-subsystems/demo/../..//hal/at91/lib\libAt91D.a(board_memories.o)
 .comment       0x00000000       0x71 C:/ISIS/workspace/HOOPOE3/satellite-subsystems/demo/../..//hal/at91/lib\libAt91D.a(NorFlashAmd.o)
 .comment       0x00000000       0x71 C:/ISIS/workspace/HOOPOE3/satellite-subsystems/demo/../..//hal/at91/lib\libAt91D.a(NorFlashCFI.o)
 .comment       0x00000000       0x71 C:/ISIS/workspace/HOOPOE3/satellite-subsystems/demo/../..//hal/at91/lib\libAt91D.a(NorFlashCommon.o)
 .comment       0x00000000       0x71 C:/ISIS/workspace/HOOPOE3/satellite-subsystems/demo/../..//hal/at91/lib\libAt91D.a(sdmmc_mci.o)
 .comment       0x00000000       0x71 C:/ISIS/workspace/HOOPOE3/satellite-subsystems/demo/../..//hal/at91/lib\libAt91D.a(adc_at91.o)
 .comment       0x00000000       0x71 C:/ISIS/workspace/HOOPOE3/satellite-subsystems/demo/../..//hal/at91/lib\libAt91D.a(aic.o)
 .comment       0x00000000       0x71 C:/ISIS/workspace/HOOPOE3/satellite-subsystems/demo/../..//hal/at91/lib\libAt91D.a(cp15.o)
 .comment       0x00000000       0x71 C:/ISIS/workspace/HOOPOE3/satellite-subsystems/demo/../..//hal/at91/lib\libAt91D.a(dbgu.o)
 .comment       0x00000000       0x71 C:/ISIS/workspace/HOOPOE3/satellite-subsystems/demo/../..//hal/at91/lib\libAt91D.a(mci.o)
 .comment       0x00000000       0x71 C:/ISIS/workspace/HOOPOE3/satellite-subsystems/demo/../..//hal/at91/lib\libAt91D.a(pio.o)
 .comment       0x00000000       0x71 C:/ISIS/workspace/HOOPOE3/satellite-subsystems/demo/../..//hal/at91/lib\libAt91D.a(pio_it.o)
 .comment       0x00000000       0x71 C:/ISIS/workspace/HOOPOE3/satellite-subsystems/demo/../..//hal/at91/lib\libAt91D.a(pit.o)
 .comment       0x00000000       0x71 C:/ISIS/workspace/HOOPOE3/satellite-subsystems/demo/../..//hal/at91/lib\libAt91D.a(pmc.o)
 .comment       0x00000000       0x71 C:/ISIS/workspace/HOOPOE3/satellite-subsystems/demo/../..//hal/at91/lib\libAt91D.a(rstc.o)
 .comment       0x00000000       0x71 C:/ISIS/workspace/HOOPOE3/satellite-subsystems/demo/../..//hal/at91/lib\libAt91D.a(spi_at91.o)
 .comment       0x00000000       0x71 C:/ISIS/workspace/HOOPOE3/satellite-subsystems/demo/../..//hal/at91/lib\libAt91D.a(tc.o)
 .comment       0x00000000       0x71 C:/ISIS/workspace/HOOPOE3/satellite-subsystems/demo/../..//hal/at91/lib\libAt91D.a(twi_at91.o)
 .comment       0x00000000       0x71 C:/ISIS/workspace/HOOPOE3/satellite-subsystems/demo/../..//hal/at91/lib\libAt91D.a(ExitHandler.o)
 .comment       0x00000000       0x71 C:/ISIS/workspace/HOOPOE3/satellite-subsystems/demo/../..//hal/at91/lib\libAt91D.a(hamming.o)

.debug_frame    0x00000000     0xaa64
 .debug_frame   0x00000000       0x80 c:/isis/application/toolchain/bin/../lib/gcc/arm-none-eabi/4.7.4/../../../../arm-none-eabi/lib\libc_s.a(lib_a-vfprintf_float.o)
 .debug_frame   0x00000080       0x5c c:/isis/application/toolchain/bin/../lib/gcc/arm-none-eabi/4.7.4/../../../../arm-none-eabi/lib\libc_s.a(lib_a-vfprintf_i.o)
 .debug_frame   0x000000dc       0x38 c:/isis/application/toolchain/bin/../lib/gcc/arm-none-eabi/4.7.4/../../../../arm-none-eabi/lib\libc_s.a(lib_a-vfscanf_float.o)
 .debug_frame   0x00000114       0x64 c:/isis/application/toolchain/bin/../lib/gcc/arm-none-eabi/4.7.4/../../../../arm-none-eabi/lib\libc_s.a(lib_a-dtoa.o)
 .debug_frame   0x00000178       0x98 c:/isis/application/toolchain/bin/../lib/gcc/arm-none-eabi/4.7.4/../../../../arm-none-eabi/lib\libc_s.a(lib_a-locale.o)
 .debug_frame   0x00000210       0x40 c:/isis/application/toolchain/bin/../lib/gcc/arm-none-eabi/4.7.4/../../../../arm-none-eabi/lib\libc_s.a(lib_a-malloc.o)
 .debug_frame   0x00000250       0x2c c:/isis/application/toolchain/bin/../lib/gcc/arm-none-eabi/4.7.4/../../../../arm-none-eabi/lib\libc_s.a(lib_a-mallocr.o)
 .debug_frame   0x0000027c       0x20 c:/isis/application/toolchain/bin/../lib/gcc/arm-none-eabi/4.7.4/../../../../arm-none-eabi/lib\libc_s.a(lib_a-memcpy.o)
 .debug_frame   0x0000029c      0x22c c:/isis/application/toolchain/bin/../lib/gcc/arm-none-eabi/4.7.4/../../../../arm-none-eabi/lib\libc_s.a(lib_a-mprec.o)
 .debug_frame   0x000004c8       0x20 c:/isis/application/toolchain/bin/../lib/gcc/arm-none-eabi/4.7.4/../../../../arm-none-eabi/lib\libc_s.a(lib_a-s_fpclassify.o)
 .debug_frame   0x000004e8       0x2c c:/isis/application/toolchain/bin/../lib/gcc/arm-none-eabi/4.7.4/../../../../arm-none-eabi/lib\libc_s.a(lib_a-sbrkr.o)
 .debug_frame   0x00000514       0x20 c:/isis/application/toolchain/bin/../lib/gcc/arm-none-eabi/4.7.4/../../../../arm-none-eabi/lib\libc_s.a(lib_a-sf_nan.o)
 .debug_frame   0x00000534       0x54 c:/isis/application/toolchain/bin/../lib/gcc/arm-none-eabi/4.7.4/../../../../arm-none-eabi/lib\libc_s.a(lib_a-sprintf.o)
 .debug_frame   0x00000588       0x20 c:/isis/application/toolchain/bin/../lib/gcc/arm-none-eabi/4.7.4/../../../../arm-none-eabi/lib\libc_s.a(lib_a-strcmp.o)
 .debug_frame   0x000005a8       0x20 c:/isis/application/toolchain/bin/../lib/gcc/arm-none-eabi/4.7.4/../../../../arm-none-eabi/lib\libc_s.a(lib_a-strlen.o)
 .debug_frame   0x000005c8       0x80 c:/isis/application/toolchain/bin/../lib/gcc/arm-none-eabi/4.7.4/../../../../arm-none-eabi/lib\libc_s.a(lib_a-strtod.o)
 .debug_frame   0x00000648       0x54 c:/isis/application/toolchain/bin/../lib/gcc/arm-none-eabi/4.7.4/../../../../arm-none-eabi/lib\libc_s.a(lib_a-strtol.o)
 .debug_frame   0x0000069c       0x88 c:/isis/application/toolchain/bin/../lib/gcc/arm-none-eabi/4.7.4/../../../../arm-none-eabi/lib\libc_s.a(lib_a-svfprintf.o)
 .debug_frame   0x00000724       0x2c c:/isis/application/toolchain/bin/../lib/gcc/arm-none-eabi/4.7.4/../../../../arm-none-eabi/lib\libc_s.a(lib_a-callocr.o)
 .debug_frame   0x00000750       0x28 c:/isis/application/toolchain/bin/../lib/gcc/arm-none-eabi/4.7.4/../../../../arm-none-eabi/lib\libc_s.a(lib_a-freer.o)
 .debug_frame   0x00000778       0x84 c:/isis/application/toolchain/bin/../lib/gcc/arm-none-eabi/4.7.4/../../../../arm-none-eabi/lib\libc_s.a(lib_a-gdtoa-gethex.o)
 .debug_frame   0x000007fc       0x54 c:/isis/application/toolchain/bin/../lib/gcc/arm-none-eabi/4.7.4/../../../../arm-none-eabi/lib\libc_s.a(lib_a-gdtoa-hexnan.o)
 .debug_frame   0x00000850       0x20 c:/isis/application/toolchain/bin/../lib/gcc/arm-none-eabi/4.7.4/../../../../arm-none-eabi/lib\libc_s.a(lib_a-memchr.o)
 .debug_frame   0x00000870       0x20 c:/isis/application/toolchain/bin/../lib/gcc/arm-none-eabi/4.7.4/../../../../arm-none-eabi/lib\libc_s.a(lib_a-memset.o)
 .debug_frame   0x00000890       0x30 c:/isis/application/toolchain/bin/../lib/gcc/arm-none-eabi/4.7.4/../../../../arm-none-eabi/lib\libc_s.a(lib_a-reallocr.o)
 .debug_frame   0x000008c0       0x64 c:/isis/application/toolchain/bin/../lib/gcc/arm-none-eabi/4.7.4/../../../../arm-none-eabi/lib\libc_s.a(lib_a-reent.o)
 .debug_frame   0x00000924       0x28 c:/isis/application/toolchain/bin/../lib/gcc/arm-none-eabi/4.7.4/../../../../arm-none-eabi/lib\libc_s.a(lib_a-strncmp.o)
 .debug_frame   0x0000094c       0x20 c:/isis/application/toolchain/bin/../lib/gcc/arm-none-eabi/4.7.4/../../../../arm-none-eabi/lib\libc_s.a(lib_a-msizer.o)
 .debug_frame   0x0000096c       0xb4 ./src/sub-systemCode/Main/CMD/ADCS_CMD.o
 .debug_frame   0x00000a20      0x11c ./src/sub-systemCode/Main/CMD/COMM_CMD.o
 .debug_frame   0x00000b3c       0xf0 ./src/sub-systemCode/Main/CMD/EPS_CMD.o
 .debug_frame   0x00000c2c      0x29c ./src/sub-systemCode/Main/CMD/General_CMD.o
 .debug_frame   0x00000ec8       0xac ./src/sub-systemCode/Main/CMD/SW_CMD.o
 .debug_frame   0x00000f74      0x10c ./src/sub-systemCode/Main/Ants.o
 .debug_frame   0x00001080      0x290 ./src/sub-systemCode/Main/EPS.o
 .debug_frame   0x00001310      0x168 ./src/sub-systemCode/Main/HouseKeeping.o
 .debug_frame   0x00001478      0x10c ./src/sub-systemCode/Main/Main_Init.o
 .debug_frame   0x00001584      0x1cc ./src/sub-systemCode/Main/commands.o
 .debug_frame   0x00001750       0x68 ./src/sub-systemCode/Global/GenericTaskSave.o
 .debug_frame   0x000017b8      0x1dc ./src/sub-systemCode/Global/Global.o
 .debug_frame   0x00001994      0x4c4 ./src/sub-systemCode/Global/GlobalParam.o
 .debug_frame   0x00001e58      0x300 ./src/sub-systemCode/Global/OnlineTM.o
 .debug_frame   0x00002158      0x320 ./src/sub-systemCode/Global/TLM_management.o
 .debug_frame   0x00002478       0x48 ./src/sub-systemCode/Global/freertosExtended.o
 .debug_frame   0x000024c0       0xf0 ./src/sub-systemCode/Global/logger.o
 .debug_frame   0x000025b0      0x28c ./src/sub-systemCode/CUF/CUF.o
 .debug_frame   0x0000283c       0xf8 ./src/sub-systemCode/CUF/uploadCodeTelemetry.o
 .debug_frame   0x00002934       0x70 ./src/sub-systemCode/COMM/APRS.o
 .debug_frame   0x000029a4      0x10c ./src/sub-systemCode/COMM/DelayedCommand_list.o
 .debug_frame   0x00002ab0       0xe4 ./src/sub-systemCode/COMM/GSC.o
 .debug_frame   0x00002b94      0x398 ./src/sub-systemCode/COMM/TRXVU.o
 .debug_frame   0x00002f2c       0x8c ./src/sub-systemCode/ADCS/AdcsCommands.o
 .debug_frame   0x00002fb8      0x24c ./src/sub-systemCode/ADCS/AdcsGetDataAndTlm.o
 .debug_frame   0x00003204       0x64 ./src/sub-systemCode/ADCS/AdcsMain.o
 .debug_frame   0x00003268       0x28 ./src/sub-systemCode/ADCS/AdcsTroubleShooting.o
 .debug_frame   0x00003290       0x40 ./src/sub-systemCode/ADCS/StateMachine.o
 .debug_frame   0x000032d0       0x80 ./src/main.o
 .debug_frame   0x00003350      0x2b4 C:/ISIS/workspace/HOOPOE3/satellite-subsystems/demo/..//satellite-subsystems/lib\libSatelliteSubsystemsD.a(GomEPS.o)
 .debug_frame   0x00003604      0x198 C:/ISIS/workspace/HOOPOE3/satellite-subsystems/demo/..//satellite-subsystems/lib\libSatelliteSubsystemsD.a(IsisAntS.o)
 .debug_frame   0x0000379c      0x3b0 C:/ISIS/workspace/HOOPOE3/satellite-subsystems/demo/..//satellite-subsystems/lib\libSatelliteSubsystemsD.a(IsisEPS.o)
 .debug_frame   0x00003b4c       0x84 C:/ISIS/workspace/HOOPOE3/satellite-subsystems/demo/..//satellite-subsystems/lib\libSatelliteSubsystemsD.a(IsisMTQv1.o)
 .debug_frame   0x00003bd0      0x2e8 C:/ISIS/workspace/HOOPOE3/satellite-subsystems/demo/..//satellite-subsystems/lib\libSatelliteSubsystemsD.a(IsisMTQv2.o)
 .debug_frame   0x00003eb8      0x1c4 C:/ISIS/workspace/HOOPOE3/satellite-subsystems/demo/..//satellite-subsystems/lib\libSatelliteSubsystemsD.a(IsisSolarPanelv2.o)
 .debug_frame   0x0000407c      0x30c C:/ISIS/workspace/HOOPOE3/satellite-subsystems/demo/..//satellite-subsystems/lib\libSatelliteSubsystemsD.a(IsisTRXVU.o)
 .debug_frame   0x00004388      0x848 C:/ISIS/workspace/HOOPOE3/satellite-subsystems/demo/..//satellite-subsystems/lib\libSatelliteSubsystemsD.a(cspaceADCS.o)
 .debug_frame   0x00004bd0      0x1b4 C:/ISIS/workspace/HOOPOE3/satellite-subsystems/demo/..//satellite-subsystems/lib\libSatelliteSubsystemsD.a(IsisTRXCommon.o)
 .debug_frame   0x00004d84      0xc40 C:/ISIS/workspace/HOOPOE3/satellite-subsystems/demo/../..//hal/hcc/lib\libHCCD.a(fat_common.o)
 .debug_frame   0x000059c4      0x614 C:/ISIS/workspace/HOOPOE3/satellite-subsystems/demo/../..//hal/hcc/lib\libHCCD.a(fat_m.o)
 .debug_frame   0x00005fd8      0x638 C:/ISIS/workspace/HOOPOE3/satellite-subsystems/demo/../..//hal/hcc/lib\libHCCD.a(safefat.o)
 .debug_frame   0x00006610      0x1c4 C:/ISIS/workspace/HOOPOE3/satellite-subsystems/demo/../..//hal/hcc/lib\libHCCD.a(atmel_mcipdc.o)
 .debug_frame   0x000067d4       0x80 C:/ISIS/workspace/HOOPOE3/satellite-subsystems/demo/../..//hal/hcc/lib\libHCCD.a(oalp_mutex.o)
 .debug_frame   0x00006854       0x2c C:/ISIS/workspace/HOOPOE3/satellite-subsystems/demo/../..//hal/hcc/lib\libHCCD.a(oalp_task.o)
 .debug_frame   0x00006880       0x80 C:/ISIS/workspace/HOOPOE3/satellite-subsystems/demo/../..//hal/hcc/lib\libHCCD.a(atmel_mcipdc_hw.o)
 .debug_frame   0x00006900       0x2c C:/ISIS/workspace/HOOPOE3/satellite-subsystems/demo/../..//hal/hcc/lib\libHCCD.a(psp_rand.o)
 .debug_frame   0x0000692c       0x2c C:/ISIS/workspace/HOOPOE3/satellite-subsystems/demo/../..//hal/hcc/lib\libHCCD.a(psp_rtc.o)
 .debug_frame   0x00006958      0x228 C:/ISIS/workspace/HOOPOE3/satellite-subsystems/demo/../..//hal/hcc/lib\libHCCD.a(hcc_mem.o)
 .debug_frame   0x00006b80      0x47c C:/ISIS/workspace/HOOPOE3/satellite-subsystems/demo/../..//hal/hcc/lib\libHCCD.a(fat.o)
 .debug_frame   0x00006ffc       0x40 C:/ISIS/workspace/HOOPOE3/satellite-subsystems/demo/../..//hal/hcc/lib\libHCCD.a(psp_hcc_mem.o)
 .debug_frame   0x0000703c      0x154 C:/ISIS/workspace/HOOPOE3/satellite-subsystems/demo/../..//hal/hal/lib\libHALD.a(checksum.o)
 .debug_frame   0x00007190      0x184 C:/ISIS/workspace/HOOPOE3/satellite-subsystems/demo/../..//hal/hal/lib\libHALD.a(supervisor.o)
 .debug_frame   0x00007314       0xd4 C:/ISIS/workspace/HOOPOE3/satellite-subsystems/demo/../..//hal/hal/lib\libHALD.a(ADC.o)
 .debug_frame   0x000073e8      0x264 C:/ISIS/workspace/HOOPOE3/satellite-subsystems/demo/../..//hal/hal/lib\libHALD.a(I2C.o)
 .debug_frame   0x0000764c      0x170 C:/ISIS/workspace/HOOPOE3/satellite-subsystems/demo/../..//hal/hal/lib\libHALD.a(I2Cslave.o)
 .debug_frame   0x000077bc       0xf0 C:/ISIS/workspace/HOOPOE3/satellite-subsystems/demo/../..//hal/hal/lib\libHALD.a(PWM.o)
 .debug_frame   0x000078ac      0x160 C:/ISIS/workspace/HOOPOE3/satellite-subsystems/demo/../..//hal/hal/lib\libHALD.a(SPI.o)
 .debug_frame   0x00007a0c      0x228 C:/ISIS/workspace/HOOPOE3/satellite-subsystems/demo/../..//hal/hal/lib\libHALD.a(UART.o)
 .debug_frame   0x00007c34      0x194 C:/ISIS/workspace/HOOPOE3/satellite-subsystems/demo/../..//hal/hal/lib\libHALD.a(FRAM.o)
 .debug_frame   0x00007dc8      0x11c C:/ISIS/workspace/HOOPOE3/satellite-subsystems/demo/../..//hal/hal/lib\libHALD.a(RTC.o)
 .debug_frame   0x00007ee4       0x8c C:/ISIS/workspace/HOOPOE3/satellite-subsystems/demo/../..//hal/hal/lib\libHALD.a(RTT.o)
 .debug_frame   0x00007f70      0x18c C:/ISIS/workspace/HOOPOE3/satellite-subsystems/demo/../..//hal/hal/lib\libHALD.a(Time.o)
 .debug_frame   0x000080fc       0x64 C:/ISIS/workspace/HOOPOE3/satellite-subsystems/demo/../..//hal/hal/lib\libHALD.a(WatchDogTimerNoOS.o)
 .debug_frame   0x00008160       0x80 C:/ISIS/workspace/HOOPOE3/satellite-subsystems/demo/../..//hal/hal/lib\libHALD.a(WatchDogTimerOS.o)
 .debug_frame   0x000081e0       0xd8 C:/ISIS/workspace/HOOPOE3/satellite-subsystems/demo/../..//hal/hal/lib\libHALD.a(util.o)
 .debug_frame   0x000082b8       0xd0 C:/ISIS/workspace/HOOPOE3/satellite-subsystems/demo/../..//hal/hal/lib\libHALD.a(LED.o)
 .debug_frame   0x00008388       0xd4 C:/ISIS/workspace/HOOPOE3/satellite-subsystems/demo/../..//hal/freertos/lib\libFreeRTOSD.a(croutine.o)
 .debug_frame   0x0000845c       0x88 C:/ISIS/workspace/HOOPOE3/satellite-subsystems/demo/../..//hal/freertos/lib\libFreeRTOSD.a(list.o)
 .debug_frame   0x000084e4      0x2b0 C:/ISIS/workspace/HOOPOE3/satellite-subsystems/demo/../..//hal/freertos/lib\libFreeRTOSD.a(queue.o)
 .debug_frame   0x00008794      0x404 C:/ISIS/workspace/HOOPOE3/satellite-subsystems/demo/../..//hal/freertos/lib\libFreeRTOSD.a(tasks.o)
 .debug_frame   0x00008b98       0x44 C:/ISIS/workspace/HOOPOE3/satellite-subsystems/demo/../..//hal/freertos/lib\libFreeRTOSD.a(hooks.o)
 .debug_frame   0x00008bdc       0x78 C:/ISIS/workspace/HOOPOE3/satellite-subsystems/demo/../..//hal/freertos/lib\libFreeRTOSD.a(standardMemMang.o)
 .debug_frame   0x00008c54      0x10c C:/ISIS/workspace/HOOPOE3/satellite-subsystems/demo/../..//hal/freertos/lib\libFreeRTOSD.a(port.o)
 .debug_frame   0x00008d60      0x1e0 C:/ISIS/workspace/HOOPOE3/satellite-subsystems/demo/../..//hal/at91/lib\libAt91D.a(syscalls.o)
 .debug_frame   0x00008f40       0x98 C:/ISIS/workspace/HOOPOE3/satellite-subsystems/demo/../..//hal/at91/lib\libAt91D.a(board_lowlevel.o)
 .debug_frame   0x00008fd8       0x74 C:/ISIS/workspace/HOOPOE3/satellite-subsystems/demo/../..//hal/at91/lib\libAt91D.a(board_memories.o)
 .debug_frame   0x0000904c      0x10c C:/ISIS/workspace/HOOPOE3/satellite-subsystems/demo/../..//hal/at91/lib\libAt91D.a(NorFlashAmd.o)
 .debug_frame   0x00009158      0x150 C:/ISIS/workspace/HOOPOE3/satellite-subsystems/demo/../..//hal/at91/lib\libAt91D.a(NorFlashCFI.o)
 .debug_frame   0x000092a8       0x58 C:/ISIS/workspace/HOOPOE3/satellite-subsystems/demo/../..//hal/at91/lib\libAt91D.a(NorFlashCommon.o)
 .debug_frame   0x00009300      0x350 C:/ISIS/workspace/HOOPOE3/satellite-subsystems/demo/../..//hal/at91/lib\libAt91D.a(sdmmc_mci.o)
 .debug_frame   0x00009650      0x1e4 C:/ISIS/workspace/HOOPOE3/satellite-subsystems/demo/../..//hal/at91/lib\libAt91D.a(adc_at91.o)
 .debug_frame   0x00009834       0x58 C:/ISIS/workspace/HOOPOE3/satellite-subsystems/demo/../..//hal/at91/lib\libAt91D.a(aic.o)
 .debug_frame   0x0000988c      0x10c C:/ISIS/workspace/HOOPOE3/satellite-subsystems/demo/../..//hal/at91/lib\libAt91D.a(cp15.o)
 .debug_frame   0x00009998       0xcc C:/ISIS/workspace/HOOPOE3/satellite-subsystems/demo/../..//hal/at91/lib\libAt91D.a(dbgu.o)
 .debug_frame   0x00009a64      0x124 C:/ISIS/workspace/HOOPOE3/satellite-subsystems/demo/../..//hal/at91/lib\libAt91D.a(mci.o)
 .debug_frame   0x00009b88      0x104 C:/ISIS/workspace/HOOPOE3/satellite-subsystems/demo/../..//hal/at91/lib\libAt91D.a(pio.o)
 .debug_frame   0x00009c8c       0xac C:/ISIS/workspace/HOOPOE3/satellite-subsystems/demo/../..//hal/at91/lib\libAt91D.a(pio_it.o)
 .debug_frame   0x00009d38       0xe8 C:/ISIS/workspace/HOOPOE3/satellite-subsystems/demo/../..//hal/at91/lib\libAt91D.a(pit.o)
 .debug_frame   0x00009e20       0xe4 C:/ISIS/workspace/HOOPOE3/satellite-subsystems/demo/../..//hal/at91/lib\libAt91D.a(pmc.o)
 .debug_frame   0x00009f04      0x118 C:/ISIS/workspace/HOOPOE3/satellite-subsystems/demo/../..//hal/at91/lib\libAt91D.a(rstc.o)
 .debug_frame   0x0000a01c       0xe8 C:/ISIS/workspace/HOOPOE3/satellite-subsystems/demo/../..//hal/at91/lib\libAt91D.a(spi_at91.o)
 .debug_frame   0x0000a104       0x74 C:/ISIS/workspace/HOOPOE3/satellite-subsystems/demo/../..//hal/at91/lib\libAt91D.a(tc.o)
 .debug_frame   0x0000a178      0x1a8 C:/ISIS/workspace/HOOPOE3/satellite-subsystems/demo/../..//hal/at91/lib\libAt91D.a(twi_at91.o)
 .debug_frame   0x0000a320       0x9c C:/ISIS/workspace/HOOPOE3/satellite-subsystems/demo/../..//hal/at91/lib\libAt91D.a(ExitHandler.o)
 .debug_frame   0x0000a3bc       0xb8 C:/ISIS/workspace/HOOPOE3/satellite-subsystems/demo/../..//hal/at91/lib\libAt91D.a(hamming.o)
 .debug_frame   0x0000a474       0x20 c:/isis/application/toolchain/bin/../lib/gcc/arm-none-eabi/4.7.4\libgcc.a(_udivsi3.o)
 .debug_frame   0x0000a494       0x20 c:/isis/application/toolchain/bin/../lib/gcc/arm-none-eabi/4.7.4\libgcc.a(_divsi3.o)
 .debug_frame   0x0000a4b4       0x20 c:/isis/application/toolchain/bin/../lib/gcc/arm-none-eabi/4.7.4/../../../../arm-none-eabi/lib\libc_s.a(lib_a-errno.o)
 .debug_frame   0x0000a4d4       0x28 c:/isis/application/toolchain/bin/../lib/gcc/arm-none-eabi/4.7.4/../../../../arm-none-eabi/lib\libc_s.a(lib_a-memcmp.o)
 .debug_frame   0x0000a4fc       0x60 c:/isis/application/toolchain/bin/../lib/gcc/arm-none-eabi/4.7.4/../../../../arm-none-eabi/lib\libc_s.a(lib_a-printf.o)
 .debug_frame   0x0000a55c       0x48 c:/isis/application/toolchain/bin/../lib/gcc/arm-none-eabi/4.7.4/../../../../arm-none-eabi/lib\libc_s.a(lib_a-puts.o)
 .debug_frame   0x0000a5a4       0x20 c:/isis/application/toolchain/bin/../lib/gcc/arm-none-eabi/4.7.4/../../../../arm-none-eabi/lib\libc_s.a(lib_a-strcpy.o)
 .debug_frame   0x0000a5c4       0x28 c:/isis/application/toolchain/bin/../lib/gcc/arm-none-eabi/4.7.4/../../../../arm-none-eabi/lib\libc_s.a(lib_a-strstr.o)
 .debug_frame   0x0000a5ec       0x8c c:/isis/application/toolchain/bin/../lib/gcc/arm-none-eabi/4.7.4/../../../../arm-none-eabi/lib\libc_s.a(lib_a-vfprintf.o)
 .debug_frame   0x0000a678       0x3c c:/isis/application/toolchain/bin/../lib/gcc/arm-none-eabi/4.7.4/../../../../arm-none-eabi/lib\libc_s.a(lib_a-wbuf.o)
 .debug_frame   0x0000a6b4       0x2c c:/isis/application/toolchain/bin/../lib/gcc/arm-none-eabi/4.7.4/../../../../arm-none-eabi/lib\libc_s.a(lib_a-wsetup.o)
 .debug_frame   0x0000a6e0       0x48 c:/isis/application/toolchain/bin/../lib/gcc/arm-none-eabi/4.7.4/../../../../arm-none-eabi/lib\libc_s.a(lib_a-fflush.o)
 .debug_frame   0x0000a728      0x140 c:/isis/application/toolchain/bin/../lib/gcc/arm-none-eabi/4.7.4/../../../../arm-none-eabi/lib\libc_s.a(lib_a-findfp.o)
 .debug_frame   0x0000a868       0x30 c:/isis/application/toolchain/bin/../lib/gcc/arm-none-eabi/4.7.4/../../../../arm-none-eabi/lib\libc_s.a(lib_a-makebuf.o)
 .debug_frame   0x0000a898       0x3c c:/isis/application/toolchain/bin/../lib/gcc/arm-none-eabi/4.7.4/../../../../arm-none-eabi/lib\libc_s.a(lib_a-putc.o)
 .debug_frame   0x0000a8d4       0x88 c:/isis/application/toolchain/bin/../lib/gcc/arm-none-eabi/4.7.4/../../../../arm-none-eabi/lib\libc_s.a(lib_a-stdio.o)
 .debug_frame   0x0000a95c       0x2c c:/isis/application/toolchain/bin/../lib/gcc/arm-none-eabi/4.7.4/../../../../arm-none-eabi/lib\libc_s.a(lib_a-writer.o)
 .debug_frame   0x0000a988       0x2c c:/isis/application/toolchain/bin/../lib/gcc/arm-none-eabi/4.7.4/../../../../arm-none-eabi/lib\libc_s.a(lib_a-closer.o)
 .debug_frame   0x0000a9b4       0x2c c:/isis/application/toolchain/bin/../lib/gcc/arm-none-eabi/4.7.4/../../../../arm-none-eabi/lib\libc_s.a(lib_a-fstatr.o)
 .debug_frame   0x0000a9e0       0x2c c:/isis/application/toolchain/bin/../lib/gcc/arm-none-eabi/4.7.4/../../../../arm-none-eabi/lib\libc_s.a(lib_a-isattyr.o)
 .debug_frame   0x0000aa0c       0x2c c:/isis/application/toolchain/bin/../lib/gcc/arm-none-eabi/4.7.4/../../../../arm-none-eabi/lib\libc_s.a(lib_a-lseekr.o)
 .debug_frame   0x0000aa38       0x2c c:/isis/application/toolchain/bin/../lib/gcc/arm-none-eabi/4.7.4/../../../../arm-none-eabi/lib\libc_s.a(lib_a-readr.o)

.debug_info     0x00000000    0x3e4c3
 .debug_info    0x00000000      0x2b6 ./src/sub-systemCode/Main/CMD/ADCS_CMD.o
 .debug_info    0x000002b6      0x7a6 ./src/sub-systemCode/Main/CMD/COMM_CMD.o
 .debug_info    0x00000a5c      0x6b0 ./src/sub-systemCode/Main/CMD/EPS_CMD.o
 .debug_info    0x0000110c      0xd88 ./src/sub-systemCode/Main/CMD/General_CMD.o
 .debug_info    0x00001e94      0x533 ./src/sub-systemCode/Main/CMD/SW_CMD.o
 .debug_info    0x000023c7      0x61e ./src/sub-systemCode/Main/Ants.o
 .debug_info    0x000029e5      0xc88 ./src/sub-systemCode/Main/EPS.o
 .debug_info    0x0000366d     0x1238 ./src/sub-systemCode/Main/HouseKeeping.o
 .debug_info    0x000048a5      0x7ac ./src/sub-systemCode/Main/Main_Init.o
 .debug_info    0x00005051      0x703 ./src/sub-systemCode/Main/commands.o
 .debug_info    0x00005754      0x20d ./src/sub-systemCode/Global/GenericTaskSave.o
 .debug_info    0x00005961      0x95a ./src/sub-systemCode/Global/Global.o
 .debug_info    0x000062bb      0xf51 ./src/sub-systemCode/Global/GlobalParam.o
 .debug_info    0x0000720c      0xef2 ./src/sub-systemCode/Global/OnlineTM.o
 .debug_info    0x000080fe     0x1014 ./src/sub-systemCode/Global/TLM_management.o
 .debug_info    0x00009112      0x105 ./src/sub-systemCode/Global/freertosExtended.o
 .debug_info    0x00009217      0x652 ./src/sub-systemCode/Global/logger.o
 .debug_info    0x00009869      0xf0d ./src/sub-systemCode/CUF/CUF.o
 .debug_info    0x0000a776      0x583 ./src/sub-systemCode/CUF/uploadCodeTelemetry.o
 .debug_info    0x0000acf9      0x2da ./src/sub-systemCode/COMM/APRS.o
 .debug_info    0x0000afd3      0x582 ./src/sub-systemCode/COMM/DelayedCommand_list.o
 .debug_info    0x0000b555      0x4e4 ./src/sub-systemCode/COMM/GSC.o
 .debug_info    0x0000ba39     0x1855 ./src/sub-systemCode/COMM/TRXVU.o
 .debug_info    0x0000d28e     0x2ecd ./src/sub-systemCode/ADCS/AdcsCommands.o
 .debug_info    0x0001015b      0xdb2 ./src/sub-systemCode/ADCS/AdcsGetDataAndTlm.o
 .debug_info    0x00010f0d      0x418 ./src/sub-systemCode/ADCS/AdcsMain.o
 .debug_info    0x00011325      0x13e ./src/sub-systemCode/ADCS/AdcsTroubleShooting.o
 .debug_info    0x00011463      0x147 ./src/sub-systemCode/ADCS/StateMachine.o
 .debug_info    0x000115aa      0x216 ./src/main.o
 .debug_info    0x000117c0     0x16bc C:/ISIS/workspace/HOOPOE3/satellite-subsystems/demo/..//satellite-subsystems/lib\libSatelliteSubsystemsD.a(GomEPS.o)
 .debug_info    0x00012e7c      0xa44 C:/ISIS/workspace/HOOPOE3/satellite-subsystems/demo/..//satellite-subsystems/lib\libSatelliteSubsystemsD.a(IsisAntS.o)
 .debug_info    0x000138c0     0x1eca C:/ISIS/workspace/HOOPOE3/satellite-subsystems/demo/..//satellite-subsystems/lib\libSatelliteSubsystemsD.a(IsisEPS.o)
 .debug_info    0x0001578a      0x316 C:/ISIS/workspace/HOOPOE3/satellite-subsystems/demo/..//satellite-subsystems/lib\libSatelliteSubsystemsD.a(IsisMTQv1.o)
 .debug_info    0x00015aa0     0x1791 C:/ISIS/workspace/HOOPOE3/satellite-subsystems/demo/..//satellite-subsystems/lib\libSatelliteSubsystemsD.a(IsisMTQv2.o)
 .debug_info    0x00017231      0xbd2 C:/ISIS/workspace/HOOPOE3/satellite-subsystems/demo/..//satellite-subsystems/lib\libSatelliteSubsystemsD.a(IsisSolarPanelv2.o)
 .debug_info    0x00017e03     0x1059 C:/ISIS/workspace/HOOPOE3/satellite-subsystems/demo/..//satellite-subsystems/lib\libSatelliteSubsystemsD.a(IsisTRXVU.o)
 .debug_info    0x00018e5c     0x4647 C:/ISIS/workspace/HOOPOE3/satellite-subsystems/demo/..//satellite-subsystems/lib\libSatelliteSubsystemsD.a(cspaceADCS.o)
 .debug_info    0x0001d4a3      0x72c C:/ISIS/workspace/HOOPOE3/satellite-subsystems/demo/..//satellite-subsystems/lib\libSatelliteSubsystemsD.a(IsisTRXCommon.o)
 .debug_info    0x0001dbcf     0x4751 C:/ISIS/workspace/HOOPOE3/satellite-subsystems/demo/../..//hal/hcc/lib\libHCCD.a(fat_common.o)
 .debug_info    0x00022320     0x19f9 C:/ISIS/workspace/HOOPOE3/satellite-subsystems/demo/../..//hal/hcc/lib\libHCCD.a(fat_m.o)
 .debug_info    0x00023d19     0x2750 C:/ISIS/workspace/HOOPOE3/satellite-subsystems/demo/../..//hal/hcc/lib\libHCCD.a(safefat.o)
 .debug_info    0x00026469      0xd43 C:/ISIS/workspace/HOOPOE3/satellite-subsystems/demo/../..//hal/hcc/lib\libHCCD.a(atmel_mcipdc.o)
 .debug_info    0x000271ac      0x1aa C:/ISIS/workspace/HOOPOE3/satellite-subsystems/demo/../..//hal/hcc/lib\libHCCD.a(oalp_mutex.o)
 .debug_info    0x00027356       0xb0 C:/ISIS/workspace/HOOPOE3/satellite-subsystems/demo/../..//hal/hcc/lib\libHCCD.a(oalp_task.o)
 .debug_info    0x00027406      0x4c6 C:/ISIS/workspace/HOOPOE3/satellite-subsystems/demo/../..//hal/hcc/lib\libHCCD.a(atmel_mcipdc_hw.o)
 .debug_info    0x000278cc      0x157 C:/ISIS/workspace/HOOPOE3/satellite-subsystems/demo/../..//hal/hcc/lib\libHCCD.a(psp_rand.o)
 .debug_info    0x00027a23      0x1ba C:/ISIS/workspace/HOOPOE3/satellite-subsystems/demo/../..//hal/hcc/lib\libHCCD.a(psp_rtc.o)
 .debug_info    0x00027bdd      0xd35 C:/ISIS/workspace/HOOPOE3/satellite-subsystems/demo/../..//hal/hcc/lib\libHCCD.a(hcc_mem.o)
 .debug_info    0x00028912     0x28dd C:/ISIS/workspace/HOOPOE3/satellite-subsystems/demo/../..//hal/hcc/lib\libHCCD.a(fat.o)
 .debug_info    0x0002b1ef      0x1ad C:/ISIS/workspace/HOOPOE3/satellite-subsystems/demo/../..//hal/hcc/lib\libHCCD.a(psp_hcc_mem.o)
 .debug_info    0x0002b39c      0x5a2 C:/ISIS/workspace/HOOPOE3/satellite-subsystems/demo/../..//hal/hal/lib\libHALD.a(checksum.o)
 .debug_info    0x0002b93e      0xd92 C:/ISIS/workspace/HOOPOE3/satellite-subsystems/demo/../..//hal/hal/lib\libHALD.a(supervisor.o)
 .debug_info    0x0002c6d0      0xa34 C:/ISIS/workspace/HOOPOE3/satellite-subsystems/demo/../..//hal/hal/lib\libHALD.a(ADC.o)
 .debug_info    0x0002d104     0x106f C:/ISIS/workspace/HOOPOE3/satellite-subsystems/demo/../..//hal/hal/lib\libHALD.a(I2C.o)
 .debug_info    0x0002e173      0xd8d C:/ISIS/workspace/HOOPOE3/satellite-subsystems/demo/../..//hal/hal/lib\libHALD.a(I2Cslave.o)
 .debug_info    0x0002ef00      0x7dd C:/ISIS/workspace/HOOPOE3/satellite-subsystems/demo/../..//hal/hal/lib\libHALD.a(PWM.o)
 .debug_info    0x0002f6dd      0xdf5 C:/ISIS/workspace/HOOPOE3/satellite-subsystems/demo/../..//hal/hal/lib\libHALD.a(SPI.o)
 .debug_info    0x000304d2     0x1092 C:/ISIS/workspace/HOOPOE3/satellite-subsystems/demo/../..//hal/hal/lib\libHALD.a(UART.o)
 .debug_info    0x00031564      0x832 C:/ISIS/workspace/HOOPOE3/satellite-subsystems/demo/../..//hal/hal/lib\libHALD.a(FRAM.o)
 .debug_info    0x00031d96      0x654 C:/ISIS/workspace/HOOPOE3/satellite-subsystems/demo/../..//hal/hal/lib\libHALD.a(RTC.o)
 .debug_info    0x000323ea      0x185 C:/ISIS/workspace/HOOPOE3/satellite-subsystems/demo/../..//hal/hal/lib\libHALD.a(RTT.o)
 .debug_info    0x0003256f      0x5cf C:/ISIS/workspace/HOOPOE3/satellite-subsystems/demo/../..//hal/hal/lib\libHALD.a(Time.o)
 .debug_info    0x00032b3e      0x3f1 C:/ISIS/workspace/HOOPOE3/satellite-subsystems/demo/../..//hal/hal/lib\libHALD.a(WatchDogTimerNoOS.o)
 .debug_info    0x00032f2f      0x1ab C:/ISIS/workspace/HOOPOE3/satellite-subsystems/demo/../..//hal/hal/lib\libHALD.a(WatchDogTimerOS.o)
 .debug_info    0x000330da      0x2b4 C:/ISIS/workspace/HOOPOE3/satellite-subsystems/demo/../..//hal/hal/lib\libHALD.a(util.o)
 .debug_info    0x0003338e      0x506 C:/ISIS/workspace/HOOPOE3/satellite-subsystems/demo/../..//hal/hal/lib\libHALD.a(LED.o)
 .debug_info    0x00033894      0x4c4 C:/ISIS/workspace/HOOPOE3/satellite-subsystems/demo/../..//hal/freertos/lib\libFreeRTOSD.a(croutine.o)
 .debug_info    0x00033d58      0x2aa C:/ISIS/workspace/HOOPOE3/satellite-subsystems/demo/../..//hal/freertos/lib\libFreeRTOSD.a(list.o)
 .debug_info    0x00034002      0xadf C:/ISIS/workspace/HOOPOE3/satellite-subsystems/demo/../..//hal/freertos/lib\libFreeRTOSD.a(queue.o)
 .debug_info    0x00034ae1      0xede C:/ISIS/workspace/HOOPOE3/satellite-subsystems/demo/../..//hal/freertos/lib\libFreeRTOSD.a(tasks.o)
 .debug_info    0x000359bf       0xde C:/ISIS/workspace/HOOPOE3/satellite-subsystems/demo/../..//hal/freertos/lib\libFreeRTOSD.a(hooks.o)
 .debug_info    0x00035a9d      0x110 C:/ISIS/workspace/HOOPOE3/satellite-subsystems/demo/../..//hal/freertos/lib\libFreeRTOSD.a(standardMemMang.o)
 .debug_info    0x00035bad      0x330 C:/ISIS/workspace/HOOPOE3/satellite-subsystems/demo/../..//hal/freertos/lib\libFreeRTOSD.a(port.o)
 .debug_info    0x00035edd      0x628 C:/ISIS/workspace/HOOPOE3/satellite-subsystems/demo/../..//hal/at91/lib\libAt91D.a(syscalls.o)
 .debug_info    0x00036505      0x651 C:/ISIS/workspace/HOOPOE3/satellite-subsystems/demo/../..//hal/at91/lib\libAt91D.a(board_lowlevel.o)
 .debug_info    0x00036b56      0x956 C:/ISIS/workspace/HOOPOE3/satellite-subsystems/demo/../..//hal/at91/lib\libAt91D.a(board_memories.o)
 .debug_info    0x000374ac      0x6f8 C:/ISIS/workspace/HOOPOE3/satellite-subsystems/demo/../..//hal/at91/lib\libAt91D.a(NorFlashAmd.o)
 .debug_info    0x00037ba4      0x83a C:/ISIS/workspace/HOOPOE3/satellite-subsystems/demo/../..//hal/at91/lib\libAt91D.a(NorFlashCFI.o)
 .debug_info    0x000383de      0x1c7 C:/ISIS/workspace/HOOPOE3/satellite-subsystems/demo/../..//hal/at91/lib\libAt91D.a(NorFlashCommon.o)
 .debug_info    0x000385a5     0x11c0 C:/ISIS/workspace/HOOPOE3/satellite-subsystems/demo/../..//hal/at91/lib\libAt91D.a(sdmmc_mci.o)
 .debug_info    0x00039765      0xaf7 C:/ISIS/workspace/HOOPOE3/satellite-subsystems/demo/../..//hal/at91/lib\libAt91D.a(adc_at91.o)
 .debug_info    0x0003a25c      0x287 C:/ISIS/workspace/HOOPOE3/satellite-subsystems/demo/../..//hal/at91/lib\libAt91D.a(aic.o)
 .debug_info    0x0003a4e3      0x1f7 C:/ISIS/workspace/HOOPOE3/satellite-subsystems/demo/../..//hal/at91/lib\libAt91D.a(cp15.o)
 .debug_info    0x0003a6da      0xc6e C:/ISIS/workspace/HOOPOE3/satellite-subsystems/demo/../..//hal/at91/lib\libAt91D.a(dbgu.o)
 .debug_info    0x0003b348      0x8c1 C:/ISIS/workspace/HOOPOE3/satellite-subsystems/demo/../..//hal/at91/lib\libAt91D.a(mci.o)
 .debug_info    0x0003bc09      0x734 C:/ISIS/workspace/HOOPOE3/satellite-subsystems/demo/../..//hal/at91/lib\libAt91D.a(pio.o)
 .debug_info    0x0003c33d      0x6a5 C:/ISIS/workspace/HOOPOE3/satellite-subsystems/demo/../..//hal/at91/lib\libAt91D.a(pio_it.o)
 .debug_info    0x0003c9e2      0x1ae C:/ISIS/workspace/HOOPOE3/satellite-subsystems/demo/../..//hal/at91/lib\libAt91D.a(pit.o)
 .debug_info    0x0003cb90      0x2fd C:/ISIS/workspace/HOOPOE3/satellite-subsystems/demo/../..//hal/at91/lib\libAt91D.a(pmc.o)
 .debug_info    0x0003ce8d      0x249 C:/ISIS/workspace/HOOPOE3/satellite-subsystems/demo/../..//hal/at91/lib\libAt91D.a(rstc.o)
 .debug_info    0x0003d0d6      0x576 C:/ISIS/workspace/HOOPOE3/satellite-subsystems/demo/../..//hal/at91/lib\libAt91D.a(spi_at91.o)
 .debug_info    0x0003d64c      0x240 C:/ISIS/workspace/HOOPOE3/satellite-subsystems/demo/../..//hal/at91/lib\libAt91D.a(tc.o)
 .debug_info    0x0003d88c      0x63d C:/ISIS/workspace/HOOPOE3/satellite-subsystems/demo/../..//hal/at91/lib\libAt91D.a(twi_at91.o)
 .debug_info    0x0003dec9      0x22e C:/ISIS/workspace/HOOPOE3/satellite-subsystems/demo/../..//hal/at91/lib\libAt91D.a(ExitHandler.o)
 .debug_info    0x0003e0f7      0x2b9 C:/ISIS/workspace/HOOPOE3/satellite-subsystems/demo/../..//hal/at91/lib\libAt91D.a(hamming.o)
 .debug_info    0x0003e3b0       0x92 C:/ISIS/workspace/HOOPOE3/satellite-subsystems/demo/../..//hal/at91/lib\libAt91D.a(board_cstartup.o)
 .debug_info    0x0003e442       0x81 C:/ISIS/workspace/HOOPOE3/satellite-subsystems/demo/../..//hal/at91/lib\libAt91D.a(cp15_asm.o)

.debug_abbrev   0x00000000     0x8fc7
 .debug_abbrev  0x00000000      0x11b ./src/sub-systemCode/Main/CMD/ADCS_CMD.o
 .debug_abbrev  0x0000011b      0x144 ./src/sub-systemCode/Main/CMD/COMM_CMD.o
 .debug_abbrev  0x0000025f      0x160 ./src/sub-systemCode/Main/CMD/EPS_CMD.o
 .debug_abbrev  0x000003bf      0x1a1 ./src/sub-systemCode/Main/CMD/General_CMD.o
 .debug_abbrev  0x00000560      0x11f ./src/sub-systemCode/Main/CMD/SW_CMD.o
 .debug_abbrev  0x0000067f      0x151 ./src/sub-systemCode/Main/Ants.o
 .debug_abbrev  0x000007d0      0x2e8 ./src/sub-systemCode/Main/EPS.o
 .debug_abbrev  0x00000ab8      0x242 ./src/sub-systemCode/Main/HouseKeeping.o
 .debug_abbrev  0x00000cfa      0x165 ./src/sub-systemCode/Main/Main_Init.o
 .debug_abbrev  0x00000e5f      0x1ce ./src/sub-systemCode/Main/commands.o
 .debug_abbrev  0x0000102d      0x115 ./src/sub-systemCode/Global/GenericTaskSave.o
 .debug_abbrev  0x00001142      0x1e5 ./src/sub-systemCode/Global/Global.o
 .debug_abbrev  0x00001327      0x21b ./src/sub-systemCode/Global/GlobalParam.o
 .debug_abbrev  0x00001542      0x2a5 ./src/sub-systemCode/Global/OnlineTM.o
 .debug_abbrev  0x000017e7      0x249 ./src/sub-systemCode/Global/TLM_management.o
 .debug_abbrev  0x00001a30       0x85 ./src/sub-systemCode/Global/freertosExtended.o
 .debug_abbrev  0x00001ab5      0x137 ./src/sub-systemCode/Global/logger.o
 .debug_abbrev  0x00001bec      0x24b ./src/sub-systemCode/CUF/CUF.o
 .debug_abbrev  0x00001e37      0x14d ./src/sub-systemCode/CUF/uploadCodeTelemetry.o
 .debug_abbrev  0x00001f84      0x133 ./src/sub-systemCode/COMM/APRS.o
 .debug_abbrev  0x000020b7      0x1ae ./src/sub-systemCode/COMM/DelayedCommand_list.o
 .debug_abbrev  0x00002265      0x121 ./src/sub-systemCode/COMM/GSC.o
 .debug_abbrev  0x00002386      0x2ce ./src/sub-systemCode/COMM/TRXVU.o
 .debug_abbrev  0x00002654      0x240 ./src/sub-systemCode/ADCS/AdcsCommands.o
 .debug_abbrev  0x00002894      0x27e ./src/sub-systemCode/ADCS/AdcsGetDataAndTlm.o
 .debug_abbrev  0x00002b12      0x132 ./src/sub-systemCode/ADCS/AdcsMain.o
 .debug_abbrev  0x00002c44       0x7a ./src/sub-systemCode/ADCS/AdcsTroubleShooting.o
 .debug_abbrev  0x00002cbe       0x69 ./src/sub-systemCode/ADCS/StateMachine.o
 .debug_abbrev  0x00002d27       0xcd ./src/main.o
 .debug_abbrev  0x00002df4      0x1bc C:/ISIS/workspace/HOOPOE3/satellite-subsystems/demo/..//satellite-subsystems/lib\libSatelliteSubsystemsD.a(GomEPS.o)
 .debug_abbrev  0x00002fb0      0x1b8 C:/ISIS/workspace/HOOPOE3/satellite-subsystems/demo/..//satellite-subsystems/lib\libSatelliteSubsystemsD.a(IsisAntS.o)
 .debug_abbrev  0x00003168      0x21d C:/ISIS/workspace/HOOPOE3/satellite-subsystems/demo/..//satellite-subsystems/lib\libSatelliteSubsystemsD.a(IsisEPS.o)
 .debug_abbrev  0x00003385      0x115 C:/ISIS/workspace/HOOPOE3/satellite-subsystems/demo/..//satellite-subsystems/lib\libSatelliteSubsystemsD.a(IsisMTQv1.o)
 .debug_abbrev  0x0000349a      0x25e C:/ISIS/workspace/HOOPOE3/satellite-subsystems/demo/..//satellite-subsystems/lib\libSatelliteSubsystemsD.a(IsisMTQv2.o)
 .debug_abbrev  0x000036f8      0x22b C:/ISIS/workspace/HOOPOE3/satellite-subsystems/demo/..//satellite-subsystems/lib\libSatelliteSubsystemsD.a(IsisSolarPanelv2.o)
 .debug_abbrev  0x00003923      0x19e C:/ISIS/workspace/HOOPOE3/satellite-subsystems/demo/..//satellite-subsystems/lib\libSatelliteSubsystemsD.a(IsisTRXVU.o)
 .debug_abbrev  0x00003ac1      0x221 C:/ISIS/workspace/HOOPOE3/satellite-subsystems/demo/..//satellite-subsystems/lib\libSatelliteSubsystemsD.a(cspaceADCS.o)
 .debug_abbrev  0x00003ce2      0x16d C:/ISIS/workspace/HOOPOE3/satellite-subsystems/demo/..//satellite-subsystems/lib\libSatelliteSubsystemsD.a(IsisTRXCommon.o)
 .debug_abbrev  0x00003e4f      0x2c0 C:/ISIS/workspace/HOOPOE3/satellite-subsystems/demo/../..//hal/hcc/lib\libHCCD.a(fat_common.o)
 .debug_abbrev  0x0000410f      0x1c9 C:/ISIS/workspace/HOOPOE3/satellite-subsystems/demo/../..//hal/hcc/lib\libHCCD.a(fat_m.o)
 .debug_abbrev  0x000042d8      0x265 C:/ISIS/workspace/HOOPOE3/satellite-subsystems/demo/../..//hal/hcc/lib\libHCCD.a(safefat.o)
 .debug_abbrev  0x0000453d      0x22f C:/ISIS/workspace/HOOPOE3/satellite-subsystems/demo/../..//hal/hcc/lib\libHCCD.a(atmel_mcipdc.o)
 .debug_abbrev  0x0000476c       0xb3 C:/ISIS/workspace/HOOPOE3/satellite-subsystems/demo/../..//hal/hcc/lib\libHCCD.a(oalp_mutex.o)
 .debug_abbrev  0x0000481f       0x5a C:/ISIS/workspace/HOOPOE3/satellite-subsystems/demo/../..//hal/hcc/lib\libHCCD.a(oalp_task.o)
 .debug_abbrev  0x00004879      0x13e C:/ISIS/workspace/HOOPOE3/satellite-subsystems/demo/../..//hal/hcc/lib\libHCCD.a(atmel_mcipdc_hw.o)
 .debug_abbrev  0x000049b7       0xad C:/ISIS/workspace/HOOPOE3/satellite-subsystems/demo/../..//hal/hcc/lib\libHCCD.a(psp_rand.o)
 .debug_abbrev  0x00004a64       0xb4 C:/ISIS/workspace/HOOPOE3/satellite-subsystems/demo/../..//hal/hcc/lib\libHCCD.a(psp_rtc.o)
 .debug_abbrev  0x00004b18      0x1fb C:/ISIS/workspace/HOOPOE3/satellite-subsystems/demo/../..//hal/hcc/lib\libHCCD.a(hcc_mem.o)
 .debug_abbrev  0x00004d13      0x2ce C:/ISIS/workspace/HOOPOE3/satellite-subsystems/demo/../..//hal/hcc/lib\libHCCD.a(fat.o)
 .debug_abbrev  0x00004fe1       0xb3 C:/ISIS/workspace/HOOPOE3/satellite-subsystems/demo/../..//hal/hcc/lib\libHCCD.a(psp_hcc_mem.o)
 .debug_abbrev  0x00005094       0xfd C:/ISIS/workspace/HOOPOE3/satellite-subsystems/demo/../..//hal/hal/lib\libHALD.a(checksum.o)
 .debug_abbrev  0x00005191      0x1e7 C:/ISIS/workspace/HOOPOE3/satellite-subsystems/demo/../..//hal/hal/lib\libHALD.a(supervisor.o)
 .debug_abbrev  0x00005378      0x1c9 C:/ISIS/workspace/HOOPOE3/satellite-subsystems/demo/../..//hal/hal/lib\libHALD.a(ADC.o)
 .debug_abbrev  0x00005541      0x2e0 C:/ISIS/workspace/HOOPOE3/satellite-subsystems/demo/../..//hal/hal/lib\libHALD.a(I2C.o)
 .debug_abbrev  0x00005821      0x287 C:/ISIS/workspace/HOOPOE3/satellite-subsystems/demo/../..//hal/hal/lib\libHALD.a(I2Cslave.o)
 .debug_abbrev  0x00005aa8      0x165 C:/ISIS/workspace/HOOPOE3/satellite-subsystems/demo/../..//hal/hal/lib\libHALD.a(PWM.o)
 .debug_abbrev  0x00005c0d      0x242 C:/ISIS/workspace/HOOPOE3/satellite-subsystems/demo/../..//hal/hal/lib\libHALD.a(SPI.o)
 .debug_abbrev  0x00005e4f      0x231 C:/ISIS/workspace/HOOPOE3/satellite-subsystems/demo/../..//hal/hal/lib\libHALD.a(UART.o)
 .debug_abbrev  0x00006080      0x257 C:/ISIS/workspace/HOOPOE3/satellite-subsystems/demo/../..//hal/hal/lib\libHALD.a(FRAM.o)
 .debug_abbrev  0x000062d7      0x180 C:/ISIS/workspace/HOOPOE3/satellite-subsystems/demo/../..//hal/hal/lib\libHALD.a(RTC.o)
 .debug_abbrev  0x00006457       0xf6 C:/ISIS/workspace/HOOPOE3/satellite-subsystems/demo/../..//hal/hal/lib\libHALD.a(RTT.o)
 .debug_abbrev  0x0000654d      0x1ed C:/ISIS/workspace/HOOPOE3/satellite-subsystems/demo/../..//hal/hal/lib\libHALD.a(Time.o)
 .debug_abbrev  0x0000673a       0xf6 C:/ISIS/workspace/HOOPOE3/satellite-subsystems/demo/../..//hal/hal/lib\libHALD.a(WatchDogTimerNoOS.o)
 .debug_abbrev  0x00006830       0xd3 C:/ISIS/workspace/HOOPOE3/satellite-subsystems/demo/../..//hal/hal/lib\libHALD.a(WatchDogTimerOS.o)
 .debug_abbrev  0x00006903       0xd9 C:/ISIS/workspace/HOOPOE3/satellite-subsystems/demo/../..//hal/hal/lib\libHALD.a(util.o)
 .debug_abbrev  0x000069dc      0x163 C:/ISIS/workspace/HOOPOE3/satellite-subsystems/demo/../..//hal/hal/lib\libHALD.a(LED.o)
 .debug_abbrev  0x00006b3f      0x182 C:/ISIS/workspace/HOOPOE3/satellite-subsystems/demo/../..//hal/freertos/lib\libFreeRTOSD.a(croutine.o)
 .debug_abbrev  0x00006cc1       0xc0 C:/ISIS/workspace/HOOPOE3/satellite-subsystems/demo/../..//hal/freertos/lib\libFreeRTOSD.a(list.o)
 .debug_abbrev  0x00006d81      0x1af C:/ISIS/workspace/HOOPOE3/satellite-subsystems/demo/../..//hal/freertos/lib\libFreeRTOSD.a(queue.o)
 .debug_abbrev  0x00006f30      0x1e9 C:/ISIS/workspace/HOOPOE3/satellite-subsystems/demo/../..//hal/freertos/lib\libFreeRTOSD.a(tasks.o)
 .debug_abbrev  0x00007119       0x8a C:/ISIS/workspace/HOOPOE3/satellite-subsystems/demo/../..//hal/freertos/lib\libFreeRTOSD.a(hooks.o)
 .debug_abbrev  0x000071a3       0xc6 C:/ISIS/workspace/HOOPOE3/satellite-subsystems/demo/../..//hal/freertos/lib\libFreeRTOSD.a(standardMemMang.o)
 .debug_abbrev  0x00007269      0x1dc C:/ISIS/workspace/HOOPOE3/satellite-subsystems/demo/../..//hal/freertos/lib\libFreeRTOSD.a(port.o)
 .debug_abbrev  0x00007445      0x152 C:/ISIS/workspace/HOOPOE3/satellite-subsystems/demo/../..//hal/at91/lib\libAt91D.a(syscalls.o)
 .debug_abbrev  0x00007597       0xea C:/ISIS/workspace/HOOPOE3/satellite-subsystems/demo/../..//hal/at91/lib\libAt91D.a(board_lowlevel.o)
 .debug_abbrev  0x00007681      0x149 C:/ISIS/workspace/HOOPOE3/satellite-subsystems/demo/../..//hal/at91/lib\libAt91D.a(board_memories.o)
 .debug_abbrev  0x000077ca      0x178 C:/ISIS/workspace/HOOPOE3/satellite-subsystems/demo/../..//hal/at91/lib\libAt91D.a(NorFlashAmd.o)
 .debug_abbrev  0x00007942      0x16f C:/ISIS/workspace/HOOPOE3/satellite-subsystems/demo/../..//hal/at91/lib\libAt91D.a(NorFlashCFI.o)
 .debug_abbrev  0x00007ab1       0xb5 C:/ISIS/workspace/HOOPOE3/satellite-subsystems/demo/../..//hal/at91/lib\libAt91D.a(NorFlashCommon.o)
 .debug_abbrev  0x00007b66      0x1d6 C:/ISIS/workspace/HOOPOE3/satellite-subsystems/demo/../..//hal/at91/lib\libAt91D.a(sdmmc_mci.o)
 .debug_abbrev  0x00007d3c      0x200 C:/ISIS/workspace/HOOPOE3/satellite-subsystems/demo/../..//hal/at91/lib\libAt91D.a(adc_at91.o)
 .debug_abbrev  0x00007f3c       0xc3 C:/ISIS/workspace/HOOPOE3/satellite-subsystems/demo/../..//hal/at91/lib\libAt91D.a(aic.o)
 .debug_abbrev  0x00007fff       0x89 C:/ISIS/workspace/HOOPOE3/satellite-subsystems/demo/../..//hal/at91/lib\libAt91D.a(cp15.o)
 .debug_abbrev  0x00008088      0x1f7 C:/ISIS/workspace/HOOPOE3/satellite-subsystems/demo/../..//hal/at91/lib\libAt91D.a(dbgu.o)
 .debug_abbrev  0x0000827f      0x1dc C:/ISIS/workspace/HOOPOE3/satellite-subsystems/demo/../..//hal/at91/lib\libAt91D.a(mci.o)
 .debug_abbrev  0x0000845b      0x185 C:/ISIS/workspace/HOOPOE3/satellite-subsystems/demo/../..//hal/at91/lib\libAt91D.a(pio.o)
 .debug_abbrev  0x000085e0      0x1a0 C:/ISIS/workspace/HOOPOE3/satellite-subsystems/demo/../..//hal/at91/lib\libAt91D.a(pio_it.o)
 .debug_abbrev  0x00008780       0xd3 C:/ISIS/workspace/HOOPOE3/satellite-subsystems/demo/../..//hal/at91/lib\libAt91D.a(pit.o)
 .debug_abbrev  0x00008853      0x115 C:/ISIS/workspace/HOOPOE3/satellite-subsystems/demo/../..//hal/at91/lib\libAt91D.a(pmc.o)
 .debug_abbrev  0x00008968       0xf4 C:/ISIS/workspace/HOOPOE3/satellite-subsystems/demo/../..//hal/at91/lib\libAt91D.a(rstc.o)
 .debug_abbrev  0x00008a5c       0xff C:/ISIS/workspace/HOOPOE3/satellite-subsystems/demo/../..//hal/at91/lib\libAt91D.a(spi_at91.o)
 .debug_abbrev  0x00008b5b       0xe5 C:/ISIS/workspace/HOOPOE3/satellite-subsystems/demo/../..//hal/at91/lib\libAt91D.a(tc.o)
 .debug_abbrev  0x00008c40      0x180 C:/ISIS/workspace/HOOPOE3/satellite-subsystems/demo/../..//hal/at91/lib\libAt91D.a(twi_at91.o)
 .debug_abbrev  0x00008dc0       0xbf C:/ISIS/workspace/HOOPOE3/satellite-subsystems/demo/../..//hal/at91/lib\libAt91D.a(ExitHandler.o)
 .debug_abbrev  0x00008e7f      0x122 C:/ISIS/workspace/HOOPOE3/satellite-subsystems/demo/../..//hal/at91/lib\libAt91D.a(hamming.o)
 .debug_abbrev  0x00008fa1       0x12 C:/ISIS/workspace/HOOPOE3/satellite-subsystems/demo/../..//hal/at91/lib\libAt91D.a(board_cstartup.o)
 .debug_abbrev  0x00008fb3       0x14 C:/ISIS/workspace/HOOPOE3/satellite-subsystems/demo/../..//hal/at91/lib\libAt91D.a(cp15_asm.o)

.debug_loc      0x00000000     0xefe0
 .debug_loc     0x00000000      0x108 ./src/sub-systemCode/Main/CMD/ADCS_CMD.o
 .debug_loc     0x00000108      0x1c8 ./src/sub-systemCode/Main/CMD/COMM_CMD.o
 .debug_loc     0x000002d0      0x188 ./src/sub-systemCode/Main/CMD/EPS_CMD.o
 .debug_loc     0x00000458      0x450 ./src/sub-systemCode/Main/CMD/General_CMD.o
 .debug_loc     0x000008a8      0x100 ./src/sub-systemCode/Main/CMD/SW_CMD.o
 .debug_loc     0x000009a8      0x18c ./src/sub-systemCode/Main/Ants.o
 .debug_loc     0x00000b34      0x400 ./src/sub-systemCode/Main/EPS.o
 .debug_loc     0x00000f34      0x21c ./src/sub-systemCode/Main/HouseKeeping.o
 .debug_loc     0x00001150      0x18c ./src/sub-systemCode/Main/Main_Init.o
 .debug_loc     0x000012dc      0x2d4 ./src/sub-systemCode/Main/commands.o
 .debug_loc     0x000015b0       0x90 ./src/sub-systemCode/Global/GenericTaskSave.o
 .debug_loc     0x00001640      0x318 ./src/sub-systemCode/Global/Global.o
 .debug_loc     0x00001958      0x764 ./src/sub-systemCode/Global/GlobalParam.o
 .debug_loc     0x000020bc      0x4a4 ./src/sub-systemCode/Global/OnlineTM.o
 .debug_loc     0x00002560      0x4d0 ./src/sub-systemCode/Global/TLM_management.o
 .debug_loc     0x00002a30       0x58 ./src/sub-systemCode/Global/freertosExtended.o
 .debug_loc     0x00002a88      0x160 ./src/sub-systemCode/Global/logger.o
 .debug_loc     0x00002be8      0x3f4 ./src/sub-systemCode/CUF/CUF.o
 .debug_loc     0x00002fdc      0x178 ./src/sub-systemCode/CUF/uploadCodeTelemetry.o
 .debug_loc     0x00003154       0xb0 ./src/sub-systemCode/COMM/APRS.o
 .debug_loc     0x00003204      0x198 ./src/sub-systemCode/COMM/DelayedCommand_list.o
 .debug_loc     0x0000339c      0x158 ./src/sub-systemCode/COMM/GSC.o
 .debug_loc     0x000034f4      0x580 ./src/sub-systemCode/COMM/TRXVU.o
 .debug_loc     0x00003a74       0xb0 ./src/sub-systemCode/ADCS/AdcsCommands.o
 .debug_loc     0x00003b24      0x39c ./src/sub-systemCode/ADCS/AdcsGetDataAndTlm.o
 .debug_loc     0x00003ec0       0x84 ./src/sub-systemCode/ADCS/AdcsMain.o
 .debug_loc     0x00003f44       0x2c ./src/sub-systemCode/ADCS/AdcsTroubleShooting.o
 .debug_loc     0x00003f70       0x58 ./src/sub-systemCode/ADCS/StateMachine.o
 .debug_loc     0x00003fc8       0xb0 ./src/main.o
 .debug_loc     0x00004078      0x420 C:/ISIS/workspace/HOOPOE3/satellite-subsystems/demo/..//satellite-subsystems/lib\libSatelliteSubsystemsD.a(GomEPS.o)
 .debug_loc     0x00004498      0x268 C:/ISIS/workspace/HOOPOE3/satellite-subsystems/demo/..//satellite-subsystems/lib\libSatelliteSubsystemsD.a(IsisAntS.o)
 .debug_loc     0x00004700      0x5ac C:/ISIS/workspace/HOOPOE3/satellite-subsystems/demo/..//satellite-subsystems/lib\libSatelliteSubsystemsD.a(IsisEPS.o)
 .debug_loc     0x00004cac       0xb0 C:/ISIS/workspace/HOOPOE3/satellite-subsystems/demo/..//satellite-subsystems/lib\libSatelliteSubsystemsD.a(IsisMTQv1.o)
 .debug_loc     0x00004d5c      0x478 C:/ISIS/workspace/HOOPOE3/satellite-subsystems/demo/..//satellite-subsystems/lib\libSatelliteSubsystemsD.a(IsisMTQv2.o)
 .debug_loc     0x000051d4      0x2c0 C:/ISIS/workspace/HOOPOE3/satellite-subsystems/demo/..//satellite-subsystems/lib\libSatelliteSubsystemsD.a(IsisSolarPanelv2.o)
 .debug_loc     0x00005494      0x4a4 C:/ISIS/workspace/HOOPOE3/satellite-subsystems/demo/..//satellite-subsystems/lib\libSatelliteSubsystemsD.a(IsisTRXVU.o)
 .debug_loc     0x00005938      0xce4 C:/ISIS/workspace/HOOPOE3/satellite-subsystems/demo/..//satellite-subsystems/lib\libSatelliteSubsystemsD.a(cspaceADCS.o)
 .debug_loc     0x0000661c      0x294 C:/ISIS/workspace/HOOPOE3/satellite-subsystems/demo/..//satellite-subsystems/lib\libSatelliteSubsystemsD.a(IsisTRXCommon.o)
 .debug_loc     0x000068b0     0x1398 C:/ISIS/workspace/HOOPOE3/satellite-subsystems/demo/../..//hal/hcc/lib\libHCCD.a(fat_common.o)
 .debug_loc     0x00007c48      0x974 C:/ISIS/workspace/HOOPOE3/satellite-subsystems/demo/../..//hal/hcc/lib\libHCCD.a(fat_m.o)
 .debug_loc     0x000085bc      0x9cc C:/ISIS/workspace/HOOPOE3/satellite-subsystems/demo/../..//hal/hcc/lib\libHCCD.a(safefat.o)
 .debug_loc     0x00008f88      0x2c0 C:/ISIS/workspace/HOOPOE3/satellite-subsystems/demo/../..//hal/hcc/lib\libHCCD.a(atmel_mcipdc.o)
 .debug_loc     0x00009248       0xb0 C:/ISIS/workspace/HOOPOE3/satellite-subsystems/demo/../..//hal/hcc/lib\libHCCD.a(oalp_mutex.o)
 .debug_loc     0x000092f8       0x2c C:/ISIS/workspace/HOOPOE3/satellite-subsystems/demo/../..//hal/hcc/lib\libHCCD.a(oalp_task.o)
 .debug_loc     0x00009324       0xb0 C:/ISIS/workspace/HOOPOE3/satellite-subsystems/demo/../..//hal/hcc/lib\libHCCD.a(atmel_mcipdc_hw.o)
 .debug_loc     0x000093d4       0x2c C:/ISIS/workspace/HOOPOE3/satellite-subsystems/demo/../..//hal/hcc/lib\libHCCD.a(psp_rand.o)
 .debug_loc     0x00009400       0x2c C:/ISIS/workspace/HOOPOE3/satellite-subsystems/demo/../..//hal/hcc/lib\libHCCD.a(psp_rtc.o)
 .debug_loc     0x0000942c      0x370 C:/ISIS/workspace/HOOPOE3/satellite-subsystems/demo/../..//hal/hcc/lib\libHCCD.a(hcc_mem.o)
 .debug_loc     0x0000979c      0x70c C:/ISIS/workspace/HOOPOE3/satellite-subsystems/demo/../..//hal/hcc/lib\libHCCD.a(fat.o)
 .debug_loc     0x00009ea8       0x58 C:/ISIS/workspace/HOOPOE3/satellite-subsystems/demo/../..//hal/hcc/lib\libHCCD.a(psp_hcc_mem.o)
 .debug_loc     0x00009f00      0x210 C:/ISIS/workspace/HOOPOE3/satellite-subsystems/demo/../..//hal/hal/lib\libHALD.a(checksum.o)
 .debug_loc     0x0000a110      0x23c C:/ISIS/workspace/HOOPOE3/satellite-subsystems/demo/../..//hal/hal/lib\libHALD.a(supervisor.o)
 .debug_loc     0x0000a34c      0x140 C:/ISIS/workspace/HOOPOE3/satellite-subsystems/demo/../..//hal/hal/lib\libHALD.a(ADC.o)
 .debug_loc     0x0000a48c      0x3c8 C:/ISIS/workspace/HOOPOE3/satellite-subsystems/demo/../..//hal/hal/lib\libHALD.a(I2C.o)
 .debug_loc     0x0000a854      0x23c C:/ISIS/workspace/HOOPOE3/satellite-subsystems/demo/../..//hal/hal/lib\libHALD.a(I2Cslave.o)
 .debug_loc     0x0000aa90      0x160 C:/ISIS/workspace/HOOPOE3/satellite-subsystems/demo/../..//hal/hal/lib\libHALD.a(PWM.o)
 .debug_loc     0x0000abf0      0x210 C:/ISIS/workspace/HOOPOE3/satellite-subsystems/demo/../..//hal/hal/lib\libHALD.a(SPI.o)
 .debug_loc     0x0000ae00      0x370 C:/ISIS/workspace/HOOPOE3/satellite-subsystems/demo/../..//hal/hal/lib\libHALD.a(UART.o)
 .debug_loc     0x0000b170      0x268 C:/ISIS/workspace/HOOPOE3/satellite-subsystems/demo/../..//hal/hal/lib\libHALD.a(FRAM.o)
 .debug_loc     0x0000b3d8      0x1b8 C:/ISIS/workspace/HOOPOE3/satellite-subsystems/demo/../..//hal/hal/lib\libHALD.a(RTC.o)
 .debug_loc     0x0000b590       0xdc C:/ISIS/workspace/HOOPOE3/satellite-subsystems/demo/../..//hal/hal/lib\libHALD.a(RTT.o)
 .debug_loc     0x0000b66c      0x268 C:/ISIS/workspace/HOOPOE3/satellite-subsystems/demo/../..//hal/hal/lib\libHALD.a(Time.o)
 .debug_loc     0x0000b8d4       0x84 C:/ISIS/workspace/HOOPOE3/satellite-subsystems/demo/../..//hal/hal/lib\libHALD.a(WatchDogTimerNoOS.o)
 .debug_loc     0x0000b958       0xb0 C:/ISIS/workspace/HOOPOE3/satellite-subsystems/demo/../..//hal/hal/lib\libHALD.a(WatchDogTimerOS.o)
 .debug_loc     0x0000ba08      0x134 C:/ISIS/workspace/HOOPOE3/satellite-subsystems/demo/../..//hal/hal/lib\libHALD.a(util.o)
 .debug_loc     0x0000bb3c      0x134 C:/ISIS/workspace/HOOPOE3/satellite-subsystems/demo/../..//hal/hal/lib\libHALD.a(LED.o)
 .debug_loc     0x0000bc70      0x134 C:/ISIS/workspace/HOOPOE3/satellite-subsystems/demo/../..//hal/freertos/lib\libFreeRTOSD.a(croutine.o)
 .debug_loc     0x0000bda4       0xdc C:/ISIS/workspace/HOOPOE3/satellite-subsystems/demo/../..//hal/freertos/lib\libFreeRTOSD.a(list.o)
 .debug_loc     0x0000be80      0x420 C:/ISIS/workspace/HOOPOE3/satellite-subsystems/demo/../..//hal/freertos/lib\libFreeRTOSD.a(queue.o)
 .debug_loc     0x0000c2a0      0x65c C:/ISIS/workspace/HOOPOE3/satellite-subsystems/demo/../..//hal/freertos/lib\libFreeRTOSD.a(tasks.o)
 .debug_loc     0x0000c8fc       0x58 C:/ISIS/workspace/HOOPOE3/satellite-subsystems/demo/../..//hal/freertos/lib\libFreeRTOSD.a(hooks.o)
 .debug_loc     0x0000c954       0xb0 C:/ISIS/workspace/HOOPOE3/satellite-subsystems/demo/../..//hal/freertos/lib\libFreeRTOSD.a(standardMemMang.o)
 .debug_loc     0x0000ca04      0x160 C:/ISIS/workspace/HOOPOE3/satellite-subsystems/demo/../..//hal/freertos/lib\libFreeRTOSD.a(port.o)
 .debug_loc     0x0000cb64      0x324 C:/ISIS/workspace/HOOPOE3/satellite-subsystems/demo/../..//hal/at91/lib\libAt91D.a(syscalls.o)
 .debug_loc     0x0000ce88       0xdc C:/ISIS/workspace/HOOPOE3/satellite-subsystems/demo/../..//hal/at91/lib\libAt91D.a(board_lowlevel.o)
 .debug_loc     0x0000cf64       0xb0 C:/ISIS/workspace/HOOPOE3/satellite-subsystems/demo/../..//hal/at91/lib\libAt91D.a(board_memories.o)
 .debug_loc     0x0000d014      0x18c C:/ISIS/workspace/HOOPOE3/satellite-subsystems/demo/../..//hal/at91/lib\libAt91D.a(NorFlashAmd.o)
 .debug_loc     0x0000d1a0      0x23c C:/ISIS/workspace/HOOPOE3/satellite-subsystems/demo/../..//hal/at91/lib\libAt91D.a(NorFlashCFI.o)
 .debug_loc     0x0000d3dc       0x84 C:/ISIS/workspace/HOOPOE3/satellite-subsystems/demo/../..//hal/at91/lib\libAt91D.a(NorFlashCommon.o)
 .debug_loc     0x0000d460      0x528 C:/ISIS/workspace/HOOPOE3/satellite-subsystems/demo/../..//hal/at91/lib\libAt91D.a(sdmmc_mci.o)
 .debug_loc     0x0000d988      0x318 C:/ISIS/workspace/HOOPOE3/satellite-subsystems/demo/../..//hal/at91/lib\libAt91D.a(adc_at91.o)
 .debug_loc     0x0000dca0       0x84 C:/ISIS/workspace/HOOPOE3/satellite-subsystems/demo/../..//hal/at91/lib\libAt91D.a(aic.o)
 .debug_loc     0x0000dd24      0x18c C:/ISIS/workspace/HOOPOE3/satellite-subsystems/demo/../..//hal/at91/lib\libAt91D.a(cp15.o)
 .debug_loc     0x0000deb0      0x134 C:/ISIS/workspace/HOOPOE3/satellite-subsystems/demo/../..//hal/at91/lib\libAt91D.a(dbgu.o)
 .debug_loc     0x0000dfe4      0x1b8 C:/ISIS/workspace/HOOPOE3/satellite-subsystems/demo/../..//hal/at91/lib\libAt91D.a(mci.o)
 .debug_loc     0x0000e19c      0x1b8 C:/ISIS/workspace/HOOPOE3/satellite-subsystems/demo/../..//hal/at91/lib\libAt91D.a(pio.o)
 .debug_loc     0x0000e354      0x108 C:/ISIS/workspace/HOOPOE3/satellite-subsystems/demo/../..//hal/at91/lib\libAt91D.a(pio_it.o)
 .debug_loc     0x0000e45c      0x18c C:/ISIS/workspace/HOOPOE3/satellite-subsystems/demo/../..//hal/at91/lib\libAt91D.a(pit.o)
 .debug_loc     0x0000e5e8      0x160 C:/ISIS/workspace/HOOPOE3/satellite-subsystems/demo/../..//hal/at91/lib\libAt91D.a(pmc.o)
 .debug_loc     0x0000e748      0x1e4 C:/ISIS/workspace/HOOPOE3/satellite-subsystems/demo/../..//hal/at91/lib\libAt91D.a(rstc.o)
 .debug_loc     0x0000e92c      0x18c C:/ISIS/workspace/HOOPOE3/satellite-subsystems/demo/../..//hal/at91/lib\libAt91D.a(spi_at91.o)
 .debug_loc     0x0000eab8       0xb0 C:/ISIS/workspace/HOOPOE3/satellite-subsystems/demo/../..//hal/at91/lib\libAt91D.a(tc.o)
 .debug_loc     0x0000eb68      0x294 C:/ISIS/workspace/HOOPOE3/satellite-subsystems/demo/../..//hal/at91/lib\libAt91D.a(twi_at91.o)
 .debug_loc     0x0000edfc       0xdc C:/ISIS/workspace/HOOPOE3/satellite-subsystems/demo/../..//hal/at91/lib\libAt91D.a(ExitHandler.o)
 .debug_loc     0x0000eed8      0x108 C:/ISIS/workspace/HOOPOE3/satellite-subsystems/demo/../..//hal/at91/lib\libAt91D.a(hamming.o)

.debug_aranges  0x00000000     0x3478
 .debug_aranges
                0x00000000       0x48 ./src/sub-systemCode/Main/CMD/ADCS_CMD.o
 .debug_aranges
                0x00000048       0x60 ./src/sub-systemCode/Main/CMD/COMM_CMD.o
 .debug_aranges
                0x000000a8       0x50 ./src/sub-systemCode/Main/CMD/EPS_CMD.o
 .debug_aranges
                0x000000f8       0xc0 ./src/sub-systemCode/Main/CMD/General_CMD.o
 .debug_aranges
                0x000001b8       0x40 ./src/sub-systemCode/Main/CMD/SW_CMD.o
 .debug_aranges
                0x000001f8       0x60 ./src/sub-systemCode/Main/Ants.o
 .debug_aranges
                0x00000258       0xd0 ./src/sub-systemCode/Main/EPS.o
 .debug_aranges
                0x00000328       0x78 ./src/sub-systemCode/Main/HouseKeeping.o
 .debug_aranges
                0x000003a0       0x60 ./src/sub-systemCode/Main/Main_Init.o
 .debug_aranges
                0x00000400       0x88 ./src/sub-systemCode/Main/commands.o
 .debug_aranges
                0x00000488       0x30 ./src/sub-systemCode/Global/GenericTaskSave.o
 .debug_aranges
                0x000004b8       0xa8 ./src/sub-systemCode/Global/Global.o
 .debug_aranges
                0x00000560      0x170 ./src/sub-systemCode/Global/GlobalParam.o
 .debug_aranges
                0x000006d0       0xf0 ./src/sub-systemCode/Global/OnlineTM.o
 .debug_aranges
                0x000007c0       0xf8 ./src/sub-systemCode/Global/TLM_management.o
 .debug_aranges
                0x000008b8       0x28 ./src/sub-systemCode/Global/freertosExtended.o
 .debug_aranges
                0x000008e0       0x58 ./src/sub-systemCode/Global/logger.o
 .debug_aranges
                0x00000938       0xd0 ./src/sub-systemCode/CUF/CUF.o
 .debug_aranges
                0x00000a08       0x58 ./src/sub-systemCode/CUF/uploadCodeTelemetry.o
 .debug_aranges
                0x00000a60       0x38 ./src/sub-systemCode/COMM/APRS.o
 .debug_aranges
                0x00000a98       0x60 ./src/sub-systemCode/COMM/DelayedCommand_list.o
 .debug_aranges
                0x00000af8       0x50 ./src/sub-systemCode/COMM/GSC.o
 .debug_aranges
                0x00000b48      0x118 ./src/sub-systemCode/COMM/TRXVU.o
 .debug_aranges
                0x00000c60       0x38 ./src/sub-systemCode/ADCS/AdcsCommands.o
 .debug_aranges
                0x00000c98       0xc0 ./src/sub-systemCode/ADCS/AdcsGetDataAndTlm.o
 .debug_aranges
                0x00000d58       0x30 ./src/sub-systemCode/ADCS/AdcsMain.o
 .debug_aranges
                0x00000d88       0x20 ./src/sub-systemCode/ADCS/AdcsTroubleShooting.o
 .debug_aranges
                0x00000da8       0x28 ./src/sub-systemCode/ADCS/StateMachine.o
 .debug_aranges
                0x00000dd0       0x38 ./src/main.o
 .debug_aranges
                0x00000e08       0xd8 C:/ISIS/workspace/HOOPOE3/satellite-subsystems/demo/..//satellite-subsystems/lib\libSatelliteSubsystemsD.a(GomEPS.o)
 .debug_aranges
                0x00000ee0       0x88 C:/ISIS/workspace/HOOPOE3/satellite-subsystems/demo/..//satellite-subsystems/lib\libSatelliteSubsystemsD.a(IsisAntS.o)
 .debug_aranges
                0x00000f68      0x120 C:/ISIS/workspace/HOOPOE3/satellite-subsystems/demo/..//satellite-subsystems/lib\libSatelliteSubsystemsD.a(IsisEPS.o)
 .debug_aranges
                0x00001088       0x38 C:/ISIS/workspace/HOOPOE3/satellite-subsystems/demo/..//satellite-subsystems/lib\libSatelliteSubsystemsD.a(IsisMTQv1.o)
 .debug_aranges
                0x000010c0       0xe8 C:/ISIS/workspace/HOOPOE3/satellite-subsystems/demo/..//satellite-subsystems/lib\libSatelliteSubsystemsD.a(IsisMTQv2.o)
 .debug_aranges
                0x000011a8       0x98 C:/ISIS/workspace/HOOPOE3/satellite-subsystems/demo/..//satellite-subsystems/lib\libSatelliteSubsystemsD.a(IsisSolarPanelv2.o)
 .debug_aranges
                0x00001240       0xf0 C:/ISIS/workspace/HOOPOE3/satellite-subsystems/demo/..//satellite-subsystems/lib\libSatelliteSubsystemsD.a(IsisTRXVU.o)
 .debug_aranges
                0x00001330      0x270 C:/ISIS/workspace/HOOPOE3/satellite-subsystems/demo/..//satellite-subsystems/lib\libSatelliteSubsystemsD.a(cspaceADCS.o)
 .debug_aranges
                0x000015a0       0x90 C:/ISIS/workspace/HOOPOE3/satellite-subsystems/demo/..//satellite-subsystems/lib\libSatelliteSubsystemsD.a(IsisTRXCommon.o)
 .debug_aranges
                0x00001630      0x3a8 C:/ISIS/workspace/HOOPOE3/satellite-subsystems/demo/../..//hal/hcc/lib\libHCCD.a(fat_common.o)
 .debug_aranges
                0x000019d8      0x1d0 C:/ISIS/workspace/HOOPOE3/satellite-subsystems/demo/../..//hal/hcc/lib\libHCCD.a(fat_m.o)
 .debug_aranges
                0x00001ba8      0x1e0 C:/ISIS/workspace/HOOPOE3/satellite-subsystems/demo/../..//hal/hcc/lib\libHCCD.a(safefat.o)
 .debug_aranges
                0x00001d88       0x98 C:/ISIS/workspace/HOOPOE3/satellite-subsystems/demo/../..//hal/hcc/lib\libHCCD.a(atmel_mcipdc.o)
 .debug_aranges
                0x00001e20       0x38 C:/ISIS/workspace/HOOPOE3/satellite-subsystems/demo/../..//hal/hcc/lib\libHCCD.a(oalp_mutex.o)
 .debug_aranges
                0x00001e58       0x20 C:/ISIS/workspace/HOOPOE3/satellite-subsystems/demo/../..//hal/hcc/lib\libHCCD.a(oalp_task.o)
 .debug_aranges
                0x00001e78       0x38 C:/ISIS/workspace/HOOPOE3/satellite-subsystems/demo/../..//hal/hcc/lib\libHCCD.a(atmel_mcipdc_hw.o)
 .debug_aranges
                0x00001eb0       0x20 C:/ISIS/workspace/HOOPOE3/satellite-subsystems/demo/../..//hal/hcc/lib\libHCCD.a(psp_rand.o)
 .debug_aranges
                0x00001ed0       0x20 C:/ISIS/workspace/HOOPOE3/satellite-subsystems/demo/../..//hal/hcc/lib\libHCCD.a(psp_rtc.o)
 .debug_aranges
                0x00001ef0       0xb8 C:/ISIS/workspace/HOOPOE3/satellite-subsystems/demo/../..//hal/hcc/lib\libHCCD.a(hcc_mem.o)
 .debug_aranges
                0x00001fa8      0x160 C:/ISIS/workspace/HOOPOE3/satellite-subsystems/demo/../..//hal/hcc/lib\libHCCD.a(fat.o)
 .debug_aranges
                0x00002108       0x28 C:/ISIS/workspace/HOOPOE3/satellite-subsystems/demo/../..//hal/hcc/lib\libHCCD.a(psp_hcc_mem.o)
 .debug_aranges
                0x00002130       0x78 C:/ISIS/workspace/HOOPOE3/satellite-subsystems/demo/../..//hal/hal/lib\libHALD.a(checksum.o)
 .debug_aranges
                0x000021a8       0x80 C:/ISIS/workspace/HOOPOE3/satellite-subsystems/demo/../..//hal/hal/lib\libHALD.a(supervisor.o)
 .debug_aranges
                0x00002228       0x50 C:/ISIS/workspace/HOOPOE3/satellite-subsystems/demo/../..//hal/hal/lib\libHALD.a(ADC.o)
 .debug_aranges
                0x00002278       0xc8 C:/ISIS/workspace/HOOPOE3/satellite-subsystems/demo/../..//hal/hal/lib\libHALD.a(I2C.o)
 .debug_aranges
                0x00002340       0x80 C:/ISIS/workspace/HOOPOE3/satellite-subsystems/demo/../..//hal/hal/lib\libHALD.a(I2Cslave.o)
 .debug_aranges
                0x000023c0       0x58 C:/ISIS/workspace/HOOPOE3/satellite-subsystems/demo/../..//hal/hal/lib\libHALD.a(PWM.o)
 .debug_aranges
                0x00002418       0x78 C:/ISIS/workspace/HOOPOE3/satellite-subsystems/demo/../..//hal/hal/lib\libHALD.a(SPI.o)
 .debug_aranges
                0x00002490       0xb8 C:/ISIS/workspace/HOOPOE3/satellite-subsystems/demo/../..//hal/hal/lib\libHALD.a(UART.o)
 .debug_aranges
                0x00002548       0x88 C:/ISIS/workspace/HOOPOE3/satellite-subsystems/demo/../..//hal/hal/lib\libHALD.a(FRAM.o)
 .debug_aranges
                0x000025d0       0x68 C:/ISIS/workspace/HOOPOE3/satellite-subsystems/demo/../..//hal/hal/lib\libHALD.a(RTC.o)
 .debug_aranges
                0x00002638       0x40 C:/ISIS/workspace/HOOPOE3/satellite-subsystems/demo/../..//hal/hal/lib\libHALD.a(RTT.o)
 .debug_aranges
                0x00002678       0x88 C:/ISIS/workspace/HOOPOE3/satellite-subsystems/demo/../..//hal/hal/lib\libHALD.a(Time.o)
 .debug_aranges
                0x00002700       0x30 C:/ISIS/workspace/HOOPOE3/satellite-subsystems/demo/../..//hal/hal/lib\libHALD.a(WatchDogTimerNoOS.o)
 .debug_aranges
                0x00002730       0x38 C:/ISIS/workspace/HOOPOE3/satellite-subsystems/demo/../..//hal/hal/lib\libHALD.a(WatchDogTimerOS.o)
 .debug_aranges
                0x00002768       0x50 C:/ISIS/workspace/HOOPOE3/satellite-subsystems/demo/../..//hal/hal/lib\libHALD.a(util.o)
 .debug_aranges
                0x000027b8       0x50 C:/ISIS/workspace/HOOPOE3/satellite-subsystems/demo/../..//hal/hal/lib\libHALD.a(LED.o)
 .debug_aranges
                0x00002808       0x50 C:/ISIS/workspace/HOOPOE3/satellite-subsystems/demo/../..//hal/freertos/lib\libFreeRTOSD.a(croutine.o)
 .debug_aranges
                0x00002858       0x40 C:/ISIS/workspace/HOOPOE3/satellite-subsystems/demo/../..//hal/freertos/lib\libFreeRTOSD.a(list.o)
 .debug_aranges
                0x00002898       0xd8 C:/ISIS/workspace/HOOPOE3/satellite-subsystems/demo/../..//hal/freertos/lib\libFreeRTOSD.a(queue.o)
 .debug_aranges
                0x00002970      0x140 C:/ISIS/workspace/HOOPOE3/satellite-subsystems/demo/../..//hal/freertos/lib\libFreeRTOSD.a(tasks.o)
 .debug_aranges
                0x00002ab0       0x28 C:/ISIS/workspace/HOOPOE3/satellite-subsystems/demo/../..//hal/freertos/lib\libFreeRTOSD.a(hooks.o)
 .debug_aranges
                0x00002ad8       0x38 C:/ISIS/workspace/HOOPOE3/satellite-subsystems/demo/../..//hal/freertos/lib\libFreeRTOSD.a(standardMemMang.o)
 .debug_aranges
                0x00002b10       0x70 C:/ISIS/workspace/HOOPOE3/satellite-subsystems/demo/../..//hal/freertos/lib\libFreeRTOSD.a(port.o)
 .debug_aranges
                0x00002b80       0xa8 C:/ISIS/workspace/HOOPOE3/satellite-subsystems/demo/../..//hal/at91/lib\libAt91D.a(syscalls.o)
 .debug_aranges
                0x00002c28       0x40 C:/ISIS/workspace/HOOPOE3/satellite-subsystems/demo/../..//hal/at91/lib\libAt91D.a(board_lowlevel.o)
 .debug_aranges
                0x00002c68       0x38 C:/ISIS/workspace/HOOPOE3/satellite-subsystems/demo/../..//hal/at91/lib\libAt91D.a(board_memories.o)
 .debug_aranges
                0x00002ca0       0x60 C:/ISIS/workspace/HOOPOE3/satellite-subsystems/demo/../..//hal/at91/lib\libAt91D.a(NorFlashAmd.o)
 .debug_aranges
                0x00002d00       0x80 C:/ISIS/workspace/HOOPOE3/satellite-subsystems/demo/../..//hal/at91/lib\libAt91D.a(NorFlashCFI.o)
 .debug_aranges
                0x00002d80       0x30 C:/ISIS/workspace/HOOPOE3/satellite-subsystems/demo/../..//hal/at91/lib\libAt91D.a(NorFlashCommon.o)
 .debug_aranges
                0x00002db0      0x108 C:/ISIS/workspace/HOOPOE3/satellite-subsystems/demo/../..//hal/at91/lib\libAt91D.a(sdmmc_mci.o)
 .debug_aranges
                0x00002eb8       0xa8 C:/ISIS/workspace/HOOPOE3/satellite-subsystems/demo/../..//hal/at91/lib\libAt91D.a(adc_at91.o)
 .debug_aranges
                0x00002f60       0x30 C:/ISIS/workspace/HOOPOE3/satellite-subsystems/demo/../..//hal/at91/lib\libAt91D.a(aic.o)
 .debug_aranges
                0x00002f90       0x60 C:/ISIS/workspace/HOOPOE3/satellite-subsystems/demo/../..//hal/at91/lib\libAt91D.a(cp15.o)
 .debug_aranges
                0x00002ff0       0x50 C:/ISIS/workspace/HOOPOE3/satellite-subsystems/demo/../..//hal/at91/lib\libAt91D.a(dbgu.o)
 .debug_aranges
                0x00003040       0x68 C:/ISIS/workspace/HOOPOE3/satellite-subsystems/demo/../..//hal/at91/lib\libAt91D.a(mci.o)
 .debug_aranges
                0x000030a8       0x68 C:/ISIS/workspace/HOOPOE3/satellite-subsystems/demo/../..//hal/at91/lib\libAt91D.a(pio.o)
 .debug_aranges
                0x00003110       0x48 C:/ISIS/workspace/HOOPOE3/satellite-subsystems/demo/../..//hal/at91/lib\libAt91D.a(pio_it.o)
 .debug_aranges
                0x00003158       0x60 C:/ISIS/workspace/HOOPOE3/satellite-subsystems/demo/../..//hal/at91/lib\libAt91D.a(pit.o)
 .debug_aranges
                0x000031b8       0x58 C:/ISIS/workspace/HOOPOE3/satellite-subsystems/demo/../..//hal/at91/lib\libAt91D.a(pmc.o)
 .debug_aranges
                0x00003210       0x70 C:/ISIS/workspace/HOOPOE3/satellite-subsystems/demo/../..//hal/at91/lib\libAt91D.a(rstc.o)
 .debug_aranges
                0x00003280       0x60 C:/ISIS/workspace/HOOPOE3/satellite-subsystems/demo/../..//hal/at91/lib\libAt91D.a(spi_at91.o)
 .debug_aranges
                0x000032e0       0x38 C:/ISIS/workspace/HOOPOE3/satellite-subsystems/demo/../..//hal/at91/lib\libAt91D.a(tc.o)
 .debug_aranges
                0x00003318       0x90 C:/ISIS/workspace/HOOPOE3/satellite-subsystems/demo/../..//hal/at91/lib\libAt91D.a(twi_at91.o)
 .debug_aranges
                0x000033a8       0x40 C:/ISIS/workspace/HOOPOE3/satellite-subsystems/demo/../..//hal/at91/lib\libAt91D.a(ExitHandler.o)
 .debug_aranges
                0x000033e8       0x48 C:/ISIS/workspace/HOOPOE3/satellite-subsystems/demo/../..//hal/at91/lib\libAt91D.a(hamming.o)
 .debug_aranges
                0x00003430       0x28 C:/ISIS/workspace/HOOPOE3/satellite-subsystems/demo/../..//hal/at91/lib\libAt91D.a(board_cstartup.o)
 .debug_aranges
                0x00003458       0x20 C:/ISIS/workspace/HOOPOE3/satellite-subsystems/demo/../..//hal/at91/lib\libAt91D.a(cp15_asm.o)

.debug_ranges   0x00000000     0x2f50
 .debug_ranges  0x00000000       0x38 ./src/sub-systemCode/Main/CMD/ADCS_CMD.o
 .debug_ranges  0x00000038       0x50 ./src/sub-systemCode/Main/CMD/COMM_CMD.o
 .debug_ranges  0x00000088       0x40 ./src/sub-systemCode/Main/CMD/EPS_CMD.o
 .debug_ranges  0x000000c8       0xb0 ./src/sub-systemCode/Main/CMD/General_CMD.o
 .debug_ranges  0x00000178       0x30 ./src/sub-systemCode/Main/CMD/SW_CMD.o
 .debug_ranges  0x000001a8       0x50 ./src/sub-systemCode/Main/Ants.o
 .debug_ranges  0x000001f8       0xc0 ./src/sub-systemCode/Main/EPS.o
 .debug_ranges  0x000002b8       0x68 ./src/sub-systemCode/Main/HouseKeeping.o
 .debug_ranges  0x00000320       0x50 ./src/sub-systemCode/Main/Main_Init.o
 .debug_ranges  0x00000370       0x78 ./src/sub-systemCode/Main/commands.o
 .debug_ranges  0x000003e8       0x20 ./src/sub-systemCode/Global/GenericTaskSave.o
 .debug_ranges  0x00000408       0x98 ./src/sub-systemCode/Global/Global.o
 .debug_ranges  0x000004a0      0x160 ./src/sub-systemCode/Global/GlobalParam.o
 .debug_ranges  0x00000600       0xe0 ./src/sub-systemCode/Global/OnlineTM.o
 .debug_ranges  0x000006e0      0x100 ./src/sub-systemCode/Global/TLM_management.o
 .debug_ranges  0x000007e0       0x18 ./src/sub-systemCode/Global/freertosExtended.o
 .debug_ranges  0x000007f8       0x48 ./src/sub-systemCode/Global/logger.o
 .debug_ranges  0x00000840       0xc0 ./src/sub-systemCode/CUF/CUF.o
 .debug_ranges  0x00000900       0x48 ./src/sub-systemCode/CUF/uploadCodeTelemetry.o
 .debug_ranges  0x00000948       0x28 ./src/sub-systemCode/COMM/APRS.o
 .debug_ranges  0x00000970       0x50 ./src/sub-systemCode/COMM/DelayedCommand_list.o
 .debug_ranges  0x000009c0       0x40 ./src/sub-systemCode/COMM/GSC.o
 .debug_ranges  0x00000a00      0x108 ./src/sub-systemCode/COMM/TRXVU.o
 .debug_ranges  0x00000b08       0x28 ./src/sub-systemCode/ADCS/AdcsCommands.o
 .debug_ranges  0x00000b30       0xb0 ./src/sub-systemCode/ADCS/AdcsGetDataAndTlm.o
 .debug_ranges  0x00000be0       0x20 ./src/sub-systemCode/ADCS/AdcsMain.o
 .debug_ranges  0x00000c00       0x10 ./src/sub-systemCode/ADCS/AdcsTroubleShooting.o
 .debug_ranges  0x00000c10       0x18 ./src/sub-systemCode/ADCS/StateMachine.o
 .debug_ranges  0x00000c28       0x28 ./src/main.o
 .debug_ranges  0x00000c50       0xc8 C:/ISIS/workspace/HOOPOE3/satellite-subsystems/demo/..//satellite-subsystems/lib\libSatelliteSubsystemsD.a(GomEPS.o)
 .debug_ranges  0x00000d18       0x78 C:/ISIS/workspace/HOOPOE3/satellite-subsystems/demo/..//satellite-subsystems/lib\libSatelliteSubsystemsD.a(IsisAntS.o)
 .debug_ranges  0x00000d90      0x110 C:/ISIS/workspace/HOOPOE3/satellite-subsystems/demo/..//satellite-subsystems/lib\libSatelliteSubsystemsD.a(IsisEPS.o)
 .debug_ranges  0x00000ea0       0x28 C:/ISIS/workspace/HOOPOE3/satellite-subsystems/demo/..//satellite-subsystems/lib\libSatelliteSubsystemsD.a(IsisMTQv1.o)
 .debug_ranges  0x00000ec8       0xd8 C:/ISIS/workspace/HOOPOE3/satellite-subsystems/demo/..//satellite-subsystems/lib\libSatelliteSubsystemsD.a(IsisMTQv2.o)
 .debug_ranges  0x00000fa0       0x88 C:/ISIS/workspace/HOOPOE3/satellite-subsystems/demo/..//satellite-subsystems/lib\libSatelliteSubsystemsD.a(IsisSolarPanelv2.o)
 .debug_ranges  0x00001028       0xe0 C:/ISIS/workspace/HOOPOE3/satellite-subsystems/demo/..//satellite-subsystems/lib\libSatelliteSubsystemsD.a(IsisTRXVU.o)
 .debug_ranges  0x00001108      0x260 C:/ISIS/workspace/HOOPOE3/satellite-subsystems/demo/..//satellite-subsystems/lib\libSatelliteSubsystemsD.a(cspaceADCS.o)
 .debug_ranges  0x00001368       0x80 C:/ISIS/workspace/HOOPOE3/satellite-subsystems/demo/..//satellite-subsystems/lib\libSatelliteSubsystemsD.a(IsisTRXCommon.o)
 .debug_ranges  0x000013e8      0x3b0 C:/ISIS/workspace/HOOPOE3/satellite-subsystems/demo/../..//hal/hcc/lib\libHCCD.a(fat_common.o)
 .debug_ranges  0x00001798      0x1c0 C:/ISIS/workspace/HOOPOE3/satellite-subsystems/demo/../..//hal/hcc/lib\libHCCD.a(fat_m.o)
 .debug_ranges  0x00001958      0x1e8 C:/ISIS/workspace/HOOPOE3/satellite-subsystems/demo/../..//hal/hcc/lib\libHCCD.a(safefat.o)
 .debug_ranges  0x00001b40       0x88 C:/ISIS/workspace/HOOPOE3/satellite-subsystems/demo/../..//hal/hcc/lib\libHCCD.a(atmel_mcipdc.o)
 .debug_ranges  0x00001bc8       0x28 C:/ISIS/workspace/HOOPOE3/satellite-subsystems/demo/../..//hal/hcc/lib\libHCCD.a(oalp_mutex.o)
 .debug_ranges  0x00001bf0       0x10 C:/ISIS/workspace/HOOPOE3/satellite-subsystems/demo/../..//hal/hcc/lib\libHCCD.a(oalp_task.o)
 .debug_ranges  0x00001c00       0x28 C:/ISIS/workspace/HOOPOE3/satellite-subsystems/demo/../..//hal/hcc/lib\libHCCD.a(atmel_mcipdc_hw.o)
 .debug_ranges  0x00001c28       0x10 C:/ISIS/workspace/HOOPOE3/satellite-subsystems/demo/../..//hal/hcc/lib\libHCCD.a(psp_rand.o)
 .debug_ranges  0x00001c38       0x10 C:/ISIS/workspace/HOOPOE3/satellite-subsystems/demo/../..//hal/hcc/lib\libHCCD.a(psp_rtc.o)
 .debug_ranges  0x00001c48       0xc0 C:/ISIS/workspace/HOOPOE3/satellite-subsystems/demo/../..//hal/hcc/lib\libHCCD.a(hcc_mem.o)
 .debug_ranges  0x00001d08      0x1c8 C:/ISIS/workspace/HOOPOE3/satellite-subsystems/demo/../..//hal/hcc/lib\libHCCD.a(fat.o)
 .debug_ranges  0x00001ed0       0x18 C:/ISIS/workspace/HOOPOE3/satellite-subsystems/demo/../..//hal/hcc/lib\libHCCD.a(psp_hcc_mem.o)
 .debug_ranges  0x00001ee8       0x68 C:/ISIS/workspace/HOOPOE3/satellite-subsystems/demo/../..//hal/hal/lib\libHALD.a(checksum.o)
 .debug_ranges  0x00001f50       0x70 C:/ISIS/workspace/HOOPOE3/satellite-subsystems/demo/../..//hal/hal/lib\libHALD.a(supervisor.o)
 .debug_ranges  0x00001fc0       0x40 C:/ISIS/workspace/HOOPOE3/satellite-subsystems/demo/../..//hal/hal/lib\libHALD.a(ADC.o)
 .debug_ranges  0x00002000       0xb8 C:/ISIS/workspace/HOOPOE3/satellite-subsystems/demo/../..//hal/hal/lib\libHALD.a(I2C.o)
 .debug_ranges  0x000020b8       0x70 C:/ISIS/workspace/HOOPOE3/satellite-subsystems/demo/../..//hal/hal/lib\libHALD.a(I2Cslave.o)
 .debug_ranges  0x00002128       0x48 C:/ISIS/workspace/HOOPOE3/satellite-subsystems/demo/../..//hal/hal/lib\libHALD.a(PWM.o)
 .debug_ranges  0x00002170       0x68 C:/ISIS/workspace/HOOPOE3/satellite-subsystems/demo/../..//hal/hal/lib\libHALD.a(SPI.o)
 .debug_ranges  0x000021d8       0xa8 C:/ISIS/workspace/HOOPOE3/satellite-subsystems/demo/../..//hal/hal/lib\libHALD.a(UART.o)
 .debug_ranges  0x00002280       0x78 C:/ISIS/workspace/HOOPOE3/satellite-subsystems/demo/../..//hal/hal/lib\libHALD.a(FRAM.o)
 .debug_ranges  0x000022f8       0x58 C:/ISIS/workspace/HOOPOE3/satellite-subsystems/demo/../..//hal/hal/lib\libHALD.a(RTC.o)
 .debug_ranges  0x00002350       0x30 C:/ISIS/workspace/HOOPOE3/satellite-subsystems/demo/../..//hal/hal/lib\libHALD.a(RTT.o)
 .debug_ranges  0x00002380       0x78 C:/ISIS/workspace/HOOPOE3/satellite-subsystems/demo/../..//hal/hal/lib\libHALD.a(Time.o)
 .debug_ranges  0x000023f8       0x20 C:/ISIS/workspace/HOOPOE3/satellite-subsystems/demo/../..//hal/hal/lib\libHALD.a(WatchDogTimerNoOS.o)
 .debug_ranges  0x00002418       0x28 C:/ISIS/workspace/HOOPOE3/satellite-subsystems/demo/../..//hal/hal/lib\libHALD.a(WatchDogTimerOS.o)
 .debug_ranges  0x00002440       0x40 C:/ISIS/workspace/HOOPOE3/satellite-subsystems/demo/../..//hal/hal/lib\libHALD.a(util.o)
 .debug_ranges  0x00002480       0x40 C:/ISIS/workspace/HOOPOE3/satellite-subsystems/demo/../..//hal/hal/lib\libHALD.a(LED.o)
 .debug_ranges  0x000024c0       0x40 C:/ISIS/workspace/HOOPOE3/satellite-subsystems/demo/../..//hal/freertos/lib\libFreeRTOSD.a(croutine.o)
 .debug_ranges  0x00002500       0x30 C:/ISIS/workspace/HOOPOE3/satellite-subsystems/demo/../..//hal/freertos/lib\libFreeRTOSD.a(list.o)
 .debug_ranges  0x00002530       0xc8 C:/ISIS/workspace/HOOPOE3/satellite-subsystems/demo/../..//hal/freertos/lib\libFreeRTOSD.a(queue.o)
 .debug_ranges  0x000025f8      0x148 C:/ISIS/workspace/HOOPOE3/satellite-subsystems/demo/../..//hal/freertos/lib\libFreeRTOSD.a(tasks.o)
 .debug_ranges  0x00002740       0x18 C:/ISIS/workspace/HOOPOE3/satellite-subsystems/demo/../..//hal/freertos/lib\libFreeRTOSD.a(hooks.o)
 .debug_ranges  0x00002758       0x28 C:/ISIS/workspace/HOOPOE3/satellite-subsystems/demo/../..//hal/freertos/lib\libFreeRTOSD.a(standardMemMang.o)
 .debug_ranges  0x00002780       0x60 C:/ISIS/workspace/HOOPOE3/satellite-subsystems/demo/../..//hal/freertos/lib\libFreeRTOSD.a(port.o)
 .debug_ranges  0x000027e0       0x98 C:/ISIS/workspace/HOOPOE3/satellite-subsystems/demo/../..//hal/at91/lib\libAt91D.a(syscalls.o)
 .debug_ranges  0x00002878       0x30 C:/ISIS/workspace/HOOPOE3/satellite-subsystems/demo/../..//hal/at91/lib\libAt91D.a(board_lowlevel.o)
 .debug_ranges  0x000028a8       0x28 C:/ISIS/workspace/HOOPOE3/satellite-subsystems/demo/../..//hal/at91/lib\libAt91D.a(board_memories.o)
 .debug_ranges  0x000028d0       0x50 C:/ISIS/workspace/HOOPOE3/satellite-subsystems/demo/../..//hal/at91/lib\libAt91D.a(NorFlashAmd.o)
 .debug_ranges  0x00002920       0x70 C:/ISIS/workspace/HOOPOE3/satellite-subsystems/demo/../..//hal/at91/lib\libAt91D.a(NorFlashCFI.o)
 .debug_ranges  0x00002990       0x20 C:/ISIS/workspace/HOOPOE3/satellite-subsystems/demo/../..//hal/at91/lib\libAt91D.a(NorFlashCommon.o)
 .debug_ranges  0x000029b0       0xf8 C:/ISIS/workspace/HOOPOE3/satellite-subsystems/demo/../..//hal/at91/lib\libAt91D.a(sdmmc_mci.o)
 .debug_ranges  0x00002aa8       0x98 C:/ISIS/workspace/HOOPOE3/satellite-subsystems/demo/../..//hal/at91/lib\libAt91D.a(adc_at91.o)
 .debug_ranges  0x00002b40       0x20 C:/ISIS/workspace/HOOPOE3/satellite-subsystems/demo/../..//hal/at91/lib\libAt91D.a(aic.o)
 .debug_ranges  0x00002b60       0x50 C:/ISIS/workspace/HOOPOE3/satellite-subsystems/demo/../..//hal/at91/lib\libAt91D.a(cp15.o)
 .debug_ranges  0x00002bb0       0x40 C:/ISIS/workspace/HOOPOE3/satellite-subsystems/demo/../..//hal/at91/lib\libAt91D.a(dbgu.o)
 .debug_ranges  0x00002bf0       0x58 C:/ISIS/workspace/HOOPOE3/satellite-subsystems/demo/../..//hal/at91/lib\libAt91D.a(mci.o)
 .debug_ranges  0x00002c48       0x58 C:/ISIS/workspace/HOOPOE3/satellite-subsystems/demo/../..//hal/at91/lib\libAt91D.a(pio.o)
 .debug_ranges  0x00002ca0       0x38 C:/ISIS/workspace/HOOPOE3/satellite-subsystems/demo/../..//hal/at91/lib\libAt91D.a(pio_it.o)
 .debug_ranges  0x00002cd8       0x50 C:/ISIS/workspace/HOOPOE3/satellite-subsystems/demo/../..//hal/at91/lib\libAt91D.a(pit.o)
 .debug_ranges  0x00002d28       0x48 C:/ISIS/workspace/HOOPOE3/satellite-subsystems/demo/../..//hal/at91/lib\libAt91D.a(pmc.o)
 .debug_ranges  0x00002d70       0x60 C:/ISIS/workspace/HOOPOE3/satellite-subsystems/demo/../..//hal/at91/lib\libAt91D.a(rstc.o)
 .debug_ranges  0x00002dd0       0x50 C:/ISIS/workspace/HOOPOE3/satellite-subsystems/demo/../..//hal/at91/lib\libAt91D.a(spi_at91.o)
 .debug_ranges  0x00002e20       0x28 C:/ISIS/workspace/HOOPOE3/satellite-subsystems/demo/../..//hal/at91/lib\libAt91D.a(tc.o)
 .debug_ranges  0x00002e48       0x80 C:/ISIS/workspace/HOOPOE3/satellite-subsystems/demo/../..//hal/at91/lib\libAt91D.a(twi_at91.o)
 .debug_ranges  0x00002ec8       0x30 C:/ISIS/workspace/HOOPOE3/satellite-subsystems/demo/../..//hal/at91/lib\libAt91D.a(ExitHandler.o)
 .debug_ranges  0x00002ef8       0x38 C:/ISIS/workspace/HOOPOE3/satellite-subsystems/demo/../..//hal/at91/lib\libAt91D.a(hamming.o)
 .debug_ranges  0x00002f30       0x20 C:/ISIS/workspace/HOOPOE3/satellite-subsystems/demo/../..//hal/at91/lib\libAt91D.a(board_cstartup.o)

.debug_line     0x00000000    0x15cec
 .debug_line    0x00000000      0x24a ./src/sub-systemCode/Main/CMD/ADCS_CMD.o
 .debug_line    0x0000024a      0x3f6 ./src/sub-systemCode/Main/CMD/COMM_CMD.o
 .debug_line    0x00000640      0x2f1 ./src/sub-systemCode/Main/CMD/EPS_CMD.o
 .debug_line    0x00000931      0x5e9 ./src/sub-systemCode/Main/CMD/General_CMD.o
 .debug_line    0x00000f1a      0x27e ./src/sub-systemCode/Main/CMD/SW_CMD.o
 .debug_line    0x00001198      0x340 ./src/sub-systemCode/Main/Ants.o
 .debug_line    0x000014d8      0x572 ./src/sub-systemCode/Main/EPS.o
 .debug_line    0x00001a4a      0x4c8 ./src/sub-systemCode/Main/HouseKeeping.o
 .debug_line    0x00001f12      0x431 ./src/sub-systemCode/Main/Main_Init.o
 .debug_line    0x00002343      0x493 ./src/sub-systemCode/Main/commands.o
 .debug_line    0x000027d6      0x158 ./src/sub-systemCode/Global/GenericTaskSave.o
 .debug_line    0x0000292e      0x38a ./src/sub-systemCode/Global/Global.o
 .debug_line    0x00002cb8      0x75c ./src/sub-systemCode/Global/GlobalParam.o
 .debug_line    0x00003414      0x8a6 ./src/sub-systemCode/Global/OnlineTM.o
 .debug_line    0x00003cba      0x606 ./src/sub-systemCode/Global/TLM_management.o
 .debug_line    0x000042c0      0x16d ./src/sub-systemCode/Global/freertosExtended.o
 .debug_line    0x0000442d      0x14e ./src/sub-systemCode/Global/logger.o
 .debug_line    0x0000457b      0xada ./src/sub-systemCode/CUF/CUF.o
 .debug_line    0x00005055      0x3aa ./src/sub-systemCode/CUF/uploadCodeTelemetry.o
 .debug_line    0x000053ff      0x22c ./src/sub-systemCode/COMM/APRS.o
 .debug_line    0x0000562b      0x2a1 ./src/sub-systemCode/COMM/DelayedCommand_list.o
 .debug_line    0x000058cc      0x1d8 ./src/sub-systemCode/COMM/GSC.o
 .debug_line    0x00005aa4      0x9ca ./src/sub-systemCode/COMM/TRXVU.o
 .debug_line    0x0000646e      0x5a4 ./src/sub-systemCode/ADCS/AdcsCommands.o
 .debug_line    0x00006a12      0x5f7 ./src/sub-systemCode/ADCS/AdcsGetDataAndTlm.o
 .debug_line    0x00007009      0x358 ./src/sub-systemCode/ADCS/AdcsMain.o
 .debug_line    0x00007361       0x7f ./src/sub-systemCode/ADCS/AdcsTroubleShooting.o
 .debug_line    0x000073e0       0x85 ./src/sub-systemCode/ADCS/StateMachine.o
 .debug_line    0x00007465      0x1ff ./src/main.o
 .debug_line    0x00007664      0x67c C:/ISIS/workspace/HOOPOE3/satellite-subsystems/demo/..//satellite-subsystems/lib\libSatelliteSubsystemsD.a(GomEPS.o)
 .debug_line    0x00007ce0      0x310 C:/ISIS/workspace/HOOPOE3/satellite-subsystems/demo/..//satellite-subsystems/lib\libSatelliteSubsystemsD.a(IsisAntS.o)
 .debug_line    0x00007ff0      0x578 C:/ISIS/workspace/HOOPOE3/satellite-subsystems/demo/..//satellite-subsystems/lib\libSatelliteSubsystemsD.a(IsisEPS.o)
 .debug_line    0x00008568      0x1ad C:/ISIS/workspace/HOOPOE3/satellite-subsystems/demo/..//satellite-subsystems/lib\libSatelliteSubsystemsD.a(IsisMTQv1.o)
 .debug_line    0x00008715      0x555 C:/ISIS/workspace/HOOPOE3/satellite-subsystems/demo/..//satellite-subsystems/lib\libSatelliteSubsystemsD.a(IsisMTQv2.o)
 .debug_line    0x00008c6a      0x466 C:/ISIS/workspace/HOOPOE3/satellite-subsystems/demo/..//satellite-subsystems/lib\libSatelliteSubsystemsD.a(IsisSolarPanelv2.o)
 .debug_line    0x000090d0      0x48a C:/ISIS/workspace/HOOPOE3/satellite-subsystems/demo/..//satellite-subsystems/lib\libSatelliteSubsystemsD.a(IsisTRXVU.o)
 .debug_line    0x0000955a      0x9d2 C:/ISIS/workspace/HOOPOE3/satellite-subsystems/demo/..//satellite-subsystems/lib\libSatelliteSubsystemsD.a(cspaceADCS.o)
 .debug_line    0x00009f2c      0x279 C:/ISIS/workspace/HOOPOE3/satellite-subsystems/demo/..//satellite-subsystems/lib\libSatelliteSubsystemsD.a(IsisTRXCommon.o)
 .debug_line    0x0000a1a5     0x1b99 C:/ISIS/workspace/HOOPOE3/satellite-subsystems/demo/../..//hal/hcc/lib\libHCCD.a(fat_common.o)
 .debug_line    0x0000bd3e      0x637 C:/ISIS/workspace/HOOPOE3/satellite-subsystems/demo/../..//hal/hcc/lib\libHCCD.a(fat_m.o)
 .debug_line    0x0000c375      0xcb9 C:/ISIS/workspace/HOOPOE3/satellite-subsystems/demo/../..//hal/hcc/lib\libHCCD.a(safefat.o)
 .debug_line    0x0000d02e      0x574 C:/ISIS/workspace/HOOPOE3/satellite-subsystems/demo/../..//hal/hcc/lib\libHCCD.a(atmel_mcipdc.o)
 .debug_line    0x0000d5a2      0x14d C:/ISIS/workspace/HOOPOE3/satellite-subsystems/demo/../..//hal/hcc/lib\libHCCD.a(oalp_mutex.o)
 .debug_line    0x0000d6ef       0x92 C:/ISIS/workspace/HOOPOE3/satellite-subsystems/demo/../..//hal/hcc/lib\libHCCD.a(oalp_task.o)
 .debug_line    0x0000d781      0x18b C:/ISIS/workspace/HOOPOE3/satellite-subsystems/demo/../..//hal/hcc/lib\libHCCD.a(atmel_mcipdc_hw.o)
 .debug_line    0x0000d90c      0x124 C:/ISIS/workspace/HOOPOE3/satellite-subsystems/demo/../..//hal/hcc/lib\libHCCD.a(psp_rand.o)
 .debug_line    0x0000da30      0x132 C:/ISIS/workspace/HOOPOE3/satellite-subsystems/demo/../..//hal/hcc/lib\libHCCD.a(psp_rtc.o)
 .debug_line    0x0000db62      0x5b7 C:/ISIS/workspace/HOOPOE3/satellite-subsystems/demo/../..//hal/hcc/lib\libHCCD.a(hcc_mem.o)
 .debug_line    0x0000e119     0x1081 C:/ISIS/workspace/HOOPOE3/satellite-subsystems/demo/../..//hal/hcc/lib\libHCCD.a(fat.o)
 .debug_line    0x0000f19a      0x133 C:/ISIS/workspace/HOOPOE3/satellite-subsystems/demo/../..//hal/hcc/lib\libHCCD.a(psp_hcc_mem.o)
 .debug_line    0x0000f2cd      0x255 C:/ISIS/workspace/HOOPOE3/satellite-subsystems/demo/../..//hal/hal/lib\libHALD.a(checksum.o)
 .debug_line    0x0000f522      0x3a4 C:/ISIS/workspace/HOOPOE3/satellite-subsystems/demo/../..//hal/hal/lib\libHALD.a(supervisor.o)
 .debug_line    0x0000f8c6      0x260 C:/ISIS/workspace/HOOPOE3/satellite-subsystems/demo/../..//hal/hal/lib\libHALD.a(ADC.o)
 .debug_line    0x0000fb26      0x4fa C:/ISIS/workspace/HOOPOE3/satellite-subsystems/demo/../..//hal/hal/lib\libHALD.a(I2C.o)
 .debug_line    0x00010020      0x3fb C:/ISIS/workspace/HOOPOE3/satellite-subsystems/demo/../..//hal/hal/lib\libHALD.a(I2Cslave.o)
 .debug_line    0x0001041b      0x1db C:/ISIS/workspace/HOOPOE3/satellite-subsystems/demo/../..//hal/hal/lib\libHALD.a(PWM.o)
 .debug_line    0x000105f6      0x3d7 C:/ISIS/workspace/HOOPOE3/satellite-subsystems/demo/../..//hal/hal/lib\libHALD.a(SPI.o)
 .debug_line    0x000109cd      0x4ac C:/ISIS/workspace/HOOPOE3/satellite-subsystems/demo/../..//hal/hal/lib\libHALD.a(UART.o)
 .debug_line    0x00010e79      0x352 C:/ISIS/workspace/HOOPOE3/satellite-subsystems/demo/../..//hal/hal/lib\libHALD.a(FRAM.o)
 .debug_line    0x000111cb      0x26f C:/ISIS/workspace/HOOPOE3/satellite-subsystems/demo/../..//hal/hal/lib\libHALD.a(RTC.o)
 .debug_line    0x0001143a       0xe8 C:/ISIS/workspace/HOOPOE3/satellite-subsystems/demo/../..//hal/hal/lib\libHALD.a(RTT.o)
 .debug_line    0x00011522      0x379 C:/ISIS/workspace/HOOPOE3/satellite-subsystems/demo/../..//hal/hal/lib\libHALD.a(Time.o)
 .debug_line    0x0001189b       0xe3 C:/ISIS/workspace/HOOPOE3/satellite-subsystems/demo/../..//hal/hal/lib\libHALD.a(WatchDogTimerNoOS.o)
 .debug_line    0x0001197e      0x147 C:/ISIS/workspace/HOOPOE3/satellite-subsystems/demo/../..//hal/hal/lib\libHALD.a(WatchDogTimerOS.o)
 .debug_line    0x00011ac5      0x1e1 C:/ISIS/workspace/HOOPOE3/satellite-subsystems/demo/../..//hal/hal/lib\libHALD.a(util.o)
 .debug_line    0x00011ca6      0x1fa C:/ISIS/workspace/HOOPOE3/satellite-subsystems/demo/../..//hal/hal/lib\libHALD.a(LED.o)
 .debug_line    0x00011ea0      0x1de C:/ISIS/workspace/HOOPOE3/satellite-subsystems/demo/../..//hal/freertos/lib\libFreeRTOSD.a(croutine.o)
 .debug_line    0x0001207e      0x10e C:/ISIS/workspace/HOOPOE3/satellite-subsystems/demo/../..//hal/freertos/lib\libFreeRTOSD.a(list.o)
 .debug_line    0x0001218c      0x5ae C:/ISIS/workspace/HOOPOE3/satellite-subsystems/demo/../..//hal/freertos/lib\libFreeRTOSD.a(queue.o)
 .debug_line    0x0001273a      0x82a C:/ISIS/workspace/HOOPOE3/satellite-subsystems/demo/../..//hal/freertos/lib\libFreeRTOSD.a(tasks.o)
 .debug_line    0x00012f64       0x77 C:/ISIS/workspace/HOOPOE3/satellite-subsystems/demo/../..//hal/freertos/lib\libFreeRTOSD.a(hooks.o)
 .debug_line    0x00012fdb       0xf9 C:/ISIS/workspace/HOOPOE3/satellite-subsystems/demo/../..//hal/freertos/lib\libFreeRTOSD.a(standardMemMang.o)
 .debug_line    0x000130d4      0x1ea C:/ISIS/workspace/HOOPOE3/satellite-subsystems/demo/../..//hal/freertos/lib\libFreeRTOSD.a(port.o)
 .debug_line    0x000132be      0x356 C:/ISIS/workspace/HOOPOE3/satellite-subsystems/demo/../..//hal/at91/lib\libAt91D.a(syscalls.o)
 .debug_line    0x00013614      0x122 C:/ISIS/workspace/HOOPOE3/satellite-subsystems/demo/../..//hal/at91/lib\libAt91D.a(board_lowlevel.o)
 .debug_line    0x00013736      0x140 C:/ISIS/workspace/HOOPOE3/satellite-subsystems/demo/../..//hal/at91/lib\libAt91D.a(board_memories.o)
 .debug_line    0x00013876      0x1ea C:/ISIS/workspace/HOOPOE3/satellite-subsystems/demo/../..//hal/at91/lib\libAt91D.a(NorFlashAmd.o)
 .debug_line    0x00013a60      0x29e C:/ISIS/workspace/HOOPOE3/satellite-subsystems/demo/../..//hal/at91/lib\libAt91D.a(NorFlashCFI.o)
 .debug_line    0x00013cfe       0x91 C:/ISIS/workspace/HOOPOE3/satellite-subsystems/demo/../..//hal/at91/lib\libAt91D.a(NorFlashCommon.o)
 .debug_line    0x00013d8f      0x5a7 C:/ISIS/workspace/HOOPOE3/satellite-subsystems/demo/../..//hal/at91/lib\libAt91D.a(sdmmc_mci.o)
 .debug_line    0x00014336      0x281 C:/ISIS/workspace/HOOPOE3/satellite-subsystems/demo/../..//hal/at91/lib\libAt91D.a(adc_at91.o)
 .debug_line    0x000145b7       0xb2 C:/ISIS/workspace/HOOPOE3/satellite-subsystems/demo/../..//hal/at91/lib\libAt91D.a(aic.o)
 .debug_line    0x00014669      0x101 C:/ISIS/workspace/HOOPOE3/satellite-subsystems/demo/../..//hal/at91/lib\libAt91D.a(cp15.o)
 .debug_line    0x0001476a      0x2cc C:/ISIS/workspace/HOOPOE3/satellite-subsystems/demo/../..//hal/at91/lib\libAt91D.a(dbgu.o)
 .debug_line    0x00014a36      0x2f6 C:/ISIS/workspace/HOOPOE3/satellite-subsystems/demo/../..//hal/at91/lib\libAt91D.a(mci.o)
 .debug_line    0x00014d2c      0x1b7 C:/ISIS/workspace/HOOPOE3/satellite-subsystems/demo/../..//hal/at91/lib\libAt91D.a(pio.o)
 .debug_line    0x00014ee3      0x18a C:/ISIS/workspace/HOOPOE3/satellite-subsystems/demo/../..//hal/at91/lib\libAt91D.a(pio_it.o)
 .debug_line    0x0001506d      0x136 C:/ISIS/workspace/HOOPOE3/satellite-subsystems/demo/../..//hal/at91/lib\libAt91D.a(pit.o)
 .debug_line    0x000151a3      0x145 C:/ISIS/workspace/HOOPOE3/satellite-subsystems/demo/../..//hal/at91/lib\libAt91D.a(pmc.o)
 .debug_line    0x000152e8      0x152 C:/ISIS/workspace/HOOPOE3/satellite-subsystems/demo/../..//hal/at91/lib\libAt91D.a(rstc.o)
 .debug_line    0x0001543a      0x14e C:/ISIS/workspace/HOOPOE3/satellite-subsystems/demo/../..//hal/at91/lib\libAt91D.a(spi_at91.o)
 .debug_line    0x00015588       0xe3 C:/ISIS/workspace/HOOPOE3/satellite-subsystems/demo/../..//hal/at91/lib\libAt91D.a(tc.o)
 .debug_line    0x0001566b      0x2e9 C:/ISIS/workspace/HOOPOE3/satellite-subsystems/demo/../..//hal/at91/lib\libAt91D.a(twi_at91.o)
 .debug_line    0x00015954       0xda C:/ISIS/workspace/HOOPOE3/satellite-subsystems/demo/../..//hal/at91/lib\libAt91D.a(ExitHandler.o)
 .debug_line    0x00015a2e      0x146 C:/ISIS/workspace/HOOPOE3/satellite-subsystems/demo/../..//hal/at91/lib\libAt91D.a(hamming.o)
 .debug_line    0x00015b74      0x109 C:/ISIS/workspace/HOOPOE3/satellite-subsystems/demo/../..//hal/at91/lib\libAt91D.a(board_cstartup.o)
 .debug_line    0x00015c7d       0x6f C:/ISIS/workspace/HOOPOE3/satellite-subsystems/demo/../..//hal/at91/lib\libAt91D.a(cp15_asm.o)

.debug_str      0x00000000    0x11c77
 .debug_str     0x00000000      0x346 ./src/sub-systemCode/Main/CMD/ADCS_CMD.o
                                0x39a (size before relaxing)
 .debug_str     0x00000346      0x8fe ./src/sub-systemCode/Main/CMD/COMM_CMD.o
                                0xaa4 (size before relaxing)
 .debug_str     0x00000c44      0x197 ./src/sub-systemCode/Main/CMD/EPS_CMD.o
                                0x4dc (size before relaxing)
 .debug_str     0x00000ddb      0x5fa ./src/sub-systemCode/Main/CMD/General_CMD.o
                                0xb65 (size before relaxing)
 .debug_str     0x000013d5       0xa5 ./src/sub-systemCode/Main/CMD/SW_CMD.o
                                0x47b (size before relaxing)
 .debug_str     0x0000147a      0x3c7 ./src/sub-systemCode/Main/Ants.o
                                0x81c (size before relaxing)
 .debug_str     0x00001841      0x6e5 ./src/sub-systemCode/Main/EPS.o
                                0xa33 (size before relaxing)
 .debug_str     0x00001f26      0x577 ./src/sub-systemCode/Main/HouseKeeping.o
                               0x1455 (size before relaxing)
 .debug_str     0x0000249d      0x17f ./src/sub-systemCode/Main/Main_Init.o
                                0x581 (size before relaxing)
 .debug_str     0x0000261c      0x122 ./src/sub-systemCode/Main/commands.o
                                0x6cc (size before relaxing)
 .debug_str     0x0000273e       0x9a ./src/sub-systemCode/Global/GenericTaskSave.o
                                0x2ea (size before relaxing)
 .debug_str     0x000027d8      0x436 ./src/sub-systemCode/Global/Global.o
                                0x94a (size before relaxing)
 .debug_str     0x00002c0e      0x2ef ./src/sub-systemCode/Global/GlobalParam.o
                                0x7bd (size before relaxing)
 .debug_str     0x00002efd      0x3b8 ./src/sub-systemCode/Global/OnlineTM.o
                                0xcab (size before relaxing)
 .debug_str     0x000032b5      0x473 ./src/sub-systemCode/Global/TLM_management.o
                                0x7f2 (size before relaxing)
 .debug_str     0x00003728       0x7d ./src/sub-systemCode/Global/freertosExtended.o
                                0x1bd (size before relaxing)
 .debug_str     0x000037a5      0x1f3 ./src/sub-systemCode/Global/logger.o
                                0x96b (size before relaxing)
 .debug_str     0x00003998      0x4db ./src/sub-systemCode/CUF/CUF.o
                                0x9e3 (size before relaxing)
 .debug_str     0x00003e73       0xd4 ./src/sub-systemCode/CUF/uploadCodeTelemetry.o
                                0x355 (size before relaxing)
 .debug_str     0x00003f47       0x88 ./src/sub-systemCode/COMM/APRS.o
                                0x283 (size before relaxing)
 .debug_str     0x00003fcf      0x140 ./src/sub-systemCode/COMM/DelayedCommand_list.o
                                0x79d (size before relaxing)
 .debug_str     0x0000410f       0xaf ./src/sub-systemCode/COMM/GSC.o
                                0x41b (size before relaxing)
 .debug_str     0x000041be      0x682 ./src/sub-systemCode/COMM/TRXVU.o
                               0x17c8 (size before relaxing)
 .debug_str     0x00004840     0x208b ./src/sub-systemCode/ADCS/AdcsCommands.o
                               0x2e4e (size before relaxing)
 .debug_str     0x000068cb      0x357 ./src/sub-systemCode/ADCS/AdcsGetDataAndTlm.o
                                0xbb1 (size before relaxing)
 .debug_str     0x00006c22       0xcb ./src/sub-systemCode/ADCS/AdcsMain.o
                                0x68f (size before relaxing)
 .debug_str     0x00006ced       0x45 ./src/sub-systemCode/ADCS/AdcsTroubleShooting.o
                                0x2cd (size before relaxing)
 .debug_str     0x00006d32       0x52 ./src/sub-systemCode/ADCS/StateMachine.o
                                0x2d5 (size before relaxing)
 .debug_str     0x00006d84       0x34 ./src/main.o
                                0x1ef (size before relaxing)
 .debug_str     0x00006db8      0x61c C:/ISIS/workspace/HOOPOE3/satellite-subsystems/demo/..//satellite-subsystems/lib\libSatelliteSubsystemsD.a(GomEPS.o)
                                0xafc (size before relaxing)
 .debug_str     0x000073d4      0x27a C:/ISIS/workspace/HOOPOE3/satellite-subsystems/demo/..//satellite-subsystems/lib\libSatelliteSubsystemsD.a(IsisAntS.o)
                                0x6bd (size before relaxing)
 .debug_str     0x0000764e      0xc0b C:/ISIS/workspace/HOOPOE3/satellite-subsystems/demo/..//satellite-subsystems/lib\libSatelliteSubsystemsD.a(IsisEPS.o)
                                0xf3f (size before relaxing)
 .debug_str     0x00008259       0xcd C:/ISIS/workspace/HOOPOE3/satellite-subsystems/demo/..//satellite-subsystems/lib\libSatelliteSubsystemsD.a(IsisMTQv1.o)
                                0x300 (size before relaxing)
 .debug_str     0x00008326      0x85a C:/ISIS/workspace/HOOPOE3/satellite-subsystems/demo/..//satellite-subsystems/lib\libSatelliteSubsystemsD.a(IsisMTQv2.o)
                                0xcac (size before relaxing)
 .debug_str     0x00008b80      0x5e3 C:/ISIS/workspace/HOOPOE3/satellite-subsystems/demo/..//satellite-subsystems/lib\libSatelliteSubsystemsD.a(IsisSolarPanelv2.o)
                                0x8dd (size before relaxing)
 .debug_str     0x00009163      0x424 C:/ISIS/workspace/HOOPOE3/satellite-subsystems/demo/..//satellite-subsystems/lib\libSatelliteSubsystemsD.a(IsisTRXVU.o)
                                0xa97 (size before relaxing)
 .debug_str     0x00009587      0xab2 C:/ISIS/workspace/HOOPOE3/satellite-subsystems/demo/..//satellite-subsystems/lib\libSatelliteSubsystemsD.a(cspaceADCS.o)
                               0x33a2 (size before relaxing)
 .debug_str     0x0000a039      0x1ee C:/ISIS/workspace/HOOPOE3/satellite-subsystems/demo/..//satellite-subsystems/lib\libSatelliteSubsystemsD.a(IsisTRXCommon.o)
                                0x436 (size before relaxing)
 .debug_str     0x0000a227     0x11cb C:/ISIS/workspace/HOOPOE3/satellite-subsystems/demo/../..//hal/hcc/lib\libHCCD.a(fat_common.o)
                               0x1610 (size before relaxing)
 .debug_str     0x0000b3f2      0x2f7 C:/ISIS/workspace/HOOPOE3/satellite-subsystems/demo/../..//hal/hcc/lib\libHCCD.a(fat_m.o)
                                0x7fd (size before relaxing)
 .debug_str     0x0000b6e9      0x540 C:/ISIS/workspace/HOOPOE3/satellite-subsystems/demo/../..//hal/hcc/lib\libHCCD.a(safefat.o)
                                0xdcf (size before relaxing)
 .debug_str     0x0000bc29      0x34d C:/ISIS/workspace/HOOPOE3/satellite-subsystems/demo/../..//hal/hcc/lib\libHCCD.a(atmel_mcipdc.o)
                                0x643 (size before relaxing)
 .debug_str     0x0000bf76       0x8d C:/ISIS/workspace/HOOPOE3/satellite-subsystems/demo/../..//hal/hcc/lib\libHCCD.a(oalp_mutex.o)
                                0x1df (size before relaxing)
 .debug_str     0x0000c003       0x27 C:/ISIS/workspace/HOOPOE3/satellite-subsystems/demo/../..//hal/hcc/lib\libHCCD.a(oalp_task.o)
                                0x154 (size before relaxing)
 .debug_str     0x0000c02a       0xc0 C:/ISIS/workspace/HOOPOE3/satellite-subsystems/demo/../..//hal/hcc/lib\libHCCD.a(atmel_mcipdc_hw.o)
                                0x3bb (size before relaxing)
 .debug_str     0x0000c0ea       0x32 C:/ISIS/workspace/HOOPOE3/satellite-subsystems/demo/../..//hal/hcc/lib\libHCCD.a(psp_rand.o)
                                0x175 (size before relaxing)
 .debug_str     0x0000c11c       0x34 C:/ISIS/workspace/HOOPOE3/satellite-subsystems/demo/../..//hal/hcc/lib\libHCCD.a(psp_rtc.o)
                                0x1b2 (size before relaxing)
 .debug_str     0x0000c150      0x2eb C:/ISIS/workspace/HOOPOE3/satellite-subsystems/demo/../..//hal/hcc/lib\libHCCD.a(hcc_mem.o)
                                0x4fa (size before relaxing)
 .debug_str     0x0000c43b      0x2e4 C:/ISIS/workspace/HOOPOE3/satellite-subsystems/demo/../..//hal/hcc/lib\libHCCD.a(fat.o)
                                0xd16 (size before relaxing)
 .debug_str     0x0000c71f       0x7a C:/ISIS/workspace/HOOPOE3/satellite-subsystems/demo/../..//hal/hcc/lib\libHCCD.a(psp_hcc_mem.o)
                                0x1d7 (size before relaxing)
 .debug_str     0x0000c799      0x1bd C:/ISIS/workspace/HOOPOE3/satellite-subsystems/demo/../..//hal/hal/lib\libHALD.a(checksum.o)
                                0x257 (size before relaxing)
 .debug_str     0x0000c956      0x78a C:/ISIS/workspace/HOOPOE3/satellite-subsystems/demo/../..//hal/hal/lib\libHALD.a(supervisor.o)
                                0xc93 (size before relaxing)
 .debug_str     0x0000d0e0      0x3cb C:/ISIS/workspace/HOOPOE3/satellite-subsystems/demo/../..//hal/hal/lib\libHALD.a(ADC.o)
                                0x6c3 (size before relaxing)
 .debug_str     0x0000d4ab      0x5a0 C:/ISIS/workspace/HOOPOE3/satellite-subsystems/demo/../..//hal/hal/lib\libHALD.a(I2C.o)
                                0xa1c (size before relaxing)
 .debug_str     0x0000da4b      0x366 C:/ISIS/workspace/HOOPOE3/satellite-subsystems/demo/../..//hal/hal/lib\libHALD.a(I2Cslave.o)
                                0x8b1 (size before relaxing)
 .debug_str     0x0000ddb1      0x119 C:/ISIS/workspace/HOOPOE3/satellite-subsystems/demo/../..//hal/hal/lib\libHALD.a(PWM.o)
                                0x4ac (size before relaxing)
 .debug_str     0x0000deca      0x369 C:/ISIS/workspace/HOOPOE3/satellite-subsystems/demo/../..//hal/hal/lib\libHALD.a(SPI.o)
                                0x8be (size before relaxing)
 .debug_str     0x0000e233      0x4fb C:/ISIS/workspace/HOOPOE3/satellite-subsystems/demo/../..//hal/hal/lib\libHALD.a(UART.o)
                                0xa15 (size before relaxing)
 .debug_str     0x0000e72e      0x182 C:/ISIS/workspace/HOOPOE3/satellite-subsystems/demo/../..//hal/hal/lib\libHALD.a(FRAM.o)
                                0x58b (size before relaxing)
 .debug_str     0x0000e8b0       0xf8 C:/ISIS/workspace/HOOPOE3/satellite-subsystems/demo/../..//hal/hal/lib\libHALD.a(RTC.o)
                                0x4eb (size before relaxing)
 .debug_str     0x0000e9a8       0x8b C:/ISIS/workspace/HOOPOE3/satellite-subsystems/demo/../..//hal/hal/lib\libHALD.a(RTT.o)
                                0x1b5 (size before relaxing)
 .debug_str     0x0000ea33      0x1a6 C:/ISIS/workspace/HOOPOE3/satellite-subsystems/demo/../..//hal/hal/lib\libHALD.a(Time.o)
                                0x398 (size before relaxing)
 .debug_str     0x0000ebd9       0x6b C:/ISIS/workspace/HOOPOE3/satellite-subsystems/demo/../..//hal/hal/lib\libHALD.a(WatchDogTimerNoOS.o)
                                0x2f3 (size before relaxing)
 .debug_str     0x0000ec44       0xef C:/ISIS/workspace/HOOPOE3/satellite-subsystems/demo/../..//hal/hal/lib\libHALD.a(WatchDogTimerOS.o)
                                0x22e (size before relaxing)
 .debug_str     0x0000ed33       0xc4 C:/ISIS/workspace/HOOPOE3/satellite-subsystems/demo/../..//hal/hal/lib\libHALD.a(util.o)
                                0x1e2 (size before relaxing)
 .debug_str     0x0000edf7       0x64 C:/ISIS/workspace/HOOPOE3/satellite-subsystems/demo/../..//hal/hal/lib\libHALD.a(LED.o)
                                0x31d (size before relaxing)
 .debug_str     0x0000ee5b      0x371 C:/ISIS/workspace/HOOPOE3/satellite-subsystems/demo/../..//hal/freertos/lib\libFreeRTOSD.a(croutine.o)
                                0x467 (size before relaxing)
 .debug_str     0x0000f1cc       0xa1 C:/ISIS/workspace/HOOPOE3/satellite-subsystems/demo/../..//hal/freertos/lib\libFreeRTOSD.a(list.o)
                                0x257 (size before relaxing)
 .debug_str     0x0000f26d      0x443 C:/ISIS/workspace/HOOPOE3/satellite-subsystems/demo/../..//hal/freertos/lib\libFreeRTOSD.a(queue.o)
                                0x643 (size before relaxing)
 .debug_str     0x0000f6b0      0x6c3 C:/ISIS/workspace/HOOPOE3/satellite-subsystems/demo/../..//hal/freertos/lib\libFreeRTOSD.a(tasks.o)
                                0x96e (size before relaxing)
 .debug_str     0x0000fd73       0x3a C:/ISIS/workspace/HOOPOE3/satellite-subsystems/demo/../..//hal/freertos/lib\libFreeRTOSD.a(hooks.o)
                                0x17e (size before relaxing)
 .debug_str     0x0000fdad       0x6f C:/ISIS/workspace/HOOPOE3/satellite-subsystems/demo/../..//hal/freertos/lib\libFreeRTOSD.a(standardMemMang.o)
                                0x18e (size before relaxing)
 .debug_str     0x0000fe1c      0x155 C:/ISIS/workspace/HOOPOE3/satellite-subsystems/demo/../..//hal/freertos/lib\libFreeRTOSD.a(port.o)
                                0x2f6 (size before relaxing)
 .debug_str     0x0000ff71      0x1b7 C:/ISIS/workspace/HOOPOE3/satellite-subsystems/demo/../..//hal/at91/lib\libAt91D.a(syscalls.o)
                                0x30e (size before relaxing)
 .debug_str     0x00010128      0x2ed C:/ISIS/workspace/HOOPOE3/satellite-subsystems/demo/../..//hal/at91/lib\libAt91D.a(board_lowlevel.o)
                                0x4c6 (size before relaxing)
 .debug_str     0x00010415      0x297 C:/ISIS/workspace/HOOPOE3/satellite-subsystems/demo/../..//hal/at91/lib\libAt91D.a(board_memories.o)
                                0x641 (size before relaxing)
 .debug_str     0x000106ac       0xf9 C:/ISIS/workspace/HOOPOE3/satellite-subsystems/demo/../..//hal/at91/lib\libAt91D.a(NorFlashAmd.o)
                                0x4aa (size before relaxing)
 .debug_str     0x000107a5      0x1fb C:/ISIS/workspace/HOOPOE3/satellite-subsystems/demo/../..//hal/at91/lib\libAt91D.a(NorFlashCFI.o)
                                0x5ec (size before relaxing)
 .debug_str     0x000109a0       0x6e C:/ISIS/workspace/HOOPOE3/satellite-subsystems/demo/../..//hal/at91/lib\libAt91D.a(NorFlashCommon.o)
                                0x1a2 (size before relaxing)
 .debug_str     0x00010a0e      0x23e C:/ISIS/workspace/HOOPOE3/satellite-subsystems/demo/../..//hal/at91/lib\libAt91D.a(sdmmc_mci.o)
                                0x4d3 (size before relaxing)
 .debug_str     0x00010c4c      0x1b5 C:/ISIS/workspace/HOOPOE3/satellite-subsystems/demo/../..//hal/at91/lib\libAt91D.a(adc_at91.o)
                                0x5f1 (size before relaxing)
 .debug_str     0x00010e01       0x4d C:/ISIS/workspace/HOOPOE3/satellite-subsystems/demo/../..//hal/at91/lib\libAt91D.a(aic.o)
                                0x1be (size before relaxing)
 .debug_str     0x00010e4e       0xcd C:/ISIS/workspace/HOOPOE3/satellite-subsystems/demo/../..//hal/at91/lib\libAt91D.a(cp15.o)
                                0x1e9 (size before relaxing)
 .debug_str     0x00010f1b      0x4b2 C:/ISIS/workspace/HOOPOE3/satellite-subsystems/demo/../..//hal/at91/lib\libAt91D.a(dbgu.o)
                                0x65a (size before relaxing)
 .debug_str     0x000113cd       0xce C:/ISIS/workspace/HOOPOE3/satellite-subsystems/demo/../..//hal/at91/lib\libAt91D.a(mci.o)
                                0x438 (size before relaxing)
 .debug_str     0x0001149b       0xde C:/ISIS/workspace/HOOPOE3/satellite-subsystems/demo/../..//hal/at91/lib\libAt91D.a(pio.o)
                                0x408 (size before relaxing)
 .debug_str     0x00011579       0xb4 C:/ISIS/workspace/HOOPOE3/satellite-subsystems/demo/../..//hal/at91/lib\libAt91D.a(pio_it.o)
                                0x405 (size before relaxing)
 .debug_str     0x0001162d       0x94 C:/ISIS/workspace/HOOPOE3/satellite-subsystems/demo/../..//hal/at91/lib\libAt91D.a(pit.o)
                                0x17c (size before relaxing)
 .debug_str     0x000116c1       0xcf C:/ISIS/workspace/HOOPOE3/satellite-subsystems/demo/../..//hal/at91/lib\libAt91D.a(pmc.o)
                                0x2ac (size before relaxing)
 .debug_str     0x00011790      0x13d C:/ISIS/workspace/HOOPOE3/satellite-subsystems/demo/../..//hal/at91/lib\libAt91D.a(rstc.o)
                                0x1fd (size before relaxing)
 .debug_str     0x000118cd       0xaa C:/ISIS/workspace/HOOPOE3/satellite-subsystems/demo/../..//hal/at91/lib\libAt91D.a(spi_at91.o)
                                0x2f4 (size before relaxing)
 .debug_str     0x00011977       0x5d C:/ISIS/workspace/HOOPOE3/satellite-subsystems/demo/../..//hal/at91/lib\libAt91D.a(tc.o)
                                0x175 (size before relaxing)
 .debug_str     0x000119d4      0x161 C:/ISIS/workspace/HOOPOE3/satellite-subsystems/demo/../..//hal/at91/lib\libAt91D.a(twi_at91.o)
                                0x3b0 (size before relaxing)
 .debug_str     0x00011b35       0x64 C:/ISIS/workspace/HOOPOE3/satellite-subsystems/demo/../..//hal/at91/lib\libAt91D.a(ExitHandler.o)
                                0x24e (size before relaxing)
 .debug_str     0x00011b99       0xde C:/ISIS/workspace/HOOPOE3/satellite-subsystems/demo/../..//hal/at91/lib\libAt91D.a(hamming.o)
                                0x219 (size before relaxing)
