Archive member included because of file (symbol)

c:/isis/application/toolchain/bin/../lib/gcc/arm-none-eabi/4.7.4/../../../../arm-none-eabi/lib\libc_s.a(lib_a-vfprintf_float.o)
                              (_printf_float)
c:/isis/application/toolchain/bin/../lib/gcc/arm-none-eabi/4.7.4/../../../../arm-none-eabi/lib\libc_s.a(lib_a-vfprintf_i.o)
                              c:/isis/application/toolchain/bin/../lib/gcc/arm-none-eabi/4.7.4/../../../../arm-none-eabi/lib\libc_s.a(lib_a-vfprintf_float.o) (_printf_common)
c:/isis/application/toolchain/bin/../lib/gcc/arm-none-eabi/4.7.4/../../../../arm-none-eabi/lib\libc_s.a(lib_a-vfscanf_float.o)
                              (_scanf_float)
c:/isis/application/toolchain/bin/../lib/gcc/arm-none-eabi/4.7.4/../../../../arm-none-eabi/lib\libc_s.a(lib_a-dtoa.o)
                              c:/isis/application/toolchain/bin/../lib/gcc/arm-none-eabi/4.7.4/../../../../arm-none-eabi/lib\libc_s.a(lib_a-vfprintf_float.o) (_dtoa_r)
c:/isis/application/toolchain/bin/../lib/gcc/arm-none-eabi/4.7.4/../../../../arm-none-eabi/lib\libc_s.a(lib_a-locale.o)
                              c:/isis/application/toolchain/bin/../lib/gcc/arm-none-eabi/4.7.4/../../../../arm-none-eabi/lib\libc_s.a(lib_a-vfprintf_float.o) (_localeconv_r)
c:/isis/application/toolchain/bin/../lib/gcc/arm-none-eabi/4.7.4/../../../../arm-none-eabi/lib\libc_s.a(lib_a-malloc.o)
                              c:/isis/application/toolchain/bin/../lib/gcc/arm-none-eabi/4.7.4/../../../../arm-none-eabi/lib\libc_s.a(lib_a-dtoa.o) (malloc)
c:/isis/application/toolchain/bin/../lib/gcc/arm-none-eabi/4.7.4/../../../../arm-none-eabi/lib\libc_s.a(lib_a-mallocr.o)
                              c:/isis/application/toolchain/bin/../lib/gcc/arm-none-eabi/4.7.4/../../../../arm-none-eabi/lib\libc_s.a(lib_a-malloc.o) (_malloc_r)
c:/isis/application/toolchain/bin/../lib/gcc/arm-none-eabi/4.7.4/../../../../arm-none-eabi/lib\libc_s.a(lib_a-memcpy.o)
                              c:/isis/application/toolchain/bin/../lib/gcc/arm-none-eabi/4.7.4/../../../../arm-none-eabi/lib\libc_s.a(lib_a-dtoa.o) (memcpy)
c:/isis/application/toolchain/bin/../lib/gcc/arm-none-eabi/4.7.4/../../../../arm-none-eabi/lib\libc_s.a(lib_a-mprec.o)
                              c:/isis/application/toolchain/bin/../lib/gcc/arm-none-eabi/4.7.4/../../../../arm-none-eabi/lib\libc_s.a(lib_a-dtoa.o) (_Balloc)
c:/isis/application/toolchain/bin/../lib/gcc/arm-none-eabi/4.7.4/../../../../arm-none-eabi/lib\libc_s.a(lib_a-s_fpclassify.o)
                              c:/isis/application/toolchain/bin/../lib/gcc/arm-none-eabi/4.7.4/../../../../arm-none-eabi/lib\libc_s.a(lib_a-vfprintf_float.o) (__fpclassifyd)
c:/isis/application/toolchain/bin/../lib/gcc/arm-none-eabi/4.7.4/../../../../arm-none-eabi/lib\libc_s.a(lib_a-sbrkr.o)
                              c:/isis/application/toolchain/bin/../lib/gcc/arm-none-eabi/4.7.4/../../../../arm-none-eabi/lib\libc_s.a(lib_a-mallocr.o) (_sbrk_r)
c:/isis/application/toolchain/bin/../lib/gcc/arm-none-eabi/4.7.4/../../../../arm-none-eabi/lib\libc_s.a(lib_a-sf_nan.o)
                              c:/isis/application/toolchain/bin/../lib/gcc/arm-none-eabi/4.7.4/../../../../arm-none-eabi/lib\libc_s.a(lib_a-vfscanf_float.o) (nanf)
c:/isis/application/toolchain/bin/../lib/gcc/arm-none-eabi/4.7.4/../../../../arm-none-eabi/lib\libc_s.a(lib_a-sprintf.o)
                              c:/isis/application/toolchain/bin/../lib/gcc/arm-none-eabi/4.7.4/../../../../arm-none-eabi/lib\libc_s.a(lib_a-vfscanf_float.o) (sprintf)
c:/isis/application/toolchain/bin/../lib/gcc/arm-none-eabi/4.7.4/../../../../arm-none-eabi/lib\libc_s.a(lib_a-strcmp.o)
                              c:/isis/application/toolchain/bin/../lib/gcc/arm-none-eabi/4.7.4/../../../../arm-none-eabi/lib\libc_s.a(lib_a-locale.o) (strcmp)
c:/isis/application/toolchain/bin/../lib/gcc/arm-none-eabi/4.7.4/../../../../arm-none-eabi/lib\libc_s.a(lib_a-strlen.o)
                              c:/isis/application/toolchain/bin/../lib/gcc/arm-none-eabi/4.7.4/../../../../arm-none-eabi/lib\libc_s.a(lib_a-vfprintf_float.o) (strlen)
c:/isis/application/toolchain/bin/../lib/gcc/arm-none-eabi/4.7.4/../../../../arm-none-eabi/lib\libc_s.a(lib_a-strtod.o)
                              c:/isis/application/toolchain/bin/../lib/gcc/arm-none-eabi/4.7.4/../../../../arm-none-eabi/lib\libc_s.a(lib_a-vfscanf_float.o) (_strtod_r)
c:/isis/application/toolchain/bin/../lib/gcc/arm-none-eabi/4.7.4/../../../../arm-none-eabi/lib\libc_s.a(lib_a-strtol.o)
                              c:/isis/application/toolchain/bin/../lib/gcc/arm-none-eabi/4.7.4/../../../../arm-none-eabi/lib\libc_s.a(lib_a-vfscanf_float.o) (_strtol_r)
c:/isis/application/toolchain/bin/../lib/gcc/arm-none-eabi/4.7.4/../../../../arm-none-eabi/lib\libc_s.a(lib_a-svfprintf.o)
                              c:/isis/application/toolchain/bin/../lib/gcc/arm-none-eabi/4.7.4/../../../../arm-none-eabi/lib\libc_s.a(lib_a-sprintf.o) (_svfprintf_r)
c:/isis/application/toolchain/bin/../lib/gcc/arm-none-eabi/4.7.4/../../../../arm-none-eabi/lib\libc_s.a(lib_a-callocr.o)
                              c:/isis/application/toolchain/bin/../lib/gcc/arm-none-eabi/4.7.4/../../../../arm-none-eabi/lib\libc_s.a(lib_a-mprec.o) (_calloc_r)
c:/isis/application/toolchain/bin/../lib/gcc/arm-none-eabi/4.7.4/../../../../arm-none-eabi/lib\libc_s.a(lib_a-ctype_.o)
                              c:/isis/application/toolchain/bin/../lib/gcc/arm-none-eabi/4.7.4/../../../../arm-none-eabi/lib\libc_s.a(lib_a-strtol.o) (__ctype_ptr__)
c:/isis/application/toolchain/bin/../lib/gcc/arm-none-eabi/4.7.4/../../../../arm-none-eabi/lib\libc_s.a(lib_a-freer.o)
                              c:/isis/application/toolchain/bin/../lib/gcc/arm-none-eabi/4.7.4/../../../../arm-none-eabi/lib\libc_s.a(lib_a-malloc.o) (_free_r)
c:/isis/application/toolchain/bin/../lib/gcc/arm-none-eabi/4.7.4/../../../../arm-none-eabi/lib\libc_s.a(lib_a-gdtoa-gethex.o)
                              c:/isis/application/toolchain/bin/../lib/gcc/arm-none-eabi/4.7.4/../../../../arm-none-eabi/lib\libc_s.a(lib_a-strtod.o) (__gethex)
c:/isis/application/toolchain/bin/../lib/gcc/arm-none-eabi/4.7.4/../../../../arm-none-eabi/lib\libc_s.a(lib_a-gdtoa-hexnan.o)
                              c:/isis/application/toolchain/bin/../lib/gcc/arm-none-eabi/4.7.4/../../../../arm-none-eabi/lib\libc_s.a(lib_a-strtod.o) (__hexnan)
c:/isis/application/toolchain/bin/../lib/gcc/arm-none-eabi/4.7.4/../../../../arm-none-eabi/lib\libc_s.a(lib_a-impure.o)
                              c:/isis/application/toolchain/bin/../lib/gcc/arm-none-eabi/4.7.4/../../../../arm-none-eabi/lib\libc_s.a(lib_a-locale.o) (_impure_ptr)
c:/isis/application/toolchain/bin/../lib/gcc/arm-none-eabi/4.7.4/../../../../arm-none-eabi/lib\libc_s.a(lib_a-memchr.o)
                              c:/isis/application/toolchain/bin/../lib/gcc/arm-none-eabi/4.7.4/../../../../arm-none-eabi/lib\libc_s.a(lib_a-svfprintf.o) (memchr)
c:/isis/application/toolchain/bin/../lib/gcc/arm-none-eabi/4.7.4/../../../../arm-none-eabi/lib\libc_s.a(lib_a-memmove.o)
                              c:/isis/application/toolchain/bin/../lib/gcc/arm-none-eabi/4.7.4/../../../../arm-none-eabi/lib\libc_s.a(lib_a-svfprintf.o) (memmove)
c:/isis/application/toolchain/bin/../lib/gcc/arm-none-eabi/4.7.4/../../../../arm-none-eabi/lib\libc_s.a(lib_a-memset.o)
                              c:/isis/application/toolchain/bin/../lib/gcc/arm-none-eabi/4.7.4/../../../../arm-none-eabi/lib\libc_s.a(lib_a-callocr.o) (memset)
c:/isis/application/toolchain/bin/../lib/gcc/arm-none-eabi/4.7.4/../../../../arm-none-eabi/lib\libc_s.a(lib_a-reallocr.o)
                              c:/isis/application/toolchain/bin/../lib/gcc/arm-none-eabi/4.7.4/../../../../arm-none-eabi/lib\libc_s.a(lib_a-svfprintf.o) (_realloc_r)
c:/isis/application/toolchain/bin/../lib/gcc/arm-none-eabi/4.7.4/../../../../arm-none-eabi/lib\libc_s.a(lib_a-reent.o)
                              c:/isis/application/toolchain/bin/../lib/gcc/arm-none-eabi/4.7.4/../../../../arm-none-eabi/lib\libc_s.a(lib_a-sbrkr.o) (errno)
c:/isis/application/toolchain/bin/../lib/gcc/arm-none-eabi/4.7.4/../../../../arm-none-eabi/lib\libc_s.a(lib_a-strncmp.o)
                              c:/isis/application/toolchain/bin/../lib/gcc/arm-none-eabi/4.7.4/../../../../arm-none-eabi/lib\libc_s.a(lib_a-strtod.o) (strncmp)
c:/isis/application/toolchain/bin/../lib/gcc/arm-none-eabi/4.7.4/../../../../arm-none-eabi/lib\libc_s.a(lib_a-msizer.o)
                              c:/isis/application/toolchain/bin/../lib/gcc/arm-none-eabi/4.7.4/../../../../arm-none-eabi/lib\libc_s.a(lib_a-reallocr.o) (_malloc_usable_size_r)
C:/Users/user1/Documents/hoopoe-2/hal/demo/..//hcc/lib\libHCCD.a(fat_common.o)
                              ./src/Tests/SDCardTest.o (fn_init)
C:/Users/user1/Documents/hoopoe-2/hal/demo/..//hcc/lib\libHCCD.a(fat_m.o)
                              ./src/Demo/demo_sd.o (fm_initvolume)
C:/Users/user1/Documents/hoopoe-2/hal/demo/..//hcc/lib\libHCCD.a(safefat.o)
                              C:/Users/user1/Documents/hoopoe-2/hal/demo/..//hcc/lib\libHCCD.a(fat_common.o) (safe_fix_filelengths)
C:/Users/user1/Documents/hoopoe-2/hal/demo/..//hcc/lib\libHCCD.a(fat_test.o)
                              ./src/Tests/SDCardTest.o (f_dotest)
C:/Users/user1/Documents/hoopoe-2/hal/demo/..//hcc/lib\libHCCD.a(atmel_mcipdc.o)
                              ./src/Demo/demo_sd.o (atmel_mcipdc_initfunc)
C:/Users/user1/Documents/hoopoe-2/hal/demo/..//hcc/lib\libHCCD.a(oalp_mutex.o)
                              C:/Users/user1/Documents/hoopoe-2/hal/demo/..//hcc/lib\libHCCD.a(fat_common.o) (oal_mutex_create)
C:/Users/user1/Documents/hoopoe-2/hal/demo/..//hcc/lib\libHCCD.a(oalp_task.o)
                              C:/Users/user1/Documents/hoopoe-2/hal/demo/..//hcc/lib\libHCCD.a(fat_common.o) (oal_task_get_id)
C:/Users/user1/Documents/hoopoe-2/hal/demo/..//hcc/lib\libHCCD.a(atmel_mcipdc_hw.o)
                              C:/Users/user1/Documents/hoopoe-2/hal/demo/..//hcc/lib\libHCCD.a(atmel_mcipdc.o) (mcipdc_hw_init)
C:/Users/user1/Documents/hoopoe-2/hal/demo/..//hcc/lib\libHCCD.a(fat_testport.o)
                              C:/Users/user1/Documents/hoopoe-2/hal/demo/..//hcc/lib\libHCCD.a(fat_test.o) (_f_poweron)
C:/Users/user1/Documents/hoopoe-2/hal/demo/..//hcc/lib\libHCCD.a(psp_rand.o)
                              C:/Users/user1/Documents/hoopoe-2/hal/demo/..//hcc/lib\libHCCD.a(fat_common.o) (psp_getrand)
C:/Users/user1/Documents/hoopoe-2/hal/demo/..//hcc/lib\libHCCD.a(psp_rtc.o)
                              C:/Users/user1/Documents/hoopoe-2/hal/demo/..//hcc/lib\libHCCD.a(fat_common.o) (psp_getcurrenttimedate)
C:/Users/user1/Documents/hoopoe-2/hal/demo/..//hcc/lib\libHCCD.a(hcc_mem.o)
                              C:/Users/user1/Documents/hoopoe-2/hal/demo/..//hcc/lib\libHCCD.a(atmel_mcipdc.o) (hcc_mem_alloc)
C:/Users/user1/Documents/hoopoe-2/hal/demo/..//hcc/lib\libHCCD.a(fat.o)
                              C:/Users/user1/Documents/hoopoe-2/hal/demo/..//hcc/lib\libHCCD.a(fat_common.o) (_f_getdirsector)
C:/Users/user1/Documents/hoopoe-2/hal/demo/..//hcc/lib\libHCCD.a(psp_hcc_mem.o)
                              C:/Users/user1/Documents/hoopoe-2/hal/demo/..//hcc/lib\libHCCD.a(hcc_mem.o) (hcc_mem_buf_alloc)
C:/Users/user1/Documents/hoopoe-2/hal/demo/..//hal/lib\libHALD.a(checksum.o)
                              ./src/Tests/checksumTest.o (checksum_prepareLUTCRC32)
C:/Users/user1/Documents/hoopoe-2/hal/demo/..//hal/lib\libHALD.a(supervisor.o)
                              ./src/Tests/SupervisorTest.o (Supervisor_start)
C:/Users/user1/Documents/hoopoe-2/hal/demo/..//hal/lib\libHALD.a(ADC.o)
                              ./src/Tests/ADCtest.o (ADC_ConvertRaw10bitToMillivolt)
C:/Users/user1/Documents/hoopoe-2/hal/demo/..//hal/lib\libHALD.a(I2C.o)
                              ./src/Tests/I2Ctest.o (I2C_queueTransfer)
C:/Users/user1/Documents/hoopoe-2/hal/demo/..//hal/lib\libHALD.a(I2Cslave.o)
                              ./src/Tests/I2CslaveTest.o (I2Cslave_write)
C:/Users/user1/Documents/hoopoe-2/hal/demo/..//hal/lib\libHALD.a(LED.o)
                              ./src/Tests/boardTest.o (LED_start)
C:/Users/user1/Documents/hoopoe-2/hal/demo/..//hal/lib\libHALD.a(PWM.o)
                              ./src/Tests/PWMtest.o (PWM_start)
C:/Users/user1/Documents/hoopoe-2/hal/demo/..//hal/lib\libHALD.a(SPI.o)
                              ./src/Tests/SPI_FRAM_RTCtest.o (SPI_start)
C:/Users/user1/Documents/hoopoe-2/hal/demo/..//hal/lib\libHALD.a(UART.o)
                              ./src/Tests/ThermalTest.o (UART_start)
C:/Users/user1/Documents/hoopoe-2/hal/demo/..//hal/lib\libHALD.a(FRAM.o)
                              ./src/Tests/SPI_FRAM_RTCtest.o (FRAM_start)
C:/Users/user1/Documents/hoopoe-2/hal/demo/..//hal/lib\libHALD.a(NORflash.o)
                              ./src/Tests/ThermalTest.o (NORflash_start)
C:/Users/user1/Documents/hoopoe-2/hal/demo/..//hal/lib\libHALD.a(RTC.o)
                              ./src/Tests/SPI_FRAM_RTCtest.o (RTC_testGetSet)
C:/Users/user1/Documents/hoopoe-2/hal/demo/..//hal/lib\libHALD.a(Time.o)
                              ./src/Tests/TimeTest.o (Time_start)
C:/Users/user1/Documents/hoopoe-2/hal/demo/..//hal/lib\libHALD.a(WatchDogTimerNoOS.o)
                              ./src/main.o (WDT_start)
C:/Users/user1/Documents/hoopoe-2/hal/demo/..//hal/lib\libHALD.a(WatchDogTimerOS.o)
                              ./src/main.o (WDT_startWatchdogKickTask)
C:/Users/user1/Documents/hoopoe-2/hal/demo/..//hal/lib\libHALD.a(fprintf.o)
                              ./src/Demo/demo_sd.o (f_printf)
C:/Users/user1/Documents/hoopoe-2/hal/demo/..//hal/lib\libHALD.a(util.o)
                              ./src/Tests/I2CslaveTest.o (UTIL_DbguDumpArrayBytes)
C:/Users/user1/Documents/hoopoe-2/hal/demo/..//hal/lib\libHALD.a(version.o)
                              ./src/main.o (HalCompileDate)
C:/Users/user1/Documents/hoopoe-2/hal/demo/..//hal/lib\libHALD.a(RTT.o)
                              C:/Users/user1/Documents/hoopoe-2/hal/demo/..//hal/lib\libHALD.a(Time.o) (RTT_start)
C:/Users/user1/Documents/hoopoe-2/hal/demo/..//freertos/lib\libFreeRTOSD.a(queue.o)
                              ./src/Tests/ADCtest.o (xQueueGenericCreate)
C:/Users/user1/Documents/hoopoe-2/hal/demo/..//freertos/lib\libFreeRTOSD.a(tasks.o)
                              ./src/Tests/ADCtest.o (xTaskGenericCreate)
C:/Users/user1/Documents/hoopoe-2/hal/demo/..//freertos/lib\libFreeRTOSD.a(standardMemMang.o)
                              C:/Users/user1/Documents/hoopoe-2/hal/demo/..//freertos/lib\libFreeRTOSD.a(queue.o) (pvPortMalloc)
C:/Users/user1/Documents/hoopoe-2/hal/demo/..//freertos/lib\libFreeRTOSD.a(port.o)
                              C:/Users/user1/Documents/hoopoe-2/hal/demo/..//freertos/lib\libFreeRTOSD.a(tasks.o) (pxPortInitialiseStack)
C:/Users/user1/Documents/hoopoe-2/hal/demo/..//freertos/lib\libFreeRTOSD.a(list.o)
                              C:/Users/user1/Documents/hoopoe-2/hal/demo/..//freertos/lib\libFreeRTOSD.a(queue.o) (vListInitialise)
C:/Users/user1/Documents/hoopoe-2/hal/demo/..//at91/lib\libAt91D.a(syscalls.o)
                              c:/isis/application/toolchain/bin/../lib/gcc/arm-none-eabi/4.7.4/../../../../arm-none-eabi/lib\libc_s.a(lib_a-sbrkr.o) (_sbrk)
C:/Users/user1/Documents/hoopoe-2/hal/demo/..//at91/lib\libAt91D.a(board_memories.o)
                              C:/Users/user1/Documents/hoopoe-2/hal/demo/..//hal/lib\libHALD.a(NORflash.o) (BOARD_ConfigureNorFlash)
C:/Users/user1/Documents/hoopoe-2/hal/demo/..//at91/lib\libAt91D.a(NorFlashApi.o)
                              C:/Users/user1/Documents/hoopoe-2/hal/demo/..//hal/lib\libHALD.a(NORflash.o) (NORFLASH_EraseSector)
C:/Users/user1/Documents/hoopoe-2/hal/demo/..//at91/lib\libAt91D.a(NorFlashCFI.o)
                              C:/Users/user1/Documents/hoopoe-2/hal/demo/..//at91/lib\libAt91D.a(NorFlashApi.o) (NorFlash_GetAddressInChip)
C:/Users/user1/Documents/hoopoe-2/hal/demo/..//at91/lib\libAt91D.a(NorFlashCommon.o)
                              C:/Users/user1/Documents/hoopoe-2/hal/demo/..//at91/lib\libAt91D.a(NorFlashCFI.o) (WriteCommand)
C:/Users/user1/Documents/hoopoe-2/hal/demo/..//at91/lib\libAt91D.a(NorFlashIntel.o)
                              C:/Users/user1/Documents/hoopoe-2/hal/demo/..//at91/lib\libAt91D.a(NorFlashCFI.o) (intelOperations)
C:/Users/user1/Documents/hoopoe-2/hal/demo/..//at91/lib\libAt91D.a(adc_at91.o)
                              C:/Users/user1/Documents/hoopoe-2/hal/demo/..//hal/lib\libHALD.a(ADC.o) (ADC_Initialize)
C:/Users/user1/Documents/hoopoe-2/hal/demo/..//at91/lib\libAt91D.a(aic.o)
                              C:/Users/user1/Documents/hoopoe-2/hal/demo/..//hal/lib\libHALD.a(ADC.o) (AIC_ConfigureIT)
C:/Users/user1/Documents/hoopoe-2/hal/demo/..//at91/lib\libAt91D.a(cp15.o)
                              ./src/main.o (CP15_Enable_I_Cache)
C:/Users/user1/Documents/hoopoe-2/hal/demo/..//at91/lib\libAt91D.a(dbgu.o)
                              ./src/main.o (DBGU_Configure)
C:/Users/user1/Documents/hoopoe-2/hal/demo/..//at91/lib\libAt91D.a(pio.o)
                              ./src/Tests/PinTest.o (PIO_Configure)
C:/Users/user1/Documents/hoopoe-2/hal/demo/..//at91/lib\libAt91D.a(pio_it.o)
                              ./src/Tests/USBdeviceTest.o (PIO_InitializeInterrupts)
C:/Users/user1/Documents/hoopoe-2/hal/demo/..//at91/lib\libAt91D.a(pit.o)
                              C:/Users/user1/Documents/hoopoe-2/hal/demo/..//freertos/lib\libFreeRTOSD.a(port.o) (PIT_Init)
C:/Users/user1/Documents/hoopoe-2/hal/demo/..//at91/lib\libAt91D.a(pmc.o)
                              C:/Users/user1/Documents/hoopoe-2/hal/demo/..//hcc/lib\libHCCD.a(atmel_mcipdc_hw.o) (PMC_EnablePeripheral)
C:/Users/user1/Documents/hoopoe-2/hal/demo/..//at91/lib\libAt91D.a(spi_at91.o)
                              C:/Users/user1/Documents/hoopoe-2/hal/demo/..//hal/lib\libHALD.a(SPI.o) (SPI_Enable)
C:/Users/user1/Documents/hoopoe-2/hal/demo/..//at91/lib\libAt91D.a(tc.o)
                              C:/Users/user1/Documents/hoopoe-2/hal/demo/..//hal/lib\libHALD.a(ADC.o) (TC_Configure)
C:/Users/user1/Documents/hoopoe-2/hal/demo/..//at91/lib\libAt91D.a(twi_at91.o)
                              C:/Users/user1/Documents/hoopoe-2/hal/demo/..//hal/lib\libHALD.a(I2C.o) (TWI_ConfigureMaster)
C:/Users/user1/Documents/hoopoe-2/hal/demo/..//at91/lib\libAt91D.a(USBD_UDP.o)
                              ./src/Tests/USBdeviceTest.o (USBD_Connect)
C:/Users/user1/Documents/hoopoe-2/hal/demo/..//at91/lib\libAt91D.a(HIDDMouseDriver.o)
                              C:/Users/user1/Documents/hoopoe-2/hal/demo/..//at91/lib\libAt91D.a(USBD_UDP.o) (USBDCallbacks_RequestReceived)
C:/Users/user1/Documents/hoopoe-2/hal/demo/..//at91/lib\libAt91D.a(HIDDMouseDriverDescriptors.o)
                              C:/Users/user1/Documents/hoopoe-2/hal/demo/..//at91/lib\libAt91D.a(HIDDMouseDriver.o) (hiddMouseDriverDescriptors)
C:/Users/user1/Documents/hoopoe-2/hal/demo/..//at91/lib\libAt91D.a(HIDDMouseInputReport.o)
                              C:/Users/user1/Documents/hoopoe-2/hal/demo/..//at91/lib\libAt91D.a(HIDDMouseDriver.o) (HIDDMouseInputReport_Initialize)
C:/Users/user1/Documents/hoopoe-2/hal/demo/..//at91/lib\libAt91D.a(ExitHandler.o)
                              ./src/freertos_hooks.o (restart)
C:/Users/user1/Documents/hoopoe-2/hal/demo/..//at91/lib\libAt91D.a(rand.o)
                              C:/Users/user1/Documents/hoopoe-2/hal/demo/..//hcc/lib\libHCCD.a(fat_test.o) (rand)
C:/Users/user1/Documents/hoopoe-2/hal/demo/..//at91/lib\libAt91D.a(board_cstartup.o)
                              (entry)
C:/Users/user1/Documents/hoopoe-2/hal/demo/..//at91/lib\libAt91D.a(cp15_asm.o)
                              C:/Users/user1/Documents/hoopoe-2/hal/demo/..//at91/lib\libAt91D.a(cp15.o) (_readControlRegister)
C:/Users/user1/Documents/hoopoe-2/hal/demo/..//at91/lib\libAt91D.a(board_lowlevel.o)
                              C:/Users/user1/Documents/hoopoe-2/hal/demo/..//at91/lib\libAt91D.a(board_cstartup.o) (LowLevelInit)
C:/Users/user1/Documents/hoopoe-2/hal/demo/..//at91/lib\libAt91D.a(NorFlashAmd.o)
                              C:/Users/user1/Documents/hoopoe-2/hal/demo/..//at91/lib\libAt91D.a(NorFlashCFI.o) (amdOperations)
C:/Users/user1/Documents/hoopoe-2/hal/demo/..//at91/lib\libAt91D.a(USBConfigurationDescriptor.o)
                              C:/Users/user1/Documents/hoopoe-2/hal/demo/..//at91/lib\libAt91D.a(HIDDMouseDriver.o) (USBConfigurationDescriptor_Parse)
C:/Users/user1/Documents/hoopoe-2/hal/demo/..//at91/lib\libAt91D.a(USBEndpointDescriptor.o)
                              C:/Users/user1/Documents/hoopoe-2/hal/demo/..//at91/lib\libAt91D.a(USBD_UDP.o) (USBEndpointDescriptor_GetNumber)
C:/Users/user1/Documents/hoopoe-2/hal/demo/..//at91/lib\libAt91D.a(USBGenericDescriptor.o)
                              C:/Users/user1/Documents/hoopoe-2/hal/demo/..//at91/lib\libAt91D.a(USBConfigurationDescriptor.o) (USBGenericDescriptor_GetLength)
C:/Users/user1/Documents/hoopoe-2/hal/demo/..//at91/lib\libAt91D.a(USBGenericRequest.o)
                              C:/Users/user1/Documents/hoopoe-2/hal/demo/..//at91/lib\libAt91D.a(HIDDMouseDriver.o) (USBGenericRequest_GetType)
C:/Users/user1/Documents/hoopoe-2/hal/demo/..//at91/lib\libAt91D.a(USBGetDescriptorRequest.o)
                              C:/Users/user1/Documents/hoopoe-2/hal/demo/..//at91/lib\libAt91D.a(HIDDMouseDriver.o) (USBGetDescriptorRequest_GetDescriptorType)
C:/Users/user1/Documents/hoopoe-2/hal/demo/..//at91/lib\libAt91D.a(HIDIdleRequest.o)
                              C:/Users/user1/Documents/hoopoe-2/hal/demo/..//at91/lib\libAt91D.a(HIDDMouseDriver.o) (HIDIdleRequest_GetIdleRate)
C:/Users/user1/Documents/hoopoe-2/hal/demo/..//at91/lib\libAt91D.a(HIDReportRequest.o)
                              C:/Users/user1/Documents/hoopoe-2/hal/demo/..//at91/lib\libAt91D.a(HIDDMouseDriver.o) (HIDReportRequest_GetReportType)
C:/Users/user1/Documents/hoopoe-2/hal/demo/..//at91/lib\libAt91D.a(USBDCallbacks_Initialized.o)
                              C:/Users/user1/Documents/hoopoe-2/hal/demo/..//at91/lib\libAt91D.a(USBD_UDP.o) (USBDCallbacks_Initialized)
C:/Users/user1/Documents/hoopoe-2/hal/demo/..//at91/lib\libAt91D.a(USBDCallbacks_Reset.o)
                              C:/Users/user1/Documents/hoopoe-2/hal/demo/..//at91/lib\libAt91D.a(USBD_UDP.o) (USBDCallbacks_Reset)
C:/Users/user1/Documents/hoopoe-2/hal/demo/..//at91/lib\libAt91D.a(USBDDriver.o)
                              C:/Users/user1/Documents/hoopoe-2/hal/demo/..//at91/lib\libAt91D.a(HIDDMouseDriver.o) (USBDDriver_Initialize)
C:/Users/user1/Documents/hoopoe-2/hal/demo/..//at91/lib\libAt91D.a(USBDDriverCb_IfSettingChanged.o)
                              C:/Users/user1/Documents/hoopoe-2/hal/demo/..//at91/lib\libAt91D.a(USBDDriver.o) (USBDDriverCallbacks_InterfaceSettingChanged)
C:/Users/user1/Documents/hoopoe-2/hal/demo/..//at91/lib\libAt91D.a(USBFeatureRequest.o)
                              C:/Users/user1/Documents/hoopoe-2/hal/demo/..//at91/lib\libAt91D.a(USBDDriver.o) (USBFeatureRequest_GetFeatureSelector)
C:/Users/user1/Documents/hoopoe-2/hal/demo/..//at91/lib\libAt91D.a(USBInterfaceRequest.o)
                              C:/Users/user1/Documents/hoopoe-2/hal/demo/..//at91/lib\libAt91D.a(USBDDriver.o) (USBInterfaceRequest_GetInterface)
C:/Users/user1/Documents/hoopoe-2/hal/demo/..//at91/lib\libAt91D.a(USBSetAddressRequest.o)
                              C:/Users/user1/Documents/hoopoe-2/hal/demo/..//at91/lib\libAt91D.a(USBDDriver.o) (USBSetAddressRequest_GetAddress)
C:/Users/user1/Documents/hoopoe-2/hal/demo/..//at91/lib\libAt91D.a(USBSetConfigurationRequest.o)
                              C:/Users/user1/Documents/hoopoe-2/hal/demo/..//at91/lib\libAt91D.a(USBDDriver.o) (USBSetConfigurationRequest_GetConfiguration)
c:/isis/application/toolchain/bin/../lib/gcc/arm-none-eabi/4.7.4\libgcc.a(_udivsi3.o)
                              c:/isis/application/toolchain/bin/../lib/gcc/arm-none-eabi/4.7.4/../../../../arm-none-eabi/lib\libc_s.a(lib_a-vfprintf_i.o) (__aeabi_uidiv)
c:/isis/application/toolchain/bin/../lib/gcc/arm-none-eabi/4.7.4\libgcc.a(_divsi3.o)
                              c:/isis/application/toolchain/bin/../lib/gcc/arm-none-eabi/4.7.4/../../../../arm-none-eabi/lib\libc_s.a(lib_a-vfprintf_float.o) (__aeabi_idiv)
c:/isis/application/toolchain/bin/../lib/gcc/arm-none-eabi/4.7.4\libgcc.a(_dvmd_tls.o)
                              c:/isis/application/toolchain/bin/../lib/gcc/arm-none-eabi/4.7.4\libgcc.a(_udivsi3.o) (__aeabi_idiv0)
c:/isis/application/toolchain/bin/../lib/gcc/arm-none-eabi/4.7.4\libgcc.a(_arm_addsubdf3.o)
                              c:/isis/application/toolchain/bin/../lib/gcc/arm-none-eabi/4.7.4/../../../../arm-none-eabi/lib\libc_s.a(lib_a-dtoa.o) (__aeabi_dsub)
c:/isis/application/toolchain/bin/../lib/gcc/arm-none-eabi/4.7.4\libgcc.a(_arm_muldivdf3.o)
                              c:/isis/application/toolchain/bin/../lib/gcc/arm-none-eabi/4.7.4/../../../../arm-none-eabi/lib\libc_s.a(lib_a-dtoa.o) (__aeabi_dmul)
c:/isis/application/toolchain/bin/../lib/gcc/arm-none-eabi/4.7.4\libgcc.a(_arm_cmpdf2.o)
                              c:/isis/application/toolchain/bin/../lib/gcc/arm-none-eabi/4.7.4/../../../../arm-none-eabi/lib\libc_s.a(lib_a-vfprintf_float.o) (__aeabi_dcmpeq)
c:/isis/application/toolchain/bin/../lib/gcc/arm-none-eabi/4.7.4\libgcc.a(_arm_fixdfsi.o)
                              c:/isis/application/toolchain/bin/../lib/gcc/arm-none-eabi/4.7.4/../../../../arm-none-eabi/lib\libc_s.a(lib_a-dtoa.o) (__aeabi_d2iz)
c:/isis/application/toolchain/bin/../lib/gcc/arm-none-eabi/4.7.4\libgcc.a(_arm_fixunsdfsi.o)
                              c:/isis/application/toolchain/bin/../lib/gcc/arm-none-eabi/4.7.4/../../../../arm-none-eabi/lib\libc_s.a(lib_a-strtod.o) (__aeabi_d2uiz)
c:/isis/application/toolchain/bin/../lib/gcc/arm-none-eabi/4.7.4\libgcc.a(_arm_truncdfsf2.o)
                              c:/isis/application/toolchain/bin/../lib/gcc/arm-none-eabi/4.7.4/../../../../arm-none-eabi/lib\libc_s.a(lib_a-vfscanf_float.o) (__aeabi_d2f)
c:/isis/application/toolchain/bin/../lib/gcc/arm-none-eabi/4.7.4\libgcc.a(_arm_addsubsf3.o)
                              ./src/Tests/SPI_FRAM_RTCtest.o (__aeabi_fsub)
c:/isis/application/toolchain/bin/../lib/gcc/arm-none-eabi/4.7.4\libgcc.a(_arm_muldivsf3.o)
                              ./src/Tests/FloatingPointTest.o (__aeabi_fmul)
c:/isis/application/toolchain/bin/../lib/gcc/arm-none-eabi/4.7.4\libgcc.a(_arm_cmpsf2.o)
                              ./src/Tests/SPI_FRAM_RTCtest.o (__aeabi_fcmplt)
c:/isis/application/toolchain/bin/../lib/gcc/arm-none-eabi/4.7.4\libgcc.a(_arm_fixsfsi.o)
                              ./src/Tests/SPI_FRAM_RTCtest.o (__aeabi_f2iz)
c:/isis/application/toolchain/bin/../lib/gcc/arm-none-eabi/4.7.4\libgcc.a(_arm_fixunssfsi.o)
                              ./src/Tests/SPI_FRAM_RTCtest.o (__aeabi_f2uiz)
c:/isis/application/toolchain/bin/../lib/gcc/arm-none-eabi/4.7.4/../../../../arm-none-eabi/lib\libc_s.a(lib_a-errno.o)
                              C:/Users/user1/Documents/hoopoe-2/hal/demo/..//at91/lib\libAt91D.a(syscalls.o) (__errno)
c:/isis/application/toolchain/bin/../lib/gcc/arm-none-eabi/4.7.4/../../../../arm-none-eabi/lib\libc_s.a(lib_a-memcmp.o)
                              C:/Users/user1/Documents/hoopoe-2/hal/demo/..//hal/lib\libHALD.a(FRAM.o) (memcmp)
c:/isis/application/toolchain/bin/../lib/gcc/arm-none-eabi/4.7.4/../../../../arm-none-eabi/lib\libc_s.a(lib_a-printf.o)
                              ./src/Tests/ADCtest.o (printf)
c:/isis/application/toolchain/bin/../lib/gcc/arm-none-eabi/4.7.4/../../../../arm-none-eabi/lib\libc_s.a(lib_a-puts.o)
                              ./src/Tests/ADCtest.o (puts)
c:/isis/application/toolchain/bin/../lib/gcc/arm-none-eabi/4.7.4/../../../../arm-none-eabi/lib\libc_s.a(lib_a-strnlen.o)
                              C:/Users/user1/Documents/hoopoe-2/hal/demo/..//hcc/lib\libHCCD.a(fat_test.o) (strnlen)
c:/isis/application/toolchain/bin/../lib/gcc/arm-none-eabi/4.7.4/../../../../arm-none-eabi/lib\libc_s.a(lib_a-vfprintf.o)
                              c:/isis/application/toolchain/bin/../lib/gcc/arm-none-eabi/4.7.4/../../../../arm-none-eabi/lib\libc_s.a(lib_a-printf.o) (_vfprintf_r)
c:/isis/application/toolchain/bin/../lib/gcc/arm-none-eabi/4.7.4/../../../../arm-none-eabi/lib\libc_s.a(lib_a-wbuf.o)
                              c:/isis/application/toolchain/bin/../lib/gcc/arm-none-eabi/4.7.4/../../../../arm-none-eabi/lib\libc_s.a(lib_a-vfprintf.o) (__swbuf_r)
c:/isis/application/toolchain/bin/../lib/gcc/arm-none-eabi/4.7.4/../../../../arm-none-eabi/lib\libc_s.a(lib_a-wsetup.o)
                              c:/isis/application/toolchain/bin/../lib/gcc/arm-none-eabi/4.7.4/../../../../arm-none-eabi/lib\libc_s.a(lib_a-vfprintf.o) (__swsetup_r)
c:/isis/application/toolchain/bin/../lib/gcc/arm-none-eabi/4.7.4/../../../../arm-none-eabi/lib\libc_s.a(lib_a-fflush.o)
                              c:/isis/application/toolchain/bin/../lib/gcc/arm-none-eabi/4.7.4/../../../../arm-none-eabi/lib\libc_s.a(lib_a-wbuf.o) (_fflush_r)
c:/isis/application/toolchain/bin/../lib/gcc/arm-none-eabi/4.7.4/../../../../arm-none-eabi/lib\libc_s.a(lib_a-findfp.o)
                              c:/isis/application/toolchain/bin/../lib/gcc/arm-none-eabi/4.7.4/../../../../arm-none-eabi/lib\libc_s.a(lib_a-printf.o) (__sinit)
c:/isis/application/toolchain/bin/../lib/gcc/arm-none-eabi/4.7.4/../../../../arm-none-eabi/lib\libc_s.a(lib_a-fputwc.o)
                              c:/isis/application/toolchain/bin/../lib/gcc/arm-none-eabi/4.7.4/../../../../arm-none-eabi/lib\libc_s.a(lib_a-vfprintf.o) (_fputwc_r)
c:/isis/application/toolchain/bin/../lib/gcc/arm-none-eabi/4.7.4/../../../../arm-none-eabi/lib\libc_s.a(lib_a-fvwrite.o)
                              c:/isis/application/toolchain/bin/../lib/gcc/arm-none-eabi/4.7.4/../../../../arm-none-eabi/lib\libc_s.a(lib_a-vfprintf.o) (__sfvwrite_r)
c:/isis/application/toolchain/bin/../lib/gcc/arm-none-eabi/4.7.4/../../../../arm-none-eabi/lib\libc_s.a(lib_a-fwalk.o)
                              c:/isis/application/toolchain/bin/../lib/gcc/arm-none-eabi/4.7.4/../../../../arm-none-eabi/lib\libc_s.a(lib_a-findfp.o) (_fwalk)
c:/isis/application/toolchain/bin/../lib/gcc/arm-none-eabi/4.7.4/../../../../arm-none-eabi/lib\libc_s.a(lib_a-makebuf.o)
                              c:/isis/application/toolchain/bin/../lib/gcc/arm-none-eabi/4.7.4/../../../../arm-none-eabi/lib\libc_s.a(lib_a-wsetup.o) (__smakebuf_r)
c:/isis/application/toolchain/bin/../lib/gcc/arm-none-eabi/4.7.4/../../../../arm-none-eabi/lib\libc_s.a(lib_a-putc.o)
                              c:/isis/application/toolchain/bin/../lib/gcc/arm-none-eabi/4.7.4/../../../../arm-none-eabi/lib\libc_s.a(lib_a-puts.o) (_putc_r)
c:/isis/application/toolchain/bin/../lib/gcc/arm-none-eabi/4.7.4/../../../../arm-none-eabi/lib\libc_s.a(lib_a-stdio.o)
                              c:/isis/application/toolchain/bin/../lib/gcc/arm-none-eabi/4.7.4/../../../../arm-none-eabi/lib\libc_s.a(lib_a-findfp.o) (__sread)
c:/isis/application/toolchain/bin/../lib/gcc/arm-none-eabi/4.7.4/../../../../arm-none-eabi/lib\libc_s.a(lib_a-wcrtomb.o)
                              c:/isis/application/toolchain/bin/../lib/gcc/arm-none-eabi/4.7.4/../../../../arm-none-eabi/lib\libc_s.a(lib_a-fputwc.o) (_wcrtomb_r)
c:/isis/application/toolchain/bin/../lib/gcc/arm-none-eabi/4.7.4/../../../../arm-none-eabi/lib\libc_s.a(lib_a-wctomb_r.o)
                              c:/isis/application/toolchain/bin/../lib/gcc/arm-none-eabi/4.7.4/../../../../arm-none-eabi/lib\libc_s.a(lib_a-wcrtomb.o) (__wctomb)
c:/isis/application/toolchain/bin/../lib/gcc/arm-none-eabi/4.7.4/../../../../arm-none-eabi/lib\libc_s.a(lib_a-writer.o)
                              c:/isis/application/toolchain/bin/../lib/gcc/arm-none-eabi/4.7.4/../../../../arm-none-eabi/lib\libc_s.a(lib_a-stdio.o) (_write_r)
c:/isis/application/toolchain/bin/../lib/gcc/arm-none-eabi/4.7.4/../../../../arm-none-eabi/lib\libc_s.a(lib_a-closer.o)
                              c:/isis/application/toolchain/bin/../lib/gcc/arm-none-eabi/4.7.4/../../../../arm-none-eabi/lib\libc_s.a(lib_a-stdio.o) (_close_r)
c:/isis/application/toolchain/bin/../lib/gcc/arm-none-eabi/4.7.4/../../../../arm-none-eabi/lib\libc_s.a(lib_a-fstatr.o)
                              c:/isis/application/toolchain/bin/../lib/gcc/arm-none-eabi/4.7.4/../../../../arm-none-eabi/lib\libc_s.a(lib_a-makebuf.o) (_fstat_r)
c:/isis/application/toolchain/bin/../lib/gcc/arm-none-eabi/4.7.4/../../../../arm-none-eabi/lib\libc_s.a(lib_a-isattyr.o)
                              c:/isis/application/toolchain/bin/../lib/gcc/arm-none-eabi/4.7.4/../../../../arm-none-eabi/lib\libc_s.a(lib_a-makebuf.o) (_isatty_r)
c:/isis/application/toolchain/bin/../lib/gcc/arm-none-eabi/4.7.4/../../../../arm-none-eabi/lib\libc_s.a(lib_a-lseekr.o)
                              c:/isis/application/toolchain/bin/../lib/gcc/arm-none-eabi/4.7.4/../../../../arm-none-eabi/lib\libc_s.a(lib_a-stdio.o) (_lseek_r)
c:/isis/application/toolchain/bin/../lib/gcc/arm-none-eabi/4.7.4/../../../../arm-none-eabi/lib\libc_s.a(lib_a-readr.o)
                              c:/isis/application/toolchain/bin/../lib/gcc/arm-none-eabi/4.7.4/../../../../arm-none-eabi/lib\libc_s.a(lib_a-stdio.o) (_read_r)

Allocating common symbols
Common symbol       size              file

g_fatmutex          0x4               C:/Users/user1/Documents/hoopoe-2/hal/demo/..//hcc/lib\libHCCD.a(fat_common.o)
pReadBuff           0x800             ./src/Demo/demo_sd.o
ADCcallback         0x4               C:/Users/user1/Documents/hoopoe-2/hal/demo/..//hal/lib\libHALD.a(ADC.o)
NORFlash            0x30              ./src/Tests/ThermalTest.o
errno               0x4               c:/isis/application/toolchain/bin/../lib/gcc/arm-none-eabi/4.7.4/../../../../arm-none-eabi/lib\libc_s.a(lib_a-reent.o)
g_multi             0x10a0            C:/Users/user1/Documents/hoopoe-2/hal/demo/..//hcc/lib\libHCCD.a(fat_common.o)
xQueueRegistry      0x100             C:/Users/user1/Documents/hoopoe-2/hal/demo/..//freertos/lib\libFreeRTOSD.a(queue.o)
__hexdig            0x100             c:/isis/application/toolchain/bin/../lib/gcc/arm-none-eabi/4.7.4/../../../../arm-none-eabi/lib\libc_s.a(lib_a-gdtoa-gethex.o)
f_format_progress   0x4               C:/Users/user1/Documents/hoopoe-2/hal/demo/..//hcc/lib\libHCCD.a(fat_common.o)
pWriteBuff          0x800             ./src/Demo/demo_sd.o

Discarded input sections

 .text          0x00000000        0x0 c:/isis/application/toolchain/bin/../lib/gcc/arm-none-eabi/4.7.4/../../../../arm-none-eabi/lib\libc_s.a(lib_a-vfprintf_float.o)
 .data          0x00000000        0x0 c:/isis/application/toolchain/bin/../lib/gcc/arm-none-eabi/4.7.4/../../../../arm-none-eabi/lib\libc_s.a(lib_a-vfprintf_float.o)
 .bss           0x00000000        0x0 c:/isis/application/toolchain/bin/../lib/gcc/arm-none-eabi/4.7.4/../../../../arm-none-eabi/lib\libc_s.a(lib_a-vfprintf_float.o)
 .text          0x00000000        0x0 c:/isis/application/toolchain/bin/../lib/gcc/arm-none-eabi/4.7.4/../../../../arm-none-eabi/lib\libc_s.a(lib_a-vfprintf_i.o)
 .data          0x00000000        0x0 c:/isis/application/toolchain/bin/../lib/gcc/arm-none-eabi/4.7.4/../../../../arm-none-eabi/lib\libc_s.a(lib_a-vfprintf_i.o)
 .bss           0x00000000        0x0 c:/isis/application/toolchain/bin/../lib/gcc/arm-none-eabi/4.7.4/../../../../arm-none-eabi/lib\libc_s.a(lib_a-vfprintf_i.o)
 .text          0x00000000        0x0 c:/isis/application/toolchain/bin/../lib/gcc/arm-none-eabi/4.7.4/../../../../arm-none-eabi/lib\libc_s.a(lib_a-vfscanf_float.o)
 .data          0x00000000        0x0 c:/isis/application/toolchain/bin/../lib/gcc/arm-none-eabi/4.7.4/../../../../arm-none-eabi/lib\libc_s.a(lib_a-vfscanf_float.o)
 .bss           0x00000000        0x0 c:/isis/application/toolchain/bin/../lib/gcc/arm-none-eabi/4.7.4/../../../../arm-none-eabi/lib\libc_s.a(lib_a-vfscanf_float.o)
 .text          0x00000000        0x0 c:/isis/application/toolchain/bin/../lib/gcc/arm-none-eabi/4.7.4/../../../../arm-none-eabi/lib\libc_s.a(lib_a-dtoa.o)
 .data          0x00000000        0x0 c:/isis/application/toolchain/bin/../lib/gcc/arm-none-eabi/4.7.4/../../../../arm-none-eabi/lib\libc_s.a(lib_a-dtoa.o)
 .bss           0x00000000        0x0 c:/isis/application/toolchain/bin/../lib/gcc/arm-none-eabi/4.7.4/../../../../arm-none-eabi/lib\libc_s.a(lib_a-dtoa.o)
 .text          0x00000000        0x0 c:/isis/application/toolchain/bin/../lib/gcc/arm-none-eabi/4.7.4/../../../../arm-none-eabi/lib\libc_s.a(lib_a-locale.o)
 .data          0x00000000        0x0 c:/isis/application/toolchain/bin/../lib/gcc/arm-none-eabi/4.7.4/../../../../arm-none-eabi/lib\libc_s.a(lib_a-locale.o)
 .bss           0x00000000        0x0 c:/isis/application/toolchain/bin/../lib/gcc/arm-none-eabi/4.7.4/../../../../arm-none-eabi/lib\libc_s.a(lib_a-locale.o)
 .text._setlocale_r
                0x00000000       0x6c c:/isis/application/toolchain/bin/../lib/gcc/arm-none-eabi/4.7.4/../../../../arm-none-eabi/lib\libc_s.a(lib_a-locale.o)
 .text.__locale_charset
                0x00000000        0xc c:/isis/application/toolchain/bin/../lib/gcc/arm-none-eabi/4.7.4/../../../../arm-none-eabi/lib\libc_s.a(lib_a-locale.o)
 .text.__locale_mb_cur_max
                0x00000000       0x10 c:/isis/application/toolchain/bin/../lib/gcc/arm-none-eabi/4.7.4/../../../../arm-none-eabi/lib\libc_s.a(lib_a-locale.o)
 .text.__locale_msgcharset
                0x00000000        0xc c:/isis/application/toolchain/bin/../lib/gcc/arm-none-eabi/4.7.4/../../../../arm-none-eabi/lib\libc_s.a(lib_a-locale.o)
 .text.__locale_cjk_lang
                0x00000000        0x8 c:/isis/application/toolchain/bin/../lib/gcc/arm-none-eabi/4.7.4/../../../../arm-none-eabi/lib\libc_s.a(lib_a-locale.o)
 .text.setlocale
                0x00000000       0x1c c:/isis/application/toolchain/bin/../lib/gcc/arm-none-eabi/4.7.4/../../../../arm-none-eabi/lib\libc_s.a(lib_a-locale.o)
 .text.localeconv
                0x00000000        0xc c:/isis/application/toolchain/bin/../lib/gcc/arm-none-eabi/4.7.4/../../../../arm-none-eabi/lib\libc_s.a(lib_a-locale.o)
 .data.lc_message_charset
                0x00000000       0x20 c:/isis/application/toolchain/bin/../lib/gcc/arm-none-eabi/4.7.4/../../../../arm-none-eabi/lib\libc_s.a(lib_a-locale.o)
 .bss._PathLocale
                0x00000000        0x4 c:/isis/application/toolchain/bin/../lib/gcc/arm-none-eabi/4.7.4/../../../../arm-none-eabi/lib\libc_s.a(lib_a-locale.o)
 .bss.__nlocale_changed
                0x00000000        0x4 c:/isis/application/toolchain/bin/../lib/gcc/arm-none-eabi/4.7.4/../../../../arm-none-eabi/lib\libc_s.a(lib_a-locale.o)
 .bss.__mlocale_changed
                0x00000000        0x4 c:/isis/application/toolchain/bin/../lib/gcc/arm-none-eabi/4.7.4/../../../../arm-none-eabi/lib\libc_s.a(lib_a-locale.o)
 .data.lc_ctype_charset
                0x00000000       0x20 c:/isis/application/toolchain/bin/../lib/gcc/arm-none-eabi/4.7.4/../../../../arm-none-eabi/lib\libc_s.a(lib_a-locale.o)
 .data.__mb_cur_max
                0x00000000        0x4 c:/isis/application/toolchain/bin/../lib/gcc/arm-none-eabi/4.7.4/../../../../arm-none-eabi/lib\libc_s.a(lib_a-locale.o)
 .text          0x00000000        0x0 c:/isis/application/toolchain/bin/../lib/gcc/arm-none-eabi/4.7.4/../../../../arm-none-eabi/lib\libc_s.a(lib_a-malloc.o)
 .data          0x00000000        0x0 c:/isis/application/toolchain/bin/../lib/gcc/arm-none-eabi/4.7.4/../../../../arm-none-eabi/lib\libc_s.a(lib_a-malloc.o)
 .bss           0x00000000        0x0 c:/isis/application/toolchain/bin/../lib/gcc/arm-none-eabi/4.7.4/../../../../arm-none-eabi/lib\libc_s.a(lib_a-malloc.o)
 .text          0x00000000        0x0 c:/isis/application/toolchain/bin/../lib/gcc/arm-none-eabi/4.7.4/../../../../arm-none-eabi/lib\libc_s.a(lib_a-mallocr.o)
 .data          0x00000000        0x0 c:/isis/application/toolchain/bin/../lib/gcc/arm-none-eabi/4.7.4/../../../../arm-none-eabi/lib\libc_s.a(lib_a-mallocr.o)
 .bss           0x00000000        0x0 c:/isis/application/toolchain/bin/../lib/gcc/arm-none-eabi/4.7.4/../../../../arm-none-eabi/lib\libc_s.a(lib_a-mallocr.o)
 .text          0x00000000        0x0 c:/isis/application/toolchain/bin/../lib/gcc/arm-none-eabi/4.7.4/../../../../arm-none-eabi/lib\libc_s.a(lib_a-memcpy.o)
 .data          0x00000000        0x0 c:/isis/application/toolchain/bin/../lib/gcc/arm-none-eabi/4.7.4/../../../../arm-none-eabi/lib\libc_s.a(lib_a-memcpy.o)
 .bss           0x00000000        0x0 c:/isis/application/toolchain/bin/../lib/gcc/arm-none-eabi/4.7.4/../../../../arm-none-eabi/lib\libc_s.a(lib_a-memcpy.o)
 .text          0x00000000        0x0 c:/isis/application/toolchain/bin/../lib/gcc/arm-none-eabi/4.7.4/../../../../arm-none-eabi/lib\libc_s.a(lib_a-mprec.o)
 .data          0x00000000        0x0 c:/isis/application/toolchain/bin/../lib/gcc/arm-none-eabi/4.7.4/../../../../arm-none-eabi/lib\libc_s.a(lib_a-mprec.o)
 .bss           0x00000000        0x0 c:/isis/application/toolchain/bin/../lib/gcc/arm-none-eabi/4.7.4/../../../../arm-none-eabi/lib\libc_s.a(lib_a-mprec.o)
 .text._mprec_log10
                0x00000000       0x4c c:/isis/application/toolchain/bin/../lib/gcc/arm-none-eabi/4.7.4/../../../../arm-none-eabi/lib\libc_s.a(lib_a-mprec.o)
 .rodata.__mprec_tinytens
                0x00000000       0x28 c:/isis/application/toolchain/bin/../lib/gcc/arm-none-eabi/4.7.4/../../../../arm-none-eabi/lib\libc_s.a(lib_a-mprec.o)
 .text          0x00000000        0x0 c:/isis/application/toolchain/bin/../lib/gcc/arm-none-eabi/4.7.4/../../../../arm-none-eabi/lib\libc_s.a(lib_a-s_fpclassify.o)
 .data          0x00000000        0x0 c:/isis/application/toolchain/bin/../lib/gcc/arm-none-eabi/4.7.4/../../../../arm-none-eabi/lib\libc_s.a(lib_a-s_fpclassify.o)
 .bss           0x00000000        0x0 c:/isis/application/toolchain/bin/../lib/gcc/arm-none-eabi/4.7.4/../../../../arm-none-eabi/lib\libc_s.a(lib_a-s_fpclassify.o)
 .text          0x00000000        0x0 c:/isis/application/toolchain/bin/../lib/gcc/arm-none-eabi/4.7.4/../../../../arm-none-eabi/lib\libc_s.a(lib_a-sbrkr.o)
 .data          0x00000000        0x0 c:/isis/application/toolchain/bin/../lib/gcc/arm-none-eabi/4.7.4/../../../../arm-none-eabi/lib\libc_s.a(lib_a-sbrkr.o)
 .bss           0x00000000        0x0 c:/isis/application/toolchain/bin/../lib/gcc/arm-none-eabi/4.7.4/../../../../arm-none-eabi/lib\libc_s.a(lib_a-sbrkr.o)
 .text          0x00000000        0x0 c:/isis/application/toolchain/bin/../lib/gcc/arm-none-eabi/4.7.4/../../../../arm-none-eabi/lib\libc_s.a(lib_a-sf_nan.o)
 .data          0x00000000        0x0 c:/isis/application/toolchain/bin/../lib/gcc/arm-none-eabi/4.7.4/../../../../arm-none-eabi/lib\libc_s.a(lib_a-sf_nan.o)
 .bss           0x00000000        0x0 c:/isis/application/toolchain/bin/../lib/gcc/arm-none-eabi/4.7.4/../../../../arm-none-eabi/lib\libc_s.a(lib_a-sf_nan.o)
 .text          0x00000000        0x0 c:/isis/application/toolchain/bin/../lib/gcc/arm-none-eabi/4.7.4/../../../../arm-none-eabi/lib\libc_s.a(lib_a-sprintf.o)
 .data          0x00000000        0x0 c:/isis/application/toolchain/bin/../lib/gcc/arm-none-eabi/4.7.4/../../../../arm-none-eabi/lib\libc_s.a(lib_a-sprintf.o)
 .bss           0x00000000        0x0 c:/isis/application/toolchain/bin/../lib/gcc/arm-none-eabi/4.7.4/../../../../arm-none-eabi/lib\libc_s.a(lib_a-sprintf.o)
 .text._sprintf_r
                0x00000000       0x60 c:/isis/application/toolchain/bin/../lib/gcc/arm-none-eabi/4.7.4/../../../../arm-none-eabi/lib\libc_s.a(lib_a-sprintf.o)
 .text          0x00000000        0x0 c:/isis/application/toolchain/bin/../lib/gcc/arm-none-eabi/4.7.4/../../../../arm-none-eabi/lib\libc_s.a(lib_a-strcmp.o)
 .data          0x00000000        0x0 c:/isis/application/toolchain/bin/../lib/gcc/arm-none-eabi/4.7.4/../../../../arm-none-eabi/lib\libc_s.a(lib_a-strcmp.o)
 .bss           0x00000000        0x0 c:/isis/application/toolchain/bin/../lib/gcc/arm-none-eabi/4.7.4/../../../../arm-none-eabi/lib\libc_s.a(lib_a-strcmp.o)
 .text.strcmp   0x00000000       0x1c c:/isis/application/toolchain/bin/../lib/gcc/arm-none-eabi/4.7.4/../../../../arm-none-eabi/lib\libc_s.a(lib_a-strcmp.o)
 .ARM.attributes
                0x00000000       0x30 c:/isis/application/toolchain/bin/../lib/gcc/arm-none-eabi/4.7.4/../../../../arm-none-eabi/lib\libc_s.a(lib_a-strcmp.o)
 .debug_frame   0x00000000       0x20 c:/isis/application/toolchain/bin/../lib/gcc/arm-none-eabi/4.7.4/../../../../arm-none-eabi/lib\libc_s.a(lib_a-strcmp.o)
 .text          0x00000000        0x0 c:/isis/application/toolchain/bin/../lib/gcc/arm-none-eabi/4.7.4/../../../../arm-none-eabi/lib\libc_s.a(lib_a-strlen.o)
 .data          0x00000000        0x0 c:/isis/application/toolchain/bin/../lib/gcc/arm-none-eabi/4.7.4/../../../../arm-none-eabi/lib\libc_s.a(lib_a-strlen.o)
 .bss           0x00000000        0x0 c:/isis/application/toolchain/bin/../lib/gcc/arm-none-eabi/4.7.4/../../../../arm-none-eabi/lib\libc_s.a(lib_a-strlen.o)
 .text          0x00000000        0x0 c:/isis/application/toolchain/bin/../lib/gcc/arm-none-eabi/4.7.4/../../../../arm-none-eabi/lib\libc_s.a(lib_a-strtod.o)
 .data          0x00000000        0x0 c:/isis/application/toolchain/bin/../lib/gcc/arm-none-eabi/4.7.4/../../../../arm-none-eabi/lib\libc_s.a(lib_a-strtod.o)
 .bss           0x00000000        0x0 c:/isis/application/toolchain/bin/../lib/gcc/arm-none-eabi/4.7.4/../../../../arm-none-eabi/lib\libc_s.a(lib_a-strtod.o)
 .text.strtod   0x00000000       0x1c c:/isis/application/toolchain/bin/../lib/gcc/arm-none-eabi/4.7.4/../../../../arm-none-eabi/lib\libc_s.a(lib_a-strtod.o)
 .text.strtof   0x00000000       0x50 c:/isis/application/toolchain/bin/../lib/gcc/arm-none-eabi/4.7.4/../../../../arm-none-eabi/lib\libc_s.a(lib_a-strtod.o)
 .text          0x00000000        0x0 c:/isis/application/toolchain/bin/../lib/gcc/arm-none-eabi/4.7.4/../../../../arm-none-eabi/lib\libc_s.a(lib_a-strtol.o)
 .data          0x00000000        0x0 c:/isis/application/toolchain/bin/../lib/gcc/arm-none-eabi/4.7.4/../../../../arm-none-eabi/lib\libc_s.a(lib_a-strtol.o)
 .bss           0x00000000        0x0 c:/isis/application/toolchain/bin/../lib/gcc/arm-none-eabi/4.7.4/../../../../arm-none-eabi/lib\libc_s.a(lib_a-strtol.o)
 .text.strtol   0x00000000       0x2c c:/isis/application/toolchain/bin/../lib/gcc/arm-none-eabi/4.7.4/../../../../arm-none-eabi/lib\libc_s.a(lib_a-strtol.o)
 .text          0x00000000        0x0 c:/isis/application/toolchain/bin/../lib/gcc/arm-none-eabi/4.7.4/../../../../arm-none-eabi/lib\libc_s.a(lib_a-svfprintf.o)
 .data          0x00000000        0x0 c:/isis/application/toolchain/bin/../lib/gcc/arm-none-eabi/4.7.4/../../../../arm-none-eabi/lib\libc_s.a(lib_a-svfprintf.o)
 .bss           0x00000000        0x0 c:/isis/application/toolchain/bin/../lib/gcc/arm-none-eabi/4.7.4/../../../../arm-none-eabi/lib\libc_s.a(lib_a-svfprintf.o)
 .text.__ssprint_r
                0x00000000      0x184 c:/isis/application/toolchain/bin/../lib/gcc/arm-none-eabi/4.7.4/../../../../arm-none-eabi/lib\libc_s.a(lib_a-svfprintf.o)
 .text          0x00000000        0x0 c:/isis/application/toolchain/bin/../lib/gcc/arm-none-eabi/4.7.4/../../../../arm-none-eabi/lib\libc_s.a(lib_a-callocr.o)
 .data          0x00000000        0x0 c:/isis/application/toolchain/bin/../lib/gcc/arm-none-eabi/4.7.4/../../../../arm-none-eabi/lib\libc_s.a(lib_a-callocr.o)
 .bss           0x00000000        0x0 c:/isis/application/toolchain/bin/../lib/gcc/arm-none-eabi/4.7.4/../../../../arm-none-eabi/lib\libc_s.a(lib_a-callocr.o)
 .text          0x00000000        0x0 c:/isis/application/toolchain/bin/../lib/gcc/arm-none-eabi/4.7.4/../../../../arm-none-eabi/lib\libc_s.a(lib_a-ctype_.o)
 .data          0x00000000        0x0 c:/isis/application/toolchain/bin/../lib/gcc/arm-none-eabi/4.7.4/../../../../arm-none-eabi/lib\libc_s.a(lib_a-ctype_.o)
 .bss           0x00000000        0x0 c:/isis/application/toolchain/bin/../lib/gcc/arm-none-eabi/4.7.4/../../../../arm-none-eabi/lib\libc_s.a(lib_a-ctype_.o)
 .text          0x00000000        0x0 c:/isis/application/toolchain/bin/../lib/gcc/arm-none-eabi/4.7.4/../../../../arm-none-eabi/lib\libc_s.a(lib_a-freer.o)
 .data          0x00000000        0x0 c:/isis/application/toolchain/bin/../lib/gcc/arm-none-eabi/4.7.4/../../../../arm-none-eabi/lib\libc_s.a(lib_a-freer.o)
 .bss           0x00000000        0x0 c:/isis/application/toolchain/bin/../lib/gcc/arm-none-eabi/4.7.4/../../../../arm-none-eabi/lib\libc_s.a(lib_a-freer.o)
 .text          0x00000000        0x0 c:/isis/application/toolchain/bin/../lib/gcc/arm-none-eabi/4.7.4/../../../../arm-none-eabi/lib\libc_s.a(lib_a-gdtoa-gethex.o)
 .data          0x00000000        0x0 c:/isis/application/toolchain/bin/../lib/gcc/arm-none-eabi/4.7.4/../../../../arm-none-eabi/lib\libc_s.a(lib_a-gdtoa-gethex.o)
 .bss           0x00000000        0x0 c:/isis/application/toolchain/bin/../lib/gcc/arm-none-eabi/4.7.4/../../../../arm-none-eabi/lib\libc_s.a(lib_a-gdtoa-gethex.o)
 .text          0x00000000        0x0 c:/isis/application/toolchain/bin/../lib/gcc/arm-none-eabi/4.7.4/../../../../arm-none-eabi/lib\libc_s.a(lib_a-gdtoa-hexnan.o)
 .data          0x00000000        0x0 c:/isis/application/toolchain/bin/../lib/gcc/arm-none-eabi/4.7.4/../../../../arm-none-eabi/lib\libc_s.a(lib_a-gdtoa-hexnan.o)
 .bss           0x00000000        0x0 c:/isis/application/toolchain/bin/../lib/gcc/arm-none-eabi/4.7.4/../../../../arm-none-eabi/lib\libc_s.a(lib_a-gdtoa-hexnan.o)
 .text          0x00000000        0x0 c:/isis/application/toolchain/bin/../lib/gcc/arm-none-eabi/4.7.4/../../../../arm-none-eabi/lib\libc_s.a(lib_a-impure.o)
 .data          0x00000000        0x0 c:/isis/application/toolchain/bin/../lib/gcc/arm-none-eabi/4.7.4/../../../../arm-none-eabi/lib\libc_s.a(lib_a-impure.o)
 .bss           0x00000000        0x0 c:/isis/application/toolchain/bin/../lib/gcc/arm-none-eabi/4.7.4/../../../../arm-none-eabi/lib\libc_s.a(lib_a-impure.o)
 .text          0x00000000        0x0 c:/isis/application/toolchain/bin/../lib/gcc/arm-none-eabi/4.7.4/../../../../arm-none-eabi/lib\libc_s.a(lib_a-memchr.o)
 .data          0x00000000        0x0 c:/isis/application/toolchain/bin/../lib/gcc/arm-none-eabi/4.7.4/../../../../arm-none-eabi/lib\libc_s.a(lib_a-memchr.o)
 .bss           0x00000000        0x0 c:/isis/application/toolchain/bin/../lib/gcc/arm-none-eabi/4.7.4/../../../../arm-none-eabi/lib\libc_s.a(lib_a-memchr.o)
 .text          0x00000000        0x0 c:/isis/application/toolchain/bin/../lib/gcc/arm-none-eabi/4.7.4/../../../../arm-none-eabi/lib\libc_s.a(lib_a-memmove.o)
 .data          0x00000000        0x0 c:/isis/application/toolchain/bin/../lib/gcc/arm-none-eabi/4.7.4/../../../../arm-none-eabi/lib\libc_s.a(lib_a-memmove.o)
 .bss           0x00000000        0x0 c:/isis/application/toolchain/bin/../lib/gcc/arm-none-eabi/4.7.4/../../../../arm-none-eabi/lib\libc_s.a(lib_a-memmove.o)
 .text.memmove  0x00000000       0x64 c:/isis/application/toolchain/bin/../lib/gcc/arm-none-eabi/4.7.4/../../../../arm-none-eabi/lib\libc_s.a(lib_a-memmove.o)
 .ARM.attributes
                0x00000000       0x30 c:/isis/application/toolchain/bin/../lib/gcc/arm-none-eabi/4.7.4/../../../../arm-none-eabi/lib\libc_s.a(lib_a-memmove.o)
 .debug_frame   0x00000000       0x28 c:/isis/application/toolchain/bin/../lib/gcc/arm-none-eabi/4.7.4/../../../../arm-none-eabi/lib\libc_s.a(lib_a-memmove.o)
 .text          0x00000000        0x0 c:/isis/application/toolchain/bin/../lib/gcc/arm-none-eabi/4.7.4/../../../../arm-none-eabi/lib\libc_s.a(lib_a-memset.o)
 .data          0x00000000        0x0 c:/isis/application/toolchain/bin/../lib/gcc/arm-none-eabi/4.7.4/../../../../arm-none-eabi/lib\libc_s.a(lib_a-memset.o)
 .bss           0x00000000        0x0 c:/isis/application/toolchain/bin/../lib/gcc/arm-none-eabi/4.7.4/../../../../arm-none-eabi/lib\libc_s.a(lib_a-memset.o)
 .text          0x00000000        0x0 c:/isis/application/toolchain/bin/../lib/gcc/arm-none-eabi/4.7.4/../../../../arm-none-eabi/lib\libc_s.a(lib_a-reallocr.o)
 .data          0x00000000        0x0 c:/isis/application/toolchain/bin/../lib/gcc/arm-none-eabi/4.7.4/../../../../arm-none-eabi/lib\libc_s.a(lib_a-reallocr.o)
 .bss           0x00000000        0x0 c:/isis/application/toolchain/bin/../lib/gcc/arm-none-eabi/4.7.4/../../../../arm-none-eabi/lib\libc_s.a(lib_a-reallocr.o)
 .text          0x00000000        0x0 c:/isis/application/toolchain/bin/../lib/gcc/arm-none-eabi/4.7.4/../../../../arm-none-eabi/lib\libc_s.a(lib_a-reent.o)
 .data          0x00000000        0x0 c:/isis/application/toolchain/bin/../lib/gcc/arm-none-eabi/4.7.4/../../../../arm-none-eabi/lib\libc_s.a(lib_a-reent.o)
 .bss           0x00000000        0x0 c:/isis/application/toolchain/bin/../lib/gcc/arm-none-eabi/4.7.4/../../../../arm-none-eabi/lib\libc_s.a(lib_a-reent.o)
 .text.cleanup_glue
                0x00000000       0x2c c:/isis/application/toolchain/bin/../lib/gcc/arm-none-eabi/4.7.4/../../../../arm-none-eabi/lib\libc_s.a(lib_a-reent.o)
 .text._reclaim_reent
                0x00000000      0x13c c:/isis/application/toolchain/bin/../lib/gcc/arm-none-eabi/4.7.4/../../../../arm-none-eabi/lib\libc_s.a(lib_a-reent.o)
 .text._wrapup_reent
                0x00000000       0x5c c:/isis/application/toolchain/bin/../lib/gcc/arm-none-eabi/4.7.4/../../../../arm-none-eabi/lib\libc_s.a(lib_a-reent.o)
 .text          0x00000000        0x0 c:/isis/application/toolchain/bin/../lib/gcc/arm-none-eabi/4.7.4/../../../../arm-none-eabi/lib\libc_s.a(lib_a-strncmp.o)
 .data          0x00000000        0x0 c:/isis/application/toolchain/bin/../lib/gcc/arm-none-eabi/4.7.4/../../../../arm-none-eabi/lib\libc_s.a(lib_a-strncmp.o)
 .bss           0x00000000        0x0 c:/isis/application/toolchain/bin/../lib/gcc/arm-none-eabi/4.7.4/../../../../arm-none-eabi/lib\libc_s.a(lib_a-strncmp.o)
 .text          0x00000000        0x0 c:/isis/application/toolchain/bin/../lib/gcc/arm-none-eabi/4.7.4/../../../../arm-none-eabi/lib\libc_s.a(lib_a-msizer.o)
 .data          0x00000000        0x0 c:/isis/application/toolchain/bin/../lib/gcc/arm-none-eabi/4.7.4/../../../../arm-none-eabi/lib\libc_s.a(lib_a-msizer.o)
 .bss           0x00000000        0x0 c:/isis/application/toolchain/bin/../lib/gcc/arm-none-eabi/4.7.4/../../../../arm-none-eabi/lib\libc_s.a(lib_a-msizer.o)
 .text          0x00000000        0x0 ./src/Tests/ADCtest.o
 .data          0x00000000        0x0 ./src/Tests/ADCtest.o
 .text          0x00000000        0x0 ./src/Tests/FloatingPointTest.o
 .data          0x00000000        0x0 ./src/Tests/FloatingPointTest.o
 .bss           0x00000000        0x0 ./src/Tests/FloatingPointTest.o
 .rodata        0x00000000      0x228 ./src/Tests/FloatingPointTest.o
 .text.floatingPointTest
                0x00000000      0x374 ./src/Tests/FloatingPointTest.o
 .debug_info    0x00000000      0x141 ./src/Tests/FloatingPointTest.o
 .debug_abbrev  0x00000000       0x71 ./src/Tests/FloatingPointTest.o
 .debug_loc     0x00000000       0x2c ./src/Tests/FloatingPointTest.o
 .debug_aranges
                0x00000000       0x20 ./src/Tests/FloatingPointTest.o
 .debug_ranges  0x00000000       0x10 ./src/Tests/FloatingPointTest.o
 .debug_line    0x00000000       0xc5 ./src/Tests/FloatingPointTest.o
 .debug_str     0x00000000      0x1b5 ./src/Tests/FloatingPointTest.o
 .comment       0x00000000       0x71 ./src/Tests/FloatingPointTest.o
 .ARM.attributes
                0x00000000       0x32 ./src/Tests/FloatingPointTest.o
 .debug_frame   0x00000000       0x2c ./src/Tests/FloatingPointTest.o
 .text          0x00000000        0x0 ./src/Tests/I2CslaveTest.o
 .data          0x00000000       0x30 ./src/Tests/I2CslaveTest.o
 .bss           0x00000000      0x200 ./src/Tests/I2CslaveTest.o
 .rodata        0x00000000      0x118 ./src/Tests/I2CslaveTest.o
 .text.taskI2CslaveTest
                0x00000000      0x1b8 ./src/Tests/I2CslaveTest.o
 .text.I2CslaveTest
                0x00000000       0xa0 ./src/Tests/I2CslaveTest.o
 .debug_info    0x00000000      0x1fb ./src/Tests/I2CslaveTest.o
 .debug_abbrev  0x00000000       0xda ./src/Tests/I2CslaveTest.o
 .debug_loc     0x00000000       0x58 ./src/Tests/I2CslaveTest.o
 .debug_aranges
                0x00000000       0x28 ./src/Tests/I2CslaveTest.o
 .debug_ranges  0x00000000       0x18 ./src/Tests/I2CslaveTest.o
 .debug_line    0x00000000      0x204 ./src/Tests/I2CslaveTest.o
 .debug_str     0x00000000      0x245 ./src/Tests/I2CslaveTest.o
 .comment       0x00000000       0x71 ./src/Tests/I2CslaveTest.o
 .ARM.attributes
                0x00000000       0x32 ./src/Tests/I2CslaveTest.o
 .debug_frame   0x00000000       0x48 ./src/Tests/I2CslaveTest.o
 .text          0x00000000        0x0 ./src/Tests/I2Ctest.o
 .data          0x00000000        0x0 ./src/Tests/I2Ctest.o
 .bss           0x00000000        0x0 ./src/Tests/I2Ctest.o
 .text          0x00000000        0x0 ./src/Tests/LEDtest.o
 .data          0x00000000        0x0 ./src/Tests/LEDtest.o
 .bss           0x00000000        0x0 ./src/Tests/LEDtest.o
 .text          0x00000000        0x0 ./src/Tests/PWMtest.o
 .data          0x00000000        0x0 ./src/Tests/PWMtest.o
 .bss           0x00000000        0x0 ./src/Tests/PWMtest.o
 .text          0x00000000        0x0 ./src/Tests/PinTest.o
 .data          0x00000000        0x0 ./src/Tests/PinTest.o
 .bss           0x00000000        0x0 ./src/Tests/PinTest.o
 .text          0x00000000        0x0 ./src/Tests/SDCardTest.o
 .data          0x00000000        0x0 ./src/Tests/SDCardTest.o
 .bss           0x00000000        0x0 ./src/Tests/SDCardTest.o
 .text          0x00000000        0x0 ./src/Tests/SPI_FRAM_RTCtest.o
 .data          0x00000000        0x0 ./src/Tests/SPI_FRAM_RTCtest.o
 .bss           0x00000000      0xc04 ./src/Tests/SPI_FRAM_RTCtest.o
 .text.SPIcallback
                0x00000000       0x64 ./src/Tests/SPI_FRAM_RTCtest.o
 .text.taskSPItest1
                0x00000000      0x468 ./src/Tests/SPI_FRAM_RTCtest.o
 .text.taskSPItest2
                0x00000000      0x210 ./src/Tests/SPI_FRAM_RTCtest.o
 .text.taskFRAMtest
                0x00000000      0x300 ./src/Tests/SPI_FRAM_RTCtest.o
 .text          0x00000000        0x0 ./src/Tests/SupervisorTest.o
 .data          0x00000000        0x0 ./src/Tests/SupervisorTest.o
 .text          0x00000000        0x0 ./src/Tests/ThermalTest.o
 .data          0x00000000        0x0 ./src/Tests/ThermalTest.o
 .bss           0x00000000      0x81c ./src/Tests/ThermalTest.o
 .text.thermalADCcallback
                0x00000000       0x88 ./src/Tests/ThermalTest.o
 .rodata        0x00000000      0x9f0 ./src/Tests/ThermalTest.o
 .text.initADCtest
                0x00000000      0x138 ./src/Tests/ThermalTest.o
 .text.initRTCandFRAMtest
                0x00000000       0xfc ./src/Tests/ThermalTest.o
 .text.initUARTtest
                0x00000000       0x9c ./src/Tests/ThermalTest.o
 .text.performSupervisorTest
                0x00000000      0x624 ./src/Tests/ThermalTest.o
 .text.performUARTtest
                0x00000000      0x15c ./src/Tests/ThermalTest.o
 .text.initSupervisortest
                0x00000000       0xdc ./src/Tests/ThermalTest.o
 .text.taskThermalTest_UART2andSupervisorSPI
                0x00000000      0x134 ./src/Tests/ThermalTest.o
 .text.taskThermalTest
                0x00000000      0x290 ./src/Tests/ThermalTest.o
 .text.thermalTest
                0x00000000       0x58 ./src/Tests/ThermalTest.o
 .debug_info    0x00000000      0xaed ./src/Tests/ThermalTest.o
 .debug_abbrev  0x00000000      0x1f9 ./src/Tests/ThermalTest.o
 .debug_loc     0x00000000      0x1b8 ./src/Tests/ThermalTest.o
 .debug_aranges
                0x00000000       0x68 ./src/Tests/ThermalTest.o
 .debug_ranges  0x00000000       0x58 ./src/Tests/ThermalTest.o
 .debug_line    0x00000000      0x4e3 ./src/Tests/ThermalTest.o
 .debug_str     0x00000000      0xa2f ./src/Tests/ThermalTest.o
 .comment       0x00000000       0x71 ./src/Tests/ThermalTest.o
 .ARM.attributes
                0x00000000       0x32 ./src/Tests/ThermalTest.o
 .debug_frame   0x00000000      0x128 ./src/Tests/ThermalTest.o
 COMMON         0x00000000       0x30 ./src/Tests/ThermalTest.o
 .text          0x00000000        0x0 ./src/Tests/TimeTest.o
 .data          0x00000000        0x0 ./src/Tests/TimeTest.o
 .bss           0x00000000        0x0 ./src/Tests/TimeTest.o
 .text          0x00000000        0x0 ./src/Tests/UARTtest.o
 .bss           0x00000000        0x0 ./src/Tests/UARTtest.o
 .text          0x00000000        0x0 ./src/Tests/USBdeviceTest.o
 .data          0x00000000        0x0 ./src/Tests/USBdeviceTest.o
 .text          0x00000000        0x0 ./src/Tests/boardTest.o
 .data          0x00000000        0x0 ./src/Tests/boardTest.o
 .text          0x00000000        0x0 ./src/Tests/checksumTest.o
 .text          0x00000000        0x0 ./src/Demo/demo_sd.o
 .data          0x00000000        0x0 ./src/Demo/demo_sd.o
 .bss           0x00000000        0x8 ./src/Demo/demo_sd.o
 .rodata        0x00000000      0x2f8 ./src/Demo/demo_sd.o
 .text.DEMO_SD_Basic
                0x00000000      0x334 ./src/Demo/demo_sd.o
 .text.DEMO_SD_FileTasks
                0x00000000      0x1c0 ./src/Demo/demo_sd.o
 .text.DEMO_SD_StringFunc
                0x00000000      0x2e8 ./src/Demo/demo_sd.o
 .text._TaskTestFileLogWrite
                0x00000000      0x14c ./src/Demo/demo_sd.o
 .text._TaskTestFileLogRead
                0x00000000      0x138 ./src/Demo/demo_sd.o
 .text._MemSetTestPattern
                0x00000000       0x9c ./src/Demo/demo_sd.o
 .debug_info    0x00000000      0x378 ./src/Demo/demo_sd.o
 .debug_abbrev  0x00000000      0x158 ./src/Demo/demo_sd.o
 .debug_loc     0x00000000      0x108 ./src/Demo/demo_sd.o
 .debug_aranges
                0x00000000       0x48 ./src/Demo/demo_sd.o
 .debug_ranges  0x00000000       0x38 ./src/Demo/demo_sd.o
 .debug_line    0x00000000      0x3da ./src/Demo/demo_sd.o
 .debug_str     0x00000000      0x271 ./src/Demo/demo_sd.o
 .comment       0x00000000       0x71 ./src/Demo/demo_sd.o
 .ARM.attributes
                0x00000000       0x32 ./src/Demo/demo_sd.o
 .debug_frame   0x00000000       0xb4 ./src/Demo/demo_sd.o
 COMMON         0x00000000     0x1000 ./src/Demo/demo_sd.o
 .text          0x00000000        0x0 ./src/Demo/demo_uart.o
 .data          0x00000000        0x0 ./src/Demo/demo_uart.o
 .bss           0x00000000        0x0 ./src/Demo/demo_uart.o
 .rodata        0x00000000      0x22c ./src/Demo/demo_uart.o
 .text.DEMO_UART_SetupVariablePacketTask
                0x00000000       0x98 ./src/Demo/demo_uart.o
 .text._VariablePacketTask
                0x00000000      0x100 ./src/Demo/demo_uart.o
 .text.DEMO_UART_SetupUnknownPacketTask
                0x00000000       0x98 ./src/Demo/demo_uart.o
 .text._UnknownPacketTask
                0x00000000      0x574 ./src/Demo/demo_uart.o
 .text._ProcessTransfer
                0x00000000       0x78 ./src/Demo/demo_uart.o
 .text._UnknownPacketCallback
                0x00000000       0x64 ./src/Demo/demo_uart.o
 .debug_info    0x00000000      0x520 ./src/Demo/demo_uart.o
 .debug_abbrev  0x00000000      0x173 ./src/Demo/demo_uart.o
 .debug_loc     0x00000000      0x108 ./src/Demo/demo_uart.o
 .debug_aranges
                0x00000000       0x48 ./src/Demo/demo_uart.o
 .debug_ranges  0x00000000       0x38 ./src/Demo/demo_uart.o
 .debug_line    0x00000000      0x2e1 ./src/Demo/demo_uart.o
 .debug_str     0x00000000      0x518 ./src/Demo/demo_uart.o
 .comment       0x00000000       0x71 ./src/Demo/demo_uart.o
 .ARM.attributes
                0x00000000       0x32 ./src/Demo/demo_uart.o
 .debug_frame   0x00000000       0xb8 ./src/Demo/demo_uart.o
 .text          0x00000000        0x0 ./src/freertos_hooks.o
 .data          0x00000000        0x0 ./src/freertos_hooks.o
 .bss           0x00000000        0x0 ./src/freertos_hooks.o
 .text          0x00000000        0x0 ./src/main.o
 .data          0x00000000        0x0 ./src/main.o
 .bss           0x00000000        0x0 ./src/main.o
 .text          0x00000000        0x0 C:/Users/user1/Documents/hoopoe-2/hal/demo/..//hcc/lib\libHCCD.a(fat_common.o)
 .data          0x00000000        0x0 C:/Users/user1/Documents/hoopoe-2/hal/demo/..//hcc/lib\libHCCD.a(fat_common.o)
 .text.fn_start
                0x00000000       0x1c C:/Users/user1/Documents/hoopoe-2/hal/demo/..//hcc/lib\libHCCD.a(fat_common.o)
 .text.fn_stop  0x00000000       0x1c C:/Users/user1/Documents/hoopoe-2/hal/demo/..//hcc/lib\libHCCD.a(fat_common.o)
 .text._f_ioctl
                0x00000000       0x84 C:/Users/user1/Documents/hoopoe-2/hal/demo/..//hcc/lib\libHCCD.a(fat_common.o)
 .text._f_ioctl_endofdelete
                0x00000000       0x88 C:/Users/user1/Documents/hoopoe-2/hal/demo/..//hcc/lib\libHCCD.a(fat_common.o)
 .text._f_ioctl_multiplesectorerase
                0x00000000       0x5c C:/Users/user1/Documents/hoopoe-2/hal/demo/..//hcc/lib\libHCCD.a(fat_common.o)
 .text.fn_getpartition
                0x00000000      0x514 C:/Users/user1/Documents/hoopoe-2/hal/demo/..//hcc/lib\libHCCD.a(fat_common.o)
 .text.fn_initvolume_nonsafe
                0x00000000      0x14c C:/Users/user1/Documents/hoopoe-2/hal/demo/..//hcc/lib\libHCCD.a(fat_common.o)
 .text.fn_initvolumepartition_nonsafe
                0x00000000       0xac C:/Users/user1/Documents/hoopoe-2/hal/demo/..//hcc/lib\libHCCD.a(fat_common.o)
 .text.fn_createpartition
                0x00000000      0x56c C:/Users/user1/Documents/hoopoe-2/hal/demo/..//hcc/lib\libHCCD.a(fat_common.o)
 .text.fn_abortclose
                0x00000000      0x150 C:/Users/user1/Documents/hoopoe-2/hal/demo/..//hcc/lib\libHCCD.a(fat_common.o)
 .text.fn_flush_filebuffer
                0x00000000      0x138 C:/Users/user1/Documents/hoopoe-2/hal/demo/..//hcc/lib\libHCCD.a(fat_common.o)
 .text          0x00000000        0x0 C:/Users/user1/Documents/hoopoe-2/hal/demo/..//hcc/lib\libHCCD.a(fat_m.o)
 .data          0x00000000        0x0 C:/Users/user1/Documents/hoopoe-2/hal/demo/..//hcc/lib\libHCCD.a(fat_m.o)
 .bss           0x00000000        0x0 C:/Users/user1/Documents/hoopoe-2/hal/demo/..//hcc/lib\libHCCD.a(fat_m.o)
 .text.fm_initvolume_nonsafe
                0x00000000       0x70 C:/Users/user1/Documents/hoopoe-2/hal/demo/..//hcc/lib\libHCCD.a(fat_m.o)
 .text.fm_createdriver
                0x00000000       0x70 C:/Users/user1/Documents/hoopoe-2/hal/demo/..//hcc/lib\libHCCD.a(fat_m.o)
 .text.fm_initvolumepartition
                0x00000000       0x70 C:/Users/user1/Documents/hoopoe-2/hal/demo/..//hcc/lib\libHCCD.a(fat_m.o)
 .text.fm_initvolumepartition_nonsafe
                0x00000000       0x70 C:/Users/user1/Documents/hoopoe-2/hal/demo/..//hcc/lib\libHCCD.a(fat_m.o)
 .text.fm_createpartition
                0x00000000       0x70 C:/Users/user1/Documents/hoopoe-2/hal/demo/..//hcc/lib\libHCCD.a(fat_m.o)
 .text.fm_getpartition
                0x00000000       0x68 C:/Users/user1/Documents/hoopoe-2/hal/demo/..//hcc/lib\libHCCD.a(fat_m.o)
 .text.fm_releasedriver
                0x00000000       0x54 C:/Users/user1/Documents/hoopoe-2/hal/demo/..//hcc/lib\libHCCD.a(fat_m.o)
 .text.fm_abortclose
                0x00000000       0x60 C:/Users/user1/Documents/hoopoe-2/hal/demo/..//hcc/lib\libHCCD.a(fat_m.o)
 .text.fm_flush_filebuffer
                0x00000000       0x60 C:/Users/user1/Documents/hoopoe-2/hal/demo/..//hcc/lib\libHCCD.a(fat_m.o)
 .text.fm_open_pos
                0x00000000       0x70 C:/Users/user1/Documents/hoopoe-2/hal/demo/..//hcc/lib\libHCCD.a(fat_m.o)
 .text          0x00000000        0x0 C:/Users/user1/Documents/hoopoe-2/hal/demo/..//hcc/lib\libHCCD.a(safefat.o)
 .bss           0x00000000        0x0 C:/Users/user1/Documents/hoopoe-2/hal/demo/..//hcc/lib\libHCCD.a(safefat.o)
 .text          0x00000000        0x0 C:/Users/user1/Documents/hoopoe-2/hal/demo/..//hcc/lib\libHCCD.a(fat_test.o)
 .data          0x00000000        0x0 C:/Users/user1/Documents/hoopoe-2/hal/demo/..//hcc/lib\libHCCD.a(fat_test.o)
 .text          0x00000000        0x0 C:/Users/user1/Documents/hoopoe-2/hal/demo/..//hcc/lib\libHCCD.a(atmel_mcipdc.o)
 .data          0x00000000        0x0 C:/Users/user1/Documents/hoopoe-2/hal/demo/..//hcc/lib\libHCCD.a(atmel_mcipdc.o)
 .text          0x00000000        0x0 C:/Users/user1/Documents/hoopoe-2/hal/demo/..//hcc/lib\libHCCD.a(oalp_mutex.o)
 .data          0x00000000        0x0 C:/Users/user1/Documents/hoopoe-2/hal/demo/..//hcc/lib\libHCCD.a(oalp_mutex.o)
 .bss           0x00000000        0x0 C:/Users/user1/Documents/hoopoe-2/hal/demo/..//hcc/lib\libHCCD.a(oalp_mutex.o)
 .text          0x00000000        0x0 C:/Users/user1/Documents/hoopoe-2/hal/demo/..//hcc/lib\libHCCD.a(oalp_task.o)
 .data          0x00000000        0x0 C:/Users/user1/Documents/hoopoe-2/hal/demo/..//hcc/lib\libHCCD.a(oalp_task.o)
 .bss           0x00000000        0x0 C:/Users/user1/Documents/hoopoe-2/hal/demo/..//hcc/lib\libHCCD.a(oalp_task.o)
 .text          0x00000000        0x0 C:/Users/user1/Documents/hoopoe-2/hal/demo/..//hcc/lib\libHCCD.a(atmel_mcipdc_hw.o)
 .data          0x00000000        0x0 C:/Users/user1/Documents/hoopoe-2/hal/demo/..//hcc/lib\libHCCD.a(atmel_mcipdc_hw.o)
 .bss           0x00000000        0x0 C:/Users/user1/Documents/hoopoe-2/hal/demo/..//hcc/lib\libHCCD.a(atmel_mcipdc_hw.o)
 .text          0x00000000        0x0 C:/Users/user1/Documents/hoopoe-2/hal/demo/..//hcc/lib\libHCCD.a(fat_testport.o)
 .data          0x00000000        0x0 C:/Users/user1/Documents/hoopoe-2/hal/demo/..//hcc/lib\libHCCD.a(fat_testport.o)
 .bss           0x00000000        0x0 C:/Users/user1/Documents/hoopoe-2/hal/demo/..//hcc/lib\libHCCD.a(fat_testport.o)
 .text          0x00000000        0x0 C:/Users/user1/Documents/hoopoe-2/hal/demo/..//hcc/lib\libHCCD.a(psp_rand.o)
 .bss           0x00000000        0x0 C:/Users/user1/Documents/hoopoe-2/hal/demo/..//hcc/lib\libHCCD.a(psp_rand.o)
 .text          0x00000000        0x0 C:/Users/user1/Documents/hoopoe-2/hal/demo/..//hcc/lib\libHCCD.a(psp_rtc.o)
 .data          0x00000000        0x0 C:/Users/user1/Documents/hoopoe-2/hal/demo/..//hcc/lib\libHCCD.a(psp_rtc.o)
 .bss           0x00000000        0x0 C:/Users/user1/Documents/hoopoe-2/hal/demo/..//hcc/lib\libHCCD.a(psp_rtc.o)
 .text          0x00000000        0x0 C:/Users/user1/Documents/hoopoe-2/hal/demo/..//hcc/lib\libHCCD.a(hcc_mem.o)
 .data          0x00000000        0x0 C:/Users/user1/Documents/hoopoe-2/hal/demo/..//hcc/lib\libHCCD.a(hcc_mem.o)
 .text._hcc_set_lock_dsc
                0x00000000      0x124 C:/Users/user1/Documents/hoopoe-2/hal/demo/..//hcc/lib\libHCCD.a(hcc_mem.o)
 .text._hcc_mem_lock_get_area
                0x00000000      0x244 C:/Users/user1/Documents/hoopoe-2/hal/demo/..//hcc/lib\libHCCD.a(hcc_mem.o)
 .text.hcc_mem_lock_tr
                0x00000000      0x2cc C:/Users/user1/Documents/hoopoe-2/hal/demo/..//hcc/lib\libHCCD.a(hcc_mem.o)
 .text.hcc_mem_lock
                0x00000000      0x1b0 C:/Users/user1/Documents/hoopoe-2/hal/demo/..//hcc/lib\libHCCD.a(hcc_mem.o)
 .text.hcc_mem_unlock
                0x00000000      0x170 C:/Users/user1/Documents/hoopoe-2/hal/demo/..//hcc/lib\libHCCD.a(hcc_mem.o)
 .text.hcc_mem_unlock_int
                0x00000000      0x1a8 C:/Users/user1/Documents/hoopoe-2/hal/demo/..//hcc/lib\libHCCD.a(hcc_mem.o)
 .text.hcc_mem_get_hdl
                0x00000000       0x8c C:/Users/user1/Documents/hoopoe-2/hal/demo/..//hcc/lib\libHCCD.a(hcc_mem.o)
 .text.hcc_mem_start
                0x00000000       0x1c C:/Users/user1/Documents/hoopoe-2/hal/demo/..//hcc/lib\libHCCD.a(hcc_mem.o)
 .text.hcc_mem_stop
                0x00000000       0x1c C:/Users/user1/Documents/hoopoe-2/hal/demo/..//hcc/lib\libHCCD.a(hcc_mem.o)
 .text          0x00000000        0x0 C:/Users/user1/Documents/hoopoe-2/hal/demo/..//hcc/lib\libHCCD.a(fat.o)
 .data          0x00000000        0x0 C:/Users/user1/Documents/hoopoe-2/hal/demo/..//hcc/lib\libHCCD.a(fat.o)
 .bss           0x00000000        0x0 C:/Users/user1/Documents/hoopoe-2/hal/demo/..//hcc/lib\libHCCD.a(fat.o)
 .text.fn_open_pos
                0x00000000       0x48 C:/Users/user1/Documents/hoopoe-2/hal/demo/..//hcc/lib\libHCCD.a(fat.o)
 .text          0x00000000        0x0 C:/Users/user1/Documents/hoopoe-2/hal/demo/..//hcc/lib\libHCCD.a(psp_hcc_mem.o)
 .data          0x00000000        0x0 C:/Users/user1/Documents/hoopoe-2/hal/demo/..//hcc/lib\libHCCD.a(psp_hcc_mem.o)
 .text          0x00000000        0x0 C:/Users/user1/Documents/hoopoe-2/hal/demo/..//hal/lib\libHALD.a(checksum.o)
 .data          0x00000000        0x0 C:/Users/user1/Documents/hoopoe-2/hal/demo/..//hal/lib\libHALD.a(checksum.o)
 .bss           0x00000000        0x0 C:/Users/user1/Documents/hoopoe-2/hal/demo/..//hal/lib\libHALD.a(checksum.o)
 .text.checksum_verifyCRC32
                0x00000000       0xbc C:/Users/user1/Documents/hoopoe-2/hal/demo/..//hal/lib\libHALD.a(checksum.o)
 .text.checksum_verifyCRC16
                0x00000000       0xb4 C:/Users/user1/Documents/hoopoe-2/hal/demo/..//hal/lib\libHALD.a(checksum.o)
 .text.checksum_verifyCRC8
                0x00000000       0x8c C:/Users/user1/Documents/hoopoe-2/hal/demo/..//hal/lib\libHALD.a(checksum.o)
 .text          0x00000000        0x0 C:/Users/user1/Documents/hoopoe-2/hal/demo/..//hal/lib\libHALD.a(supervisor.o)
 .text.Supervisor_emergencyReset
                0x00000000       0x58 C:/Users/user1/Documents/hoopoe-2/hal/demo/..//hal/lib\libHALD.a(supervisor.o)
 .text.Supervisor_writeOutput
                0x00000000       0x70 C:/Users/user1/Documents/hoopoe-2/hal/demo/..//hal/lib\libHALD.a(supervisor.o)
 .text          0x00000000        0x0 C:/Users/user1/Documents/hoopoe-2/hal/demo/..//hal/lib\libHALD.a(ADC.o)
 .text.ADC_ConvertRaw8bitToMillivolt
                0x00000000       0x44 C:/Users/user1/Documents/hoopoe-2/hal/demo/..//hal/lib\libHALD.a(ADC.o)
 .text          0x00000000        0x0 C:/Users/user1/Documents/hoopoe-2/hal/demo/..//hal/lib\libHALD.a(I2C.o)
 .text.I2C_read
                0x00000000      0x110 C:/Users/user1/Documents/hoopoe-2/hal/demo/..//hal/lib\libHALD.a(I2C.o)
 .text.I2C_blockBus
                0x00000000       0x50 C:/Users/user1/Documents/hoopoe-2/hal/demo/..//hal/lib\libHALD.a(I2C.o)
 .text.I2C_releaseBus
                0x00000000       0x2c C:/Users/user1/Documents/hoopoe-2/hal/demo/..//hal/lib\libHALD.a(I2C.o)
 .text.I2C_getDriverState
                0x00000000       0x28 C:/Users/user1/Documents/hoopoe-2/hal/demo/..//hal/lib\libHALD.a(I2C.o)
 .text.I2C_getCurrentTransferStatus
                0x00000000       0x28 C:/Users/user1/Documents/hoopoe-2/hal/demo/..//hal/lib\libHALD.a(I2C.o)
 .text          0x00000000        0x0 C:/Users/user1/Documents/hoopoe-2/hal/demo/..//hal/lib\libHALD.a(I2Cslave.o)
 .data          0x00000000        0x0 C:/Users/user1/Documents/hoopoe-2/hal/demo/..//hal/lib\libHALD.a(I2Cslave.o)
 .bss           0x00000000       0x10 C:/Users/user1/Documents/hoopoe-2/hal/demo/..//hal/lib\libHALD.a(I2Cslave.o)
 .sramdata      0x00000000      0x458 C:/Users/user1/Documents/hoopoe-2/hal/demo/..//hal/lib\libHALD.a(I2Cslave.o)
 .sramfunc      0x00000000      0x9bc C:/Users/user1/Documents/hoopoe-2/hal/demo/..//hal/lib\libHALD.a(I2Cslave.o)
 .text.TaskClockStretchingTimeout
                0x00000000       0xe4 C:/Users/user1/Documents/hoopoe-2/hal/demo/..//hal/lib\libHALD.a(I2Cslave.o)
 .rodata        0x00000000       0x28 C:/Users/user1/Documents/hoopoe-2/hal/demo/..//hal/lib\libHALD.a(I2Cslave.o)
 .text.I2Cslave_start
                0x00000000      0x478 C:/Users/user1/Documents/hoopoe-2/hal/demo/..//hal/lib\libHALD.a(I2Cslave.o)
 .text.I2Cslave_stop
                0x00000000      0x1f4 C:/Users/user1/Documents/hoopoe-2/hal/demo/..//hal/lib\libHALD.a(I2Cslave.o)
 .text.I2Cslave_read
                0x00000000       0xc4 C:/Users/user1/Documents/hoopoe-2/hal/demo/..//hal/lib\libHALD.a(I2Cslave.o)
 .text.I2Cslave_writeNonBlocking
                0x00000000       0xc0 C:/Users/user1/Documents/hoopoe-2/hal/demo/..//hal/lib\libHALD.a(I2Cslave.o)
 .text.I2Cslave_write
                0x00000000       0xc8 C:/Users/user1/Documents/hoopoe-2/hal/demo/..//hal/lib\libHALD.a(I2Cslave.o)
 .text.I2Cslave_getDriverState
                0x00000000       0x28 C:/Users/user1/Documents/hoopoe-2/hal/demo/..//hal/lib\libHALD.a(I2Cslave.o)
 .text.I2Cslave_mute
                0x00000000       0x40 C:/Users/user1/Documents/hoopoe-2/hal/demo/..//hal/lib\libHALD.a(I2Cslave.o)
 .text.I2Cslave_unMute
                0x00000000       0x34 C:/Users/user1/Documents/hoopoe-2/hal/demo/..//hal/lib\libHALD.a(I2Cslave.o)
 .debug_info    0x00000000      0xd8d C:/Users/user1/Documents/hoopoe-2/hal/demo/..//hal/lib\libHALD.a(I2Cslave.o)
 .debug_abbrev  0x00000000      0x287 C:/Users/user1/Documents/hoopoe-2/hal/demo/..//hal/lib\libHALD.a(I2Cslave.o)
 .debug_loc     0x00000000      0x23c C:/Users/user1/Documents/hoopoe-2/hal/demo/..//hal/lib\libHALD.a(I2Cslave.o)
 .debug_aranges
                0x00000000       0x80 C:/Users/user1/Documents/hoopoe-2/hal/demo/..//hal/lib\libHALD.a(I2Cslave.o)
 .debug_ranges  0x00000000       0x70 C:/Users/user1/Documents/hoopoe-2/hal/demo/..//hal/lib\libHALD.a(I2Cslave.o)
 .debug_line    0x00000000      0x3fb C:/Users/user1/Documents/hoopoe-2/hal/demo/..//hal/lib\libHALD.a(I2Cslave.o)
 .debug_str     0x00000000      0x8b1 C:/Users/user1/Documents/hoopoe-2/hal/demo/..//hal/lib\libHALD.a(I2Cslave.o)
 .comment       0x00000000       0x71 C:/Users/user1/Documents/hoopoe-2/hal/demo/..//hal/lib\libHALD.a(I2Cslave.o)
 .ARM.attributes
                0x00000000       0x32 C:/Users/user1/Documents/hoopoe-2/hal/demo/..//hal/lib\libHALD.a(I2Cslave.o)
 .debug_frame   0x00000000      0x170 C:/Users/user1/Documents/hoopoe-2/hal/demo/..//hal/lib\libHALD.a(I2Cslave.o)
 .text          0x00000000        0x0 C:/Users/user1/Documents/hoopoe-2/hal/demo/..//hal/lib\libHALD.a(LED.o)
 .data          0x00000000        0x0 C:/Users/user1/Documents/hoopoe-2/hal/demo/..//hal/lib\libHALD.a(LED.o)
 .text          0x00000000        0x0 C:/Users/user1/Documents/hoopoe-2/hal/demo/..//hal/lib\libHALD.a(PWM.o)
 .text.PWM_startAuto
                0x00000000       0xf8 C:/Users/user1/Documents/hoopoe-2/hal/demo/..//hal/lib\libHALD.a(PWM.o)
 .text.PWM_setAllDutyCyclesZero
                0x00000000       0x64 C:/Users/user1/Documents/hoopoe-2/hal/demo/..//hal/lib\libHALD.a(PWM.o)
 .text.PWM_stop
                0x00000000       0x54 C:/Users/user1/Documents/hoopoe-2/hal/demo/..//hal/lib\libHALD.a(PWM.o)
 .text          0x00000000        0x0 C:/Users/user1/Documents/hoopoe-2/hal/demo/..//hal/lib\libHALD.a(SPI.o)
 .text          0x00000000        0x0 C:/Users/user1/Documents/hoopoe-2/hal/demo/..//hal/lib\libHALD.a(UART.o)
 .text.UART_setRxEnabled
                0x00000000       0xac C:/Users/user1/Documents/hoopoe-2/hal/demo/..//hal/lib\libHALD.a(UART.o)
 .text.UART_isRxEnabled
                0x00000000       0x54 C:/Users/user1/Documents/hoopoe-2/hal/demo/..//hal/lib\libHALD.a(UART.o)
 .text.UART_getPrevBytesRead
                0x00000000       0x70 C:/Users/user1/Documents/hoopoe-2/hal/demo/..//hal/lib\libHALD.a(UART.o)
 .text.UART_setPostTransferDelay
                0x00000000       0x60 C:/Users/user1/Documents/hoopoe-2/hal/demo/..//hal/lib\libHALD.a(UART.o)
 .text.UART_getDriverState
                0x00000000       0x88 C:/Users/user1/Documents/hoopoe-2/hal/demo/..//hal/lib\libHALD.a(UART.o)
 .text          0x00000000        0x0 C:/Users/user1/Documents/hoopoe-2/hal/demo/..//hal/lib\libHALD.a(FRAM.o)
 .text.FRAM_stop
                0x00000000       0x6c C:/Users/user1/Documents/hoopoe-2/hal/demo/..//hal/lib\libHALD.a(FRAM.o)
 .text.FRAM_write
                0x00000000      0x1c8 C:/Users/user1/Documents/hoopoe-2/hal/demo/..//hal/lib\libHALD.a(FRAM.o)
 .text.FRAM_read
                0x00000000      0x1d4 C:/Users/user1/Documents/hoopoe-2/hal/demo/..//hal/lib\libHALD.a(FRAM.o)
 .text.FRAM_protectBlocks
                0x00000000      0x1ec C:/Users/user1/Documents/hoopoe-2/hal/demo/..//hal/lib\libHALD.a(FRAM.o)
 .text.FRAM_getProtectedBlocks
                0x00000000      0x108 C:/Users/user1/Documents/hoopoe-2/hal/demo/..//hal/lib\libHALD.a(FRAM.o)
 .text.FRAM_getDeviceID
                0x00000000      0x13c C:/Users/user1/Documents/hoopoe-2/hal/demo/..//hal/lib\libHALD.a(FRAM.o)
 .text          0x00000000        0x0 C:/Users/user1/Documents/hoopoe-2/hal/demo/..//hal/lib\libHALD.a(NORflash.o)
 .data          0x00000000        0x0 C:/Users/user1/Documents/hoopoe-2/hal/demo/..//hal/lib\libHALD.a(NORflash.o)
 .bss           0x00000000        0x4 C:/Users/user1/Documents/hoopoe-2/hal/demo/..//hal/lib\libHALD.a(NORflash.o)
 .rodata        0x00000000       0x28 C:/Users/user1/Documents/hoopoe-2/hal/demo/..//hal/lib\libHALD.a(NORflash.o)
 .text.NORflash_start
                0x00000000       0x70 C:/Users/user1/Documents/hoopoe-2/hal/demo/..//hal/lib\libHALD.a(NORflash.o)
 .text.NORflash_test
                0x00000000       0xdc C:/Users/user1/Documents/hoopoe-2/hal/demo/..//hal/lib\libHALD.a(NORflash.o)
 .debug_info    0x00000000      0x41b C:/Users/user1/Documents/hoopoe-2/hal/demo/..//hal/lib\libHALD.a(NORflash.o)
 .debug_abbrev  0x00000000       0xfb C:/Users/user1/Documents/hoopoe-2/hal/demo/..//hal/lib\libHALD.a(NORflash.o)
 .debug_loc     0x00000000       0x58 C:/Users/user1/Documents/hoopoe-2/hal/demo/..//hal/lib\libHALD.a(NORflash.o)
 .debug_aranges
                0x00000000       0x28 C:/Users/user1/Documents/hoopoe-2/hal/demo/..//hal/lib\libHALD.a(NORflash.o)
 .debug_ranges  0x00000000       0x18 C:/Users/user1/Documents/hoopoe-2/hal/demo/..//hal/lib\libHALD.a(NORflash.o)
 .debug_line    0x00000000       0xdb C:/Users/user1/Documents/hoopoe-2/hal/demo/..//hal/lib\libHALD.a(NORflash.o)
 .debug_str     0x00000000      0x3ea C:/Users/user1/Documents/hoopoe-2/hal/demo/..//hal/lib\libHALD.a(NORflash.o)
 .comment       0x00000000       0x71 C:/Users/user1/Documents/hoopoe-2/hal/demo/..//hal/lib\libHALD.a(NORflash.o)
 .ARM.attributes
                0x00000000       0x32 C:/Users/user1/Documents/hoopoe-2/hal/demo/..//hal/lib\libHALD.a(NORflash.o)
 .debug_frame   0x00000000       0x48 C:/Users/user1/Documents/hoopoe-2/hal/demo/..//hal/lib\libHALD.a(NORflash.o)
 .text          0x00000000        0x0 C:/Users/user1/Documents/hoopoe-2/hal/demo/..//hal/lib\libHALD.a(RTC.o)
 .bss           0x00000000        0x0 C:/Users/user1/Documents/hoopoe-2/hal/demo/..//hal/lib\libHALD.a(RTC.o)
 .text.uSdelay  0x00000000       0x8c C:/Users/user1/Documents/hoopoe-2/hal/demo/..//hal/lib\libHALD.a(RTC.o)
 .rodata        0x00000000       0x58 C:/Users/user1/Documents/hoopoe-2/hal/demo/..//hal/lib\libHALD.a(RTC.o)
 .text.RTC_printSeconds
                0x00000000       0x8c C:/Users/user1/Documents/hoopoe-2/hal/demo/..//hal/lib\libHALD.a(RTC.o)
 .text.RTC_stop
                0x00000000       0x14 C:/Users/user1/Documents/hoopoe-2/hal/demo/..//hal/lib\libHALD.a(RTC.o)
 .text.RTC_testSeconds
                0x00000000       0xb8 C:/Users/user1/Documents/hoopoe-2/hal/demo/..//hal/lib\libHALD.a(RTC.o)
 .text          0x00000000        0x0 C:/Users/user1/Documents/hoopoe-2/hal/demo/..//hal/lib\libHALD.a(Time.o)
 .text.Time_getUptimeSeconds
                0x00000000       0x28 C:/Users/user1/Documents/hoopoe-2/hal/demo/..//hal/lib\libHALD.a(Time.o)
 .text.Time_diff
                0x00000000      0x24c C:/Users/user1/Documents/hoopoe-2/hal/demo/..//hal/lib\libHALD.a(Time.o)
 .text.Time_isRTCworking
                0x00000000       0x24 C:/Users/user1/Documents/hoopoe-2/hal/demo/..//hal/lib\libHALD.a(Time.o)
 .text          0x00000000        0x0 C:/Users/user1/Documents/hoopoe-2/hal/demo/..//hal/lib\libHALD.a(WatchDogTimerNoOS.o)
 .data          0x00000000        0x0 C:/Users/user1/Documents/hoopoe-2/hal/demo/..//hal/lib\libHALD.a(WatchDogTimerNoOS.o)
 .bss           0x00000000        0x0 C:/Users/user1/Documents/hoopoe-2/hal/demo/..//hal/lib\libHALD.a(WatchDogTimerNoOS.o)
 .text          0x00000000        0x0 C:/Users/user1/Documents/hoopoe-2/hal/demo/..//hal/lib\libHALD.a(WatchDogTimerOS.o)
 .data          0x00000000        0x0 C:/Users/user1/Documents/hoopoe-2/hal/demo/..//hal/lib\libHALD.a(WatchDogTimerOS.o)
 .text.WDT_stopWatchdogKickTask
                0x00000000       0x3c C:/Users/user1/Documents/hoopoe-2/hal/demo/..//hal/lib\libHALD.a(WatchDogTimerOS.o)
 .text          0x00000000        0x0 C:/Users/user1/Documents/hoopoe-2/hal/demo/..//hal/lib\libHALD.a(fprintf.o)
 .data          0x00000000        0x0 C:/Users/user1/Documents/hoopoe-2/hal/demo/..//hal/lib\libHALD.a(fprintf.o)
 .bss           0x00000000        0x0 C:/Users/user1/Documents/hoopoe-2/hal/demo/..//hal/lib\libHALD.a(fprintf.o)
 .text.f_puts   0x00000000       0x80 C:/Users/user1/Documents/hoopoe-2/hal/demo/..//hal/lib\libHALD.a(fprintf.o)
 .text.f_printf
                0x00000000      0x71c C:/Users/user1/Documents/hoopoe-2/hal/demo/..//hal/lib\libHALD.a(fprintf.o)
 .debug_info    0x00000000      0x228 C:/Users/user1/Documents/hoopoe-2/hal/demo/..//hal/lib\libHALD.a(fprintf.o)
 .debug_abbrev  0x00000000       0xd7 C:/Users/user1/Documents/hoopoe-2/hal/demo/..//hal/lib\libHALD.a(fprintf.o)
 .debug_loc     0x00000000       0x64 C:/Users/user1/Documents/hoopoe-2/hal/demo/..//hal/lib\libHALD.a(fprintf.o)
 .debug_aranges
                0x00000000       0x28 C:/Users/user1/Documents/hoopoe-2/hal/demo/..//hal/lib\libHALD.a(fprintf.o)
 .debug_ranges  0x00000000       0x18 C:/Users/user1/Documents/hoopoe-2/hal/demo/..//hal/lib\libHALD.a(fprintf.o)
 .debug_line    0x00000000      0x247 C:/Users/user1/Documents/hoopoe-2/hal/demo/..//hal/lib\libHALD.a(fprintf.o)
 .debug_str     0x00000000      0x171 C:/Users/user1/Documents/hoopoe-2/hal/demo/..//hal/lib\libHALD.a(fprintf.o)
 .comment       0x00000000       0x71 C:/Users/user1/Documents/hoopoe-2/hal/demo/..//hal/lib\libHALD.a(fprintf.o)
 .ARM.attributes
                0x00000000       0x32 C:/Users/user1/Documents/hoopoe-2/hal/demo/..//hal/lib\libHALD.a(fprintf.o)
 .debug_frame   0x00000000       0x50 C:/Users/user1/Documents/hoopoe-2/hal/demo/..//hal/lib\libHALD.a(fprintf.o)
 .text          0x00000000        0x0 C:/Users/user1/Documents/hoopoe-2/hal/demo/..//hal/lib\libHALD.a(util.o)
 .data          0x00000000        0x0 C:/Users/user1/Documents/hoopoe-2/hal/demo/..//hal/lib\libHALD.a(util.o)
 .bss           0x00000000        0x0 C:/Users/user1/Documents/hoopoe-2/hal/demo/..//hal/lib\libHALD.a(util.o)
 .text.PrintChar
                0x00000000       0x58 C:/Users/user1/Documents/hoopoe-2/hal/demo/..//hal/lib\libHALD.a(util.o)
 .text.UTIL_DbguDumpMemory
                0x00000000      0x254 C:/Users/user1/Documents/hoopoe-2/hal/demo/..//hal/lib\libHALD.a(util.o)
 .text.UTIL_DbguDumpArrayBytes
                0x00000000       0x70 C:/Users/user1/Documents/hoopoe-2/hal/demo/..//hal/lib\libHALD.a(util.o)
 .text.UTIL_DbguGetString
                0x00000000       0xe0 C:/Users/user1/Documents/hoopoe-2/hal/demo/..//hal/lib\libHALD.a(util.o)
 .text.UTIL_DbguGetHexa32
                0x00000000      0x174 C:/Users/user1/Documents/hoopoe-2/hal/demo/..//hal/lib\libHALD.a(util.o)
 .text          0x00000000        0x0 C:/Users/user1/Documents/hoopoe-2/hal/demo/..//hal/lib\libHALD.a(version.o)
 .data          0x00000000        0x0 C:/Users/user1/Documents/hoopoe-2/hal/demo/..//hal/lib\libHALD.a(version.o)
 .bss           0x00000000        0x0 C:/Users/user1/Documents/hoopoe-2/hal/demo/..//hal/lib\libHALD.a(version.o)
 .text          0x00000000        0x0 C:/Users/user1/Documents/hoopoe-2/hal/demo/..//hal/lib\libHALD.a(RTT.o)
 .data          0x00000000        0x0 C:/Users/user1/Documents/hoopoe-2/hal/demo/..//hal/lib\libHALD.a(RTT.o)
 .bss           0x00000000        0x0 C:/Users/user1/Documents/hoopoe-2/hal/demo/..//hal/lib\libHALD.a(RTT.o)
 .text.uSdelay  0x00000000       0x8c C:/Users/user1/Documents/hoopoe-2/hal/demo/..//hal/lib\libHALD.a(RTT.o)
 .text.RTT_GetTime
                0x00000000       0x24 C:/Users/user1/Documents/hoopoe-2/hal/demo/..//hal/lib\libHALD.a(RTT.o)
 .text.RTT_GetStatus
                0x00000000       0x24 C:/Users/user1/Documents/hoopoe-2/hal/demo/..//hal/lib\libHALD.a(RTT.o)
 .text.RTT_test
                0x00000000       0x54 C:/Users/user1/Documents/hoopoe-2/hal/demo/..//hal/lib\libHALD.a(RTT.o)
 .text          0x00000000        0x0 C:/Users/user1/Documents/hoopoe-2/hal/demo/..//freertos/lib\libFreeRTOSD.a(queue.o)
 .data          0x00000000        0x0 C:/Users/user1/Documents/hoopoe-2/hal/demo/..//freertos/lib\libFreeRTOSD.a(queue.o)
 .bss           0x00000000        0x0 C:/Users/user1/Documents/hoopoe-2/hal/demo/..//freertos/lib\libFreeRTOSD.a(queue.o)
 .text.xQueueGiveMutexRecursive
                0x00000000       0xc0 C:/Users/user1/Documents/hoopoe-2/hal/demo/..//freertos/lib\libFreeRTOSD.a(queue.o)
 .text.xQueueTakeMutexRecursive
                0x00000000       0xd4 C:/Users/user1/Documents/hoopoe-2/hal/demo/..//freertos/lib\libFreeRTOSD.a(queue.o)
 .text.xQueueCreateCountingSemaphore
                0x00000000       0x88 C:/Users/user1/Documents/hoopoe-2/hal/demo/..//freertos/lib\libFreeRTOSD.a(queue.o)
 .text.xQueueReceiveFromISR
                0x00000000      0x15c C:/Users/user1/Documents/hoopoe-2/hal/demo/..//freertos/lib\libFreeRTOSD.a(queue.o)
 .text.xQueuePeekFromISR
                0x00000000       0xf0 C:/Users/user1/Documents/hoopoe-2/hal/demo/..//freertos/lib\libFreeRTOSD.a(queue.o)
 .text.uxQueueSpacesAvailable
                0x00000000       0x80 C:/Users/user1/Documents/hoopoe-2/hal/demo/..//freertos/lib\libFreeRTOSD.a(queue.o)
 .text.uxQueueMessagesWaitingFromISR
                0x00000000       0x64 C:/Users/user1/Documents/hoopoe-2/hal/demo/..//freertos/lib\libFreeRTOSD.a(queue.o)
 .text.xQueueIsQueueEmptyFromISR
                0x00000000       0x7c C:/Users/user1/Documents/hoopoe-2/hal/demo/..//freertos/lib\libFreeRTOSD.a(queue.o)
 .text.xQueueIsQueueFullFromISR
                0x00000000       0x84 C:/Users/user1/Documents/hoopoe-2/hal/demo/..//freertos/lib\libFreeRTOSD.a(queue.o)
 .text.vQueueAddToRegistry
                0x00000000       0x90 C:/Users/user1/Documents/hoopoe-2/hal/demo/..//freertos/lib\libFreeRTOSD.a(queue.o)
 .text          0x00000000        0x0 C:/Users/user1/Documents/hoopoe-2/hal/demo/..//freertos/lib\libFreeRTOSD.a(tasks.o)
 .text.vTaskDelayUntil
                0x00000000      0x170 C:/Users/user1/Documents/hoopoe-2/hal/demo/..//freertos/lib\libFreeRTOSD.a(tasks.o)
 .text.eTaskGetState
                0x00000000       0xe4 C:/Users/user1/Documents/hoopoe-2/hal/demo/..//freertos/lib\libFreeRTOSD.a(tasks.o)
 .text.uxTaskPriorityGet
                0x00000000       0x58 C:/Users/user1/Documents/hoopoe-2/hal/demo/..//freertos/lib\libFreeRTOSD.a(tasks.o)
 .text.vTaskPrioritySet
                0x00000000      0x22c C:/Users/user1/Documents/hoopoe-2/hal/demo/..//freertos/lib\libFreeRTOSD.a(tasks.o)
 .text.vTaskSuspend
                0x00000000       0xec C:/Users/user1/Documents/hoopoe-2/hal/demo/..//freertos/lib\libFreeRTOSD.a(tasks.o)
 .text.xTaskIsTaskSuspended
                0x00000000       0xd8 C:/Users/user1/Documents/hoopoe-2/hal/demo/..//freertos/lib\libFreeRTOSD.a(tasks.o)
 .text.vTaskResume
                0x00000000      0x12c C:/Users/user1/Documents/hoopoe-2/hal/demo/..//freertos/lib\libFreeRTOSD.a(tasks.o)
 .text.xTaskResumeFromISR
                0x00000000      0x150 C:/Users/user1/Documents/hoopoe-2/hal/demo/..//freertos/lib\libFreeRTOSD.a(tasks.o)
 .text.vTaskEndScheduler
                0x00000000       0x34 C:/Users/user1/Documents/hoopoe-2/hal/demo/..//freertos/lib\libFreeRTOSD.a(tasks.o)
 .text.xTaskGetTickCountFromISR
                0x00000000       0x38 C:/Users/user1/Documents/hoopoe-2/hal/demo/..//freertos/lib\libFreeRTOSD.a(tasks.o)
 .text.uxTaskGetNumberOfTasks
                0x00000000       0x24 C:/Users/user1/Documents/hoopoe-2/hal/demo/..//freertos/lib\libFreeRTOSD.a(tasks.o)
 .text.pcTaskGetTaskName
                0x00000000       0x80 C:/Users/user1/Documents/hoopoe-2/hal/demo/..//freertos/lib\libFreeRTOSD.a(tasks.o)
 .text          0x00000000        0x0 C:/Users/user1/Documents/hoopoe-2/hal/demo/..//freertos/lib\libFreeRTOSD.a(standardMemMang.o)
 .data          0x00000000        0x0 C:/Users/user1/Documents/hoopoe-2/hal/demo/..//freertos/lib\libFreeRTOSD.a(standardMemMang.o)
 .bss           0x00000000        0x0 C:/Users/user1/Documents/hoopoe-2/hal/demo/..//freertos/lib\libFreeRTOSD.a(standardMemMang.o)
 .text.vPortInitialiseBlocks
                0x00000000       0x14 C:/Users/user1/Documents/hoopoe-2/hal/demo/..//freertos/lib\libFreeRTOSD.a(standardMemMang.o)
 .text.xPortGetFreeHeapSize
                0x00000000       0x20 C:/Users/user1/Documents/hoopoe-2/hal/demo/..//freertos/lib\libFreeRTOSD.a(standardMemMang.o)
 .text          0x00000000        0x0 C:/Users/user1/Documents/hoopoe-2/hal/demo/..//freertos/lib\libFreeRTOSD.a(port.o)
 .bss           0x00000000        0x0 C:/Users/user1/Documents/hoopoe-2/hal/demo/..//freertos/lib\libFreeRTOSD.a(port.o)
 .text.vPortEndScheduler
                0x00000000       0x14 C:/Users/user1/Documents/hoopoe-2/hal/demo/..//freertos/lib\libFreeRTOSD.a(port.o)
 .text.vPortDisableInterruptsFromThumb
                0x00000000       0x18 C:/Users/user1/Documents/hoopoe-2/hal/demo/..//freertos/lib\libFreeRTOSD.a(port.o)
 .text.vPortEnableInterruptsFromThumb
                0x00000000       0x18 C:/Users/user1/Documents/hoopoe-2/hal/demo/..//freertos/lib\libFreeRTOSD.a(port.o)
 .text          0x00000000        0x0 C:/Users/user1/Documents/hoopoe-2/hal/demo/..//freertos/lib\libFreeRTOSD.a(list.o)
 .data          0x00000000        0x0 C:/Users/user1/Documents/hoopoe-2/hal/demo/..//freertos/lib\libFreeRTOSD.a(list.o)
 .bss           0x00000000        0x0 C:/Users/user1/Documents/hoopoe-2/hal/demo/..//freertos/lib\libFreeRTOSD.a(list.o)
 .text          0x00000000        0x0 C:/Users/user1/Documents/hoopoe-2/hal/demo/..//at91/lib\libAt91D.a(syscalls.o)
 .data          0x00000000        0x0 C:/Users/user1/Documents/hoopoe-2/hal/demo/..//at91/lib\libAt91D.a(syscalls.o)
 .text._open    0x00000000       0x2c C:/Users/user1/Documents/hoopoe-2/hal/demo/..//at91/lib\libAt91D.a(syscalls.o)
 .text._link    0x00000000       0x28 C:/Users/user1/Documents/hoopoe-2/hal/demo/..//at91/lib\libAt91D.a(syscalls.o)
 .text._rename  0x00000000       0x28 C:/Users/user1/Documents/hoopoe-2/hal/demo/..//at91/lib\libAt91D.a(syscalls.o)
 .text._unlink  0x00000000       0x24 C:/Users/user1/Documents/hoopoe-2/hal/demo/..//at91/lib\libAt91D.a(syscalls.o)
 .text.fsync    0x00000000       0x24 C:/Users/user1/Documents/hoopoe-2/hal/demo/..//at91/lib\libAt91D.a(syscalls.o)
 .text._stat    0x00000000       0x28 C:/Users/user1/Documents/hoopoe-2/hal/demo/..//at91/lib\libAt91D.a(syscalls.o)
 .text.exit     0x00000000       0x28 C:/Users/user1/Documents/hoopoe-2/hal/demo/..//at91/lib\libAt91D.a(syscalls.o)
 .text._exit    0x00000000       0x28 C:/Users/user1/Documents/hoopoe-2/hal/demo/..//at91/lib\libAt91D.a(syscalls.o)
 .text._kill    0x00000000       0x1c C:/Users/user1/Documents/hoopoe-2/hal/demo/..//at91/lib\libAt91D.a(syscalls.o)
 .text._getpid  0x00000000       0x1c C:/Users/user1/Documents/hoopoe-2/hal/demo/..//at91/lib\libAt91D.a(syscalls.o)
 .text._gettimeofday
                0x00000000       0x1c C:/Users/user1/Documents/hoopoe-2/hal/demo/..//at91/lib\libAt91D.a(syscalls.o)
 .text          0x00000000        0x0 C:/Users/user1/Documents/hoopoe-2/hal/demo/..//at91/lib\libAt91D.a(board_memories.o)
 .data          0x00000000        0x0 C:/Users/user1/Documents/hoopoe-2/hal/demo/..//at91/lib\libAt91D.a(board_memories.o)
 .bss           0x00000000        0x0 C:/Users/user1/Documents/hoopoe-2/hal/demo/..//at91/lib\libAt91D.a(board_memories.o)
 .text.BOARD_RemapRom
                0x00000000       0x24 C:/Users/user1/Documents/hoopoe-2/hal/demo/..//at91/lib\libAt91D.a(board_memories.o)
 .text.BOARD_ConfigureSdram
                0x00000000      0x24c C:/Users/user1/Documents/hoopoe-2/hal/demo/..//at91/lib\libAt91D.a(board_memories.o)
 .text.BOARD_ConfigureNorFlash
                0x00000000       0xc4 C:/Users/user1/Documents/hoopoe-2/hal/demo/..//at91/lib\libAt91D.a(board_memories.o)
 .rodata        0x00000000        0xc C:/Users/user1/Documents/hoopoe-2/hal/demo/..//at91/lib\libAt91D.a(board_memories.o)
 .text          0x00000000        0x0 C:/Users/user1/Documents/hoopoe-2/hal/demo/..//at91/lib\libAt91D.a(NorFlashApi.o)
 .data          0x00000000        0x0 C:/Users/user1/Documents/hoopoe-2/hal/demo/..//at91/lib\libAt91D.a(NorFlashApi.o)
 .bss           0x00000000        0x0 C:/Users/user1/Documents/hoopoe-2/hal/demo/..//at91/lib\libAt91D.a(NorFlashApi.o)
 .text.NORFLASH_Reset
                0x00000000       0x3c C:/Users/user1/Documents/hoopoe-2/hal/demo/..//at91/lib\libAt91D.a(NorFlashApi.o)
 .text.NORFLASH_ReadManufactoryID
                0x00000000       0x3c C:/Users/user1/Documents/hoopoe-2/hal/demo/..//at91/lib\libAt91D.a(NorFlashApi.o)
 .text.NORFLASH_ReadDeviceID
                0x00000000       0x3c C:/Users/user1/Documents/hoopoe-2/hal/demo/..//at91/lib\libAt91D.a(NorFlashApi.o)
 .text.NORFLASH_EraseSector
                0x00000000       0x44 C:/Users/user1/Documents/hoopoe-2/hal/demo/..//at91/lib\libAt91D.a(NorFlashApi.o)
 .text.NORFLASH_EraseChip
                0x00000000       0x3c C:/Users/user1/Documents/hoopoe-2/hal/demo/..//at91/lib\libAt91D.a(NorFlashApi.o)
 .text.NORFLASH_WriteData
                0x00000000       0x54 C:/Users/user1/Documents/hoopoe-2/hal/demo/..//at91/lib\libAt91D.a(NorFlashApi.o)
 .text.NORFLASH_ReadData
                0x00000000       0xe8 C:/Users/user1/Documents/hoopoe-2/hal/demo/..//at91/lib\libAt91D.a(NorFlashApi.o)
 .debug_info    0x00000000      0x574 C:/Users/user1/Documents/hoopoe-2/hal/demo/..//at91/lib\libAt91D.a(NorFlashApi.o)
 .debug_abbrev  0x00000000      0x113 C:/Users/user1/Documents/hoopoe-2/hal/demo/..//at91/lib\libAt91D.a(NorFlashApi.o)
 .debug_loc     0x00000000      0x134 C:/Users/user1/Documents/hoopoe-2/hal/demo/..//at91/lib\libAt91D.a(NorFlashApi.o)
 .debug_aranges
                0x00000000       0x50 C:/Users/user1/Documents/hoopoe-2/hal/demo/..//at91/lib\libAt91D.a(NorFlashApi.o)
 .debug_ranges  0x00000000       0x40 C:/Users/user1/Documents/hoopoe-2/hal/demo/..//at91/lib\libAt91D.a(NorFlashApi.o)
 .debug_line    0x00000000      0x124 C:/Users/user1/Documents/hoopoe-2/hal/demo/..//at91/lib\libAt91D.a(NorFlashApi.o)
 .debug_str     0x00000000      0x47b C:/Users/user1/Documents/hoopoe-2/hal/demo/..//at91/lib\libAt91D.a(NorFlashApi.o)
 .comment       0x00000000       0x71 C:/Users/user1/Documents/hoopoe-2/hal/demo/..//at91/lib\libAt91D.a(NorFlashApi.o)
 .ARM.attributes
                0x00000000       0x32 C:/Users/user1/Documents/hoopoe-2/hal/demo/..//at91/lib\libAt91D.a(NorFlashApi.o)
 .debug_frame   0x00000000       0xd4 C:/Users/user1/Documents/hoopoe-2/hal/demo/..//at91/lib\libAt91D.a(NorFlashApi.o)
 .text          0x00000000        0x0 C:/Users/user1/Documents/hoopoe-2/hal/demo/..//at91/lib\libAt91D.a(NorFlashCFI.o)
 .data          0x00000000        0x0 C:/Users/user1/Documents/hoopoe-2/hal/demo/..//at91/lib\libAt91D.a(NorFlashCFI.o)
 .bss           0x00000000        0x0 C:/Users/user1/Documents/hoopoe-2/hal/demo/..//at91/lib\libAt91D.a(NorFlashCFI.o)
 .rodata        0x00000000      0x544 C:/Users/user1/Documents/hoopoe-2/hal/demo/..//at91/lib\libAt91D.a(NorFlashCFI.o)
 .text.NorFlash_CFI_DumpConfigruation
                0x00000000      0x3c4 C:/Users/user1/Documents/hoopoe-2/hal/demo/..//at91/lib\libAt91D.a(NorFlashCFI.o)
 .text.NorFlash_GetDeviceNumOfBlocks
                0x00000000       0xc0 C:/Users/user1/Documents/hoopoe-2/hal/demo/..//at91/lib\libAt91D.a(NorFlashCFI.o)
 .text.NorFlash_GetDeviceMinBlockSize
                0x00000000       0xf0 C:/Users/user1/Documents/hoopoe-2/hal/demo/..//at91/lib\libAt91D.a(NorFlashCFI.o)
 .text.NorFlash_GetDeviceMaxBlockSize
                0x00000000       0xf0 C:/Users/user1/Documents/hoopoe-2/hal/demo/..//at91/lib\libAt91D.a(NorFlashCFI.o)
 .text.NorFlash_GetDeviceBlockSize
                0x00000000      0x128 C:/Users/user1/Documents/hoopoe-2/hal/demo/..//at91/lib\libAt91D.a(NorFlashCFI.o)
 .text.NorFlash_GetDeviceSectorInRegion
                0x00000000      0x160 C:/Users/user1/Documents/hoopoe-2/hal/demo/..//at91/lib\libAt91D.a(NorFlashCFI.o)
 .text.NorFlash_GetDeviceSectorAddress
                0x00000000      0x160 C:/Users/user1/Documents/hoopoe-2/hal/demo/..//at91/lib\libAt91D.a(NorFlashCFI.o)
 .text.NorFlash_GetByteAddress
                0x00000000       0x34 C:/Users/user1/Documents/hoopoe-2/hal/demo/..//at91/lib\libAt91D.a(NorFlashCFI.o)
 .text.NorFlash_GetByteAddressInChip
                0x00000000       0x40 C:/Users/user1/Documents/hoopoe-2/hal/demo/..//at91/lib\libAt91D.a(NorFlashCFI.o)
 .text.NorFlash_GetAddressInChip
                0x00000000       0x34 C:/Users/user1/Documents/hoopoe-2/hal/demo/..//at91/lib\libAt91D.a(NorFlashCFI.o)
 .text.NorFlash_GetDataBusWidth
                0x00000000       0x30 C:/Users/user1/Documents/hoopoe-2/hal/demo/..//at91/lib\libAt91D.a(NorFlashCFI.o)
 .text.NorFlash_GetDeviceSizeInBytes
                0x00000000       0x34 C:/Users/user1/Documents/hoopoe-2/hal/demo/..//at91/lib\libAt91D.a(NorFlashCFI.o)
 .text.NorFlash_CFI_Detect
                0x00000000      0x198 C:/Users/user1/Documents/hoopoe-2/hal/demo/..//at91/lib\libAt91D.a(NorFlashCFI.o)
 .debug_info    0x00000000      0x83a C:/Users/user1/Documents/hoopoe-2/hal/demo/..//at91/lib\libAt91D.a(NorFlashCFI.o)
 .debug_abbrev  0x00000000      0x16f C:/Users/user1/Documents/hoopoe-2/hal/demo/..//at91/lib\libAt91D.a(NorFlashCFI.o)
 .debug_loc     0x00000000      0x23c C:/Users/user1/Documents/hoopoe-2/hal/demo/..//at91/lib\libAt91D.a(NorFlashCFI.o)
 .debug_aranges
                0x00000000       0x80 C:/Users/user1/Documents/hoopoe-2/hal/demo/..//at91/lib\libAt91D.a(NorFlashCFI.o)
 .debug_ranges  0x00000000       0x70 C:/Users/user1/Documents/hoopoe-2/hal/demo/..//at91/lib\libAt91D.a(NorFlashCFI.o)
 .debug_line    0x00000000      0x29e C:/Users/user1/Documents/hoopoe-2/hal/demo/..//at91/lib\libAt91D.a(NorFlashCFI.o)
 .debug_str     0x00000000      0x5ec C:/Users/user1/Documents/hoopoe-2/hal/demo/..//at91/lib\libAt91D.a(NorFlashCFI.o)
 .comment       0x00000000       0x71 C:/Users/user1/Documents/hoopoe-2/hal/demo/..//at91/lib\libAt91D.a(NorFlashCFI.o)
 .ARM.attributes
                0x00000000       0x32 C:/Users/user1/Documents/hoopoe-2/hal/demo/..//at91/lib\libAt91D.a(NorFlashCFI.o)
 .debug_frame   0x00000000      0x150 C:/Users/user1/Documents/hoopoe-2/hal/demo/..//at91/lib\libAt91D.a(NorFlashCFI.o)
 COMMON         0x00000000        0x0 C:/Users/user1/Documents/hoopoe-2/hal/demo/..//at91/lib\libAt91D.a(NorFlashCFI.o)
 .text          0x00000000        0x0 C:/Users/user1/Documents/hoopoe-2/hal/demo/..//at91/lib\libAt91D.a(NorFlashCommon.o)
 .data          0x00000000        0x0 C:/Users/user1/Documents/hoopoe-2/hal/demo/..//at91/lib\libAt91D.a(NorFlashCommon.o)
 .bss           0x00000000        0x0 C:/Users/user1/Documents/hoopoe-2/hal/demo/..//at91/lib\libAt91D.a(NorFlashCommon.o)
 .text.WriteCommand
                0x00000000       0x8c C:/Users/user1/Documents/hoopoe-2/hal/demo/..//at91/lib\libAt91D.a(NorFlashCommon.o)
 .text.ReadRawData
                0x00000000       0xa0 C:/Users/user1/Documents/hoopoe-2/hal/demo/..//at91/lib\libAt91D.a(NorFlashCommon.o)
 .text.WriteRawData
                0x00000000       0x94 C:/Users/user1/Documents/hoopoe-2/hal/demo/..//at91/lib\libAt91D.a(NorFlashCommon.o)
 .debug_info    0x00000000      0x1c7 C:/Users/user1/Documents/hoopoe-2/hal/demo/..//at91/lib\libAt91D.a(NorFlashCommon.o)
 .debug_abbrev  0x00000000       0xb5 C:/Users/user1/Documents/hoopoe-2/hal/demo/..//at91/lib\libAt91D.a(NorFlashCommon.o)
 .debug_loc     0x00000000       0x84 C:/Users/user1/Documents/hoopoe-2/hal/demo/..//at91/lib\libAt91D.a(NorFlashCommon.o)
 .debug_aranges
                0x00000000       0x30 C:/Users/user1/Documents/hoopoe-2/hal/demo/..//at91/lib\libAt91D.a(NorFlashCommon.o)
 .debug_ranges  0x00000000       0x20 C:/Users/user1/Documents/hoopoe-2/hal/demo/..//at91/lib\libAt91D.a(NorFlashCommon.o)
 .debug_line    0x00000000       0x91 C:/Users/user1/Documents/hoopoe-2/hal/demo/..//at91/lib\libAt91D.a(NorFlashCommon.o)
 .debug_str     0x00000000      0x1a2 C:/Users/user1/Documents/hoopoe-2/hal/demo/..//at91/lib\libAt91D.a(NorFlashCommon.o)
 .comment       0x00000000       0x71 C:/Users/user1/Documents/hoopoe-2/hal/demo/..//at91/lib\libAt91D.a(NorFlashCommon.o)
 .ARM.attributes
                0x00000000       0x32 C:/Users/user1/Documents/hoopoe-2/hal/demo/..//at91/lib\libAt91D.a(NorFlashCommon.o)
 .debug_frame   0x00000000       0x58 C:/Users/user1/Documents/hoopoe-2/hal/demo/..//at91/lib\libAt91D.a(NorFlashCommon.o)
 .text          0x00000000        0x0 C:/Users/user1/Documents/hoopoe-2/hal/demo/..//at91/lib\libAt91D.a(NorFlashIntel.o)
 .data          0x00000000        0x0 C:/Users/user1/Documents/hoopoe-2/hal/demo/..//at91/lib\libAt91D.a(NorFlashIntel.o)
 .bss           0x00000000        0x0 C:/Users/user1/Documents/hoopoe-2/hal/demo/..//at91/lib\libAt91D.a(NorFlashIntel.o)
 .rodata        0x00000000       0x4c C:/Users/user1/Documents/hoopoe-2/hal/demo/..//at91/lib\libAt91D.a(NorFlashIntel.o)
 .text.intel_Reset
                0x00000000       0x54 C:/Users/user1/Documents/hoopoe-2/hal/demo/..//at91/lib\libAt91D.a(NorFlashIntel.o)
 .text.intel_ReadIdentification
                0x00000000       0xa0 C:/Users/user1/Documents/hoopoe-2/hal/demo/..//at91/lib\libAt91D.a(NorFlashIntel.o)
 .text.intel_ReadStatus
                0x00000000       0x74 C:/Users/user1/Documents/hoopoe-2/hal/demo/..//at91/lib\libAt91D.a(NorFlashIntel.o)
 .text.intel_ClearStatus
                0x00000000       0x4c C:/Users/user1/Documents/hoopoe-2/hal/demo/..//at91/lib\libAt91D.a(NorFlashIntel.o)
 .text.intel_UnlockSector
                0x00000000       0x70 C:/Users/user1/Documents/hoopoe-2/hal/demo/..//at91/lib\libAt91D.a(NorFlashIntel.o)
 .text.intel_GetBlockLockStatus
                0x00000000       0x48 C:/Users/user1/Documents/hoopoe-2/hal/demo/..//at91/lib\libAt91D.a(NorFlashIntel.o)
 .text.intel_Program
                0x00000000      0x164 C:/Users/user1/Documents/hoopoe-2/hal/demo/..//at91/lib\libAt91D.a(NorFlashIntel.o)
 .text.INTEL_Reset
                0x00000000       0x28 C:/Users/user1/Documents/hoopoe-2/hal/demo/..//at91/lib\libAt91D.a(NorFlashIntel.o)
 .text.INTEL_ReadManufactoryId
                0x00000000       0x2c C:/Users/user1/Documents/hoopoe-2/hal/demo/..//at91/lib\libAt91D.a(NorFlashIntel.o)
 .text.INTEL_ReadDeviceID
                0x00000000       0x2c C:/Users/user1/Documents/hoopoe-2/hal/demo/..//at91/lib\libAt91D.a(NorFlashIntel.o)
 .text.INTEL_EraseSector
                0x00000000      0x140 C:/Users/user1/Documents/hoopoe-2/hal/demo/..//at91/lib\libAt91D.a(NorFlashIntel.o)
 .text.INTEL_EraseChip
                0x00000000       0x84 C:/Users/user1/Documents/hoopoe-2/hal/demo/..//at91/lib\libAt91D.a(NorFlashIntel.o)
 .text.INTEL_Write_Data
                0x00000000      0x3ac C:/Users/user1/Documents/hoopoe-2/hal/demo/..//at91/lib\libAt91D.a(NorFlashIntel.o)
 .debug_info    0x00000000      0x84b C:/Users/user1/Documents/hoopoe-2/hal/demo/..//at91/lib\libAt91D.a(NorFlashIntel.o)
 .debug_abbrev  0x00000000      0x18a C:/Users/user1/Documents/hoopoe-2/hal/demo/..//at91/lib\libAt91D.a(NorFlashIntel.o)
 .debug_loc     0x00000000      0x23c C:/Users/user1/Documents/hoopoe-2/hal/demo/..//at91/lib\libAt91D.a(NorFlashIntel.o)
 .debug_aranges
                0x00000000       0x80 C:/Users/user1/Documents/hoopoe-2/hal/demo/..//at91/lib\libAt91D.a(NorFlashIntel.o)
 .debug_ranges  0x00000000       0x70 C:/Users/user1/Documents/hoopoe-2/hal/demo/..//at91/lib\libAt91D.a(NorFlashIntel.o)
 .debug_line    0x00000000      0x230 C:/Users/user1/Documents/hoopoe-2/hal/demo/..//at91/lib\libAt91D.a(NorFlashIntel.o)
 .debug_str     0x00000000      0x533 C:/Users/user1/Documents/hoopoe-2/hal/demo/..//at91/lib\libAt91D.a(NorFlashIntel.o)
 .comment       0x00000000       0x71 C:/Users/user1/Documents/hoopoe-2/hal/demo/..//at91/lib\libAt91D.a(NorFlashIntel.o)
 .ARM.attributes
                0x00000000       0x32 C:/Users/user1/Documents/hoopoe-2/hal/demo/..//at91/lib\libAt91D.a(NorFlashIntel.o)
 .debug_frame   0x00000000      0x17c C:/Users/user1/Documents/hoopoe-2/hal/demo/..//at91/lib\libAt91D.a(NorFlashIntel.o)
 .text          0x00000000        0x0 C:/Users/user1/Documents/hoopoe-2/hal/demo/..//at91/lib\libAt91D.a(adc_at91.o)
 .data          0x00000000        0x0 C:/Users/user1/Documents/hoopoe-2/hal/demo/..//at91/lib\libAt91D.a(adc_at91.o)
 .bss           0x00000000        0x0 C:/Users/user1/Documents/hoopoe-2/hal/demo/..//at91/lib\libAt91D.a(adc_at91.o)
 .text.ADC_GetModeReg
                0x00000000       0x28 C:/Users/user1/Documents/hoopoe-2/hal/demo/..//at91/lib\libAt91D.a(adc_at91.o)
 .text.ADC_GetChannelStatus
                0x00000000       0x28 C:/Users/user1/Documents/hoopoe-2/hal/demo/..//at91/lib\libAt91D.a(adc_at91.o)
 .text.ADC_GetLastConvertedData
                0x00000000       0x28 C:/Users/user1/Documents/hoopoe-2/hal/demo/..//at91/lib\libAt91D.a(adc_at91.o)
 .text.ADC_EnableIt
                0x00000000       0xb4 C:/Users/user1/Documents/hoopoe-2/hal/demo/..//at91/lib\libAt91D.a(adc_at91.o)
 .text.ADC_EnableDataReadyIt
                0x00000000       0x28 C:/Users/user1/Documents/hoopoe-2/hal/demo/..//at91/lib\libAt91D.a(adc_at91.o)
 .text.ADC_DisableIt
                0x00000000       0xb4 C:/Users/user1/Documents/hoopoe-2/hal/demo/..//at91/lib\libAt91D.a(adc_at91.o)
 .text.ADC_GetInterruptMaskStatus
                0x00000000       0x28 C:/Users/user1/Documents/hoopoe-2/hal/demo/..//at91/lib\libAt91D.a(adc_at91.o)
 .text.ADC_IsInterruptMasked
                0x00000000       0x34 C:/Users/user1/Documents/hoopoe-2/hal/demo/..//at91/lib\libAt91D.a(adc_at91.o)
 .text.ADC_IsChannelInterruptStatusSet
                0x00000000       0x68 C:/Users/user1/Documents/hoopoe-2/hal/demo/..//at91/lib\libAt91D.a(adc_at91.o)
 .text          0x00000000        0x0 C:/Users/user1/Documents/hoopoe-2/hal/demo/..//at91/lib\libAt91D.a(aic.o)
 .data          0x00000000        0x0 C:/Users/user1/Documents/hoopoe-2/hal/demo/..//at91/lib\libAt91D.a(aic.o)
 .bss           0x00000000        0x0 C:/Users/user1/Documents/hoopoe-2/hal/demo/..//at91/lib\libAt91D.a(aic.o)
 .text          0x00000000        0x0 C:/Users/user1/Documents/hoopoe-2/hal/demo/..//at91/lib\libAt91D.a(cp15.o)
 .data          0x00000000        0x0 C:/Users/user1/Documents/hoopoe-2/hal/demo/..//at91/lib\libAt91D.a(cp15.o)
 .bss           0x00000000        0x0 C:/Users/user1/Documents/hoopoe-2/hal/demo/..//at91/lib\libAt91D.a(cp15.o)
 .text.CP15_Is_I_CacheEnabled
                0x00000000       0x38 C:/Users/user1/Documents/hoopoe-2/hal/demo/..//at91/lib\libAt91D.a(cp15.o)
 .text.CP15_Is_MMUEnabled
                0x00000000       0x38 C:/Users/user1/Documents/hoopoe-2/hal/demo/..//at91/lib\libAt91D.a(cp15.o)
 .text.CP15_EnableMMU
                0x00000000       0x5c C:/Users/user1/Documents/hoopoe-2/hal/demo/..//at91/lib\libAt91D.a(cp15.o)
 .text.CP15_Is_DCacheEnabled
                0x00000000       0x38 C:/Users/user1/Documents/hoopoe-2/hal/demo/..//at91/lib\libAt91D.a(cp15.o)
 .text.CP15_Enable_D_Cache
                0x00000000       0x7c C:/Users/user1/Documents/hoopoe-2/hal/demo/..//at91/lib\libAt91D.a(cp15.o)
 .text          0x00000000        0x0 C:/Users/user1/Documents/hoopoe-2/hal/demo/..//at91/lib\libAt91D.a(dbgu.o)
 .data          0x00000000        0x0 C:/Users/user1/Documents/hoopoe-2/hal/demo/..//at91/lib\libAt91D.a(dbgu.o)
 .bss           0x00000000        0x0 C:/Users/user1/Documents/hoopoe-2/hal/demo/..//at91/lib\libAt91D.a(dbgu.o)
 .text.fputs    0x00000000       0x80 C:/Users/user1/Documents/hoopoe-2/hal/demo/..//at91/lib\libAt91D.a(dbgu.o)
 .text          0x00000000        0x0 C:/Users/user1/Documents/hoopoe-2/hal/demo/..//at91/lib\libAt91D.a(pio.o)
 .data          0x00000000        0x0 C:/Users/user1/Documents/hoopoe-2/hal/demo/..//at91/lib\libAt91D.a(pio.o)
 .bss           0x00000000        0x0 C:/Users/user1/Documents/hoopoe-2/hal/demo/..//at91/lib\libAt91D.a(pio.o)
 .text.PIO_GetOutputDataStatus
                0x00000000       0x60 C:/Users/user1/Documents/hoopoe-2/hal/demo/..//at91/lib\libAt91D.a(pio.o)
 .text.PIO_GetISR
                0x00000000       0x40 C:/Users/user1/Documents/hoopoe-2/hal/demo/..//at91/lib\libAt91D.a(pio.o)
 .text          0x00000000        0x0 C:/Users/user1/Documents/hoopoe-2/hal/demo/..//at91/lib\libAt91D.a(pio_it.o)
 .data          0x00000000        0x0 C:/Users/user1/Documents/hoopoe-2/hal/demo/..//at91/lib\libAt91D.a(pio_it.o)
 .text.PIO_DisableIt
                0x00000000       0x40 C:/Users/user1/Documents/hoopoe-2/hal/demo/..//at91/lib\libAt91D.a(pio_it.o)
 .text          0x00000000        0x0 C:/Users/user1/Documents/hoopoe-2/hal/demo/..//at91/lib\libAt91D.a(pit.o)
 .data          0x00000000        0x0 C:/Users/user1/Documents/hoopoe-2/hal/demo/..//at91/lib\libAt91D.a(pit.o)
 .bss           0x00000000        0x0 C:/Users/user1/Documents/hoopoe-2/hal/demo/..//at91/lib\libAt91D.a(pit.o)
 .text.PIT_SetPIV
                0x00000000       0x40 C:/Users/user1/Documents/hoopoe-2/hal/demo/..//at91/lib\libAt91D.a(pit.o)
 .text.PIT_DisableIT
                0x00000000       0x2c C:/Users/user1/Documents/hoopoe-2/hal/demo/..//at91/lib\libAt91D.a(pit.o)
 .text.PIT_GetMode
                0x00000000       0x24 C:/Users/user1/Documents/hoopoe-2/hal/demo/..//at91/lib\libAt91D.a(pit.o)
 .text.PIT_GetStatus
                0x00000000       0x24 C:/Users/user1/Documents/hoopoe-2/hal/demo/..//at91/lib\libAt91D.a(pit.o)
 .text.PIT_GetPIIR
                0x00000000       0x24 C:/Users/user1/Documents/hoopoe-2/hal/demo/..//at91/lib\libAt91D.a(pit.o)
 .text.PIT_GetPIVR
                0x00000000       0x24 C:/Users/user1/Documents/hoopoe-2/hal/demo/..//at91/lib\libAt91D.a(pit.o)
 .text          0x00000000        0x0 C:/Users/user1/Documents/hoopoe-2/hal/demo/..//at91/lib\libAt91D.a(pmc.o)
 .data          0x00000000        0x0 C:/Users/user1/Documents/hoopoe-2/hal/demo/..//at91/lib\libAt91D.a(pmc.o)
 .bss           0x00000000        0x0 C:/Users/user1/Documents/hoopoe-2/hal/demo/..//at91/lib\libAt91D.a(pmc.o)
 .text.PMC_EnableAllPeripherals
                0x00000000       0x40 C:/Users/user1/Documents/hoopoe-2/hal/demo/..//at91/lib\libAt91D.a(pmc.o)
 .text.PMC_DisableAllPeripherals
                0x00000000       0x40 C:/Users/user1/Documents/hoopoe-2/hal/demo/..//at91/lib\libAt91D.a(pmc.o)
 .text.PMC_IsAllPeriphEnabled
                0x00000000       0x34 C:/Users/user1/Documents/hoopoe-2/hal/demo/..//at91/lib\libAt91D.a(pmc.o)
 .text          0x00000000        0x0 C:/Users/user1/Documents/hoopoe-2/hal/demo/..//at91/lib\libAt91D.a(spi_at91.o)
 .data          0x00000000        0x0 C:/Users/user1/Documents/hoopoe-2/hal/demo/..//at91/lib\libAt91D.a(spi_at91.o)
 .bss           0x00000000        0x0 C:/Users/user1/Documents/hoopoe-2/hal/demo/..//at91/lib\libAt91D.a(spi_at91.o)
 .text.SPI_Write
                0x00000000       0x84 C:/Users/user1/Documents/hoopoe-2/hal/demo/..//at91/lib\libAt91D.a(spi_at91.o)
 .text.SPI_WriteBuffer
                0x00000000       0x98 C:/Users/user1/Documents/hoopoe-2/hal/demo/..//at91/lib\libAt91D.a(spi_at91.o)
 .text.SPI_IsFinished
                0x00000000       0x3c C:/Users/user1/Documents/hoopoe-2/hal/demo/..//at91/lib\libAt91D.a(spi_at91.o)
 .text.SPI_Read
                0x00000000       0x48 C:/Users/user1/Documents/hoopoe-2/hal/demo/..//at91/lib\libAt91D.a(spi_at91.o)
 .text.SPI_ReadBuffer
                0x00000000       0x98 C:/Users/user1/Documents/hoopoe-2/hal/demo/..//at91/lib\libAt91D.a(spi_at91.o)
 .text          0x00000000        0x0 C:/Users/user1/Documents/hoopoe-2/hal/demo/..//at91/lib\libAt91D.a(tc.o)
 .data          0x00000000        0x0 C:/Users/user1/Documents/hoopoe-2/hal/demo/..//at91/lib\libAt91D.a(tc.o)
 .bss           0x00000000        0x0 C:/Users/user1/Documents/hoopoe-2/hal/demo/..//at91/lib\libAt91D.a(tc.o)
 .text.TC_Start
                0x00000000       0x28 C:/Users/user1/Documents/hoopoe-2/hal/demo/..//at91/lib\libAt91D.a(tc.o)
 .text.TC_Stop  0x00000000       0x28 C:/Users/user1/Documents/hoopoe-2/hal/demo/..//at91/lib\libAt91D.a(tc.o)
 .rodata        0x00000000       0x14 C:/Users/user1/Documents/hoopoe-2/hal/demo/..//at91/lib\libAt91D.a(tc.o)
 .text.TC_FindMckDivisor
                0x00000000      0x160 C:/Users/user1/Documents/hoopoe-2/hal/demo/..//at91/lib\libAt91D.a(tc.o)
 .text          0x00000000        0x0 C:/Users/user1/Documents/hoopoe-2/hal/demo/..//at91/lib\libAt91D.a(twi_at91.o)
 .data          0x00000000        0x0 C:/Users/user1/Documents/hoopoe-2/hal/demo/..//at91/lib\libAt91D.a(twi_at91.o)
 .bss           0x00000000        0x0 C:/Users/user1/Documents/hoopoe-2/hal/demo/..//at91/lib\libAt91D.a(twi_at91.o)
 .text.TWI_ConfigureSlave
                0x00000000       0xe0 C:/Users/user1/Documents/hoopoe-2/hal/demo/..//at91/lib\libAt91D.a(twi_at91.o)
 .text.TWI_Stop
                0x00000000       0x58 C:/Users/user1/Documents/hoopoe-2/hal/demo/..//at91/lib\libAt91D.a(twi_at91.o)
 .text.TWI_StartRead
                0x00000000      0x134 C:/Users/user1/Documents/hoopoe-2/hal/demo/..//at91/lib\libAt91D.a(twi_at91.o)
 .text.TWI_ReadByte
                0x00000000       0x5c C:/Users/user1/Documents/hoopoe-2/hal/demo/..//at91/lib\libAt91D.a(twi_at91.o)
 .text.TWI_WriteByte
                0x00000000       0x64 C:/Users/user1/Documents/hoopoe-2/hal/demo/..//at91/lib\libAt91D.a(twi_at91.o)
 .text.TWI_StartWrite
                0x00000000      0x140 C:/Users/user1/Documents/hoopoe-2/hal/demo/..//at91/lib\libAt91D.a(twi_at91.o)
 .text.TWI_ByteReceived
                0x00000000       0x3c C:/Users/user1/Documents/hoopoe-2/hal/demo/..//at91/lib\libAt91D.a(twi_at91.o)
 .text.TWI_ByteSent
                0x00000000       0x3c C:/Users/user1/Documents/hoopoe-2/hal/demo/..//at91/lib\libAt91D.a(twi_at91.o)
 .text.TWI_TransferComplete
                0x00000000       0x3c C:/Users/user1/Documents/hoopoe-2/hal/demo/..//at91/lib\libAt91D.a(twi_at91.o)
 .text.TWI_EnableIt
                0x00000000       0x90 C:/Users/user1/Documents/hoopoe-2/hal/demo/..//at91/lib\libAt91D.a(twi_at91.o)
 .text.TWI_DisableIt
                0x00000000       0x94 C:/Users/user1/Documents/hoopoe-2/hal/demo/..//at91/lib\libAt91D.a(twi_at91.o)
 .text.TWI_GetStatus
                0x00000000       0x5c C:/Users/user1/Documents/hoopoe-2/hal/demo/..//at91/lib\libAt91D.a(twi_at91.o)
 .text.TWI_SendSTOPCondition
                0x00000000       0x64 C:/Users/user1/Documents/hoopoe-2/hal/demo/..//at91/lib\libAt91D.a(twi_at91.o)
 .text          0x00000000        0x0 C:/Users/user1/Documents/hoopoe-2/hal/demo/..//at91/lib\libAt91D.a(USBD_UDP.o)
 .data          0x00000000        0x0 C:/Users/user1/Documents/hoopoe-2/hal/demo/..//at91/lib\libAt91D.a(USBD_UDP.o)
 .text.USBD_Read
                0x00000000      0x100 C:/Users/user1/Documents/hoopoe-2/hal/demo/..//at91/lib\libAt91D.a(USBD_UDP.o)
 .text.USBD_RemoteWakeUp
                0x00000000       0x50 C:/Users/user1/Documents/hoopoe-2/hal/demo/..//at91/lib\libAt91D.a(USBD_UDP.o)
 .text          0x00000000        0x0 C:/Users/user1/Documents/hoopoe-2/hal/demo/..//at91/lib\libAt91D.a(HIDDMouseDriver.o)
 .data          0x00000000        0x0 C:/Users/user1/Documents/hoopoe-2/hal/demo/..//at91/lib\libAt91D.a(HIDDMouseDriver.o)
 .text.HIDDMouseDriver_RemoteWakeUp
                0x00000000       0x28 C:/Users/user1/Documents/hoopoe-2/hal/demo/..//at91/lib\libAt91D.a(HIDDMouseDriver.o)
 .text          0x00000000        0x0 C:/Users/user1/Documents/hoopoe-2/hal/demo/..//at91/lib\libAt91D.a(HIDDMouseDriverDescriptors.o)
 .bss           0x00000000        0x0 C:/Users/user1/Documents/hoopoe-2/hal/demo/..//at91/lib\libAt91D.a(HIDDMouseDriverDescriptors.o)
 .text          0x00000000        0x0 C:/Users/user1/Documents/hoopoe-2/hal/demo/..//at91/lib\libAt91D.a(HIDDMouseInputReport.o)
 .data          0x00000000        0x0 C:/Users/user1/Documents/hoopoe-2/hal/demo/..//at91/lib\libAt91D.a(HIDDMouseInputReport.o)
 .bss           0x00000000        0x0 C:/Users/user1/Documents/hoopoe-2/hal/demo/..//at91/lib\libAt91D.a(HIDDMouseInputReport.o)
 .text          0x00000000        0x0 C:/Users/user1/Documents/hoopoe-2/hal/demo/..//at91/lib\libAt91D.a(ExitHandler.o)
 .data          0x00000000        0x0 C:/Users/user1/Documents/hoopoe-2/hal/demo/..//at91/lib\libAt91D.a(ExitHandler.o)
 .bss           0x00000000        0x0 C:/Users/user1/Documents/hoopoe-2/hal/demo/..//at91/lib\libAt91D.a(ExitHandler.o)
 .text          0x00000000        0x0 C:/Users/user1/Documents/hoopoe-2/hal/demo/..//at91/lib\libAt91D.a(rand.o)
 .bss           0x00000000        0x0 C:/Users/user1/Documents/hoopoe-2/hal/demo/..//at91/lib\libAt91D.a(rand.o)
 .text.srand    0x00000000       0x2c C:/Users/user1/Documents/hoopoe-2/hal/demo/..//at91/lib\libAt91D.a(rand.o)
 .text          0x00000000        0x0 C:/Users/user1/Documents/hoopoe-2/hal/demo/..//at91/lib\libAt91D.a(board_cstartup.o)
 .data          0x00000000        0x0 C:/Users/user1/Documents/hoopoe-2/hal/demo/..//at91/lib\libAt91D.a(board_cstartup.o)
 .bss           0x00000000        0x0 C:/Users/user1/Documents/hoopoe-2/hal/demo/..//at91/lib\libAt91D.a(board_cstartup.o)
 .data          0x00000000        0x0 C:/Users/user1/Documents/hoopoe-2/hal/demo/..//at91/lib\libAt91D.a(cp15_asm.o)
 .bss           0x00000000        0x0 C:/Users/user1/Documents/hoopoe-2/hal/demo/..//at91/lib\libAt91D.a(cp15_asm.o)
 .text          0x00000000        0x0 C:/Users/user1/Documents/hoopoe-2/hal/demo/..//at91/lib\libAt91D.a(board_lowlevel.o)
 .data          0x00000000        0x0 C:/Users/user1/Documents/hoopoe-2/hal/demo/..//at91/lib\libAt91D.a(board_lowlevel.o)
 .bss           0x00000000        0x0 C:/Users/user1/Documents/hoopoe-2/hal/demo/..//at91/lib\libAt91D.a(board_lowlevel.o)
 .text.assignBusMatrixPriorities
                0x00000000       0x54 C:/Users/user1/Documents/hoopoe-2/hal/demo/..//at91/lib\libAt91D.a(board_lowlevel.o)
 .text          0x00000000        0x0 C:/Users/user1/Documents/hoopoe-2/hal/demo/..//at91/lib\libAt91D.a(NorFlashAmd.o)
 .data          0x00000000        0x0 C:/Users/user1/Documents/hoopoe-2/hal/demo/..//at91/lib\libAt91D.a(NorFlashAmd.o)
 .bss           0x00000000        0x0 C:/Users/user1/Documents/hoopoe-2/hal/demo/..//at91/lib\libAt91D.a(NorFlashAmd.o)
 .rodata        0x00000000       0x4c C:/Users/user1/Documents/hoopoe-2/hal/demo/..//at91/lib\libAt91D.a(NorFlashAmd.o)
 .text.amd_Reset
                0x00000000       0xa0 C:/Users/user1/Documents/hoopoe-2/hal/demo/..//at91/lib\libAt91D.a(NorFlashAmd.o)
 .text.amd_ReadIdentification
                0x00000000      0x144 C:/Users/user1/Documents/hoopoe-2/hal/demo/..//at91/lib\libAt91D.a(NorFlashAmd.o)
 .text.AMD_Program
                0x00000000      0x184 C:/Users/user1/Documents/hoopoe-2/hal/demo/..//at91/lib\libAt91D.a(NorFlashAmd.o)
 .text.AMD_Reset
                0x00000000       0x28 C:/Users/user1/Documents/hoopoe-2/hal/demo/..//at91/lib\libAt91D.a(NorFlashAmd.o)
 .text.AMD_ReadManufactoryId
                0x00000000       0x2c C:/Users/user1/Documents/hoopoe-2/hal/demo/..//at91/lib\libAt91D.a(NorFlashAmd.o)
 .text.AMD_ReadDeviceID
                0x00000000       0x2c C:/Users/user1/Documents/hoopoe-2/hal/demo/..//at91/lib\libAt91D.a(NorFlashAmd.o)
 .text.AMD_EraseSector
                0x00000000      0x1c4 C:/Users/user1/Documents/hoopoe-2/hal/demo/..//at91/lib\libAt91D.a(NorFlashAmd.o)
 .text.AMD_EraseChip
                0x00000000      0x1d8 C:/Users/user1/Documents/hoopoe-2/hal/demo/..//at91/lib\libAt91D.a(NorFlashAmd.o)
 .text.AMD_Write_Data
                0x00000000      0x3ac C:/Users/user1/Documents/hoopoe-2/hal/demo/..//at91/lib\libAt91D.a(NorFlashAmd.o)
 .debug_info    0x00000000      0x6f8 C:/Users/user1/Documents/hoopoe-2/hal/demo/..//at91/lib\libAt91D.a(NorFlashAmd.o)
 .debug_abbrev  0x00000000      0x178 C:/Users/user1/Documents/hoopoe-2/hal/demo/..//at91/lib\libAt91D.a(NorFlashAmd.o)
 .debug_loc     0x00000000      0x18c C:/Users/user1/Documents/hoopoe-2/hal/demo/..//at91/lib\libAt91D.a(NorFlashAmd.o)
 .debug_aranges
                0x00000000       0x60 C:/Users/user1/Documents/hoopoe-2/hal/demo/..//at91/lib\libAt91D.a(NorFlashAmd.o)
 .debug_ranges  0x00000000       0x50 C:/Users/user1/Documents/hoopoe-2/hal/demo/..//at91/lib\libAt91D.a(NorFlashAmd.o)
 .debug_line    0x00000000      0x1ea C:/Users/user1/Documents/hoopoe-2/hal/demo/..//at91/lib\libAt91D.a(NorFlashAmd.o)
 .debug_str     0x00000000      0x4aa C:/Users/user1/Documents/hoopoe-2/hal/demo/..//at91/lib\libAt91D.a(NorFlashAmd.o)
 .comment       0x00000000       0x71 C:/Users/user1/Documents/hoopoe-2/hal/demo/..//at91/lib\libAt91D.a(NorFlashAmd.o)
 .ARM.attributes
                0x00000000       0x32 C:/Users/user1/Documents/hoopoe-2/hal/demo/..//at91/lib\libAt91D.a(NorFlashAmd.o)
 .debug_frame   0x00000000      0x10c C:/Users/user1/Documents/hoopoe-2/hal/demo/..//at91/lib\libAt91D.a(NorFlashAmd.o)
 .text          0x00000000        0x0 C:/Users/user1/Documents/hoopoe-2/hal/demo/..//at91/lib\libAt91D.a(USBConfigurationDescriptor.o)
 .data          0x00000000        0x0 C:/Users/user1/Documents/hoopoe-2/hal/demo/..//at91/lib\libAt91D.a(USBConfigurationDescriptor.o)
 .bss           0x00000000        0x0 C:/Users/user1/Documents/hoopoe-2/hal/demo/..//at91/lib\libAt91D.a(USBConfigurationDescriptor.o)
 .text.USBConfigurationDescriptor_GetNumInterfaces
                0x00000000       0x28 C:/Users/user1/Documents/hoopoe-2/hal/demo/..//at91/lib\libAt91D.a(USBConfigurationDescriptor.o)
 .text          0x00000000        0x0 C:/Users/user1/Documents/hoopoe-2/hal/demo/..//at91/lib\libAt91D.a(USBEndpointDescriptor.o)
 .data          0x00000000        0x0 C:/Users/user1/Documents/hoopoe-2/hal/demo/..//at91/lib\libAt91D.a(USBEndpointDescriptor.o)
 .bss           0x00000000        0x0 C:/Users/user1/Documents/hoopoe-2/hal/demo/..//at91/lib\libAt91D.a(USBEndpointDescriptor.o)
 .text          0x00000000        0x0 C:/Users/user1/Documents/hoopoe-2/hal/demo/..//at91/lib\libAt91D.a(USBGenericDescriptor.o)
 .data          0x00000000        0x0 C:/Users/user1/Documents/hoopoe-2/hal/demo/..//at91/lib\libAt91D.a(USBGenericDescriptor.o)
 .bss           0x00000000        0x0 C:/Users/user1/Documents/hoopoe-2/hal/demo/..//at91/lib\libAt91D.a(USBGenericDescriptor.o)
 .text          0x00000000        0x0 C:/Users/user1/Documents/hoopoe-2/hal/demo/..//at91/lib\libAt91D.a(USBGenericRequest.o)
 .data          0x00000000        0x0 C:/Users/user1/Documents/hoopoe-2/hal/demo/..//at91/lib\libAt91D.a(USBGenericRequest.o)
 .bss           0x00000000        0x0 C:/Users/user1/Documents/hoopoe-2/hal/demo/..//at91/lib\libAt91D.a(USBGenericRequest.o)
 .text          0x00000000        0x0 C:/Users/user1/Documents/hoopoe-2/hal/demo/..//at91/lib\libAt91D.a(USBGetDescriptorRequest.o)
 .data          0x00000000        0x0 C:/Users/user1/Documents/hoopoe-2/hal/demo/..//at91/lib\libAt91D.a(USBGetDescriptorRequest.o)
 .bss           0x00000000        0x0 C:/Users/user1/Documents/hoopoe-2/hal/demo/..//at91/lib\libAt91D.a(USBGetDescriptorRequest.o)
 .text          0x00000000        0x0 C:/Users/user1/Documents/hoopoe-2/hal/demo/..//at91/lib\libAt91D.a(HIDIdleRequest.o)
 .data          0x00000000        0x0 C:/Users/user1/Documents/hoopoe-2/hal/demo/..//at91/lib\libAt91D.a(HIDIdleRequest.o)
 .bss           0x00000000        0x0 C:/Users/user1/Documents/hoopoe-2/hal/demo/..//at91/lib\libAt91D.a(HIDIdleRequest.o)
 .text          0x00000000        0x0 C:/Users/user1/Documents/hoopoe-2/hal/demo/..//at91/lib\libAt91D.a(HIDReportRequest.o)
 .data          0x00000000        0x0 C:/Users/user1/Documents/hoopoe-2/hal/demo/..//at91/lib\libAt91D.a(HIDReportRequest.o)
 .bss           0x00000000        0x0 C:/Users/user1/Documents/hoopoe-2/hal/demo/..//at91/lib\libAt91D.a(HIDReportRequest.o)
 .text.HIDReportRequest_GetReportId
                0x00000000       0x2c C:/Users/user1/Documents/hoopoe-2/hal/demo/..//at91/lib\libAt91D.a(HIDReportRequest.o)
 .text          0x00000000        0x0 C:/Users/user1/Documents/hoopoe-2/hal/demo/..//at91/lib\libAt91D.a(USBDCallbacks_Initialized.o)
 .data          0x00000000        0x0 C:/Users/user1/Documents/hoopoe-2/hal/demo/..//at91/lib\libAt91D.a(USBDCallbacks_Initialized.o)
 .bss           0x00000000        0x0 C:/Users/user1/Documents/hoopoe-2/hal/demo/..//at91/lib\libAt91D.a(USBDCallbacks_Initialized.o)
 .text          0x00000000        0x0 C:/Users/user1/Documents/hoopoe-2/hal/demo/..//at91/lib\libAt91D.a(USBDCallbacks_Reset.o)
 .data          0x00000000        0x0 C:/Users/user1/Documents/hoopoe-2/hal/demo/..//at91/lib\libAt91D.a(USBDCallbacks_Reset.o)
 .bss           0x00000000        0x0 C:/Users/user1/Documents/hoopoe-2/hal/demo/..//at91/lib\libAt91D.a(USBDCallbacks_Reset.o)
 .text          0x00000000        0x0 C:/Users/user1/Documents/hoopoe-2/hal/demo/..//at91/lib\libAt91D.a(USBDDriver.o)
 .data          0x00000000        0x0 C:/Users/user1/Documents/hoopoe-2/hal/demo/..//at91/lib\libAt91D.a(USBDDriver.o)
 .bss           0x00000000        0x0 C:/Users/user1/Documents/hoopoe-2/hal/demo/..//at91/lib\libAt91D.a(USBDDriver.o)
 .text.USBDDriver_IsRemoteWakeUpEnabled
                0x00000000       0x28 C:/Users/user1/Documents/hoopoe-2/hal/demo/..//at91/lib\libAt91D.a(USBDDriver.o)
 .text          0x00000000        0x0 C:/Users/user1/Documents/hoopoe-2/hal/demo/..//at91/lib\libAt91D.a(USBDDriverCb_IfSettingChanged.o)
 .data          0x00000000        0x0 C:/Users/user1/Documents/hoopoe-2/hal/demo/..//at91/lib\libAt91D.a(USBDDriverCb_IfSettingChanged.o)
 .bss           0x00000000        0x0 C:/Users/user1/Documents/hoopoe-2/hal/demo/..//at91/lib\libAt91D.a(USBDDriverCb_IfSettingChanged.o)
 .text          0x00000000        0x0 C:/Users/user1/Documents/hoopoe-2/hal/demo/..//at91/lib\libAt91D.a(USBFeatureRequest.o)
 .data          0x00000000        0x0 C:/Users/user1/Documents/hoopoe-2/hal/demo/..//at91/lib\libAt91D.a(USBFeatureRequest.o)
 .bss           0x00000000        0x0 C:/Users/user1/Documents/hoopoe-2/hal/demo/..//at91/lib\libAt91D.a(USBFeatureRequest.o)
 .text.USBFeatureRequest_GetTestSelector
                0x00000000       0x38 C:/Users/user1/Documents/hoopoe-2/hal/demo/..//at91/lib\libAt91D.a(USBFeatureRequest.o)
 .text          0x00000000        0x0 C:/Users/user1/Documents/hoopoe-2/hal/demo/..//at91/lib\libAt91D.a(USBInterfaceRequest.o)
 .data          0x00000000        0x0 C:/Users/user1/Documents/hoopoe-2/hal/demo/..//at91/lib\libAt91D.a(USBInterfaceRequest.o)
 .bss           0x00000000        0x0 C:/Users/user1/Documents/hoopoe-2/hal/demo/..//at91/lib\libAt91D.a(USBInterfaceRequest.o)
 .text          0x00000000        0x0 C:/Users/user1/Documents/hoopoe-2/hal/demo/..//at91/lib\libAt91D.a(USBSetAddressRequest.o)
 .data          0x00000000        0x0 C:/Users/user1/Documents/hoopoe-2/hal/demo/..//at91/lib\libAt91D.a(USBSetAddressRequest.o)
 .bss           0x00000000        0x0 C:/Users/user1/Documents/hoopoe-2/hal/demo/..//at91/lib\libAt91D.a(USBSetAddressRequest.o)
 .text          0x00000000        0x0 C:/Users/user1/Documents/hoopoe-2/hal/demo/..//at91/lib\libAt91D.a(USBSetConfigurationRequest.o)
 .data          0x00000000        0x0 C:/Users/user1/Documents/hoopoe-2/hal/demo/..//at91/lib\libAt91D.a(USBSetConfigurationRequest.o)
 .bss           0x00000000        0x0 C:/Users/user1/Documents/hoopoe-2/hal/demo/..//at91/lib\libAt91D.a(USBSetConfigurationRequest.o)
 .data          0x00000000        0x0 c:/isis/application/toolchain/bin/../lib/gcc/arm-none-eabi/4.7.4\libgcc.a(_udivsi3.o)
 .bss           0x00000000        0x0 c:/isis/application/toolchain/bin/../lib/gcc/arm-none-eabi/4.7.4\libgcc.a(_udivsi3.o)
 .data          0x00000000        0x0 c:/isis/application/toolchain/bin/../lib/gcc/arm-none-eabi/4.7.4\libgcc.a(_divsi3.o)
 .bss           0x00000000        0x0 c:/isis/application/toolchain/bin/../lib/gcc/arm-none-eabi/4.7.4\libgcc.a(_divsi3.o)
 .data          0x00000000        0x0 c:/isis/application/toolchain/bin/../lib/gcc/arm-none-eabi/4.7.4\libgcc.a(_dvmd_tls.o)
 .bss           0x00000000        0x0 c:/isis/application/toolchain/bin/../lib/gcc/arm-none-eabi/4.7.4\libgcc.a(_dvmd_tls.o)
 .data          0x00000000        0x0 c:/isis/application/toolchain/bin/../lib/gcc/arm-none-eabi/4.7.4\libgcc.a(_arm_addsubdf3.o)
 .bss           0x00000000        0x0 c:/isis/application/toolchain/bin/../lib/gcc/arm-none-eabi/4.7.4\libgcc.a(_arm_addsubdf3.o)
 .data          0x00000000        0x0 c:/isis/application/toolchain/bin/../lib/gcc/arm-none-eabi/4.7.4\libgcc.a(_arm_muldivdf3.o)
 .bss           0x00000000        0x0 c:/isis/application/toolchain/bin/../lib/gcc/arm-none-eabi/4.7.4\libgcc.a(_arm_muldivdf3.o)
 .data          0x00000000        0x0 c:/isis/application/toolchain/bin/../lib/gcc/arm-none-eabi/4.7.4\libgcc.a(_arm_cmpdf2.o)
 .bss           0x00000000        0x0 c:/isis/application/toolchain/bin/../lib/gcc/arm-none-eabi/4.7.4\libgcc.a(_arm_cmpdf2.o)
 .data          0x00000000        0x0 c:/isis/application/toolchain/bin/../lib/gcc/arm-none-eabi/4.7.4\libgcc.a(_arm_fixdfsi.o)
 .bss           0x00000000        0x0 c:/isis/application/toolchain/bin/../lib/gcc/arm-none-eabi/4.7.4\libgcc.a(_arm_fixdfsi.o)
 .data          0x00000000        0x0 c:/isis/application/toolchain/bin/../lib/gcc/arm-none-eabi/4.7.4\libgcc.a(_arm_fixunsdfsi.o)
 .bss           0x00000000        0x0 c:/isis/application/toolchain/bin/../lib/gcc/arm-none-eabi/4.7.4\libgcc.a(_arm_fixunsdfsi.o)
 .data          0x00000000        0x0 c:/isis/application/toolchain/bin/../lib/gcc/arm-none-eabi/4.7.4\libgcc.a(_arm_truncdfsf2.o)
 .bss           0x00000000        0x0 c:/isis/application/toolchain/bin/../lib/gcc/arm-none-eabi/4.7.4\libgcc.a(_arm_truncdfsf2.o)
 .data          0x00000000        0x0 c:/isis/application/toolchain/bin/../lib/gcc/arm-none-eabi/4.7.4\libgcc.a(_arm_addsubsf3.o)
 .bss           0x00000000        0x0 c:/isis/application/toolchain/bin/../lib/gcc/arm-none-eabi/4.7.4\libgcc.a(_arm_addsubsf3.o)
 .data          0x00000000        0x0 c:/isis/application/toolchain/bin/../lib/gcc/arm-none-eabi/4.7.4\libgcc.a(_arm_muldivsf3.o)
 .bss           0x00000000        0x0 c:/isis/application/toolchain/bin/../lib/gcc/arm-none-eabi/4.7.4\libgcc.a(_arm_muldivsf3.o)
 .data          0x00000000        0x0 c:/isis/application/toolchain/bin/../lib/gcc/arm-none-eabi/4.7.4\libgcc.a(_arm_cmpsf2.o)
 .bss           0x00000000        0x0 c:/isis/application/toolchain/bin/../lib/gcc/arm-none-eabi/4.7.4\libgcc.a(_arm_cmpsf2.o)
 .data          0x00000000        0x0 c:/isis/application/toolchain/bin/../lib/gcc/arm-none-eabi/4.7.4\libgcc.a(_arm_fixsfsi.o)
 .bss           0x00000000        0x0 c:/isis/application/toolchain/bin/../lib/gcc/arm-none-eabi/4.7.4\libgcc.a(_arm_fixsfsi.o)
 .data          0x00000000        0x0 c:/isis/application/toolchain/bin/../lib/gcc/arm-none-eabi/4.7.4\libgcc.a(_arm_fixunssfsi.o)
 .bss           0x00000000        0x0 c:/isis/application/toolchain/bin/../lib/gcc/arm-none-eabi/4.7.4\libgcc.a(_arm_fixunssfsi.o)
 .text          0x00000000        0x0 c:/isis/application/toolchain/bin/../lib/gcc/arm-none-eabi/4.7.4/../../../../arm-none-eabi/lib\libc_s.a(lib_a-errno.o)
 .data          0x00000000        0x0 c:/isis/application/toolchain/bin/../lib/gcc/arm-none-eabi/4.7.4/../../../../arm-none-eabi/lib\libc_s.a(lib_a-errno.o)
 .bss           0x00000000        0x0 c:/isis/application/toolchain/bin/../lib/gcc/arm-none-eabi/4.7.4/../../../../arm-none-eabi/lib\libc_s.a(lib_a-errno.o)
 .text          0x00000000        0x0 c:/isis/application/toolchain/bin/../lib/gcc/arm-none-eabi/4.7.4/../../../../arm-none-eabi/lib\libc_s.a(lib_a-memcmp.o)
 .data          0x00000000        0x0 c:/isis/application/toolchain/bin/../lib/gcc/arm-none-eabi/4.7.4/../../../../arm-none-eabi/lib\libc_s.a(lib_a-memcmp.o)
 .bss           0x00000000        0x0 c:/isis/application/toolchain/bin/../lib/gcc/arm-none-eabi/4.7.4/../../../../arm-none-eabi/lib\libc_s.a(lib_a-memcmp.o)
 .text          0x00000000        0x0 c:/isis/application/toolchain/bin/../lib/gcc/arm-none-eabi/4.7.4/../../../../arm-none-eabi/lib\libc_s.a(lib_a-printf.o)
 .data          0x00000000        0x0 c:/isis/application/toolchain/bin/../lib/gcc/arm-none-eabi/4.7.4/../../../../arm-none-eabi/lib\libc_s.a(lib_a-printf.o)
 .bss           0x00000000        0x0 c:/isis/application/toolchain/bin/../lib/gcc/arm-none-eabi/4.7.4/../../../../arm-none-eabi/lib\libc_s.a(lib_a-printf.o)
 .text._printf_r
                0x00000000       0x40 c:/isis/application/toolchain/bin/../lib/gcc/arm-none-eabi/4.7.4/../../../../arm-none-eabi/lib\libc_s.a(lib_a-printf.o)
 .text          0x00000000        0x0 c:/isis/application/toolchain/bin/../lib/gcc/arm-none-eabi/4.7.4/../../../../arm-none-eabi/lib\libc_s.a(lib_a-puts.o)
 .data          0x00000000        0x0 c:/isis/application/toolchain/bin/../lib/gcc/arm-none-eabi/4.7.4/../../../../arm-none-eabi/lib\libc_s.a(lib_a-puts.o)
 .bss           0x00000000        0x0 c:/isis/application/toolchain/bin/../lib/gcc/arm-none-eabi/4.7.4/../../../../arm-none-eabi/lib\libc_s.a(lib_a-puts.o)
 .text._puts_r  0x00000000       0x58 c:/isis/application/toolchain/bin/../lib/gcc/arm-none-eabi/4.7.4/../../../../arm-none-eabi/lib\libc_s.a(lib_a-puts.o)
 .text          0x00000000        0x0 c:/isis/application/toolchain/bin/../lib/gcc/arm-none-eabi/4.7.4/../../../../arm-none-eabi/lib\libc_s.a(lib_a-strnlen.o)
 .data          0x00000000        0x0 c:/isis/application/toolchain/bin/../lib/gcc/arm-none-eabi/4.7.4/../../../../arm-none-eabi/lib\libc_s.a(lib_a-strnlen.o)
 .bss           0x00000000        0x0 c:/isis/application/toolchain/bin/../lib/gcc/arm-none-eabi/4.7.4/../../../../arm-none-eabi/lib\libc_s.a(lib_a-strnlen.o)
 .text          0x00000000        0x0 c:/isis/application/toolchain/bin/../lib/gcc/arm-none-eabi/4.7.4/../../../../arm-none-eabi/lib\libc_s.a(lib_a-vfprintf.o)
 .data          0x00000000        0x0 c:/isis/application/toolchain/bin/../lib/gcc/arm-none-eabi/4.7.4/../../../../arm-none-eabi/lib\libc_s.a(lib_a-vfprintf.o)
 .bss           0x00000000        0x0 c:/isis/application/toolchain/bin/../lib/gcc/arm-none-eabi/4.7.4/../../../../arm-none-eabi/lib\libc_s.a(lib_a-vfprintf.o)
 .text.__sprint_r
                0x00000000       0xb0 c:/isis/application/toolchain/bin/../lib/gcc/arm-none-eabi/4.7.4/../../../../arm-none-eabi/lib\libc_s.a(lib_a-vfprintf.o)
 .text.vfprintf
                0x00000000       0x2c c:/isis/application/toolchain/bin/../lib/gcc/arm-none-eabi/4.7.4/../../../../arm-none-eabi/lib\libc_s.a(lib_a-vfprintf.o)
 .text          0x00000000        0x0 c:/isis/application/toolchain/bin/../lib/gcc/arm-none-eabi/4.7.4/../../../../arm-none-eabi/lib\libc_s.a(lib_a-wbuf.o)
 .data          0x00000000        0x0 c:/isis/application/toolchain/bin/../lib/gcc/arm-none-eabi/4.7.4/../../../../arm-none-eabi/lib\libc_s.a(lib_a-wbuf.o)
 .bss           0x00000000        0x0 c:/isis/application/toolchain/bin/../lib/gcc/arm-none-eabi/4.7.4/../../../../arm-none-eabi/lib\libc_s.a(lib_a-wbuf.o)
 .text.__swbuf  0x00000000       0x1c c:/isis/application/toolchain/bin/../lib/gcc/arm-none-eabi/4.7.4/../../../../arm-none-eabi/lib\libc_s.a(lib_a-wbuf.o)
 .text          0x00000000        0x0 c:/isis/application/toolchain/bin/../lib/gcc/arm-none-eabi/4.7.4/../../../../arm-none-eabi/lib\libc_s.a(lib_a-wsetup.o)
 .data          0x00000000        0x0 c:/isis/application/toolchain/bin/../lib/gcc/arm-none-eabi/4.7.4/../../../../arm-none-eabi/lib\libc_s.a(lib_a-wsetup.o)
 .bss           0x00000000        0x0 c:/isis/application/toolchain/bin/../lib/gcc/arm-none-eabi/4.7.4/../../../../arm-none-eabi/lib\libc_s.a(lib_a-wsetup.o)
 .text          0x00000000        0x0 c:/isis/application/toolchain/bin/../lib/gcc/arm-none-eabi/4.7.4/../../../../arm-none-eabi/lib\libc_s.a(lib_a-fflush.o)
 .data          0x00000000        0x0 c:/isis/application/toolchain/bin/../lib/gcc/arm-none-eabi/4.7.4/../../../../arm-none-eabi/lib\libc_s.a(lib_a-fflush.o)
 .bss           0x00000000        0x0 c:/isis/application/toolchain/bin/../lib/gcc/arm-none-eabi/4.7.4/../../../../arm-none-eabi/lib\libc_s.a(lib_a-fflush.o)
 .text.fflush   0x00000000       0x40 c:/isis/application/toolchain/bin/../lib/gcc/arm-none-eabi/4.7.4/../../../../arm-none-eabi/lib\libc_s.a(lib_a-fflush.o)
 .text          0x00000000        0x0 c:/isis/application/toolchain/bin/../lib/gcc/arm-none-eabi/4.7.4/../../../../arm-none-eabi/lib\libc_s.a(lib_a-findfp.o)
 .data          0x00000000        0x0 c:/isis/application/toolchain/bin/../lib/gcc/arm-none-eabi/4.7.4/../../../../arm-none-eabi/lib\libc_s.a(lib_a-findfp.o)
 .bss           0x00000000        0x0 c:/isis/application/toolchain/bin/../lib/gcc/arm-none-eabi/4.7.4/../../../../arm-none-eabi/lib\libc_s.a(lib_a-findfp.o)
 .text.__fp_lock
                0x00000000        0x8 c:/isis/application/toolchain/bin/../lib/gcc/arm-none-eabi/4.7.4/../../../../arm-none-eabi/lib\libc_s.a(lib_a-findfp.o)
 .text.__fp_unlock
                0x00000000        0x8 c:/isis/application/toolchain/bin/../lib/gcc/arm-none-eabi/4.7.4/../../../../arm-none-eabi/lib\libc_s.a(lib_a-findfp.o)
 .text._cleanup
                0x00000000       0x10 c:/isis/application/toolchain/bin/../lib/gcc/arm-none-eabi/4.7.4/../../../../arm-none-eabi/lib\libc_s.a(lib_a-findfp.o)
 .text.__sfp_lock_acquire
                0x00000000        0x4 c:/isis/application/toolchain/bin/../lib/gcc/arm-none-eabi/4.7.4/../../../../arm-none-eabi/lib\libc_s.a(lib_a-findfp.o)
 .text.__sfp_lock_release
                0x00000000        0x4 c:/isis/application/toolchain/bin/../lib/gcc/arm-none-eabi/4.7.4/../../../../arm-none-eabi/lib\libc_s.a(lib_a-findfp.o)
 .text.__sinit_lock_acquire
                0x00000000        0x4 c:/isis/application/toolchain/bin/../lib/gcc/arm-none-eabi/4.7.4/../../../../arm-none-eabi/lib\libc_s.a(lib_a-findfp.o)
 .text.__sinit_lock_release
                0x00000000        0x4 c:/isis/application/toolchain/bin/../lib/gcc/arm-none-eabi/4.7.4/../../../../arm-none-eabi/lib\libc_s.a(lib_a-findfp.o)
 .text.__fp_lock_all
                0x00000000       0x24 c:/isis/application/toolchain/bin/../lib/gcc/arm-none-eabi/4.7.4/../../../../arm-none-eabi/lib\libc_s.a(lib_a-findfp.o)
 .text.__fp_unlock_all
                0x00000000       0x24 c:/isis/application/toolchain/bin/../lib/gcc/arm-none-eabi/4.7.4/../../../../arm-none-eabi/lib\libc_s.a(lib_a-findfp.o)
 .text          0x00000000        0x0 c:/isis/application/toolchain/bin/../lib/gcc/arm-none-eabi/4.7.4/../../../../arm-none-eabi/lib\libc_s.a(lib_a-fputwc.o)
 .data          0x00000000        0x0 c:/isis/application/toolchain/bin/../lib/gcc/arm-none-eabi/4.7.4/../../../../arm-none-eabi/lib\libc_s.a(lib_a-fputwc.o)
 .bss           0x00000000        0x0 c:/isis/application/toolchain/bin/../lib/gcc/arm-none-eabi/4.7.4/../../../../arm-none-eabi/lib\libc_s.a(lib_a-fputwc.o)
 .text._fputwc_r
                0x00000000      0x138 c:/isis/application/toolchain/bin/../lib/gcc/arm-none-eabi/4.7.4/../../../../arm-none-eabi/lib\libc_s.a(lib_a-fputwc.o)
 .text.fputwc   0x00000000       0x84 c:/isis/application/toolchain/bin/../lib/gcc/arm-none-eabi/4.7.4/../../../../arm-none-eabi/lib\libc_s.a(lib_a-fputwc.o)
 .ARM.attributes
                0x00000000       0x30 c:/isis/application/toolchain/bin/../lib/gcc/arm-none-eabi/4.7.4/../../../../arm-none-eabi/lib\libc_s.a(lib_a-fputwc.o)
 .debug_frame   0x00000000       0x50 c:/isis/application/toolchain/bin/../lib/gcc/arm-none-eabi/4.7.4/../../../../arm-none-eabi/lib\libc_s.a(lib_a-fputwc.o)
 .text          0x00000000        0x0 c:/isis/application/toolchain/bin/../lib/gcc/arm-none-eabi/4.7.4/../../../../arm-none-eabi/lib\libc_s.a(lib_a-fvwrite.o)
 .data          0x00000000        0x0 c:/isis/application/toolchain/bin/../lib/gcc/arm-none-eabi/4.7.4/../../../../arm-none-eabi/lib\libc_s.a(lib_a-fvwrite.o)
 .bss           0x00000000        0x0 c:/isis/application/toolchain/bin/../lib/gcc/arm-none-eabi/4.7.4/../../../../arm-none-eabi/lib\libc_s.a(lib_a-fvwrite.o)
 .text.__sfvwrite_r
                0x00000000      0x460 c:/isis/application/toolchain/bin/../lib/gcc/arm-none-eabi/4.7.4/../../../../arm-none-eabi/lib\libc_s.a(lib_a-fvwrite.o)
 .ARM.attributes
                0x00000000       0x30 c:/isis/application/toolchain/bin/../lib/gcc/arm-none-eabi/4.7.4/../../../../arm-none-eabi/lib\libc_s.a(lib_a-fvwrite.o)
 .debug_frame   0x00000000       0x38 c:/isis/application/toolchain/bin/../lib/gcc/arm-none-eabi/4.7.4/../../../../arm-none-eabi/lib\libc_s.a(lib_a-fvwrite.o)
 .text          0x00000000        0x0 c:/isis/application/toolchain/bin/../lib/gcc/arm-none-eabi/4.7.4/../../../../arm-none-eabi/lib\libc_s.a(lib_a-fwalk.o)
 .data          0x00000000        0x0 c:/isis/application/toolchain/bin/../lib/gcc/arm-none-eabi/4.7.4/../../../../arm-none-eabi/lib\libc_s.a(lib_a-fwalk.o)
 .bss           0x00000000        0x0 c:/isis/application/toolchain/bin/../lib/gcc/arm-none-eabi/4.7.4/../../../../arm-none-eabi/lib\libc_s.a(lib_a-fwalk.o)
 .text._fwalk   0x00000000       0x78 c:/isis/application/toolchain/bin/../lib/gcc/arm-none-eabi/4.7.4/../../../../arm-none-eabi/lib\libc_s.a(lib_a-fwalk.o)
 .text._fwalk_reent
                0x00000000       0x7c c:/isis/application/toolchain/bin/../lib/gcc/arm-none-eabi/4.7.4/../../../../arm-none-eabi/lib\libc_s.a(lib_a-fwalk.o)
 .ARM.attributes
                0x00000000       0x30 c:/isis/application/toolchain/bin/../lib/gcc/arm-none-eabi/4.7.4/../../../../arm-none-eabi/lib\libc_s.a(lib_a-fwalk.o)
 .debug_frame   0x00000000       0x54 c:/isis/application/toolchain/bin/../lib/gcc/arm-none-eabi/4.7.4/../../../../arm-none-eabi/lib\libc_s.a(lib_a-fwalk.o)
 .text          0x00000000        0x0 c:/isis/application/toolchain/bin/../lib/gcc/arm-none-eabi/4.7.4/../../../../arm-none-eabi/lib\libc_s.a(lib_a-makebuf.o)
 .data          0x00000000        0x0 c:/isis/application/toolchain/bin/../lib/gcc/arm-none-eabi/4.7.4/../../../../arm-none-eabi/lib\libc_s.a(lib_a-makebuf.o)
 .bss           0x00000000        0x0 c:/isis/application/toolchain/bin/../lib/gcc/arm-none-eabi/4.7.4/../../../../arm-none-eabi/lib\libc_s.a(lib_a-makebuf.o)
 .text          0x00000000        0x0 c:/isis/application/toolchain/bin/../lib/gcc/arm-none-eabi/4.7.4/../../../../arm-none-eabi/lib\libc_s.a(lib_a-putc.o)
 .data          0x00000000        0x0 c:/isis/application/toolchain/bin/../lib/gcc/arm-none-eabi/4.7.4/../../../../arm-none-eabi/lib\libc_s.a(lib_a-putc.o)
 .bss           0x00000000        0x0 c:/isis/application/toolchain/bin/../lib/gcc/arm-none-eabi/4.7.4/../../../../arm-none-eabi/lib\libc_s.a(lib_a-putc.o)
 .text.putc     0x00000000       0x1c c:/isis/application/toolchain/bin/../lib/gcc/arm-none-eabi/4.7.4/../../../../arm-none-eabi/lib\libc_s.a(lib_a-putc.o)
 .text          0x00000000        0x0 c:/isis/application/toolchain/bin/../lib/gcc/arm-none-eabi/4.7.4/../../../../arm-none-eabi/lib\libc_s.a(lib_a-stdio.o)
 .data          0x00000000        0x0 c:/isis/application/toolchain/bin/../lib/gcc/arm-none-eabi/4.7.4/../../../../arm-none-eabi/lib\libc_s.a(lib_a-stdio.o)
 .bss           0x00000000        0x0 c:/isis/application/toolchain/bin/../lib/gcc/arm-none-eabi/4.7.4/../../../../arm-none-eabi/lib\libc_s.a(lib_a-stdio.o)
 .text.__seofread
                0x00000000        0x8 c:/isis/application/toolchain/bin/../lib/gcc/arm-none-eabi/4.7.4/../../../../arm-none-eabi/lib\libc_s.a(lib_a-stdio.o)
 .text          0x00000000        0x0 c:/isis/application/toolchain/bin/../lib/gcc/arm-none-eabi/4.7.4/../../../../arm-none-eabi/lib\libc_s.a(lib_a-wcrtomb.o)
 .data          0x00000000        0x0 c:/isis/application/toolchain/bin/../lib/gcc/arm-none-eabi/4.7.4/../../../../arm-none-eabi/lib\libc_s.a(lib_a-wcrtomb.o)
 .bss           0x00000000        0x0 c:/isis/application/toolchain/bin/../lib/gcc/arm-none-eabi/4.7.4/../../../../arm-none-eabi/lib\libc_s.a(lib_a-wcrtomb.o)
 .text._wcrtomb_r
                0x00000000       0x84 c:/isis/application/toolchain/bin/../lib/gcc/arm-none-eabi/4.7.4/../../../../arm-none-eabi/lib\libc_s.a(lib_a-wcrtomb.o)
 .text.wcrtomb  0x00000000       0x2c c:/isis/application/toolchain/bin/../lib/gcc/arm-none-eabi/4.7.4/../../../../arm-none-eabi/lib\libc_s.a(lib_a-wcrtomb.o)
 .ARM.attributes
                0x00000000       0x30 c:/isis/application/toolchain/bin/../lib/gcc/arm-none-eabi/4.7.4/../../../../arm-none-eabi/lib\libc_s.a(lib_a-wcrtomb.o)
 .debug_frame   0x00000000       0x4c c:/isis/application/toolchain/bin/../lib/gcc/arm-none-eabi/4.7.4/../../../../arm-none-eabi/lib\libc_s.a(lib_a-wcrtomb.o)
 .text          0x00000000        0x0 c:/isis/application/toolchain/bin/../lib/gcc/arm-none-eabi/4.7.4/../../../../arm-none-eabi/lib\libc_s.a(lib_a-wctomb_r.o)
 .data          0x00000000        0x0 c:/isis/application/toolchain/bin/../lib/gcc/arm-none-eabi/4.7.4/../../../../arm-none-eabi/lib\libc_s.a(lib_a-wctomb_r.o)
 .bss           0x00000000        0x0 c:/isis/application/toolchain/bin/../lib/gcc/arm-none-eabi/4.7.4/../../../../arm-none-eabi/lib\libc_s.a(lib_a-wctomb_r.o)
 .text.__ascii_wctomb
                0x00000000       0x2c c:/isis/application/toolchain/bin/../lib/gcc/arm-none-eabi/4.7.4/../../../../arm-none-eabi/lib\libc_s.a(lib_a-wctomb_r.o)
 .text._wctomb_r
                0x00000000       0x48 c:/isis/application/toolchain/bin/../lib/gcc/arm-none-eabi/4.7.4/../../../../arm-none-eabi/lib\libc_s.a(lib_a-wctomb_r.o)
 .data.__wctomb
                0x00000000        0x4 c:/isis/application/toolchain/bin/../lib/gcc/arm-none-eabi/4.7.4/../../../../arm-none-eabi/lib\libc_s.a(lib_a-wctomb_r.o)
 .ARM.attributes
                0x00000000       0x30 c:/isis/application/toolchain/bin/../lib/gcc/arm-none-eabi/4.7.4/../../../../arm-none-eabi/lib\libc_s.a(lib_a-wctomb_r.o)
 .debug_frame   0x00000000       0x44 c:/isis/application/toolchain/bin/../lib/gcc/arm-none-eabi/4.7.4/../../../../arm-none-eabi/lib\libc_s.a(lib_a-wctomb_r.o)
 .text          0x00000000        0x0 c:/isis/application/toolchain/bin/../lib/gcc/arm-none-eabi/4.7.4/../../../../arm-none-eabi/lib\libc_s.a(lib_a-writer.o)
 .data          0x00000000        0x0 c:/isis/application/toolchain/bin/../lib/gcc/arm-none-eabi/4.7.4/../../../../arm-none-eabi/lib\libc_s.a(lib_a-writer.o)
 .bss           0x00000000        0x0 c:/isis/application/toolchain/bin/../lib/gcc/arm-none-eabi/4.7.4/../../../../arm-none-eabi/lib\libc_s.a(lib_a-writer.o)
 .text          0x00000000        0x0 c:/isis/application/toolchain/bin/../lib/gcc/arm-none-eabi/4.7.4/../../../../arm-none-eabi/lib\libc_s.a(lib_a-closer.o)
 .data          0x00000000        0x0 c:/isis/application/toolchain/bin/../lib/gcc/arm-none-eabi/4.7.4/../../../../arm-none-eabi/lib\libc_s.a(lib_a-closer.o)
 .bss           0x00000000        0x0 c:/isis/application/toolchain/bin/../lib/gcc/arm-none-eabi/4.7.4/../../../../arm-none-eabi/lib\libc_s.a(lib_a-closer.o)
 .text          0x00000000        0x0 c:/isis/application/toolchain/bin/../lib/gcc/arm-none-eabi/4.7.4/../../../../arm-none-eabi/lib\libc_s.a(lib_a-fstatr.o)
 .data          0x00000000        0x0 c:/isis/application/toolchain/bin/../lib/gcc/arm-none-eabi/4.7.4/../../../../arm-none-eabi/lib\libc_s.a(lib_a-fstatr.o)
 .bss           0x00000000        0x0 c:/isis/application/toolchain/bin/../lib/gcc/arm-none-eabi/4.7.4/../../../../arm-none-eabi/lib\libc_s.a(lib_a-fstatr.o)
 .text          0x00000000        0x0 c:/isis/application/toolchain/bin/../lib/gcc/arm-none-eabi/4.7.4/../../../../arm-none-eabi/lib\libc_s.a(lib_a-isattyr.o)
 .data          0x00000000        0x0 c:/isis/application/toolchain/bin/../lib/gcc/arm-none-eabi/4.7.4/../../../../arm-none-eabi/lib\libc_s.a(lib_a-isattyr.o)
 .bss           0x00000000        0x0 c:/isis/application/toolchain/bin/../lib/gcc/arm-none-eabi/4.7.4/../../../../arm-none-eabi/lib\libc_s.a(lib_a-isattyr.o)
 .text          0x00000000        0x0 c:/isis/application/toolchain/bin/../lib/gcc/arm-none-eabi/4.7.4/../../../../arm-none-eabi/lib\libc_s.a(lib_a-lseekr.o)
 .data          0x00000000        0x0 c:/isis/application/toolchain/bin/../lib/gcc/arm-none-eabi/4.7.4/../../../../arm-none-eabi/lib\libc_s.a(lib_a-lseekr.o)
 .bss           0x00000000        0x0 c:/isis/application/toolchain/bin/../lib/gcc/arm-none-eabi/4.7.4/../../../../arm-none-eabi/lib\libc_s.a(lib_a-lseekr.o)
 .text          0x00000000        0x0 c:/isis/application/toolchain/bin/../lib/gcc/arm-none-eabi/4.7.4/../../../../arm-none-eabi/lib\libc_s.a(lib_a-readr.o)
 .data          0x00000000        0x0 c:/isis/application/toolchain/bin/../lib/gcc/arm-none-eabi/4.7.4/../../../../arm-none-eabi/lib\libc_s.a(lib_a-readr.o)
 .bss           0x00000000        0x0 c:/isis/application/toolchain/bin/../lib/gcc/arm-none-eabi/4.7.4/../../../../arm-none-eabi/lib\libc_s.a(lib_a-readr.o)

Memory Configuration

Name             Origin             Length             Attributes
sram0            0x00200000         0x00004000         w !xr
sram1            0x00300000         0x00004000         w !xr
sdram            0x20000000         0x02000000         w !xr
*default*        0x00000000         0xffffffff

Linker script and memory map

LOAD c:/isis/application/toolchain/bin/../lib/gcc/arm-none-eabi/4.7.4/../../../../arm-none-eabi/lib\libc_s.a
LOAD ./src/Tests/ADCtest.o
LOAD ./src/Tests/FloatingPointTest.o
LOAD ./src/Tests/I2CslaveTest.o
LOAD ./src/Tests/I2Ctest.o
LOAD ./src/Tests/LEDtest.o
LOAD ./src/Tests/PWMtest.o
LOAD ./src/Tests/PinTest.o
LOAD ./src/Tests/SDCardTest.o
LOAD ./src/Tests/SPI_FRAM_RTCtest.o
LOAD ./src/Tests/SupervisorTest.o
LOAD ./src/Tests/ThermalTest.o
LOAD ./src/Tests/TimeTest.o
LOAD ./src/Tests/UARTtest.o
LOAD ./src/Tests/USBdeviceTest.o
LOAD ./src/Tests/boardTest.o
LOAD ./src/Tests/checksumTest.o
LOAD ./src/Demo/demo_sd.o
LOAD ./src/Demo/demo_uart.o
LOAD ./src/freertos_hooks.o
LOAD ./src/main.o
LOAD C:/Users/user1/Documents/hoopoe-2/hal/demo/..//hcc/lib\libHCCD.a
LOAD C:/Users/user1/Documents/hoopoe-2/hal/demo/..//hal/lib\libHALD.a
LOAD C:/Users/user1/Documents/hoopoe-2/hal/demo/..//freertos/lib\libFreeRTOSD.a
LOAD C:/Users/user1/Documents/hoopoe-2/hal/demo/..//at91/lib\libAt91D.a
START GROUP
LOAD c:/isis/application/toolchain/bin/../lib/gcc/arm-none-eabi/4.7.4\libgcc.a
LOAD c:/isis/application/toolchain/bin/../lib/gcc/arm-none-eabi/4.7.4/../../../../arm-none-eabi/lib\libc_s.a
END GROUP

.fixed          0x20000000    0x4c690
                0x20000000                . = ALIGN (0x4)
                0x20000000                _sfixed = .
 *(.startup)
 .startup       0x20000000      0x134 C:/Users/user1/Documents/hoopoe-2/hal/demo/..//at91/lib\libAt91D.a(board_cstartup.o)
                0x20000000                entry
 *(.text)
 .text          0x20000134       0x64 C:/Users/user1/Documents/hoopoe-2/hal/demo/..//at91/lib\libAt91D.a(cp15_asm.o)
                0x20000134                _readControlRegister
                0x20000140                _writeControlRegister
                0x20000148                _waitForInterrupt
                0x20000154                _writeTTB
                0x2000015c                _writeDomain
                0x20000164                _writeITLBLockdown
                0x2000016c                _prefetchICacheLine
                0x20000174                _flushDCache
                0x20000180                _flushWriteBuffer
                0x2000018c                _invalidateIDTLBs
 .text          0x20000198      0x114 c:/isis/application/toolchain/bin/../lib/gcc/arm-none-eabi/4.7.4\libgcc.a(_udivsi3.o)
                0x20000198                __aeabi_uidiv
                0x20000198                __udivsi3
                0x2000028c                __aeabi_uidivmod
 .text          0x200002ac      0x148 c:/isis/application/toolchain/bin/../lib/gcc/arm-none-eabi/4.7.4\libgcc.a(_divsi3.o)
                0x200002ac                __divsi3
                0x200002ac                __aeabi_idiv
                0x200003d4                __aeabi_idivmod
 .text          0x200003f4        0x4 c:/isis/application/toolchain/bin/../lib/gcc/arm-none-eabi/4.7.4\libgcc.a(_dvmd_tls.o)
                0x200003f4                __aeabi_idiv0
                0x200003f4                __aeabi_ldiv0
 .text          0x200003f8      0x41c c:/isis/application/toolchain/bin/../lib/gcc/arm-none-eabi/4.7.4\libgcc.a(_arm_addsubdf3.o)
                0x200003f8                __aeabi_drsub
                0x20000400                __aeabi_dsub
                0x20000400                __subdf3
                0x20000404                __aeabi_dadd
                0x20000404                __adddf3
                0x20000714                __floatunsidf
                0x20000714                __aeabi_ui2d
                0x20000738                __floatsidf
                0x20000738                __aeabi_i2d
                0x20000760                __aeabi_f2d
                0x20000760                __extendsfdf2
                0x200007a0                __floatundidf
                0x200007a0                __aeabi_ul2d
                0x200007b4                __floatdidf
                0x200007b4                __aeabi_l2d
 .text          0x20000814      0x49c c:/isis/application/toolchain/bin/../lib/gcc/arm-none-eabi/4.7.4\libgcc.a(_arm_muldivdf3.o)
                0x20000814                __aeabi_dmul
                0x20000814                __muldf3
                0x20000aa4                __divdf3
                0x20000aa4                __aeabi_ddiv
 .text          0x20000cb0      0x144 c:/isis/application/toolchain/bin/../lib/gcc/arm-none-eabi/4.7.4\libgcc.a(_arm_cmpdf2.o)
                0x20000cb0                __gtdf2
                0x20000cb0                __gedf2
                0x20000cb8                __ltdf2
                0x20000cb8                __ledf2
                0x20000cc0                __nedf2
                0x20000cc0                __eqdf2
                0x20000cc0                __cmpdf2
                0x20000d48                __aeabi_cdrcmple
                0x20000d64                __aeabi_cdcmpeq
                0x20000d64                __aeabi_cdcmple
                0x20000d7c                __aeabi_dcmpeq
                0x20000d94                __aeabi_dcmplt
                0x20000dac                __aeabi_dcmple
                0x20000dc4                __aeabi_dcmpge
                0x20000ddc                __aeabi_dcmpgt
 .text          0x20000df4       0x5c c:/isis/application/toolchain/bin/../lib/gcc/arm-none-eabi/4.7.4\libgcc.a(_arm_fixdfsi.o)
                0x20000df4                __aeabi_d2iz
                0x20000df4                __fixdfsi
 .text          0x20000e50       0x54 c:/isis/application/toolchain/bin/../lib/gcc/arm-none-eabi/4.7.4\libgcc.a(_arm_fixunsdfsi.o)
                0x20000e50                __aeabi_d2uiz
                0x20000e50                __fixunsdfsi
 .text          0x20000ea4       0xa0 c:/isis/application/toolchain/bin/../lib/gcc/arm-none-eabi/4.7.4\libgcc.a(_arm_truncdfsf2.o)
                0x20000ea4                __truncdfsf2
                0x20000ea4                __aeabi_d2f
 .text          0x20000f44      0x2ac c:/isis/application/toolchain/bin/../lib/gcc/arm-none-eabi/4.7.4\libgcc.a(_arm_addsubsf3.o)
                0x20000f44                __aeabi_frsub
                0x20000f4c                __subsf3
                0x20000f4c                __aeabi_fsub
                0x20000f50                __aeabi_fadd
                0x20000f50                __addsf3
                0x2000110c                __aeabi_ui2f
                0x2000110c                __floatunsisf
                0x20001114                __aeabi_i2f
                0x20001114                __floatsisf
                0x20001134                __aeabi_ul2f
                0x20001134                __floatundisf
                0x20001144                __aeabi_l2f
                0x20001144                __floatdisf
 .text          0x200011f0      0x2f8 c:/isis/application/toolchain/bin/../lib/gcc/arm-none-eabi/4.7.4\libgcc.a(_arm_muldivsf3.o)
                0x200011f0                __mulsf3
                0x200011f0                __aeabi_fmul
                0x20001388                __aeabi_fdiv
                0x20001388                __divsf3
 .text          0x200014e8      0x114 c:/isis/application/toolchain/bin/../lib/gcc/arm-none-eabi/4.7.4\libgcc.a(_arm_cmpsf2.o)
                0x200014e8                __gesf2
                0x200014e8                __gtsf2
                0x200014f0                __lesf2
                0x200014f0                __ltsf2
                0x200014f8                __nesf2
                0x200014f8                __eqsf2
                0x200014f8                __cmpsf2
                0x2000155c                __aeabi_cfrcmple
                0x2000156c                __aeabi_cfcmpeq
                0x2000156c                __aeabi_cfcmple
                0x20001584                __aeabi_fcmpeq
                0x2000159c                __aeabi_fcmplt
                0x200015b4                __aeabi_fcmple
                0x200015cc                __aeabi_fcmpge
                0x200015e4                __aeabi_fcmpgt
 .text          0x200015fc       0x5c c:/isis/application/toolchain/bin/../lib/gcc/arm-none-eabi/4.7.4\libgcc.a(_arm_fixsfsi.o)
                0x200015fc                __aeabi_f2iz
                0x200015fc                __fixsfsi
 .text          0x20001658       0x54 c:/isis/application/toolchain/bin/../lib/gcc/arm-none-eabi/4.7.4\libgcc.a(_arm_fixunssfsi.o)
                0x20001658                __fixunssfsi
                0x20001658                __aeabi_f2uiz
 *(.text*)
 .text.__cvt    0x200016ac      0x138 c:/isis/application/toolchain/bin/../lib/gcc/arm-none-eabi/4.7.4/../../../../arm-none-eabi/lib\libc_s.a(lib_a-vfprintf_float.o)
                0x200016ac                __cvt
 .text.__exponent
                0x200017e4       0xa8 c:/isis/application/toolchain/bin/../lib/gcc/arm-none-eabi/4.7.4/../../../../arm-none-eabi/lib\libc_s.a(lib_a-vfprintf_float.o)
                0x200017e4                __exponent
 .text._printf_float
                0x2000188c      0x7dc c:/isis/application/toolchain/bin/../lib/gcc/arm-none-eabi/4.7.4/../../../../arm-none-eabi/lib\libc_s.a(lib_a-vfprintf_float.o)
                0x2000188c                _printf_float
 .text._printf_common
                0x20002068      0x174 c:/isis/application/toolchain/bin/../lib/gcc/arm-none-eabi/4.7.4/../../../../arm-none-eabi/lib\libc_s.a(lib_a-vfprintf_i.o)
                0x20002068                _printf_common
 .text._printf_i
                0x200021dc      0x3c4 c:/isis/application/toolchain/bin/../lib/gcc/arm-none-eabi/4.7.4/../../../../arm-none-eabi/lib\libc_s.a(lib_a-vfprintf_i.o)
                0x200021dc                _printf_i
 .text._scanf_float
                0x200025a0      0x5f4 c:/isis/application/toolchain/bin/../lib/gcc/arm-none-eabi/4.7.4/../../../../arm-none-eabi/lib\libc_s.a(lib_a-vfscanf_float.o)
                0x200025a0                _scanf_float
 .text.quorem   0x20002b94      0x1ac c:/isis/application/toolchain/bin/../lib/gcc/arm-none-eabi/4.7.4/../../../../arm-none-eabi/lib\libc_s.a(lib_a-dtoa.o)
 .text._dtoa_r  0x20002d40     0x1268 c:/isis/application/toolchain/bin/../lib/gcc/arm-none-eabi/4.7.4/../../../../arm-none-eabi/lib\libc_s.a(lib_a-dtoa.o)
                0x20002d40                _dtoa_r
 .text._localeconv_r
                0x20003fa8        0xc c:/isis/application/toolchain/bin/../lib/gcc/arm-none-eabi/4.7.4/../../../../arm-none-eabi/lib\libc_s.a(lib_a-locale.o)
                0x20003fa8                _localeconv_r
 .text.malloc   0x20003fb4       0x20 c:/isis/application/toolchain/bin/../lib/gcc/arm-none-eabi/4.7.4/../../../../arm-none-eabi/lib\libc_s.a(lib_a-malloc.o)
                0x20003fb4                malloc
 .text.free     0x20003fd4       0x20 c:/isis/application/toolchain/bin/../lib/gcc/arm-none-eabi/4.7.4/../../../../arm-none-eabi/lib\libc_s.a(lib_a-malloc.o)
                0x20003fd4                free
 .text._malloc_r
                0x20003ff4       0xfc c:/isis/application/toolchain/bin/../lib/gcc/arm-none-eabi/4.7.4/../../../../arm-none-eabi/lib\libc_s.a(lib_a-mallocr.o)
                0x20003ff4                _malloc_r
 .text.memcpy   0x200040f0       0x20 c:/isis/application/toolchain/bin/../lib/gcc/arm-none-eabi/4.7.4/../../../../arm-none-eabi/lib\libc_s.a(lib_a-memcpy.o)
                0x200040f0                memcpy
 .text._Balloc  0x20004110       0xcc c:/isis/application/toolchain/bin/../lib/gcc/arm-none-eabi/4.7.4/../../../../arm-none-eabi/lib\libc_s.a(lib_a-mprec.o)
                0x20004110                _Balloc
 .text._Bfree   0x200041dc       0x5c c:/isis/application/toolchain/bin/../lib/gcc/arm-none-eabi/4.7.4/../../../../arm-none-eabi/lib\libc_s.a(lib_a-mprec.o)
                0x200041dc                _Bfree
 .text.__multadd
                0x20004238       0xbc c:/isis/application/toolchain/bin/../lib/gcc/arm-none-eabi/4.7.4/../../../../arm-none-eabi/lib\libc_s.a(lib_a-mprec.o)
                0x20004238                __multadd
 .text.__s2b    0x200042f4       0xd8 c:/isis/application/toolchain/bin/../lib/gcc/arm-none-eabi/4.7.4/../../../../arm-none-eabi/lib\libc_s.a(lib_a-mprec.o)
                0x200042f4                __s2b
 .text.__hi0bits
                0x200043cc       0x58 c:/isis/application/toolchain/bin/../lib/gcc/arm-none-eabi/4.7.4/../../../../arm-none-eabi/lib\libc_s.a(lib_a-mprec.o)
                0x200043cc                __hi0bits
 .text.__lo0bits
                0x20004424       0x94 c:/isis/application/toolchain/bin/../lib/gcc/arm-none-eabi/4.7.4/../../../../arm-none-eabi/lib\libc_s.a(lib_a-mprec.o)
                0x20004424                __lo0bits
 .text.__i2b    0x200044b8       0x24 c:/isis/application/toolchain/bin/../lib/gcc/arm-none-eabi/4.7.4/../../../../arm-none-eabi/lib\libc_s.a(lib_a-mprec.o)
                0x200044b8                __i2b
 .text.__multiply
                0x200044dc      0x1ac c:/isis/application/toolchain/bin/../lib/gcc/arm-none-eabi/4.7.4/../../../../arm-none-eabi/lib\libc_s.a(lib_a-mprec.o)
                0x200044dc                __multiply
 .text.__pow5mult
                0x20004688      0x10c c:/isis/application/toolchain/bin/../lib/gcc/arm-none-eabi/4.7.4/../../../../arm-none-eabi/lib\libc_s.a(lib_a-mprec.o)
                0x20004688                __pow5mult
 .text.__lshift
                0x20004794       0xf0 c:/isis/application/toolchain/bin/../lib/gcc/arm-none-eabi/4.7.4/../../../../arm-none-eabi/lib\libc_s.a(lib_a-mprec.o)
                0x20004794                __lshift
 .text.__mcmp   0x20004884       0x60 c:/isis/application/toolchain/bin/../lib/gcc/arm-none-eabi/4.7.4/../../../../arm-none-eabi/lib\libc_s.a(lib_a-mprec.o)
                0x20004884                __mcmp
 .text.__mdiff  0x200048e4      0x128 c:/isis/application/toolchain/bin/../lib/gcc/arm-none-eabi/4.7.4/../../../../arm-none-eabi/lib\libc_s.a(lib_a-mprec.o)
                0x200048e4                __mdiff
 .text.__ulp    0x20004a0c       0x5c c:/isis/application/toolchain/bin/../lib/gcc/arm-none-eabi/4.7.4/../../../../arm-none-eabi/lib\libc_s.a(lib_a-mprec.o)
                0x20004a0c                __ulp
 .text.__b2d    0x20004a68       0xc8 c:/isis/application/toolchain/bin/../lib/gcc/arm-none-eabi/4.7.4/../../../../arm-none-eabi/lib\libc_s.a(lib_a-mprec.o)
                0x20004a68                __b2d
 .text.__d2b    0x20004b30       0xfc c:/isis/application/toolchain/bin/../lib/gcc/arm-none-eabi/4.7.4/../../../../arm-none-eabi/lib\libc_s.a(lib_a-mprec.o)
                0x20004b30                __d2b
 .text.__ratio  0x20004c2c       0x70 c:/isis/application/toolchain/bin/../lib/gcc/arm-none-eabi/4.7.4/../../../../arm-none-eabi/lib\libc_s.a(lib_a-mprec.o)
                0x20004c2c                __ratio
 .text.__copybits
                0x20004c9c       0x4c c:/isis/application/toolchain/bin/../lib/gcc/arm-none-eabi/4.7.4/../../../../arm-none-eabi/lib\libc_s.a(lib_a-mprec.o)
                0x20004c9c                __copybits
 .text.__any_on
                0x20004ce8       0x7c c:/isis/application/toolchain/bin/../lib/gcc/arm-none-eabi/4.7.4/../../../../arm-none-eabi/lib\libc_s.a(lib_a-mprec.o)
                0x20004ce8                __any_on
 .text.__fpclassifyd
                0x20004d64       0x6c c:/isis/application/toolchain/bin/../lib/gcc/arm-none-eabi/4.7.4/../../../../arm-none-eabi/lib\libc_s.a(lib_a-s_fpclassify.o)
                0x20004d64                __fpclassifyd
 .text._sbrk_r  0x20004dd0       0x3c c:/isis/application/toolchain/bin/../lib/gcc/arm-none-eabi/4.7.4/../../../../arm-none-eabi/lib\libc_s.a(lib_a-sbrkr.o)
                0x20004dd0                _sbrk_r
 .text.nanf     0x20004e0c        0xc c:/isis/application/toolchain/bin/../lib/gcc/arm-none-eabi/4.7.4/../../../../arm-none-eabi/lib\libc_s.a(lib_a-sf_nan.o)
                0x20004e0c                nanf
 .text.sprintf  0x20004e18       0x6c c:/isis/application/toolchain/bin/../lib/gcc/arm-none-eabi/4.7.4/../../../../arm-none-eabi/lib\libc_s.a(lib_a-sprintf.o)
                0x20004e18                siprintf
                0x20004e18                sprintf
 .text.strlen   0x20004e84       0x1c c:/isis/application/toolchain/bin/../lib/gcc/arm-none-eabi/4.7.4/../../../../arm-none-eabi/lib\libc_s.a(lib_a-strlen.o)
                0x20004e84                strlen
 .text.match    0x20004ea0       0x54 c:/isis/application/toolchain/bin/../lib/gcc/arm-none-eabi/4.7.4/../../../../arm-none-eabi/lib\libc_s.a(lib_a-strtod.o)
 .text._strtod_r
                0x20004ef4     0x1168 c:/isis/application/toolchain/bin/../lib/gcc/arm-none-eabi/4.7.4/../../../../arm-none-eabi/lib\libc_s.a(lib_a-strtod.o)
                0x20004ef4                _strtod_r
 .text._strtol_r
                0x2000605c      0x1b8 c:/isis/application/toolchain/bin/../lib/gcc/arm-none-eabi/4.7.4/../../../../arm-none-eabi/lib\libc_s.a(lib_a-strtol.o)
                0x2000605c                _strtol_r
 .text.__ssputc_r
                0x20006214      0x10c c:/isis/application/toolchain/bin/../lib/gcc/arm-none-eabi/4.7.4/../../../../arm-none-eabi/lib\libc_s.a(lib_a-svfprintf.o)
                0x20006214                __ssputc_r
 .text._svfprintf_r
                0x20006320      0x328 c:/isis/application/toolchain/bin/../lib/gcc/arm-none-eabi/4.7.4/../../../../arm-none-eabi/lib\libc_s.a(lib_a-svfprintf.o)
                0x20006320                _svfiprintf_r
                0x20006320                _svfprintf_r
 .text._calloc_r
                0x20006648       0x2c c:/isis/application/toolchain/bin/../lib/gcc/arm-none-eabi/4.7.4/../../../../arm-none-eabi/lib\libc_s.a(lib_a-callocr.o)
                0x20006648                _calloc_r
 .text._free_r  0x20006674      0x108 c:/isis/application/toolchain/bin/../lib/gcc/arm-none-eabi/4.7.4/../../../../arm-none-eabi/lib\libc_s.a(lib_a-freer.o)
                0x20006674                _free_r
 .text.rshift   0x2000677c       0xb0 c:/isis/application/toolchain/bin/../lib/gcc/arm-none-eabi/4.7.4/../../../../arm-none-eabi/lib\libc_s.a(lib_a-gdtoa-gethex.o)
 .text.htinit.constprop.0
                0x2000682c       0x34 c:/isis/application/toolchain/bin/../lib/gcc/arm-none-eabi/4.7.4/../../../../arm-none-eabi/lib\libc_s.a(lib_a-gdtoa-gethex.o)
 .text.__hexdig_init
                0x20006860       0x38 c:/isis/application/toolchain/bin/../lib/gcc/arm-none-eabi/4.7.4/../../../../arm-none-eabi/lib\libc_s.a(lib_a-gdtoa-gethex.o)
                0x20006860                __hexdig_init
 .text.__gethex
                0x20006898      0x6cc c:/isis/application/toolchain/bin/../lib/gcc/arm-none-eabi/4.7.4/../../../../arm-none-eabi/lib\libc_s.a(lib_a-gdtoa-gethex.o)
                0x20006898                __gethex
 .text.L_shift  0x20006f64       0x38 c:/isis/application/toolchain/bin/../lib/gcc/arm-none-eabi/4.7.4/../../../../arm-none-eabi/lib\libc_s.a(lib_a-gdtoa-hexnan.o)
 .text.__hexnan
                0x20006f9c      0x1d8 c:/isis/application/toolchain/bin/../lib/gcc/arm-none-eabi/4.7.4/../../../../arm-none-eabi/lib\libc_s.a(lib_a-gdtoa-hexnan.o)
                0x20006f9c                __hexnan
 .text.memchr   0x20007174       0x34 c:/isis/application/toolchain/bin/../lib/gcc/arm-none-eabi/4.7.4/../../../../arm-none-eabi/lib\libc_s.a(lib_a-memchr.o)
                0x20007174                memchr
 .text.memset   0x200071a8       0x1c c:/isis/application/toolchain/bin/../lib/gcc/arm-none-eabi/4.7.4/../../../../arm-none-eabi/lib\libc_s.a(lib_a-memset.o)
                0x200071a8                memset
 .text._realloc_r
                0x200071c4       0x80 c:/isis/application/toolchain/bin/../lib/gcc/arm-none-eabi/4.7.4/../../../../arm-none-eabi/lib\libc_s.a(lib_a-reallocr.o)
                0x200071c4                _realloc_r
 .text.strncmp  0x20007244       0x64 c:/isis/application/toolchain/bin/../lib/gcc/arm-none-eabi/4.7.4/../../../../arm-none-eabi/lib\libc_s.a(lib_a-strncmp.o)
                0x20007244                strncmp
 .text._malloc_usable_size_r
                0x200072a8       0x1c c:/isis/application/toolchain/bin/../lib/gcc/arm-none-eabi/4.7.4/../../../../arm-none-eabi/lib\libc_s.a(lib_a-msizer.o)
                0x200072a8                _malloc_usable_size_r
 .text.adcCallback
                0x200072c4       0x88 ./src/Tests/ADCtest.o
                0x200072c4                adcCallback
 .text.convertToMilliVolts_10bit
                0x2000734c       0x50 ./src/Tests/ADCtest.o
                0x2000734c                convertToMilliVolts_10bit
 .text.convertToMilliVolts_8bit
                0x2000739c       0x44 ./src/Tests/ADCtest.o
                0x2000739c                convertToMilliVolts_8bit
 .text.ADCtest_initalize
                0x200073e0      0x14c ./src/Tests/ADCtest.o
                0x200073e0                ADCtest_initalize
 .text.ADCtest_printReadout
                0x2000752c      0x16c ./src/Tests/ADCtest.o
                0x2000752c                ADCtest_printReadout
 .text.taskADCtest
                0x20007698       0x20 ./src/Tests/ADCtest.o
                0x20007698                taskADCtest
 .text.ADCtest  0x200076b8       0x58 ./src/Tests/ADCtest.o
                0x200076b8                ADCtest
 .text.ADCtestSingleShot
                0x20007710       0x94 ./src/Tests/ADCtest.o
                0x20007710                ADCtestSingleShot
 .text.I2Ccallback
                0x200077a4       0x64 ./src/Tests/I2Ctest.o
                0x200077a4                I2Ccallback
 .text.doBlockingI2CTransfer
                0x20007808       0xb8 ./src/Tests/I2Ctest.o
                0x20007808                doBlockingI2CTransfer
 .text.taskQueuedI2Ctest1
                0x200078c0      0x258 ./src/Tests/I2Ctest.o
                0x200078c0                taskQueuedI2Ctest1
 .text.taskQueuedI2Ctest2
                0x20007b18      0x258 ./src/Tests/I2Ctest.o
                0x20007b18                taskQueuedI2Ctest2
 .text.taskQueuedI2Ctest3
                0x20007d70      0x1a8 ./src/Tests/I2Ctest.o
                0x20007d70                taskQueuedI2Ctest3
 .text.I2Ctest  0x20007f18      0x10c ./src/Tests/I2Ctest.o
                0x20007f18                I2Ctest
 .text.taskLED2
                0x20008024       0x28 ./src/Tests/LEDtest.o
                0x20008024                taskLED2
 .text.taskLED3
                0x2000804c       0x28 ./src/Tests/LEDtest.o
                0x2000804c                taskLED3
 .text.LEDtest  0x20008074       0xd8 ./src/Tests/LEDtest.o
                0x20008074                LEDtest
 .text.taskPWMtest
                0x2000814c      0x194 ./src/Tests/PWMtest.o
                0x2000814c                taskPWMtest
 .text.PWMtest  0x200082e0       0x58 ./src/Tests/PWMtest.o
                0x200082e0                PWMtest
 .text.PinTest  0x20008338      0x218 ./src/Tests/PinTest.o
                0x20008338                PinTest
 .text.SDCardTest
                0x20008550       0xb8 ./src/Tests/SDCardTest.o
                0x20008550                SDCardTest
 .text.taskRTCtest
                0x20008608      0x198 ./src/Tests/SPI_FRAM_RTCtest.o
                0x20008608                taskRTCtest
 .text.SPI_FRAM_RTCtest
                0x200087a0       0x90 ./src/Tests/SPI_FRAM_RTCtest.o
                0x200087a0                SPI_FRAM_RTCtest
 .text.uSdelay  0x20008830       0x88 ./src/Tests/SupervisorTest.o
 .text.taskSupervisorTest
                0x200088b8      0xa28 ./src/Tests/SupervisorTest.o
 .text.SupervisorTest
                0x200092e0       0xd0 ./src/Tests/SupervisorTest.o
                0x200092e0                SupervisorTest
 .text.initEpochTest
                0x200093b0      0x190 ./src/Tests/TimeTest.o
 .text.taskEpochTest
                0x20009540      0x26c ./src/Tests/TimeTest.o
                0x20009540                taskEpochTest
 .text.TimeTest
                0x200097ac       0x58 ./src/Tests/TimeTest.o
                0x200097ac                TimeTest
 .text.taskUARTtest
                0x20009804      0x238 ./src/Tests/UARTtest.o
                0x20009804                taskUARTtest
 .text.UARTtest
                0x20009a3c      0x188 ./src/Tests/UARTtest.o
                0x20009a3c                UARTtest
 .text.ISR_Vbus
                0x20009bc4       0x60 ./src/Tests/USBdeviceTest.o
 .text.VBus_Configure
                0x20009c24       0x6c ./src/Tests/USBdeviceTest.o
 .text.LowPowerMode
                0x20009c90       0x10 ./src/Tests/USBdeviceTest.o
                0x20009c90                LowPowerMode
 .text.USBDCallbacks_Resumed
                0x20009ca0       0x24 ./src/Tests/USBdeviceTest.o
                0x20009ca0                USBDCallbacks_Resumed
 .text.USBDCallbacks_Suspended
                0x20009cc4       0x24 ./src/Tests/USBdeviceTest.o
                0x20009cc4                USBDCallbacks_Suspended
 .text.USBdeviceTest
                0x20009ce8      0x218 ./src/Tests/USBdeviceTest.o
                0x20009ce8                USBdeviceTest
 .text.taskBoardTest
                0x20009f00      0x6dc ./src/Tests/boardTest.o
                0x20009f00                taskBoardTest
 .text.boardTest
                0x2000a5dc       0x58 ./src/Tests/boardTest.o
                0x2000a5dc                boardTest
 .text.checksumTest
                0x2000a634      0x734 ./src/Tests/checksumTest.o
                0x2000a634                checksumTest
 .text.vApplicationStackOverflowHook
                0x2000ad68       0x4c ./src/freertos_hooks.o
                0x2000ad68                vApplicationStackOverflowHook
 .text.vApplicationIdleHook
                0x2000adb4       0x14 ./src/freertos_hooks.o
                0x2000adb4                vApplicationIdleHook
 .text.selectAndExecuteTest
                0x2000adc8      0x220 ./src/main.o
                0x2000adc8                selectAndExecuteTest
 .text.taskMain
                0x2000afe8       0x9c ./src/main.o
                0x2000afe8                taskMain
 .text.main     0x2000b084      0x178 ./src/main.o
                0x2000b084                main
 .text.fn_init  0x2000b1fc      0x2e0 C:/Users/user1/Documents/hoopoe-2/hal/demo/..//hcc/lib\libHCCD.a(fat_common.o)
                0x2000b1fc                fn_init
 .text.fsn_delete
                0x2000b4dc       0xc8 C:/Users/user1/Documents/hoopoe-2/hal/demo/..//hcc/lib\libHCCD.a(fat_common.o)
                0x2000b4dc                fsn_delete
 .text._f_get16bitl
                0x2000b5a4       0x4c C:/Users/user1/Documents/hoopoe-2/hal/demo/..//hcc/lib\libHCCD.a(fat_common.o)
                0x2000b5a4                _f_get16bitl
 .text._f_set16bitl
                0x2000b5f0       0x54 C:/Users/user1/Documents/hoopoe-2/hal/demo/..//hcc/lib\libHCCD.a(fat_common.o)
                0x2000b5f0                _f_set16bitl
 .text._f_get32bitl
                0x2000b644       0x68 C:/Users/user1/Documents/hoopoe-2/hal/demo/..//hcc/lib\libHCCD.a(fat_common.o)
                0x2000b644                _f_get32bitl
 .text._f_set32bitl
                0x2000b6ac       0x78 C:/Users/user1/Documents/hoopoe-2/hal/demo/..//hcc/lib\libHCCD.a(fat_common.o)
                0x2000b6ac                _f_set32bitl
 .text._get8bit
                0x2000b724       0xa0 C:/Users/user1/Documents/hoopoe-2/hal/demo/..//hcc/lib\libHCCD.a(fat_common.o)
 .text._get16bitl
                0x2000b7c4       0x40 C:/Users/user1/Documents/hoopoe-2/hal/demo/..//hcc/lib\libHCCD.a(fat_common.o)
 .text._get32bitl
                0x2000b804       0x3c C:/Users/user1/Documents/hoopoe-2/hal/demo/..//hcc/lib\libHCCD.a(fat_common.o)
 .text._set8bitzero
                0x2000b840       0x6c C:/Users/user1/Documents/hoopoe-2/hal/demo/..//hcc/lib\libHCCD.a(fat_common.o)
 .text._set8bit
                0x2000b8ac       0xa0 C:/Users/user1/Documents/hoopoe-2/hal/demo/..//hcc/lib\libHCCD.a(fat_common.o)
 .text._set16bitl
                0x2000b94c       0x3c C:/Users/user1/Documents/hoopoe-2/hal/demo/..//hcc/lib\libHCCD.a(fat_common.o)
 .text._set32bitl
                0x2000b988       0x34 C:/Users/user1/Documents/hoopoe-2/hal/demo/..//hcc/lib\libHCCD.a(fat_common.o)
 .text._f_setcardremoved
                0x2000b9bc       0x94 C:/Users/user1/Documents/hoopoe-2/hal/demo/..//hcc/lib\libHCCD.a(fat_common.o)
 .text._f_checkstatus
                0x2000ba50      0x104 C:/Users/user1/Documents/hoopoe-2/hal/demo/..//hcc/lib\libHCCD.a(fat_common.o)
                0x2000ba50                _f_checkstatus
 .text._f_drvgetphy
                0x2000bb54      0x114 C:/Users/user1/Documents/hoopoe-2/hal/demo/..//hcc/lib\libHCCD.a(fat_common.o)
 .text._f_drvwritesector
                0x2000bc68       0xdc C:/Users/user1/Documents/hoopoe-2/hal/demo/..//hcc/lib\libHCCD.a(fat_common.o)
 .text._f_drvreadsector
                0x2000bd44       0xa8 C:/Users/user1/Documents/hoopoe-2/hal/demo/..//hcc/lib\libHCCD.a(fat_common.o)
 .text._f_writesector
                0x2000bdec      0x23c C:/Users/user1/Documents/hoopoe-2/hal/demo/..//hcc/lib\libHCCD.a(fat_common.o)
                0x2000bdec                _f_writesector
 .text._f_readsector
                0x2000c028      0x1dc C:/Users/user1/Documents/hoopoe-2/hal/demo/..//hcc/lib\libHCCD.a(fat_common.o)
                0x2000c028                _f_readsector
 .text._f_getmaxcluster
                0x2000c204       0x94 C:/Users/user1/Documents/hoopoe-2/hal/demo/..//hcc/lib\libHCCD.a(fat_common.o)
                0x2000c204                _f_getmaxcluster
 .text._getsectorfromcluster
                0x2000c298       0x68 C:/Users/user1/Documents/hoopoe-2/hal/demo/..//hcc/lib\libHCCD.a(fat_common.o)
 .text._f_buildsectors
                0x2000c300      0x268 C:/Users/user1/Documents/hoopoe-2/hal/demo/..//hcc/lib\libHCCD.a(fat_common.o)
 .text._f_getbootrecord
                0x2000c568      0x5e4 C:/Users/user1/Documents/hoopoe-2/hal/demo/..//hcc/lib\libHCCD.a(fat_common.o)
 .text._f_readbootrecord
                0x2000cb4c      0x4f8 C:/Users/user1/Documents/hoopoe-2/hal/demo/..//hcc/lib\libHCCD.a(fat_common.o)
 .text._f_writebootrecord
                0x2000d044      0x5e4 C:/Users/user1/Documents/hoopoe-2/hal/demo/..//hcc/lib\libHCCD.a(fat_common.o)
 .text._f_flushcffiles
                0x2000d628      0x17c C:/Users/user1/Documents/hoopoe-2/hal/demo/..//hcc/lib\libHCCD.a(fat_common.o)
                0x2000d628                _f_flushcffiles
 .text._f_fatcache_flush
                0x2000d7a4      0x270 C:/Users/user1/Documents/hoopoe-2/hal/demo/..//hcc/lib\libHCCD.a(fat_common.o)
                0x2000d7a4                _f_fatcache_flush
 .text._f_writefatsector
                0x2000da14      0x100 C:/Users/user1/Documents/hoopoe-2/hal/demo/..//hcc/lib\libHCCD.a(fat_common.o)
                0x2000da14                _f_writefatsector
 .text._f_getfatsector
                0x2000db14      0x3bc C:/Users/user1/Documents/hoopoe-2/hal/demo/..//hcc/lib\libHCCD.a(fat_common.o)
 .text._f_setclustervalue
                0x2000ded0      0x490 C:/Users/user1/Documents/hoopoe-2/hal/demo/..//hcc/lib\libHCCD.a(fat_common.o)
                0x2000ded0                _f_setclustervalue
 .text._f_getclustervalue
                0x2000e360      0x388 C:/Users/user1/Documents/hoopoe-2/hal/demo/..//hcc/lib\libHCCD.a(fat_common.o)
                0x2000e360                _f_getclustervalue
 .text._f_close_drive_files
                0x2000e6e8       0xac C:/Users/user1/Documents/hoopoe-2/hal/demo/..//hcc/lib\libHCCD.a(fat_common.o)
 .text._f_inc_mount_count
                0x2000e794       0xa4 C:/Users/user1/Documents/hoopoe-2/hal/demo/..//hcc/lib\libHCCD.a(fat_common.o)
 .text._f_getvolume
                0x2000e838      0x2f8 C:/Users/user1/Documents/hoopoe-2/hal/demo/..//hcc/lib\libHCCD.a(fat_common.o)
                0x2000e838                _f_getvolume
 .text.fn_createdriver
                0x2000eb30      0x118 C:/Users/user1/Documents/hoopoe-2/hal/demo/..//hcc/lib\libHCCD.a(fat_common.o)
                0x2000eb30                fn_createdriver
 .text.fn_initvolume
                0x2000ec48      0x12c C:/Users/user1/Documents/hoopoe-2/hal/demo/..//hcc/lib\libHCCD.a(fat_common.o)
                0x2000ec48                fn_initvolume
 .text.fn_releasedriver
                0x2000ed74       0xf4 C:/Users/user1/Documents/hoopoe-2/hal/demo/..//hcc/lib\libHCCD.a(fat_common.o)
                0x2000ed74                fn_releasedriver
 .text.fn_initvolumepartition_sub
                0x2000ee68       0xe0 C:/Users/user1/Documents/hoopoe-2/hal/demo/..//hcc/lib\libHCCD.a(fat_common.o)
 .text.fn_initvolumepartition
                0x2000ef48       0xac C:/Users/user1/Documents/hoopoe-2/hal/demo/..//hcc/lib\libHCCD.a(fat_common.o)
                0x2000ef48                fn_initvolumepartition
 .text.fn_checkvolume
                0x2000eff4       0x44 C:/Users/user1/Documents/hoopoe-2/hal/demo/..//hcc/lib\libHCCD.a(fat_common.o)
                0x2000eff4                fn_checkvolume
 .text.fn_delvolume
                0x2000f038      0x194 C:/Users/user1/Documents/hoopoe-2/hal/demo/..//hcc/lib\libHCCD.a(fat_common.o)
                0x2000f038                fn_delvolume
 .text.fn_get_volume_count
                0x2000f1cc       0xa8 C:/Users/user1/Documents/hoopoe-2/hal/demo/..//hcc/lib\libHCCD.a(fat_common.o)
                0x2000f1cc                fn_get_volume_count
 .text.fn_get_volume_list
                0x2000f274       0xc4 C:/Users/user1/Documents/hoopoe-2/hal/demo/..//hcc/lib\libHCCD.a(fat_common.o)
                0x2000f274                fn_get_volume_list
 .text._f_clustertopos
                0x2000f338       0xf8 C:/Users/user1/Documents/hoopoe-2/hal/demo/..//hcc/lib\libHCCD.a(fat_common.o)
                0x2000f338                _f_clustertopos
 .text._f_prepareformat
                0x2000f430      0x8b8 C:/Users/user1/Documents/hoopoe-2/hal/demo/..//hcc/lib\libHCCD.a(fat_common.o)
 .text._f_resetfatentries
                0x2000fce8      0x410 C:/Users/user1/Documents/hoopoe-2/hal/demo/..//hcc/lib\libHCCD.a(fat_common.o)
 .text._f_resetrootdir
                0x200100f8       0xcc C:/Users/user1/Documents/hoopoe-2/hal/demo/..//hcc/lib\libHCCD.a(fat_common.o)
 .text._f_postformat
                0x200101c4      0x178 C:/Users/user1/Documents/hoopoe-2/hal/demo/..//hcc/lib\libHCCD.a(fat_common.o)
 .text.fn_format
                0x2001033c      0x148 C:/Users/user1/Documents/hoopoe-2/hal/demo/..//hcc/lib\libHCCD.a(fat_common.o)
                0x2001033c                fn_format
 .text._f_getcurrsector
                0x20010484      0x6c8 C:/Users/user1/Documents/hoopoe-2/hal/demo/..//hcc/lib\libHCCD.a(fat_common.o)
                0x20010484                _f_getcurrsector
 .text._f_getdecluster
                0x20010b4c       0x90 C:/Users/user1/Documents/hoopoe-2/hal/demo/..//hcc/lib\libHCCD.a(fat_common.o)
                0x20010b4c                _f_getdecluster
 .text._f_setdecluster
                0x20010bdc       0x8c C:/Users/user1/Documents/hoopoe-2/hal/demo/..//hcc/lib\libHCCD.a(fat_common.o)
                0x20010bdc                _f_setdecluster
 .text.fn_getdrive
                0x20010c68       0x30 C:/Users/user1/Documents/hoopoe-2/hal/demo/..//hcc/lib\libHCCD.a(fat_common.o)
                0x20010c68                fn_getdrive
 .text.fn_chdrive
                0x20010c98       0xb0 C:/Users/user1/Documents/hoopoe-2/hal/demo/..//hcc/lib\libHCCD.a(fat_common.o)
                0x20010c98                fn_chdrive
 .text._f_getcurrenttimedate
                0x20010d48      0x138 C:/Users/user1/Documents/hoopoe-2/hal/demo/..//hcc/lib\libHCCD.a(fat_common.o)
                0x20010d48                _f_getcurrenttimedate
 .text._f_initentry
                0x20010e80       0xa0 C:/Users/user1/Documents/hoopoe-2/hal/demo/..//hcc/lib\libHCCD.a(fat_common.o)
                0x20010e80                _f_initentry
 .text._f_alloccluster
                0x20010f20      0x344 C:/Users/user1/Documents/hoopoe-2/hal/demo/..//hcc/lib\libHCCD.a(fat_common.o)
                0x20010f20                _f_alloccluster
 .text._f_dobadblock
                0x20011264      0x2cc C:/Users/user1/Documents/hoopoe-2/hal/demo/..//hcc/lib\libHCCD.a(fat_common.o)
                0x20011264                _f_dobadblock
 .text._f_checklocked
                0x20011530       0xe4 C:/Users/user1/Documents/hoopoe-2/hal/demo/..//hcc/lib\libHCCD.a(fat_common.o)
                0x20011530                _f_checklocked
 .text._f_checkappendlocked
                0x20011614      0x110 C:/Users/user1/Documents/hoopoe-2/hal/demo/..//hcc/lib\libHCCD.a(fat_common.o)
                0x20011614                _f_checkappendlocked
 .text._f_setsyncafile
                0x20011724      0x114 C:/Users/user1/Documents/hoopoe-2/hal/demo/..//hcc/lib\libHCCD.a(fat_common.o)
                0x20011724                _f_setsyncafile
 .text._f_syncfiles
                0x20011838      0x128 C:/Users/user1/Documents/hoopoe-2/hal/demo/..//hcc/lib\libHCCD.a(fat_common.o)
                0x20011838                _f_syncfiles
 .text._f_syncfilescontent
                0x20011960      0x15c C:/Users/user1/Documents/hoopoe-2/hal/demo/..//hcc/lib\libHCCD.a(fat_common.o)
 .text.fn_getfreespace
                0x20011abc      0x4c0 C:/Users/user1/Documents/hoopoe-2/hal/demo/..//hcc/lib\libHCCD.a(fat_common.o)
                0x20011abc                fn_getfreespace
 .text._f_emptywritecache
                0x20011f7c      0x4a4 C:/Users/user1/Documents/hoopoe-2/hal/demo/..//hcc/lib\libHCCD.a(fat_common.o)
 .text._f_allocnextcluster
                0x20012420      0x54c C:/Users/user1/Documents/hoopoe-2/hal/demo/..//hcc/lib\libHCCD.a(fat_common.o)
 .text._f_emptywritebuffer
                0x2001296c      0x20c C:/Users/user1/Documents/hoopoe-2/hal/demo/..//hcc/lib\libHCCD.a(fat_common.o)
 .text._f_writezeros
                0x20012b78       0xf0 C:/Users/user1/Documents/hoopoe-2/hal/demo/..//hcc/lib\libHCCD.a(fat_common.o)
                0x20012b78                _f_writezeros
 .text._f_extend_file
                0x20012c68      0x570 C:/Users/user1/Documents/hoopoe-2/hal/demo/..//hcc/lib\libHCCD.a(fat_common.o)
 .text._f_fseek
                0x200131d8      0x9bc C:/Users/user1/Documents/hoopoe-2/hal/demo/..//hcc/lib\libHCCD.a(fat_common.o)
                0x200131d8                _f_fseek
 .text._f_removechain
                0x20013b94      0x104 C:/Users/user1/Documents/hoopoe-2/hal/demo/..//hcc/lib\libHCCD.a(fat_common.o)
                0x20013b94                _f_removechain
 .text._f_updatefileentry
                0x20013c98      0x1cc C:/Users/user1/Documents/hoopoe-2/hal/demo/..//hcc/lib\libHCCD.a(fat_common.o)
 .text._f_checkreadlocked
                0x20013e64      0x1bc C:/Users/user1/Documents/hoopoe-2/hal/demo/..//hcc/lib\libHCCD.a(fat_common.o)
                0x20013e64                _f_checkreadlocked
 .text._f_check_handle
                0x20014020       0x98 C:/Users/user1/Documents/hoopoe-2/hal/demo/..//hcc/lib\libHCCD.a(fat_common.o)
                0x20014020                _f_check_handle
 .text._f_removesyncafile
                0x200140b8      0x1ec C:/Users/user1/Documents/hoopoe-2/hal/demo/..//hcc/lib\libHCCD.a(fat_common.o)
 .text.fn_close
                0x200142a4      0x3f8 C:/Users/user1/Documents/hoopoe-2/hal/demo/..//hcc/lib\libHCCD.a(fat_common.o)
                0x200142a4                fn_close
 .text.fn_flush
                0x2001469c      0x374 C:/Users/user1/Documents/hoopoe-2/hal/demo/..//hcc/lib\libHCCD.a(fat_common.o)
                0x2001469c                fn_flush
 .text.fn_read  0x20014a10      0x690 C:/Users/user1/Documents/hoopoe-2/hal/demo/..//hcc/lib\libHCCD.a(fat_common.o)
                0x20014a10                fn_read
 .text._f_abortwrite
                0x200150a0      0x100 C:/Users/user1/Documents/hoopoe-2/hal/demo/..//hcc/lib\libHCCD.a(fat_common.o)
 .text._f_checkwritecluster
                0x200151a0       0xe4 C:/Users/user1/Documents/hoopoe-2/hal/demo/..//hcc/lib\libHCCD.a(fat_common.o)
 .text.fn_write
                0x20015284      0x8a8 C:/Users/user1/Documents/hoopoe-2/hal/demo/..//hcc/lib\libHCCD.a(fat_common.o)
                0x20015284                fn_write
 .text.fn_seek  0x20015b2c      0x270 C:/Users/user1/Documents/hoopoe-2/hal/demo/..//hcc/lib\libHCCD.a(fat_common.o)
                0x20015b2c                fn_seek
 .text.fn_tell  0x20015d9c      0x19c C:/Users/user1/Documents/hoopoe-2/hal/demo/..//hcc/lib\libHCCD.a(fat_common.o)
                0x20015d9c                fn_tell
 .text.fn_eof   0x20015f38       0xf8 C:/Users/user1/Documents/hoopoe-2/hal/demo/..//hcc/lib\libHCCD.a(fat_common.o)
                0x20015f38                fn_eof
 .text.fn_rewind
                0x20016030       0x38 C:/Users/user1/Documents/hoopoe-2/hal/demo/..//hcc/lib\libHCCD.a(fat_common.o)
                0x20016030                fn_rewind
 .text.fn_putc  0x20016068       0x68 C:/Users/user1/Documents/hoopoe-2/hal/demo/..//hcc/lib\libHCCD.a(fat_common.o)
                0x20016068                fn_putc
 .text.fn_getc  0x200160d0       0x58 C:/Users/user1/Documents/hoopoe-2/hal/demo/..//hcc/lib\libHCCD.a(fat_common.o)
                0x200160d0                fn_getc
 .text.f_enterFS
                0x20016128      0x1c0 C:/Users/user1/Documents/hoopoe-2/hal/demo/..//hcc/lib\libHCCD.a(fat_common.o)
                0x20016128                f_enterFS
 .text.f_releaseFS
                0x200162e8       0xb0 C:/Users/user1/Documents/hoopoe-2/hal/demo/..//hcc/lib\libHCCD.a(fat_common.o)
                0x200162e8                f_releaseFS
 .text.fnGetTask
                0x20016398       0xfc C:/Users/user1/Documents/hoopoe-2/hal/demo/..//hcc/lib\libHCCD.a(fat_common.o)
                0x20016398                fnGetTask
 .text._f_mutex_get
                0x20016494       0x98 C:/Users/user1/Documents/hoopoe-2/hal/demo/..//hcc/lib\libHCCD.a(fat_common.o)
                0x20016494                _f_mutex_get
 .text._f_mutex_put
                0x2001652c       0x54 C:/Users/user1/Documents/hoopoe-2/hal/demo/..//hcc/lib\libHCCD.a(fat_common.o)
                0x2001652c                _f_mutex_put
 .text.fn_get_oem
                0x20016580       0xfc C:/Users/user1/Documents/hoopoe-2/hal/demo/..//hcc/lib\libHCCD.a(fat_common.o)
                0x20016580                fn_get_oem
 .text.fn_ftruncate
                0x2001667c       0x64 C:/Users/user1/Documents/hoopoe-2/hal/demo/..//hcc/lib\libHCCD.a(fat_common.o)
                0x2001667c                fn_ftruncate
 .text.fn_seteof
                0x200166e0      0x468 C:/Users/user1/Documents/hoopoe-2/hal/demo/..//hcc/lib\libHCCD.a(fat_common.o)
                0x200166e0                fn_seteof
 .text._fn_initseekdivisor
                0x20016b48      0x158 C:/Users/user1/Documents/hoopoe-2/hal/demo/..//hcc/lib\libHCCD.a(fat_common.o)
                0x20016b48                _fn_initseekdivisor
 .text._fn_updateseekpos
                0x20016ca0       0xc4 C:/Users/user1/Documents/hoopoe-2/hal/demo/..//hcc/lib\libHCCD.a(fat_common.o)
 .text._fn_removeseekpos
                0x20016d64       0xc0 C:/Users/user1/Documents/hoopoe-2/hal/demo/..//hcc/lib\libHCCD.a(fat_common.o)
                0x20016d64                _fn_removeseekpos
 .text._f_findopensize
                0x20016e24       0x2c C:/Users/user1/Documents/hoopoe-2/hal/demo/..//hcc/lib\libHCCD.a(fat_common.o)
                0x20016e24                _f_findopensize
 .text.fn_fstat
                0x20016e50      0x250 C:/Users/user1/Documents/hoopoe-2/hal/demo/..//hcc/lib\libHCCD.a(fat_common.o)
                0x20016e50                fn_fstat
 .text.fn_setlasterror
                0x200170a0       0x34 C:/Users/user1/Documents/hoopoe-2/hal/demo/..//hcc/lib\libHCCD.a(fat_common.o)
                0x200170a0                fn_setlasterror
 .text.fn_setlasterror_noret
                0x200170d4       0x2c C:/Users/user1/Documents/hoopoe-2/hal/demo/..//hcc/lib\libHCCD.a(fat_common.o)
                0x200170d4                fn_setlasterror_noret
 .text.fm_initvolume
                0x20017100       0x70 C:/Users/user1/Documents/hoopoe-2/hal/demo/..//hcc/lib\libHCCD.a(fat_m.o)
                0x20017100                fm_initvolume
 .text.fm_checkvolume
                0x20017170       0x60 C:/Users/user1/Documents/hoopoe-2/hal/demo/..//hcc/lib\libHCCD.a(fat_m.o)
                0x20017170                fm_checkvolume
 .text.fm_delvolume
                0x200171d0       0x60 C:/Users/user1/Documents/hoopoe-2/hal/demo/..//hcc/lib\libHCCD.a(fat_m.o)
                0x200171d0                fm_delvolume
 .text.fm_get_volume_count
                0x20017230       0x58 C:/Users/user1/Documents/hoopoe-2/hal/demo/..//hcc/lib\libHCCD.a(fat_m.o)
                0x20017230                fm_get_volume_count
 .text.fm_get_volume_list
                0x20017288       0x60 C:/Users/user1/Documents/hoopoe-2/hal/demo/..//hcc/lib\libHCCD.a(fat_m.o)
                0x20017288                fm_get_volume_list
 .text.fm_format
                0x200172e8       0x68 C:/Users/user1/Documents/hoopoe-2/hal/demo/..//hcc/lib\libHCCD.a(fat_m.o)
                0x200172e8                fm_format
 .text.fm_getcwd
                0x20017350       0x68 C:/Users/user1/Documents/hoopoe-2/hal/demo/..//hcc/lib\libHCCD.a(fat_m.o)
                0x20017350                fm_getcwd
 .text.fm_getdcwd
                0x200173b8       0x70 C:/Users/user1/Documents/hoopoe-2/hal/demo/..//hcc/lib\libHCCD.a(fat_m.o)
                0x200173b8                fm_getdcwd
 .text.fm_chdrive
                0x20017428       0x60 C:/Users/user1/Documents/hoopoe-2/hal/demo/..//hcc/lib\libHCCD.a(fat_m.o)
                0x20017428                fm_chdrive
 .text.fm_getdrive
                0x20017488       0x70 C:/Users/user1/Documents/hoopoe-2/hal/demo/..//hcc/lib\libHCCD.a(fat_m.o)
                0x20017488                fm_getdrive
 .text.fm_getfreespace
                0x200174f8       0x68 C:/Users/user1/Documents/hoopoe-2/hal/demo/..//hcc/lib\libHCCD.a(fat_m.o)
                0x200174f8                fm_getfreespace
 .text.fm_chdir
                0x20017560       0x60 C:/Users/user1/Documents/hoopoe-2/hal/demo/..//hcc/lib\libHCCD.a(fat_m.o)
                0x20017560                fm_chdir
 .text.fm_mkdir
                0x200175c0       0x60 C:/Users/user1/Documents/hoopoe-2/hal/demo/..//hcc/lib\libHCCD.a(fat_m.o)
                0x200175c0                fm_mkdir
 .text.fm_rmdir
                0x20017620       0x60 C:/Users/user1/Documents/hoopoe-2/hal/demo/..//hcc/lib\libHCCD.a(fat_m.o)
                0x20017620                fm_rmdir
 .text.fm_findfirst
                0x20017680       0x68 C:/Users/user1/Documents/hoopoe-2/hal/demo/..//hcc/lib\libHCCD.a(fat_m.o)
                0x20017680                fm_findfirst
 .text.fm_findnext
                0x200176e8       0x60 C:/Users/user1/Documents/hoopoe-2/hal/demo/..//hcc/lib\libHCCD.a(fat_m.o)
                0x200176e8                fm_findnext
 .text.fm_move  0x20017748       0x68 C:/Users/user1/Documents/hoopoe-2/hal/demo/..//hcc/lib\libHCCD.a(fat_m.o)
                0x20017748                fm_move
 .text.fm_rename
                0x200177b0       0x68 C:/Users/user1/Documents/hoopoe-2/hal/demo/..//hcc/lib\libHCCD.a(fat_m.o)
                0x200177b0                fm_rename
 .text.fm_filelength
                0x20017818       0x60 C:/Users/user1/Documents/hoopoe-2/hal/demo/..//hcc/lib\libHCCD.a(fat_m.o)
                0x20017818                fm_filelength
 .text.fm_close
                0x20017878       0x60 C:/Users/user1/Documents/hoopoe-2/hal/demo/..//hcc/lib\libHCCD.a(fat_m.o)
                0x20017878                fm_close
 .text.fm_flush
                0x200178d8       0x60 C:/Users/user1/Documents/hoopoe-2/hal/demo/..//hcc/lib\libHCCD.a(fat_m.o)
                0x200178d8                fm_flush
 .text.fm_open  0x20017938       0x68 C:/Users/user1/Documents/hoopoe-2/hal/demo/..//hcc/lib\libHCCD.a(fat_m.o)
                0x20017938                fm_open
 .text.fm_open_nonsafe
                0x200179a0       0x68 C:/Users/user1/Documents/hoopoe-2/hal/demo/..//hcc/lib\libHCCD.a(fat_m.o)
                0x200179a0                fm_open_nonsafe
 .text.fm_read  0x20017a08       0x7c C:/Users/user1/Documents/hoopoe-2/hal/demo/..//hcc/lib\libHCCD.a(fat_m.o)
                0x20017a08                fm_read
 .text.fm_write
                0x20017a84       0x7c C:/Users/user1/Documents/hoopoe-2/hal/demo/..//hcc/lib\libHCCD.a(fat_m.o)
                0x20017a84                fm_write
 .text.fm_seek  0x20017b00       0x70 C:/Users/user1/Documents/hoopoe-2/hal/demo/..//hcc/lib\libHCCD.a(fat_m.o)
                0x20017b00                fm_seek
 .text.fm_tell  0x20017b70       0x60 C:/Users/user1/Documents/hoopoe-2/hal/demo/..//hcc/lib\libHCCD.a(fat_m.o)
                0x20017b70                fm_tell
 .text.fm_getc  0x20017bd0       0x60 C:/Users/user1/Documents/hoopoe-2/hal/demo/..//hcc/lib\libHCCD.a(fat_m.o)
                0x20017bd0                fm_getc
 .text.fm_putc  0x20017c30       0x68 C:/Users/user1/Documents/hoopoe-2/hal/demo/..//hcc/lib\libHCCD.a(fat_m.o)
                0x20017c30                fm_putc
 .text.fm_rewind
                0x20017c98       0x60 C:/Users/user1/Documents/hoopoe-2/hal/demo/..//hcc/lib\libHCCD.a(fat_m.o)
                0x20017c98                fm_rewind
 .text.fm_eof   0x20017cf8       0x60 C:/Users/user1/Documents/hoopoe-2/hal/demo/..//hcc/lib\libHCCD.a(fat_m.o)
                0x20017cf8                fm_eof
 .text.fm_gettimedate
                0x20017d58       0x70 C:/Users/user1/Documents/hoopoe-2/hal/demo/..//hcc/lib\libHCCD.a(fat_m.o)
                0x20017d58                fm_gettimedate
 .text.fm_stat  0x20017dc8       0x68 C:/Users/user1/Documents/hoopoe-2/hal/demo/..//hcc/lib\libHCCD.a(fat_m.o)
                0x20017dc8                fm_stat
 .text.fm_fstat
                0x20017e30       0x68 C:/Users/user1/Documents/hoopoe-2/hal/demo/..//hcc/lib\libHCCD.a(fat_m.o)
                0x20017e30                fm_fstat
 .text.fm_settimedate
                0x20017e98       0x74 C:/Users/user1/Documents/hoopoe-2/hal/demo/..//hcc/lib\libHCCD.a(fat_m.o)
                0x20017e98                fm_settimedate
 .text.fm_delete
                0x20017f0c       0x64 C:/Users/user1/Documents/hoopoe-2/hal/demo/..//hcc/lib\libHCCD.a(fat_m.o)
                0x20017f0c                fm_delete
 .text.fm_getattr
                0x20017f70       0x68 C:/Users/user1/Documents/hoopoe-2/hal/demo/..//hcc/lib\libHCCD.a(fat_m.o)
                0x20017f70                fm_getattr
 .text.fm_setattr
                0x20017fd8       0x70 C:/Users/user1/Documents/hoopoe-2/hal/demo/..//hcc/lib\libHCCD.a(fat_m.o)
                0x20017fd8                fm_setattr
 .text.fm_getlabel
                0x20018048       0x70 C:/Users/user1/Documents/hoopoe-2/hal/demo/..//hcc/lib\libHCCD.a(fat_m.o)
                0x20018048                fm_getlabel
 .text.fm_setlabel
                0x200180b8       0x68 C:/Users/user1/Documents/hoopoe-2/hal/demo/..//hcc/lib\libHCCD.a(fat_m.o)
                0x200180b8                fm_setlabel
 .text.fm_truncate
                0x20018120       0x68 C:/Users/user1/Documents/hoopoe-2/hal/demo/..//hcc/lib\libHCCD.a(fat_m.o)
                0x20018120                fm_truncate
 .text.fm_get_oem
                0x20018188       0x70 C:/Users/user1/Documents/hoopoe-2/hal/demo/..//hcc/lib\libHCCD.a(fat_m.o)
                0x20018188                fm_get_oem
 .text.fm_ftruncate
                0x200181f8       0x68 C:/Users/user1/Documents/hoopoe-2/hal/demo/..//hcc/lib\libHCCD.a(fat_m.o)
                0x200181f8                fm_ftruncate
 .text.fm_seteof
                0x20018260       0x60 C:/Users/user1/Documents/hoopoe-2/hal/demo/..//hcc/lib\libHCCD.a(fat_m.o)
                0x20018260                fm_seteof
 .text.fm_getlasterror
                0x200182c0       0x40 C:/Users/user1/Documents/hoopoe-2/hal/demo/..//hcc/lib\libHCCD.a(fat_m.o)
                0x200182c0                fm_getlasterror
 .text._s_checkzeroclusteratend
                0x20018300       0xf8 C:/Users/user1/Documents/hoopoe-2/hal/demo/..//hcc/lib\libHCCD.a(safefat.o)
 .text._s_clearclustercontent
                0x200183f8      0x108 C:/Users/user1/Documents/hoopoe-2/hal/demo/..//hcc/lib\libHCCD.a(safefat.o)
 .text._s_clearclustercontentdir
                0x20018500      0x19c C:/Users/user1/Documents/hoopoe-2/hal/demo/..//hcc/lib\libHCCD.a(safefat.o)
 .text._s_writedirsector
                0x2001869c       0xd0 C:/Users/user1/Documents/hoopoe-2/hal/demo/..//hcc/lib\libHCCD.a(safefat.o)
 .text._s_getdirsector
                0x2001876c      0x100 C:/Users/user1/Documents/hoopoe-2/hal/demo/..//hcc/lib\libHCCD.a(safefat.o)
 .text._s_addentry
                0x2001886c      0x394 C:/Users/user1/Documents/hoopoe-2/hal/demo/..//hcc/lib\libHCCD.a(safefat.o)
 .text._s_findfile
                0x20018c00      0x33c C:/Users/user1/Documents/hoopoe-2/hal/demo/..//hcc/lib\libHCCD.a(safefat.o)
 .text._s_findsubdir
                0x20018f3c      0x248 C:/Users/user1/Documents/hoopoe-2/hal/demo/..//hcc/lib\libHCCD.a(safefat.o)
 .text._s_createfile
                0x20019184      0x190 C:/Users/user1/Documents/hoopoe-2/hal/demo/..//hcc/lib\libHCCD.a(safefat.o)
 .text._s_findsaffile
                0x20019314      0x1b8 C:/Users/user1/Documents/hoopoe-2/hal/demo/..//hcc/lib\libHCCD.a(safefat.o)
 .text._s_open  0x200194cc       0xe4 C:/Users/user1/Documents/hoopoe-2/hal/demo/..//hcc/lib\libHCCD.a(safefat.o)
 .text._s_open_saf
                0x200195b0       0xe8 C:/Users/user1/Documents/hoopoe-2/hal/demo/..//hcc/lib\libHCCD.a(safefat.o)
 .text._s_flush
                0x20019698       0x84 C:/Users/user1/Documents/hoopoe-2/hal/demo/..//hcc/lib\libHCCD.a(safefat.o)
 .text._s_allocnextcluster
                0x2001971c      0x13c C:/Users/user1/Documents/hoopoe-2/hal/demo/..//hcc/lib\libHCCD.a(safefat.o)
 .text._s_getnextsector
                0x20019858       0xdc C:/Users/user1/Documents/hoopoe-2/hal/demo/..//hcc/lib\libHCCD.a(safefat.o)
 .text._s_seek  0x20019934      0x1e8 C:/Users/user1/Documents/hoopoe-2/hal/demo/..//hcc/lib\libHCCD.a(safefat.o)
 .text._s_get_len
                0x20019b1c      0x10c C:/Users/user1/Documents/hoopoe-2/hal/demo/..//hcc/lib\libHCCD.a(safefat.o)
 .text._s_set_len
                0x20019c28       0xb4 C:/Users/user1/Documents/hoopoe-2/hal/demo/..//hcc/lib\libHCCD.a(safefat.o)
 .text.safe_fix_filelengths
                0x20019cdc       0xcc C:/Users/user1/Documents/hoopoe-2/hal/demo/..//hcc/lib\libHCCD.a(safefat.o)
                0x20019cdc                safe_fix_filelengths
 .text._s_read  0x20019da8      0x228 C:/Users/user1/Documents/hoopoe-2/hal/demo/..//hcc/lib\libHCCD.a(safefat.o)
 .text._s_write
                0x20019fd0      0x384 C:/Users/user1/Documents/hoopoe-2/hal/demo/..//hcc/lib\libHCCD.a(safefat.o)
 .text._s_restoreclusters
                0x2001a354      0x270 C:/Users/user1/Documents/hoopoe-2/hal/demo/..//hcc/lib\libHCCD.a(safefat.o)
                0x2001a354                _s_restoreclusters
 .text._s_findrestore
                0x2001a5c4      0x18c C:/Users/user1/Documents/hoopoe-2/hal/demo/..//hcc/lib\libHCCD.a(safefat.o)
 .text._s_cmd_writede
                0x2001a750       0xd8 C:/Users/user1/Documents/hoopoe-2/hal/demo/..//hcc/lib\libHCCD.a(safefat.o)
 .text._s_cmd_setcluster
                0x2001a828       0x88 C:/Users/user1/Documents/hoopoe-2/hal/demo/..//hcc/lib\libHCCD.a(safefat.o)
 .text._s_cmd_deletechain
                0x2001a8b0      0x100 C:/Users/user1/Documents/hoopoe-2/hal/demo/..//hcc/lib\libHCCD.a(safefat.o)
 .text._s_cmd_validatecfn
                0x2001a9b0      0x308 C:/Users/user1/Documents/hoopoe-2/hal/demo/..//hcc/lib\libHCCD.a(safefat.o)
 .text._s_cmd_seteof
                0x2001acb8      0x3c4 C:/Users/user1/Documents/hoopoe-2/hal/demo/..//hcc/lib\libHCCD.a(safefat.o)
 .text.safe_docommands
                0x2001b07c      0x56c C:/Users/user1/Documents/hoopoe-2/hal/demo/..//hcc/lib\libHCCD.a(safefat.o)
                0x2001b07c                safe_docommands
 .text.safe_entercommand
                0x2001b5e8       0x68 C:/Users/user1/Documents/hoopoe-2/hal/demo/..//hcc/lib\libHCCD.a(safefat.o)
                0x2001b5e8                safe_entercommand
 .text.safe_ready
                0x2001b650       0xf4 C:/Users/user1/Documents/hoopoe-2/hal/demo/..//hcc/lib\libHCCD.a(safefat.o)
                0x2001b650                safe_ready
 .text.safe_copycfn
                0x2001b744       0xb8 C:/Users/user1/Documents/hoopoe-2/hal/demo/..//hcc/lib\libHCCD.a(safefat.o)
                0x2001b744                safe_copycfn
 .text.safe_cfremove
                0x2001b7fc       0xb8 C:/Users/user1/Documents/hoopoe-2/hal/demo/..//hcc/lib\libHCCD.a(safefat.o)
                0x2001b7fc                safe_cfremove
 .text.safe_writede
                0x2001b8b4      0x104 C:/Users/user1/Documents/hoopoe-2/hal/demo/..//hcc/lib\libHCCD.a(safefat.o)
                0x2001b8b4                safe_writede
 .text.safe_setcluster
                0x2001b9b8       0xcc C:/Users/user1/Documents/hoopoe-2/hal/demo/..//hcc/lib\libHCCD.a(safefat.o)
                0x2001b9b8                safe_setcluster
 .text.safe_deletechain
                0x2001ba84      0x1c8 C:/Users/user1/Documents/hoopoe-2/hal/demo/..//hcc/lib\libHCCD.a(safefat.o)
                0x2001ba84                safe_deletechain
 .text.safe_cfclose
                0x2001bc4c      0x104 C:/Users/user1/Documents/hoopoe-2/hal/demo/..//hcc/lib\libHCCD.a(safefat.o)
                0x2001bc4c                safe_cfclose
 .text.safe_seteof
                0x2001bd50      0x1a0 C:/Users/user1/Documents/hoopoe-2/hal/demo/..//hcc/lib\libHCCD.a(safefat.o)
                0x2001bd50                safe_seteof
 .text.safe_cfflush
                0x2001bef0      0x124 C:/Users/user1/Documents/hoopoe-2/hal/demo/..//hcc/lib\libHCCD.a(safefat.o)
                0x2001bef0                safe_cfflush
 .text.safe_reset
                0x2001c014       0x78 C:/Users/user1/Documents/hoopoe-2/hal/demo/..//hcc/lib\libHCCD.a(safefat.o)
                0x2001c014                safe_reset
 .text.safe_loadcommands
                0x2001c08c       0x78 C:/Users/user1/Documents/hoopoe-2/hal/demo/..//hcc/lib\libHCCD.a(safefat.o)
                0x2001c08c                safe_loadcommands
 .text.safe_poweron
                0x2001c104      0x1fc C:/Users/user1/Documents/hoopoe-2/hal/demo/..//hcc/lib\libHCCD.a(safefat.o)
                0x2001c104                safe_poweron
 .text.cf_getname
                0x2001c300       0xc0 C:/Users/user1/Documents/hoopoe-2/hal/demo/..//hcc/lib\libHCCD.a(safefat.o)
 .text.cf_copyclusterchain
                0x2001c3c0      0x138 C:/Users/user1/Documents/hoopoe-2/hal/demo/..//hcc/lib\libHCCD.a(safefat.o)
 .text.cf_seektozero
                0x2001c4f8       0x94 C:/Users/user1/Documents/hoopoe-2/hal/demo/..//hcc/lib\libHCCD.a(safefat.o)
                0x2001c4f8                cf_seektozero
 .text.cf_create
                0x2001c58c      0x3a8 C:/Users/user1/Documents/hoopoe-2/hal/demo/..//hcc/lib\libHCCD.a(safefat.o)
                0x2001c58c                cf_create
 .text.cf_copyclustercontent
                0x2001c934      0x128 C:/Users/user1/Documents/hoopoe-2/hal/demo/..//hcc/lib\libHCCD.a(safefat.o)
                0x2001c934                cf_copyclustercontent
 .text.cf_copycfn
                0x2001ca5c      0x4bc C:/Users/user1/Documents/hoopoe-2/hal/demo/..//hcc/lib\libHCCD.a(safefat.o)
                0x2001ca5c                cf_copycfn
 .text.cf_remove
                0x2001cf18      0x344 C:/Users/user1/Documents/hoopoe-2/hal/demo/..//hcc/lib\libHCCD.a(safefat.o)
                0x2001cf18                cf_remove
 .text.cf_setclusternew
                0x2001d25c       0xf0 C:/Users/user1/Documents/hoopoe-2/hal/demo/..//hcc/lib\libHCCD.a(safefat.o)
                0x2001d25c                cf_setclusternew
 .text.cf_flush
                0x2001d34c       0x58 C:/Users/user1/Documents/hoopoe-2/hal/demo/..//hcc/lib\libHCCD.a(safefat.o)
                0x2001d34c                cf_flush
 .text.cf_getcluster
                0x2001d3a4      0x1b4 C:/Users/user1/Documents/hoopoe-2/hal/demo/..//hcc/lib\libHCCD.a(safefat.o)
                0x2001d3a4                cf_getcluster
 .text.cf_setnextcluster
                0x2001d558      0x194 C:/Users/user1/Documents/hoopoe-2/hal/demo/..//hcc/lib\libHCCD.a(safefat.o)
                0x2001d558                cf_setnextcluster
 .text.cf_getpositions
                0x2001d6ec       0xbc C:/Users/user1/Documents/hoopoe-2/hal/demo/..//hcc/lib\libHCCD.a(safefat.o)
                0x2001d6ec                cf_getpositions
 .text.cf_setpositions
                0x2001d7a8       0xb0 C:/Users/user1/Documents/hoopoe-2/hal/demo/..//hcc/lib\libHCCD.a(safefat.o)
                0x2001d7a8                cf_setpositions
 .text.cf_opensyncafile
                0x2001d858      0x150 C:/Users/user1/Documents/hoopoe-2/hal/demo/..//hcc/lib\libHCCD.a(safefat.o)
                0x2001d858                cf_opensyncafile
 .text.cf_reloadcfo
                0x2001d9a8       0xd8 C:/Users/user1/Documents/hoopoe-2/hal/demo/..//hcc/lib\libHCCD.a(safefat.o)
                0x2001d9a8                cf_reloadcfo
 .text.open_alternating
                0x2001da80       0x58 C:/Users/user1/Documents/hoopoe-2/hal/demo/..//hcc/lib\libHCCD.a(fat_test.o)
                0x2001da80                open_alternating
 .text.f_nameconv
                0x2001dad8       0xb8 C:/Users/user1/Documents/hoopoe-2/hal/demo/..//hcc/lib\libHCCD.a(fat_test.o)
 .text.STRCMP   0x2001db90       0x8c C:/Users/user1/Documents/hoopoe-2/hal/demo/..//hcc/lib\libHCCD.a(fat_test.o)
 .text._f_checkcwd
                0x2001dc1c      0x108 C:/Users/user1/Documents/hoopoe-2/hal/demo/..//hcc/lib\libHCCD.a(fat_test.o)
 .text.checkfilecontent
                0x2001dd24       0xb8 C:/Users/user1/Documents/hoopoe-2/hal/demo/..//hcc/lib\libHCCD.a(fat_test.o)
 .text.f_formatting
                0x2001dddc      0x304 C:/Users/user1/Documents/hoopoe-2/hal/demo/..//hcc/lib\libHCCD.a(fat_test.o)
                0x2001dddc                f_formatting
 .text.f_dirtest
                0x2001e0e0     0x10fc C:/Users/user1/Documents/hoopoe-2/hal/demo/..//hcc/lib\libHCCD.a(fat_test.o)
 .text.f_findingtest
                0x2001f1dc      0xf54 C:/Users/user1/Documents/hoopoe-2/hal/demo/..//hcc/lib\libHCCD.a(fat_test.o)
 .text.f_powerfail
                0x20020130      0x7d4 C:/Users/user1/Documents/hoopoe-2/hal/demo/..//hcc/lib\libHCCD.a(fat_test.o)
 .text.f_seeking
                0x20020904     0x25f0 C:/Users/user1/Documents/hoopoe-2/hal/demo/..//hcc/lib\libHCCD.a(fat_test.o)
 .text.f_opening
                0x20022ef4     0x17a4 C:/Users/user1/Documents/hoopoe-2/hal/demo/..//hcc/lib\libHCCD.a(fat_test.o)
 .text.f_appending
                0x20024698      0x58c C:/Users/user1/Documents/hoopoe-2/hal/demo/..//hcc/lib\libHCCD.a(fat_test.o)
 .text.f_writing
                0x20024c24     0x1a54 C:/Users/user1/Documents/hoopoe-2/hal/demo/..//hcc/lib\libHCCD.a(fat_test.o)
 .text.f_dots   0x20026678      0x638 C:/Users/user1/Documents/hoopoe-2/hal/demo/..//hcc/lib\libHCCD.a(fat_test.o)
 .text.f_rit    0x20026cb0      0x4b8 C:/Users/user1/Documents/hoopoe-2/hal/demo/..//hcc/lib\libHCCD.a(fat_test.o)
 .text.f_truncating
                0x20027168      0x7a4 C:/Users/user1/Documents/hoopoe-2/hal/demo/..//hcc/lib\libHCCD.a(fat_test.o)
 .text.f_seekpos
                0x2002790c     0x165c C:/Users/user1/Documents/hoopoe-2/hal/demo/..//hcc/lib\libHCCD.a(fat_test.o)
 .text.f_misc   0x20028f68     0x1e08 C:/Users/user1/Documents/hoopoe-2/hal/demo/..//hcc/lib\libHCCD.a(fat_test.o)
 .text.f_renaming
                0x2002ad70      0xb50 C:/Users/user1/Documents/hoopoe-2/hal/demo/..//hcc/lib\libHCCD.a(fat_test.o)
 .text.print_version
                0x2002b8c0       0x3c C:/Users/user1/Documents/hoopoe-2/hal/demo/..//hcc/lib\libHCCD.a(fat_test.o)
 .text.chdir_up
                0x2002b8fc      0x11c C:/Users/user1/Documents/hoopoe-2/hal/demo/..//hcc/lib\libHCCD.a(fat_test.o)
 .text.create_dirname
                0x2002ba18       0xd4 C:/Users/user1/Documents/hoopoe-2/hal/demo/..//hcc/lib\libHCCD.a(fat_test.o)
 .text.long_dirnames
                0x2002baec      0x5d8 C:/Users/user1/Documents/hoopoe-2/hal/demo/..//hcc/lib\libHCCD.a(fat_test.o)
 .text.f_dotest
                0x2002c0c4      0x35c C:/Users/user1/Documents/hoopoe-2/hal/demo/..//hcc/lib\libHCCD.a(fat_test.o)
                0x2002c0c4                f_dotest
 .text.mcipdc_cmd
                0x2002c420      0x22c C:/Users/user1/Documents/hoopoe-2/hal/demo/..//hcc/lib\libHCCD.a(atmel_mcipdc.o)
 .text.mcipdc_stop
                0x2002c64c       0xfc C:/Users/user1/Documents/hoopoe-2/hal/demo/..//hcc/lib\libHCCD.a(atmel_mcipdc.o)
                0x2002c64c                mcipdc_stop
 .text.mcipdc_read
                0x2002c748      0x27c C:/Users/user1/Documents/hoopoe-2/hal/demo/..//hcc/lib\libHCCD.a(atmel_mcipdc.o)
 .text.mcipdc_write
                0x2002c9c4      0x298 C:/Users/user1/Documents/hoopoe-2/hal/demo/..//hcc/lib\libHCCD.a(atmel_mcipdc.o)
 .text.mcipdc_readsector
                0x2002cc5c       0x9c C:/Users/user1/Documents/hoopoe-2/hal/demo/..//hcc/lib\libHCCD.a(atmel_mcipdc.o)
                0x2002cc5c                mcipdc_readsector
 .text.mcipdc_readmultiplesector
                0x2002ccf8      0x124 C:/Users/user1/Documents/hoopoe-2/hal/demo/..//hcc/lib\libHCCD.a(atmel_mcipdc.o)
                0x2002ccf8                mcipdc_readmultiplesector
 .text.mcipdc_writesector
                0x2002ce1c       0x90 C:/Users/user1/Documents/hoopoe-2/hal/demo/..//hcc/lib\libHCCD.a(atmel_mcipdc.o)
                0x2002ce1c                mcipdc_writesector
 .text.mcipdc_writemultiplesector
                0x2002ceac      0x120 C:/Users/user1/Documents/hoopoe-2/hal/demo/..//hcc/lib\libHCCD.a(atmel_mcipdc.o)
                0x2002ceac                mcipdc_writemultiplesector
 .text.mcipdc_set_speed
                0x2002cfcc       0xb0 C:/Users/user1/Documents/hoopoe-2/hal/demo/..//hcc/lib\libHCCD.a(atmel_mcipdc.o)
 .text.mcipdc_get_speed
                0x2002d07c       0x48 C:/Users/user1/Documents/hoopoe-2/hal/demo/..//hcc/lib\libHCCD.a(atmel_mcipdc.o)
 .text._get_csd_bits
                0x2002d0c4      0x14c C:/Users/user1/Documents/hoopoe-2/hal/demo/..//hcc/lib\libHCCD.a(atmel_mcipdc.o)
 .text.mcipdc_initcard
                0x2002d210      0x8f4 C:/Users/user1/Documents/hoopoe-2/hal/demo/..//hcc/lib\libHCCD.a(atmel_mcipdc.o)
 .text.mcipdc_getstatus
                0x2002db04       0xe8 C:/Users/user1/Documents/hoopoe-2/hal/demo/..//hcc/lib\libHCCD.a(atmel_mcipdc.o)
 .text.mcipdc_getphy
                0x2002dbec       0x90 C:/Users/user1/Documents/hoopoe-2/hal/demo/..//hcc/lib\libHCCD.a(atmel_mcipdc.o)
 .text.mcipdc_release
                0x2002dc7c       0x50 C:/Users/user1/Documents/hoopoe-2/hal/demo/..//hcc/lib\libHCCD.a(atmel_mcipdc.o)
 .text.atmel_mcipdc_initfunc
                0x2002dccc      0x160 C:/Users/user1/Documents/hoopoe-2/hal/demo/..//hcc/lib\libHCCD.a(atmel_mcipdc.o)
                0x2002dccc                atmel_mcipdc_initfunc
 .text.oal_mutex_create
                0x2002de2c       0x54 C:/Users/user1/Documents/hoopoe-2/hal/demo/..//hcc/lib\libHCCD.a(oalp_mutex.o)
                0x2002de2c                oal_mutex_create
 .text.oal_mutex_delete
                0x2002de80       0x30 C:/Users/user1/Documents/hoopoe-2/hal/demo/..//hcc/lib\libHCCD.a(oalp_mutex.o)
                0x2002de80                oal_mutex_delete
 .text.oal_mutex_get
                0x2002deb0       0x58 C:/Users/user1/Documents/hoopoe-2/hal/demo/..//hcc/lib\libHCCD.a(oalp_mutex.o)
                0x2002deb0                oal_mutex_get
 .text.oal_mutex_put
                0x2002df08       0x58 C:/Users/user1/Documents/hoopoe-2/hal/demo/..//hcc/lib\libHCCD.a(oalp_mutex.o)
                0x2002df08                oal_mutex_put
 .text.oal_task_get_id
                0x2002df60       0x18 C:/Users/user1/Documents/hoopoe-2/hal/demo/..//hcc/lib\libHCCD.a(oalp_task.o)
                0x2002df60                oal_task_get_id
 .text.mcipdc_hw_init
                0x2002df78       0xe8 C:/Users/user1/Documents/hoopoe-2/hal/demo/..//hcc/lib\libHCCD.a(atmel_mcipdc_hw.o)
                0x2002df78                mcipdc_hw_init
 .text.mcipdc_hw_delete
                0x2002e060       0x78 C:/Users/user1/Documents/hoopoe-2/hal/demo/..//hcc/lib\libHCCD.a(atmel_mcipdc_hw.o)
                0x2002e060                mcipdc_hw_delete
 .text.mcipdc_hw_card_plugged
                0x2002e0d8       0x1c C:/Users/user1/Documents/hoopoe-2/hal/demo/..//hcc/lib\libHCCD.a(atmel_mcipdc_hw.o)
                0x2002e0d8                mcipdc_hw_card_plugged
 .text.mcipdc_hw_card_writeprotect
                0x2002e0f4       0x1c C:/Users/user1/Documents/hoopoe-2/hal/demo/..//hcc/lib\libHCCD.a(atmel_mcipdc_hw.o)
                0x2002e0f4                mcipdc_hw_card_writeprotect
 .text._f_poweron
                0x2002e110       0x78 C:/Users/user1/Documents/hoopoe-2/hal/demo/..//hcc/lib\libHCCD.a(fat_testport.o)
                0x2002e110                _f_poweron
 .text._f_poweroff
                0x2002e188       0x2c C:/Users/user1/Documents/hoopoe-2/hal/demo/..//hcc/lib\libHCCD.a(fat_testport.o)
                0x2002e188                _f_poweroff
 .text._f_dump  0x2002e1b4       0x28 C:/Users/user1/Documents/hoopoe-2/hal/demo/..//hcc/lib\libHCCD.a(fat_testport.o)
                0x2002e1b4                _f_dump
 .text._f_result
                0x2002e1dc       0x58 C:/Users/user1/Documents/hoopoe-2/hal/demo/..//hcc/lib\libHCCD.a(fat_testport.o)
                0x2002e1dc                _f_result
 .text.psp_getrand
                0x2002e234      0x14c C:/Users/user1/Documents/hoopoe-2/hal/demo/..//hcc/lib\libHCCD.a(psp_rand.o)
                0x2002e234                psp_getrand
 .text.psp_getcurrenttimedate
                0x2002e380       0x8c C:/Users/user1/Documents/hoopoe-2/hal/demo/..//hcc/lib\libHCCD.a(psp_rtc.o)
                0x2002e380                psp_getcurrenttimedate
 .text._hcc_get_buf_dsc
                0x2002e40c       0x8c C:/Users/user1/Documents/hoopoe-2/hal/demo/..//hcc/lib\libHCCD.a(hcc_mem.o)
 .text._hcc_check_free_pages
                0x2002e498      0x18c C:/Users/user1/Documents/hoopoe-2/hal/demo/..//hcc/lib\libHCCD.a(hcc_mem.o)
 .text._hcc_mark_pages
                0x2002e624      0x158 C:/Users/user1/Documents/hoopoe-2/hal/demo/..//hcc/lib\libHCCD.a(hcc_mem.o)
 .text._hcc_clear_lock_dsc
                0x2002e77c       0x80 C:/Users/user1/Documents/hoopoe-2/hal/demo/..//hcc/lib\libHCCD.a(hcc_mem.o)
 .text._hcc_lock_access
                0x2002e7fc      0x128 C:/Users/user1/Documents/hoopoe-2/hal/demo/..//hcc/lib\libHCCD.a(hcc_mem.o)
 .text._hcc_unlock_access
                0x2002e924       0x30 C:/Users/user1/Documents/hoopoe-2/hal/demo/..//hcc/lib\libHCCD.a(hcc_mem.o)
 .text.hcc_mem_alloc
                0x2002e954      0x454 C:/Users/user1/Documents/hoopoe-2/hal/demo/..//hcc/lib\libHCCD.a(hcc_mem.o)
                0x2002e954                hcc_mem_alloc
 .text.hcc_mem_free
                0x2002eda8      0x178 C:/Users/user1/Documents/hoopoe-2/hal/demo/..//hcc/lib\libHCCD.a(hcc_mem.o)
                0x2002eda8                hcc_mem_free
 .text.hcc_mem_add
                0x2002ef20      0x3b0 C:/Users/user1/Documents/hoopoe-2/hal/demo/..//hcc/lib\libHCCD.a(hcc_mem.o)
                0x2002ef20                hcc_mem_add
 .text.hcc_mem_init
                0x2002f2d0      0x164 C:/Users/user1/Documents/hoopoe-2/hal/demo/..//hcc/lib\libHCCD.a(hcc_mem.o)
                0x2002f2d0                hcc_mem_init
 .text.hcc_mem_delete
                0x2002f434       0x94 C:/Users/user1/Documents/hoopoe-2/hal/demo/..//hcc/lib\libHCCD.a(hcc_mem.o)
                0x2002f434                hcc_mem_delete
 .text._f_invalidatedir
                0x2002f4c8       0x28 C:/Users/user1/Documents/hoopoe-2/hal/demo/..//hcc/lib\libHCCD.a(fat.o)
                0x2002f4c8                _f_invalidatedir
 .text._f_getdirsector
                0x2002f4f0       0x88 C:/Users/user1/Documents/hoopoe-2/hal/demo/..//hcc/lib\libHCCD.a(fat.o)
                0x2002f4f0                _f_getdirsector
 .text._f_writedirsector
                0x2002f578       0x74 C:/Users/user1/Documents/hoopoe-2/hal/demo/..//hcc/lib\libHCCD.a(fat.o)
                0x2002f578                _f_writedirsector
 .text._f_checknameinv
                0x2002f5ec      0x180 C:/Users/user1/Documents/hoopoe-2/hal/demo/..//hcc/lib\libHCCD.a(fat.o)
 .text._f_checkname
                0x2002f76c       0x7c C:/Users/user1/Documents/hoopoe-2/hal/demo/..//hcc/lib\libHCCD.a(fat.o)
 .text._f_checknamewc
                0x2002f7e8       0xf8 C:/Users/user1/Documents/hoopoe-2/hal/demo/..//hcc/lib\libHCCD.a(fat.o)
 .text._f_setnameext
                0x2002f8e0      0x300 C:/Users/user1/Documents/hoopoe-2/hal/demo/..//hcc/lib\libHCCD.a(fat.o)
 .text._f_setfsname
                0x2002fbe0      0x584 C:/Users/user1/Documents/hoopoe-2/hal/demo/..//hcc/lib\libHCCD.a(fat.o)
 .text._f_findfile
                0x20030164      0x30c C:/Users/user1/Documents/hoopoe-2/hal/demo/..//hcc/lib\libHCCD.a(fat.o)
 .text._f_cmp_wname
                0x20030470      0x274 C:/Users/user1/Documents/hoopoe-2/hal/demo/..//hcc/lib\libHCCD.a(fat.o)
 .text._f_to_string
                0x200306e4      0x130 C:/Users/user1/Documents/hoopoe-2/hal/demo/..//hcc/lib\libHCCD.a(fat.o)
 .text._f_findfilewc
                0x20030814      0x278 C:/Users/user1/Documents/hoopoe-2/hal/demo/..//hcc/lib\libHCCD.a(fat.o)
 .text._f_getfilename
                0x20030a8c      0x20c C:/Users/user1/Documents/hoopoe-2/hal/demo/..//hcc/lib\libHCCD.a(fat.o)
 .text._f_findpath
                0x20030c98      0x35c C:/Users/user1/Documents/hoopoe-2/hal/demo/..//hcc/lib\libHCCD.a(fat.o)
 .text.fn_getdcwd
                0x20030ff4      0x1e0 C:/Users/user1/Documents/hoopoe-2/hal/demo/..//hcc/lib\libHCCD.a(fat.o)
                0x20030ff4                fn_getdcwd
 .text.fn_getcwd
                0x200311d4      0x1e8 C:/Users/user1/Documents/hoopoe-2/hal/demo/..//hcc/lib\libHCCD.a(fat.o)
                0x200311d4                fn_getcwd
 .text.fn_findfirst
                0x200313bc      0x13c C:/Users/user1/Documents/hoopoe-2/hal/demo/..//hcc/lib\libHCCD.a(fat.o)
                0x200313bc                fn_findfirst
 .text.fn_findnext
                0x200314f8      0x360 C:/Users/user1/Documents/hoopoe-2/hal/demo/..//hcc/lib\libHCCD.a(fat.o)
                0x200314f8                fn_findnext
 .text.fn_chdir
                0x20031858      0x240 C:/Users/user1/Documents/hoopoe-2/hal/demo/..//hcc/lib\libHCCD.a(fat.o)
                0x20031858                fn_chdir
 .text.fn_move  0x20031a98      0xad0 C:/Users/user1/Documents/hoopoe-2/hal/demo/..//hcc/lib\libHCCD.a(fat.o)
                0x20031a98                fn_move
 .text.fn_rename
                0x20032568      0x214 C:/Users/user1/Documents/hoopoe-2/hal/demo/..//hcc/lib\libHCCD.a(fat.o)
                0x20032568                fn_rename
 .text._f_lock_resfile
                0x2003277c       0x6c C:/Users/user1/Documents/hoopoe-2/hal/demo/..//hcc/lib\libHCCD.a(fat.o)
 .text._f_unlock_resfile
                0x200327e8       0x40 C:/Users/user1/Documents/hoopoe-2/hal/demo/..//hcc/lib\libHCCD.a(fat.o)
 .text._f_getintfile
                0x20032828      0x124 C:/Users/user1/Documents/hoopoe-2/hal/demo/..//hcc/lib\libHCCD.a(fat.o)
 .text._f_addentry
                0x2003294c      0x540 C:/Users/user1/Documents/hoopoe-2/hal/demo/..//hcc/lib\libHCCD.a(fat.o)
 .text.fn_mkdir
                0x20032e8c      0x75c C:/Users/user1/Documents/hoopoe-2/hal/demo/..//hcc/lib\libHCCD.a(fat.o)
                0x20032e8c                fn_mkdir
 .text.fn_filelength
                0x200335e8      0x1cc C:/Users/user1/Documents/hoopoe-2/hal/demo/..//hcc/lib\libHCCD.a(fat.o)
                0x200335e8                fn_filelength
 .text.fn_open_sub
                0x200337b4     0x1698 C:/Users/user1/Documents/hoopoe-2/hal/demo/..//hcc/lib\libHCCD.a(fat.o)
 .text.fn_open  0x20034e4c       0x44 C:/Users/user1/Documents/hoopoe-2/hal/demo/..//hcc/lib\libHCCD.a(fat.o)
                0x20034e4c                fn_open
 .text.fn_open_nonsafe
                0x20034e90       0x44 C:/Users/user1/Documents/hoopoe-2/hal/demo/..//hcc/lib\libHCCD.a(fat.o)
                0x20034e90                fn_open_nonsafe
 .text.fn_settimedate
                0x20034ed4      0x324 C:/Users/user1/Documents/hoopoe-2/hal/demo/..//hcc/lib\libHCCD.a(fat.o)
                0x20034ed4                fn_settimedate
 .text.fn_gettimedate
                0x200351f8      0x1bc C:/Users/user1/Documents/hoopoe-2/hal/demo/..//hcc/lib\libHCCD.a(fat.o)
                0x200351f8                fn_gettimedate
 .text.fn_stat  0x200353b4      0x26c C:/Users/user1/Documents/hoopoe-2/hal/demo/..//hcc/lib\libHCCD.a(fat.o)
                0x200353b4                fn_stat
 .text.fn_delete
                0x20035620      0x490 C:/Users/user1/Documents/hoopoe-2/hal/demo/..//hcc/lib\libHCCD.a(fat.o)
                0x20035620                fn_delete
 .text.fn_getattr
                0x20035ab0      0x17c C:/Users/user1/Documents/hoopoe-2/hal/demo/..//hcc/lib\libHCCD.a(fat.o)
                0x20035ab0                fn_getattr
 .text.fn_setattr
                0x20035c2c      0x328 C:/Users/user1/Documents/hoopoe-2/hal/demo/..//hcc/lib\libHCCD.a(fat.o)
                0x20035c2c                fn_setattr
 .text.fn_rmdir
                0x20035f54      0x5ac C:/Users/user1/Documents/hoopoe-2/hal/demo/..//hcc/lib\libHCCD.a(fat.o)
                0x20035f54                fn_rmdir
 .text.fn_getlabel
                0x20036500      0x39c C:/Users/user1/Documents/hoopoe-2/hal/demo/..//hcc/lib\libHCCD.a(fat.o)
                0x20036500                fn_getlabel
 .text.fn_setlabel
                0x2003689c      0x574 C:/Users/user1/Documents/hoopoe-2/hal/demo/..//hcc/lib\libHCCD.a(fat.o)
                0x2003689c                fn_setlabel
 .text.fn_truncate
                0x20036e10      0x7b4 C:/Users/user1/Documents/hoopoe-2/hal/demo/..//hcc/lib\libHCCD.a(fat.o)
                0x20036e10                fn_truncate
 .text.hcc_mem_buf_alloc
                0x200375c4       0xe4 C:/Users/user1/Documents/hoopoe-2/hal/demo/..//hcc/lib\libHCCD.a(psp_hcc_mem.o)
                0x200375c4                hcc_mem_buf_alloc
 .text.hcc_mem_buf_free
                0x200376a8       0x6c C:/Users/user1/Documents/hoopoe-2/hal/demo/..//hcc/lib\libHCCD.a(psp_hcc_mem.o)
                0x200376a8                hcc_mem_buf_free
 .text.checksum_prepareLUTCRC32
                0x20037714       0x80 C:/Users/user1/Documents/hoopoe-2/hal/demo/..//hal/lib\libHALD.a(checksum.o)
                0x20037714                checksum_prepareLUTCRC32
 .text.checksum_calculateCRC32LUT
                0x20037794       0xa8 C:/Users/user1/Documents/hoopoe-2/hal/demo/..//hal/lib\libHALD.a(checksum.o)
                0x20037794                checksum_calculateCRC32LUT
 .text.checksum_calculateCRC32
                0x2003783c      0x184 C:/Users/user1/Documents/hoopoe-2/hal/demo/..//hal/lib\libHALD.a(checksum.o)
                0x2003783c                checksum_calculateCRC32
 .text.checksum_prepareLUTCRC16
                0x200379c0       0x8c C:/Users/user1/Documents/hoopoe-2/hal/demo/..//hal/lib\libHALD.a(checksum.o)
                0x200379c0                checksum_prepareLUTCRC16
 .text.checksum_calculateCRC16LUT
                0x20037a4c      0x158 C:/Users/user1/Documents/hoopoe-2/hal/demo/..//hal/lib\libHALD.a(checksum.o)
                0x20037a4c                checksum_calculateCRC16LUT
 .text.checksum_calculateCRC16
                0x20037ba4      0x124 C:/Users/user1/Documents/hoopoe-2/hal/demo/..//hal/lib\libHALD.a(checksum.o)
                0x20037ba4                checksum_calculateCRC16
 .text.checksum_prepareLUTCRC8
                0x20037cc8       0x88 C:/Users/user1/Documents/hoopoe-2/hal/demo/..//hal/lib\libHALD.a(checksum.o)
                0x20037cc8                checksum_prepareLUTCRC8
 .text.checksum_calculateCRC8LUT
                0x20037d50       0xa0 C:/Users/user1/Documents/hoopoe-2/hal/demo/..//hal/lib\libHALD.a(checksum.o)
                0x20037d50                checksum_calculateCRC8LUT
 .text.checksum_calculateCRC8
                0x20037df0      0x120 C:/Users/user1/Documents/hoopoe-2/hal/demo/..//hal/lib\libHALD.a(checksum.o)
                0x20037df0                checksum_calculateCRC8
 .text.Supervisor_start
                0x20037f10      0x238 C:/Users/user1/Documents/hoopoe-2/hal/demo/..//hal/lib\libHALD.a(supervisor.o)
                0x20037f10                Supervisor_start
 .text.SuperVisor_prepareAndCommunicateI2C
                0x20038148      0x294 C:/Users/user1/Documents/hoopoe-2/hal/demo/..//hal/lib\libHALD.a(supervisor.o)
 .text.Supervisor_prepareAndCommunicateSPI
                0x200383dc       0xc8 C:/Users/user1/Documents/hoopoe-2/hal/demo/..//hal/lib\libHALD.a(supervisor.o)
 .text.Supervisor_performCommunication
                0x200384a4      0x320 C:/Users/user1/Documents/hoopoe-2/hal/demo/..//hal/lib\libHALD.a(supervisor.o)
 .text.Supervisor_reset
                0x200387c4       0x58 C:/Users/user1/Documents/hoopoe-2/hal/demo/..//hal/lib\libHALD.a(supervisor.o)
                0x200387c4                Supervisor_reset
 .text.Supervisor_powerCycleIobc
                0x2003881c       0x58 C:/Users/user1/Documents/hoopoe-2/hal/demo/..//hal/lib\libHALD.a(supervisor.o)
                0x2003881c                Supervisor_powerCycleIobc
 .text.Supervisor_getVersion
                0x20038874       0x58 C:/Users/user1/Documents/hoopoe-2/hal/demo/..//hal/lib\libHALD.a(supervisor.o)
                0x20038874                Supervisor_getVersion
 .text.Supervisor_getHousekeeping
                0x200388cc       0x58 C:/Users/user1/Documents/hoopoe-2/hal/demo/..//hal/lib\libHALD.a(supervisor.o)
                0x200388cc                Supervisor_getHousekeeping
 .text.Supervisor_calculateAdcValues
                0x20038924      0x3c4 C:/Users/user1/Documents/hoopoe-2/hal/demo/..//hal/lib\libHALD.a(supervisor.o)
                0x20038924                Supervisor_calculateAdcValues
 .text.Supervisor_voltageToTempBinarySearch
                0x20038ce8      0x1ac C:/Users/user1/Documents/hoopoe-2/hal/demo/..//hal/lib\libHALD.a(supervisor.o)
 .text.Supervisor_CalculateCRC
                0x20038e94       0x8c C:/Users/user1/Documents/hoopoe-2/hal/demo/..//hal/lib\libHALD.a(supervisor.o)
 .text.ADC_ConvertRaw10bitToMillivolt
                0x20038f20       0x50 C:/Users/user1/Documents/hoopoe-2/hal/demo/..//hal/lib\libHALD.a(ADC.o)
                0x20038f20                ADC_ConvertRaw10bitToMillivolt
 .text.ADC_SingleShot
                0x20038f70      0x230 C:/Users/user1/Documents/hoopoe-2/hal/demo/..//hal/lib\libHALD.a(ADC.o)
                0x20038f70                ADC_SingleShot
 .text.ADC_start
                0x200391a0      0x5d8 C:/Users/user1/Documents/hoopoe-2/hal/demo/..//hal/lib\libHALD.a(ADC.o)
                0x200391a0                ADC_start
 .text.clearPDCtransfers
                0x20039778       0x88 C:/Users/user1/Documents/hoopoe-2/hal/demo/..//hal/lib\libHALD.a(ADC.o)
 .text.ADC_stop
                0x20039800       0x94 C:/Users/user1/Documents/hoopoe-2/hal/demo/..//hal/lib\libHALD.a(ADC.o)
                0x20039800                ADC_stop
 .text.validateTransferParameters
                0x20039894      0x10c C:/Users/user1/Documents/hoopoe-2/hal/demo/..//hal/lib\libHALD.a(I2C.o)
 .text.I2C_queueTransfer
                0x200399a0       0xe8 C:/Users/user1/Documents/hoopoe-2/hal/demo/..//hal/lib\libHALD.a(I2C.o)
                0x200399a0                I2C_queueTransfer
 .text.I2C_internalCallback
                0x20039a88       0x64 C:/Users/user1/Documents/hoopoe-2/hal/demo/..//hal/lib\libHALD.a(I2C.o)
 .text.I2C_doBlockingTransfer
                0x20039aec      0x160 C:/Users/user1/Documents/hoopoe-2/hal/demo/..//hal/lib\libHALD.a(I2C.o)
 .text.I2C_write
                0x20039c4c      0x110 C:/Users/user1/Documents/hoopoe-2/hal/demo/..//hal/lib\libHALD.a(I2C.o)
                0x20039c4c                I2C_write
 .text.I2C_writeRead
                0x20039d5c      0x180 C:/Users/user1/Documents/hoopoe-2/hal/demo/..//hal/lib\libHALD.a(I2C.o)
                0x20039d5c                I2C_writeRead
 .text.I2C_start
                0x20039edc      0x2e8 C:/Users/user1/Documents/hoopoe-2/hal/demo/..//hal/lib\libHALD.a(I2C.o)
                0x20039edc                I2C_start
 .text.I2C_stop
                0x2003a1c4      0x184 C:/Users/user1/Documents/hoopoe-2/hal/demo/..//hal/lib\libHALD.a(I2C.o)
                0x2003a1c4                I2C_stop
 .text.I2C_setTransferTimeout
                0x2003a348       0x48 C:/Users/user1/Documents/hoopoe-2/hal/demo/..//hal/lib\libHALD.a(I2C.o)
                0x2003a348                I2C_setTransferTimeout
 .text.uSdelay  0x2003a390       0x88 C:/Users/user1/Documents/hoopoe-2/hal/demo/..//hal/lib\libHALD.a(LED.o)
 .text.LED_start
                0x2003a418       0x1c C:/Users/user1/Documents/hoopoe-2/hal/demo/..//hal/lib\libHALD.a(LED.o)
                0x2003a418                LED_start
 .text.LED_glow
                0x2003a434       0x58 C:/Users/user1/Documents/hoopoe-2/hal/demo/..//hal/lib\libHALD.a(LED.o)
                0x2003a434                LED_glow
 .text.LED_dark
                0x2003a48c       0x58 C:/Users/user1/Documents/hoopoe-2/hal/demo/..//hal/lib\libHALD.a(LED.o)
                0x2003a48c                LED_dark
 .text.LED_toggle
                0x2003a4e4       0x50 C:/Users/user1/Documents/hoopoe-2/hal/demo/..//hal/lib\libHALD.a(LED.o)
                0x2003a4e4                LED_toggle
 .text.LED_wave
                0x2003a534       0xd0 C:/Users/user1/Documents/hoopoe-2/hal/demo/..//hal/lib\libHALD.a(LED.o)
                0x2003a534                LED_wave
 .text.LED_waveReverse
                0x2003a604       0xd0 C:/Users/user1/Documents/hoopoe-2/hal/demo/..//hal/lib\libHALD.a(LED.o)
                0x2003a604                LED_waveReverse
 .text.PWM_startUp
                0x2003a6d4       0xe8 C:/Users/user1/Documents/hoopoe-2/hal/demo/..//hal/lib\libHALD.a(PWM.o)
 .text.PWM_start
                0x2003a7bc       0x8c C:/Users/user1/Documents/hoopoe-2/hal/demo/..//hal/lib\libHALD.a(PWM.o)
                0x2003a7bc                PWM_start
 .text.PWM_setRawDutyCycles
                0x2003a848      0x170 C:/Users/user1/Documents/hoopoe-2/hal/demo/..//hal/lib\libHALD.a(PWM.o)
                0x2003a848                PWM_setRawDutyCycles
 .text.PWM_setAllDutyCyclesFull
                0x2003a9b8       0x74 C:/Users/user1/Documents/hoopoe-2/hal/demo/..//hal/lib\libHALD.a(PWM.o)
                0x2003a9b8                PWM_setAllDutyCyclesFull
 .text.PWM_setDutyCycles
                0x2003aa2c       0xcc C:/Users/user1/Documents/hoopoe-2/hal/demo/..//hal/lib\libHALD.a(PWM.o)
                0x2003aa2c                PWM_setDutyCycles
 .text.clearPDCtransfers
                0x2003aaf8       0xdc C:/Users/user1/Documents/hoopoe-2/hal/demo/..//hal/lib\libHALD.a(SPI.o)
 .text.SPI_start
                0x2003abd4      0x4c0 C:/Users/user1/Documents/hoopoe-2/hal/demo/..//hal/lib\libHALD.a(SPI.o)
                0x2003abd4                SPI_start
 .text.SPI_stop
                0x2003b094      0x22c C:/Users/user1/Documents/hoopoe-2/hal/demo/..//hal/lib\libHALD.a(SPI.o)
                0x2003b094                SPI_stop
 .text.SPI_queueTransfer
                0x2003b2c0      0x190 C:/Users/user1/Documents/hoopoe-2/hal/demo/..//hal/lib\libHALD.a(SPI.o)
                0x2003b2c0                SPI_queueTransfer
 .text.SPI_internalCallback
                0x2003b450       0x64 C:/Users/user1/Documents/hoopoe-2/hal/demo/..//hal/lib\libHALD.a(SPI.o)
 .text.SPI_writeRead
                0x2003b4b4      0x188 C:/Users/user1/Documents/hoopoe-2/hal/demo/..//hal/lib\libHALD.a(SPI.o)
                0x2003b4b4                SPI_writeRead
 .text.waitForTransfer
                0x2003b63c       0x68 C:/Users/user1/Documents/hoopoe-2/hal/demo/..//hal/lib\libHALD.a(SPI.o)
 .text.SPI_getDriverState
                0x2003b6a4       0x58 C:/Users/user1/Documents/hoopoe-2/hal/demo/..//hal/lib\libHALD.a(SPI.o)
                0x2003b6a4                SPI_getDriverState
 .text.clearPDCtransfers
                0x2003b6fc       0xdc C:/Users/user1/Documents/hoopoe-2/hal/demo/..//hal/lib\libHALD.a(UART.o)
 .text.UART_start
                0x2003b7d8      0x6d4 C:/Users/user1/Documents/hoopoe-2/hal/demo/..//hal/lib\libHALD.a(UART.o)
                0x2003b7d8                UART_start
 .text.UART_stop
                0x2003beac      0x250 C:/Users/user1/Documents/hoopoe-2/hal/demo/..//hal/lib\libHALD.a(UART.o)
                0x2003beac                UART_stop
 .text.UART_queueTransfer
                0x2003c0fc      0x1a8 C:/Users/user1/Documents/hoopoe-2/hal/demo/..//hal/lib\libHALD.a(UART.o)
                0x2003c0fc                UART_queueTransfer
 .text.UART_write
                0x2003c2a4      0x204 C:/Users/user1/Documents/hoopoe-2/hal/demo/..//hal/lib\libHALD.a(UART.o)
                0x2003c2a4                UART_write
 .text.UART_read
                0x2003c4a8      0x204 C:/Users/user1/Documents/hoopoe-2/hal/demo/..//hal/lib\libHALD.a(UART.o)
                0x2003c4a8                UART_read
 .text.taskWriteRegulator
                0x2003c6ac      0x2c0 C:/Users/user1/Documents/hoopoe-2/hal/demo/..//hal/lib\libHALD.a(UART.o)
 .text.taskReadRegulator
                0x2003c96c      0x2b4 C:/Users/user1/Documents/hoopoe-2/hal/demo/..//hal/lib\libHALD.a(UART.o)
 .text.FRAM_start
                0x2003cc20       0xf4 C:/Users/user1/Documents/hoopoe-2/hal/demo/..//hal/lib\libHALD.a(FRAM.o)
                0x2003cc20                FRAM_start
 .text.FRAM_dummyCallback
                0x2003cd14       0x24 C:/Users/user1/Documents/hoopoe-2/hal/demo/..//hal/lib\libHALD.a(FRAM.o)
                0x2003cd14                FRAM_dummyCallback
 .text.FRAM_unlockingCallback
                0x2003cd38       0x78 C:/Users/user1/Documents/hoopoe-2/hal/demo/..//hal/lib\libHALD.a(FRAM.o)
                0x2003cd38                FRAM_unlockingCallback
 .text.doBlockingTransfer
                0x2003cdb0       0x88 C:/Users/user1/Documents/hoopoe-2/hal/demo/..//hal/lib\libHALD.a(FRAM.o)
 .text.FRAM_writePacket
                0x2003ce38      0x148 C:/Users/user1/Documents/hoopoe-2/hal/demo/..//hal/lib\libHALD.a(FRAM.o)
 .text.FRAM_readPacket
                0x2003cf80      0x114 C:/Users/user1/Documents/hoopoe-2/hal/demo/..//hal/lib\libHALD.a(FRAM.o)
 .text.FRAM_writeAndVerifyPacket
                0x2003d094       0x8c C:/Users/user1/Documents/hoopoe-2/hal/demo/..//hal/lib\libHALD.a(FRAM.o)
 .text.FRAM_writeAndVerify
                0x2003d120      0x1e4 C:/Users/user1/Documents/hoopoe-2/hal/demo/..//hal/lib\libHALD.a(FRAM.o)
                0x2003d120                FRAM_writeAndVerify
 .text.RTC_start
                0x2003d304       0x3c C:/Users/user1/Documents/hoopoe-2/hal/demo/..//hal/lib\libHALD.a(RTC.o)
                0x2003d304                RTC_start
 .text.RTC_setTime
                0x2003d340      0x2a4 C:/Users/user1/Documents/hoopoe-2/hal/demo/..//hal/lib\libHALD.a(RTC.o)
                0x2003d340                RTC_setTime
 .text.RTC_getTime
                0x2003d5e4      0x224 C:/Users/user1/Documents/hoopoe-2/hal/demo/..//hal/lib\libHALD.a(RTC.o)
                0x2003d5e4                RTC_getTime
 .text.RTC_testGetSet
                0x2003d808      0x178 C:/Users/user1/Documents/hoopoe-2/hal/demo/..//hal/lib\libHALD.a(RTC.o)
                0x2003d808                RTC_testGetSet
 .text.RTC_checkTimeValid
                0x2003d980       0xdc C:/Users/user1/Documents/hoopoe-2/hal/demo/..//hal/lib\libHALD.a(RTC.o)
                0x2003d980                RTC_checkTimeValid
 .text.RTC_getTemperature
                0x2003da5c      0x104 C:/Users/user1/Documents/hoopoe-2/hal/demo/..//hal/lib\libHALD.a(RTC.o)
                0x2003da5c                RTC_getTemperature
 .text.Time_start
                0x2003db60      0x150 C:/Users/user1/Documents/hoopoe-2/hal/demo/..//hal/lib\libHALD.a(Time.o)
                0x2003db60                Time_start
 .text.taskTimeSync
                0x2003dcb0       0x38 C:/Users/user1/Documents/hoopoe-2/hal/demo/..//hal/lib\libHALD.a(Time.o)
 .text.Time_set
                0x2003dce8      0x278 C:/Users/user1/Documents/hoopoe-2/hal/demo/..//hal/lib\libHALD.a(Time.o)
                0x2003dce8                Time_set
 .text.Time_isLeapYear
                0x2003df60       0x98 C:/Users/user1/Documents/hoopoe-2/hal/demo/..//hal/lib\libHALD.a(Time.o)
                0x2003df60                Time_isLeapYear
 .text.Time_get
                0x2003dff8      0x410 C:/Users/user1/Documents/hoopoe-2/hal/demo/..//hal/lib\libHALD.a(Time.o)
                0x2003dff8                Time_get
 .text.Time_getUnixEpoch
                0x2003e408       0xf4 C:/Users/user1/Documents/hoopoe-2/hal/demo/..//hal/lib\libHALD.a(Time.o)
                0x2003e408                Time_getUnixEpoch
 .text.secondsOfYearToTime
                0x2003e4fc      0x328 C:/Users/user1/Documents/hoopoe-2/hal/demo/..//hal/lib\libHALD.a(Time.o)
 .text.Time_setUnixEpoch
                0x2003e824      0x100 C:/Users/user1/Documents/hoopoe-2/hal/demo/..//hal/lib\libHALD.a(Time.o)
                0x2003e824                Time_setUnixEpoch
 .text.Time_sync
                0x2003e924      0x2b8 C:/Users/user1/Documents/hoopoe-2/hal/demo/..//hal/lib\libHALD.a(Time.o)
                0x2003e924                Time_sync
 .text.Time_syncIfNeeded
                0x2003ebdc       0x70 C:/Users/user1/Documents/hoopoe-2/hal/demo/..//hal/lib\libHALD.a(Time.o)
                0x2003ebdc                Time_syncIfNeeded
 .text.Time_setSyncInterval
                0x2003ec4c       0x38 C:/Users/user1/Documents/hoopoe-2/hal/demo/..//hal/lib\libHALD.a(Time.o)
                0x2003ec4c                Time_setSyncInterval
 .text.WDT_start
                0x2003ec84       0x48 C:/Users/user1/Documents/hoopoe-2/hal/demo/..//hal/lib\libHALD.a(WatchDogTimerNoOS.o)
                0x2003ec84                WDT_start
 .text.WDT_startWatchdogKickTask
                0x2003eccc       0xb4 C:/Users/user1/Documents/hoopoe-2/hal/demo/..//hal/lib\libHALD.a(WatchDogTimerOS.o)
                0x2003eccc                WDT_startWatchdogKickTask
 .text.WDT_forceKickEveryNms
                0x2003ed80       0x50 C:/Users/user1/Documents/hoopoe-2/hal/demo/..//hal/lib\libHALD.a(WatchDogTimerOS.o)
                0x2003ed80                WDT_forceKickEveryNms
 .text.UTIL_DbguGetInteger
                0x2003edd0      0x124 C:/Users/user1/Documents/hoopoe-2/hal/demo/..//hal/lib\libHALD.a(util.o)
                0x2003edd0                UTIL_DbguGetInteger
 .text.UTIL_DbguGetIntegerMinMax
                0x2003eef4       0xa4 C:/Users/user1/Documents/hoopoe-2/hal/demo/..//hal/lib\libHALD.a(util.o)
                0x2003eef4                UTIL_DbguGetIntegerMinMax
 .text.RTT_start
                0x2003ef98       0x24 C:/Users/user1/Documents/hoopoe-2/hal/demo/..//hal/lib\libHALD.a(RTT.o)
                0x2003ef98                RTT_start
 .text.xQueueGenericReset
                0x2003efbc      0x150 C:/Users/user1/Documents/hoopoe-2/hal/demo/..//freertos/lib\libFreeRTOSD.a(queue.o)
                0x2003efbc                xQueueGenericReset
 .text.xQueueGenericCreate
                0x2003f10c       0xfc C:/Users/user1/Documents/hoopoe-2/hal/demo/..//freertos/lib\libFreeRTOSD.a(queue.o)
                0x2003f10c                xQueueGenericCreate
 .text.xQueueCreateMutex
                0x2003f208      0x110 C:/Users/user1/Documents/hoopoe-2/hal/demo/..//freertos/lib\libFreeRTOSD.a(queue.o)
                0x2003f208                xQueueCreateMutex
 .text.xQueueGenericSend
                0x2003f318      0x268 C:/Users/user1/Documents/hoopoe-2/hal/demo/..//freertos/lib\libFreeRTOSD.a(queue.o)
                0x2003f318                xQueueGenericSend
 .text.xQueueGenericSendFromISR
                0x2003f580      0x19c C:/Users/user1/Documents/hoopoe-2/hal/demo/..//freertos/lib\libFreeRTOSD.a(queue.o)
                0x2003f580                xQueueGenericSendFromISR
 .text.xQueueGenericReceive
                0x2003f71c      0x2cc C:/Users/user1/Documents/hoopoe-2/hal/demo/..//freertos/lib\libFreeRTOSD.a(queue.o)
                0x2003f71c                xQueueGenericReceive
 .text.uxQueueMessagesWaiting
                0x2003f9e8       0x6c C:/Users/user1/Documents/hoopoe-2/hal/demo/..//freertos/lib\libFreeRTOSD.a(queue.o)
                0x2003f9e8                uxQueueMessagesWaiting
 .text.vQueueDelete
                0x2003fa54       0x78 C:/Users/user1/Documents/hoopoe-2/hal/demo/..//freertos/lib\libFreeRTOSD.a(queue.o)
                0x2003fa54                vQueueDelete
 .text.prvCopyDataToQueue
                0x2003facc      0x190 C:/Users/user1/Documents/hoopoe-2/hal/demo/..//freertos/lib\libFreeRTOSD.a(queue.o)
 .text.prvCopyDataFromQueue
                0x2003fc5c       0x90 C:/Users/user1/Documents/hoopoe-2/hal/demo/..//freertos/lib\libFreeRTOSD.a(queue.o)
 .text.prvUnlockQueue
                0x2003fcec      0x100 C:/Users/user1/Documents/hoopoe-2/hal/demo/..//freertos/lib\libFreeRTOSD.a(queue.o)
 .text.prvIsQueueEmpty
                0x2003fdec       0x4c C:/Users/user1/Documents/hoopoe-2/hal/demo/..//freertos/lib\libFreeRTOSD.a(queue.o)
 .text.prvIsQueueFull
                0x2003fe38       0x54 C:/Users/user1/Documents/hoopoe-2/hal/demo/..//freertos/lib\libFreeRTOSD.a(queue.o)
 .text.vQueueUnregisterQueue
                0x2003fe8c       0x80 C:/Users/user1/Documents/hoopoe-2/hal/demo/..//freertos/lib\libFreeRTOSD.a(queue.o)
                0x2003fe8c                vQueueUnregisterQueue
 .text.xTaskGenericCreate
                0x2003ff0c      0x2ac C:/Users/user1/Documents/hoopoe-2/hal/demo/..//freertos/lib\libFreeRTOSD.a(tasks.o)
                0x2003ff0c                xTaskGenericCreate
 .text.vTaskDelete
                0x200401b8       0xe8 C:/Users/user1/Documents/hoopoe-2/hal/demo/..//freertos/lib\libFreeRTOSD.a(tasks.o)
                0x200401b8                vTaskDelete
 .text.vTaskDelay
                0x200402a0       0x80 C:/Users/user1/Documents/hoopoe-2/hal/demo/..//freertos/lib\libFreeRTOSD.a(tasks.o)
                0x200402a0                vTaskDelay
 .text.vTaskStartScheduler
                0x20040320       0xd4 C:/Users/user1/Documents/hoopoe-2/hal/demo/..//freertos/lib\libFreeRTOSD.a(tasks.o)
                0x20040320                vTaskStartScheduler
 .text.vTaskSuspendAll
                0x200403f4       0x2c C:/Users/user1/Documents/hoopoe-2/hal/demo/..//freertos/lib\libFreeRTOSD.a(tasks.o)
                0x200403f4                vTaskSuspendAll
 .text.xTaskResumeAll
                0x20040420      0x1f4 C:/Users/user1/Documents/hoopoe-2/hal/demo/..//freertos/lib\libFreeRTOSD.a(tasks.o)
                0x20040420                xTaskResumeAll
 .text.xTaskGetTickCount
                0x20040614       0x34 C:/Users/user1/Documents/hoopoe-2/hal/demo/..//freertos/lib\libFreeRTOSD.a(tasks.o)
                0x20040614                xTaskGetTickCount
 .text.xTaskIncrementTick
                0x20040648      0x298 C:/Users/user1/Documents/hoopoe-2/hal/demo/..//freertos/lib\libFreeRTOSD.a(tasks.o)
                0x20040648                xTaskIncrementTick
 .text.vTaskSwitchContext
                0x200408e0      0x18c C:/Users/user1/Documents/hoopoe-2/hal/demo/..//freertos/lib\libFreeRTOSD.a(tasks.o)
                0x200408e0                vTaskSwitchContext
 .text.vTaskPlaceOnEventList
                0x20040a6c       0xcc C:/Users/user1/Documents/hoopoe-2/hal/demo/..//freertos/lib\libFreeRTOSD.a(tasks.o)
                0x20040a6c                vTaskPlaceOnEventList
 .text.xTaskRemoveFromEventList
                0x20040b38      0x160 C:/Users/user1/Documents/hoopoe-2/hal/demo/..//freertos/lib\libFreeRTOSD.a(tasks.o)
                0x20040b38                xTaskRemoveFromEventList
 .text.vTaskSetTimeOutState
                0x20040c98       0x78 C:/Users/user1/Documents/hoopoe-2/hal/demo/..//freertos/lib\libFreeRTOSD.a(tasks.o)
                0x20040c98                vTaskSetTimeOutState
 .text.xTaskCheckForTimeOut
                0x20040d10      0x158 C:/Users/user1/Documents/hoopoe-2/hal/demo/..//freertos/lib\libFreeRTOSD.a(tasks.o)
                0x20040d10                xTaskCheckForTimeOut
 .text.vTaskMissedYield
                0x20040e68       0x24 C:/Users/user1/Documents/hoopoe-2/hal/demo/..//freertos/lib\libFreeRTOSD.a(tasks.o)
                0x20040e68                vTaskMissedYield
 .text.prvIdleTask
                0x20040e8c       0x20 C:/Users/user1/Documents/hoopoe-2/hal/demo/..//freertos/lib\libFreeRTOSD.a(tasks.o)
 .text.prvInitialiseTCBVariables
                0x20040eac      0x110 C:/Users/user1/Documents/hoopoe-2/hal/demo/..//freertos/lib\libFreeRTOSD.a(tasks.o)
 .text.prvInitialiseTaskLists
                0x20040fbc       0xbc C:/Users/user1/Documents/hoopoe-2/hal/demo/..//freertos/lib\libFreeRTOSD.a(tasks.o)
 .text.prvCheckTasksWaitingTermination
                0x20041078       0xbc C:/Users/user1/Documents/hoopoe-2/hal/demo/..//freertos/lib\libFreeRTOSD.a(tasks.o)
 .text.prvAddCurrentTaskToDelayedList
                0x20041134       0xb4 C:/Users/user1/Documents/hoopoe-2/hal/demo/..//freertos/lib\libFreeRTOSD.a(tasks.o)
 .text.prvAllocateTCBAndStack
                0x200411e8       0xb4 C:/Users/user1/Documents/hoopoe-2/hal/demo/..//freertos/lib\libFreeRTOSD.a(tasks.o)
 .text.prvDeleteTCB
                0x2004129c       0x30 C:/Users/user1/Documents/hoopoe-2/hal/demo/..//freertos/lib\libFreeRTOSD.a(tasks.o)
 .text.xTaskGetCurrentTaskHandle
                0x200412cc       0x30 C:/Users/user1/Documents/hoopoe-2/hal/demo/..//freertos/lib\libFreeRTOSD.a(tasks.o)
                0x200412cc                xTaskGetCurrentTaskHandle
 .text.xTaskGetSchedulerState
                0x200412fc       0x68 C:/Users/user1/Documents/hoopoe-2/hal/demo/..//freertos/lib\libFreeRTOSD.a(tasks.o)
                0x200412fc                xTaskGetSchedulerState
 .text.vTaskPriorityInherit
                0x20041364      0x148 C:/Users/user1/Documents/hoopoe-2/hal/demo/..//freertos/lib\libFreeRTOSD.a(tasks.o)
                0x20041364                vTaskPriorityInherit
 .text.vTaskPriorityDisinherit
                0x200414ac       0xdc C:/Users/user1/Documents/hoopoe-2/hal/demo/..//freertos/lib\libFreeRTOSD.a(tasks.o)
                0x200414ac                vTaskPriorityDisinherit
 .text.pvPortMalloc
                0x20041588       0x28 C:/Users/user1/Documents/hoopoe-2/hal/demo/..//freertos/lib\libFreeRTOSD.a(standardMemMang.o)
                0x20041588                pvPortMalloc
 .text.vPortFree
                0x200415b0       0x20 C:/Users/user1/Documents/hoopoe-2/hal/demo/..//freertos/lib\libFreeRTOSD.a(standardMemMang.o)
                0x200415b0                vPortFree
 .text.pxPortInitialiseStack
                0x200415d0      0x218 C:/Users/user1/Documents/hoopoe-2/hal/demo/..//freertos/lib\libFreeRTOSD.a(port.o)
                0x200415d0                pxPortInitialiseStack
 .text.xPortStartScheduler
                0x200417e8       0x1c C:/Users/user1/Documents/hoopoe-2/hal/demo/..//freertos/lib\libFreeRTOSD.a(port.o)
                0x200417e8                xPortStartScheduler
 .text.prvSetupTimerInterrupt
                0x20041804       0x54 C:/Users/user1/Documents/hoopoe-2/hal/demo/..//freertos/lib\libFreeRTOSD.a(port.o)
 .text.vPortISRStartFirstTask
                0x20041858       0x64 C:/Users/user1/Documents/hoopoe-2/hal/demo/..//freertos/lib\libFreeRTOSD.a(port.o)
 .text.vPortEnterCritical
                0x200418bc       0x40 C:/Users/user1/Documents/hoopoe-2/hal/demo/..//freertos/lib\libFreeRTOSD.a(port.o)
                0x200418bc                vPortEnterCritical
 .text.vPortExitCritical
                0x200418fc       0x60 C:/Users/user1/Documents/hoopoe-2/hal/demo/..//freertos/lib\libFreeRTOSD.a(port.o)
                0x200418fc                vPortExitCritical
 .text.vListInitialise
                0x2004195c       0x64 C:/Users/user1/Documents/hoopoe-2/hal/demo/..//freertos/lib\libFreeRTOSD.a(list.o)
                0x2004195c                vListInitialise
 .text.vListInitialiseItem
                0x200419c0       0x28 C:/Users/user1/Documents/hoopoe-2/hal/demo/..//freertos/lib\libFreeRTOSD.a(list.o)
                0x200419c0                vListInitialiseItem
 .text.vListInsertEnd
                0x200419e8       0x84 C:/Users/user1/Documents/hoopoe-2/hal/demo/..//freertos/lib\libFreeRTOSD.a(list.o)
                0x200419e8                vListInsertEnd
 .text.vListInsert
                0x20041a6c       0xd4 C:/Users/user1/Documents/hoopoe-2/hal/demo/..//freertos/lib\libFreeRTOSD.a(list.o)
                0x20041a6c                vListInsert
 .text.uxListRemove
                0x20041b40       0xa0 C:/Users/user1/Documents/hoopoe-2/hal/demo/..//freertos/lib\libFreeRTOSD.a(list.o)
                0x20041b40                uxListRemove
 .text._read    0x20041be0       0xa4 C:/Users/user1/Documents/hoopoe-2/hal/demo/..//at91/lib\libAt91D.a(syscalls.o)
                0x20041be0                _read
 .text._write   0x20041c84       0xb8 C:/Users/user1/Documents/hoopoe-2/hal/demo/..//at91/lib\libAt91D.a(syscalls.o)
                0x20041c84                _write
 .text._lseek   0x20041d3c       0x2c C:/Users/user1/Documents/hoopoe-2/hal/demo/..//at91/lib\libAt91D.a(syscalls.o)
                0x20041d3c                _lseek
 .text._close   0x20041d68       0x24 C:/Users/user1/Documents/hoopoe-2/hal/demo/..//at91/lib\libAt91D.a(syscalls.o)
                0x20041d68                _close
 .text._fstat   0x20041d8c       0x28 C:/Users/user1/Documents/hoopoe-2/hal/demo/..//at91/lib\libAt91D.a(syscalls.o)
                0x20041d8c                _fstat
 .text._isatty  0x20041db4       0x38 C:/Users/user1/Documents/hoopoe-2/hal/demo/..//at91/lib\libAt91D.a(syscalls.o)
                0x20041db4                _isatty
 .text._sbrk    0x20041dec       0xac C:/Users/user1/Documents/hoopoe-2/hal/demo/..//at91/lib\libAt91D.a(syscalls.o)
                0x20041dec                _sbrk
 .text.BOARD_RemapRam
                0x20041e98       0x24 C:/Users/user1/Documents/hoopoe-2/hal/demo/..//at91/lib\libAt91D.a(board_memories.o)
                0x20041e98                BOARD_RemapRam
 .text.ADC_CfgModeReg
                0x20041ebc       0x68 C:/Users/user1/Documents/hoopoe-2/hal/demo/..//at91/lib\libAt91D.a(adc_at91.o)
 .text.ADC_Initialize
                0x20041f24      0x154 C:/Users/user1/Documents/hoopoe-2/hal/demo/..//at91/lib\libAt91D.a(adc_at91.o)
                0x20041f24                ADC_Initialize
 .text.ADC_EnableChannel
                0x20042078       0x5c C:/Users/user1/Documents/hoopoe-2/hal/demo/..//at91/lib\libAt91D.a(adc_at91.o)
                0x20042078                ADC_EnableChannel
 .text.ADC_DisableChannel
                0x200420d4       0x5c C:/Users/user1/Documents/hoopoe-2/hal/demo/..//at91/lib\libAt91D.a(adc_at91.o)
                0x200420d4                ADC_DisableChannel
 .text.ADC_StartConversion
                0x20042130       0x28 C:/Users/user1/Documents/hoopoe-2/hal/demo/..//at91/lib\libAt91D.a(adc_at91.o)
                0x20042130                ADC_StartConversion
 .text.ADC_SoftReset
                0x20042158       0x28 C:/Users/user1/Documents/hoopoe-2/hal/demo/..//at91/lib\libAt91D.a(adc_at91.o)
                0x20042158                ADC_SoftReset
 .text.ADC_GetConvertedData
                0x20042180       0xb4 C:/Users/user1/Documents/hoopoe-2/hal/demo/..//at91/lib\libAt91D.a(adc_at91.o)
                0x20042180                ADC_GetConvertedData
 .text.ADC_GetStatus
                0x20042234       0x28 C:/Users/user1/Documents/hoopoe-2/hal/demo/..//at91/lib\libAt91D.a(adc_at91.o)
                0x20042234                ADC_GetStatus
 .text.ADC_IsStatusSet
                0x2004225c       0x34 C:/Users/user1/Documents/hoopoe-2/hal/demo/..//at91/lib\libAt91D.a(adc_at91.o)
                0x2004225c                ADC_IsStatusSet
 .text.AIC_ConfigureIT
                0x20042290       0x74 C:/Users/user1/Documents/hoopoe-2/hal/demo/..//at91/lib\libAt91D.a(aic.o)
                0x20042290                AIC_ConfigureIT
 .text.AIC_EnableIT
                0x20042304       0x34 C:/Users/user1/Documents/hoopoe-2/hal/demo/..//at91/lib\libAt91D.a(aic.o)
                0x20042304                AIC_EnableIT
 .text.AIC_DisableIT
                0x20042338       0x34 C:/Users/user1/Documents/hoopoe-2/hal/demo/..//at91/lib\libAt91D.a(aic.o)
                0x20042338                AIC_DisableIT
 .text.CP15_Enable_I_Cache
                0x2004236c       0x4c C:/Users/user1/Documents/hoopoe-2/hal/demo/..//at91/lib\libAt91D.a(cp15.o)
                0x2004236c                CP15_Enable_I_Cache
 .text.CP15_Disable_I_Cache
                0x200423b8       0x5c C:/Users/user1/Documents/hoopoe-2/hal/demo/..//at91/lib\libAt91D.a(cp15.o)
                0x200423b8                CP15_Disable_I_Cache
 .text.CP15_DisableMMU
                0x20042414       0x68 C:/Users/user1/Documents/hoopoe-2/hal/demo/..//at91/lib\libAt91D.a(cp15.o)
                0x20042414                CP15_DisableMMU
 .text.CP15_Disable_D_Cache
                0x2004247c       0x5c C:/Users/user1/Documents/hoopoe-2/hal/demo/..//at91/lib\libAt91D.a(cp15.o)
                0x2004247c                CP15_Disable_D_Cache
 .text.DBGU_Configure
                0x200424d8       0x84 C:/Users/user1/Documents/hoopoe-2/hal/demo/..//at91/lib\libAt91D.a(dbgu.o)
                0x200424d8                DBGU_Configure
 .text.DBGU_PutChar
                0x2004255c       0x60 C:/Users/user1/Documents/hoopoe-2/hal/demo/..//at91/lib\libAt91D.a(dbgu.o)
                0x2004255c                DBGU_PutChar
 .text.DBGU_IsRxReady
                0x200425bc       0x28 C:/Users/user1/Documents/hoopoe-2/hal/demo/..//at91/lib\libAt91D.a(dbgu.o)
                0x200425bc                DBGU_IsRxReady
 .text.DBGU_GetChar
                0x200425e4       0x40 C:/Users/user1/Documents/hoopoe-2/hal/demo/..//at91/lib\libAt91D.a(dbgu.o)
                0x200425e4                DBGU_GetChar
 .text.fputc    0x20042624       0x70 C:/Users/user1/Documents/hoopoe-2/hal/demo/..//at91/lib\libAt91D.a(dbgu.o)
                0x20042624                fputc
 .text.putchar  0x20042694       0x3c C:/Users/user1/Documents/hoopoe-2/hal/demo/..//at91/lib\libAt91D.a(dbgu.o)
                0x20042694                putchar
 .text.PIO_SetPeripheralA
                0x200426d0       0x74 C:/Users/user1/Documents/hoopoe-2/hal/demo/..//at91/lib\libAt91D.a(pio.o)
 .text.PIO_SetPeripheralB
                0x20042744       0x74 C:/Users/user1/Documents/hoopoe-2/hal/demo/..//at91/lib\libAt91D.a(pio.o)
 .text.PIO_SetInput
                0x200427b8       0x9c C:/Users/user1/Documents/hoopoe-2/hal/demo/..//at91/lib\libAt91D.a(pio.o)
 .text.PIO_SetOutput
                0x20042854       0xc4 C:/Users/user1/Documents/hoopoe-2/hal/demo/..//at91/lib\libAt91D.a(pio.o)
 .text.PIO_Configure
                0x20042918      0x1ec C:/Users/user1/Documents/hoopoe-2/hal/demo/..//at91/lib\libAt91D.a(pio.o)
                0x20042918                PIO_Configure
 .text.PIO_Set  0x20042b04       0x3c C:/Users/user1/Documents/hoopoe-2/hal/demo/..//at91/lib\libAt91D.a(pio.o)
                0x20042b04                PIO_Set
 .text.PIO_Clear
                0x20042b40       0x3c C:/Users/user1/Documents/hoopoe-2/hal/demo/..//at91/lib\libAt91D.a(pio.o)
                0x20042b40                PIO_Clear
 .text.PIO_Get  0x20042b7c       0x9c C:/Users/user1/Documents/hoopoe-2/hal/demo/..//at91/lib\libAt91D.a(pio.o)
                0x20042b7c                PIO_Get
 .text.PioInterruptHandler
                0x20042c18      0x11c C:/Users/user1/Documents/hoopoe-2/hal/demo/..//at91/lib\libAt91D.a(pio_it.o)
 .text.InterruptHandler
                0x20042d34       0x3c C:/Users/user1/Documents/hoopoe-2/hal/demo/..//at91/lib\libAt91D.a(pio_it.o)
 .text.PIO_InitializeInterrupts
                0x20042d70       0xf8 C:/Users/user1/Documents/hoopoe-2/hal/demo/..//at91/lib\libAt91D.a(pio_it.o)
                0x20042d70                PIO_InitializeInterrupts
 .text.PIO_ConfigureIt
                0x20042e68       0x90 C:/Users/user1/Documents/hoopoe-2/hal/demo/..//at91/lib\libAt91D.a(pio_it.o)
                0x20042e68                PIO_ConfigureIt
 .text.PIO_EnableIt
                0x20042ef8       0xc4 C:/Users/user1/Documents/hoopoe-2/hal/demo/..//at91/lib\libAt91D.a(pio_it.o)
                0x20042ef8                PIO_EnableIt
 .text.PIT_Init
                0x20042fbc       0x68 C:/Users/user1/Documents/hoopoe-2/hal/demo/..//at91/lib\libAt91D.a(pit.o)
                0x20042fbc                PIT_Init
 .text.PIT_Enable
                0x20043024       0x2c C:/Users/user1/Documents/hoopoe-2/hal/demo/..//at91/lib\libAt91D.a(pit.o)
                0x20043024                PIT_Enable
 .text.PIT_EnableIT
                0x20043050       0x2c C:/Users/user1/Documents/hoopoe-2/hal/demo/..//at91/lib\libAt91D.a(pit.o)
                0x20043050                PIT_EnableIT
 .text.PMC_DisableProcessorClock
                0x2004307c       0x3c C:/Users/user1/Documents/hoopoe-2/hal/demo/..//at91/lib\libAt91D.a(pmc.o)
                0x2004307c                PMC_DisableProcessorClock
 .text.PMC_EnablePeripheral
                0x200430b8       0xa4 C:/Users/user1/Documents/hoopoe-2/hal/demo/..//at91/lib\libAt91D.a(pmc.o)
                0x200430b8                PMC_EnablePeripheral
 .text.PMC_DisablePeripheral
                0x2004315c       0xa4 C:/Users/user1/Documents/hoopoe-2/hal/demo/..//at91/lib\libAt91D.a(pmc.o)
                0x2004315c                PMC_DisablePeripheral
 .text.PMC_IsPeriphEnabled
                0x20043200       0x3c C:/Users/user1/Documents/hoopoe-2/hal/demo/..//at91/lib\libAt91D.a(pmc.o)
                0x20043200                PMC_IsPeriphEnabled
 .text.PMC_CPUInIdleMode
                0x2004323c       0x14 C:/Users/user1/Documents/hoopoe-2/hal/demo/..//at91/lib\libAt91D.a(pmc.o)
                0x2004323c                PMC_CPUInIdleMode
 .text.SPI_Enable
                0x20043250       0x28 C:/Users/user1/Documents/hoopoe-2/hal/demo/..//at91/lib\libAt91D.a(spi_at91.o)
                0x20043250                SPI_Enable
 .text.SPI_Disable
                0x20043278       0x28 C:/Users/user1/Documents/hoopoe-2/hal/demo/..//at91/lib\libAt91D.a(spi_at91.o)
                0x20043278                SPI_Disable
 .text.SPI_Configure
                0x200432a0       0x6c C:/Users/user1/Documents/hoopoe-2/hal/demo/..//at91/lib\libAt91D.a(spi_at91.o)
                0x200432a0                SPI_Configure
 .text.SPI_ConfigureNPCS
                0x2004330c       0x38 C:/Users/user1/Documents/hoopoe-2/hal/demo/..//at91/lib\libAt91D.a(spi_at91.o)
                0x2004330c                SPI_ConfigureNPCS
 .text.TC_Configure
                0x20043344       0x4c C:/Users/user1/Documents/hoopoe-2/hal/demo/..//at91/lib\libAt91D.a(tc.o)
                0x20043344                TC_Configure
 .text.TWI_ConfigureMaster
                0x20043390      0x2a0 C:/Users/user1/Documents/hoopoe-2/hal/demo/..//at91/lib\libAt91D.a(twi_at91.o)
                0x20043390                TWI_ConfigureMaster
 .text.TWI_GetMaskedStatus
                0x20043630       0x78 C:/Users/user1/Documents/hoopoe-2/hal/demo/..//at91/lib\libAt91D.a(twi_at91.o)
                0x20043630                TWI_GetMaskedStatus
 .text.UDP_EnablePeripheralClock
                0x200436a8       0x24 C:/Users/user1/Documents/hoopoe-2/hal/demo/..//at91/lib\libAt91D.a(USBD_UDP.o)
 .text.UDP_DisablePeripheralClock
                0x200436cc       0x24 C:/Users/user1/Documents/hoopoe-2/hal/demo/..//at91/lib\libAt91D.a(USBD_UDP.o)
 .text.UDP_EnableUsbClock
                0x200436f0       0x24 C:/Users/user1/Documents/hoopoe-2/hal/demo/..//at91/lib\libAt91D.a(USBD_UDP.o)
 .text.UDP_DisableUsbClock
                0x20043714       0x24 C:/Users/user1/Documents/hoopoe-2/hal/demo/..//at91/lib\libAt91D.a(USBD_UDP.o)
 .text.UDP_EnableTransceiver
                0x20043738       0x2c C:/Users/user1/Documents/hoopoe-2/hal/demo/..//at91/lib\libAt91D.a(USBD_UDP.o)
 .text.UDP_DisableTransceiver
                0x20043764       0x2c C:/Users/user1/Documents/hoopoe-2/hal/demo/..//at91/lib\libAt91D.a(USBD_UDP.o)
 .text.UDP_EndOfTransfer
                0x20043790       0xec C:/Users/user1/Documents/hoopoe-2/hal/demo/..//at91/lib\libAt91D.a(USBD_UDP.o)
 .text.UDP_ClearRxFlag
                0x2004387c      0x148 C:/Users/user1/Documents/hoopoe-2/hal/demo/..//at91/lib\libAt91D.a(USBD_UDP.o)
 .text.UDP_WritePayload
                0x200439c4      0x104 C:/Users/user1/Documents/hoopoe-2/hal/demo/..//at91/lib\libAt91D.a(USBD_UDP.o)
 .text.UDP_ReadPayload
                0x20043ac8      0x11c C:/Users/user1/Documents/hoopoe-2/hal/demo/..//at91/lib\libAt91D.a(USBD_UDP.o)
 .text.UDP_ReadRequest
                0x20043be4       0x6c C:/Users/user1/Documents/hoopoe-2/hal/demo/..//at91/lib\libAt91D.a(USBD_UDP.o)
 .text.UDP_ResetEndpoints
                0x20043c50       0xcc C:/Users/user1/Documents/hoopoe-2/hal/demo/..//at91/lib\libAt91D.a(USBD_UDP.o)
 .text.UDP_DisableEndpoints
                0x20043d1c       0x70 C:/Users/user1/Documents/hoopoe-2/hal/demo/..//at91/lib\libAt91D.a(USBD_UDP.o)
 .text.UDP_IsTransferFinished
                0x20043d8c       0xe0 C:/Users/user1/Documents/hoopoe-2/hal/demo/..//at91/lib\libAt91D.a(USBD_UDP.o)
 .text.UDP_EndpointHandler
                0x20043e6c      0x7a8 C:/Users/user1/Documents/hoopoe-2/hal/demo/..//at91/lib\libAt91D.a(USBD_UDP.o)
 .text.USBD_InterruptHandler
                0x20044614      0x260 C:/Users/user1/Documents/hoopoe-2/hal/demo/..//at91/lib\libAt91D.a(USBD_UDP.o)
                0x20044614                USBD_InterruptHandler
 .text.USBD_ConfigureEndpoint
                0x20044874      0x248 C:/Users/user1/Documents/hoopoe-2/hal/demo/..//at91/lib\libAt91D.a(USBD_UDP.o)
                0x20044874                USBD_ConfigureEndpoint
 .text.USBD_Write
                0x20044abc      0x1bc C:/Users/user1/Documents/hoopoe-2/hal/demo/..//at91/lib\libAt91D.a(USBD_UDP.o)
                0x20044abc                USBD_Write
 .text.USBD_Halt
                0x20044c78      0x10c C:/Users/user1/Documents/hoopoe-2/hal/demo/..//at91/lib\libAt91D.a(USBD_UDP.o)
                0x20044c78                USBD_Halt
 .text.USBD_Unhalt
                0x20044d84      0x118 C:/Users/user1/Documents/hoopoe-2/hal/demo/..//at91/lib\libAt91D.a(USBD_UDP.o)
                0x20044d84                USBD_Unhalt
 .text.USBD_IsHalted
                0x20044e9c       0x70 C:/Users/user1/Documents/hoopoe-2/hal/demo/..//at91/lib\libAt91D.a(USBD_UDP.o)
                0x20044e9c                USBD_IsHalted
 .text.USBD_IsHighSpeed
                0x20044f0c       0x1c C:/Users/user1/Documents/hoopoe-2/hal/demo/..//at91/lib\libAt91D.a(USBD_UDP.o)
                0x20044f0c                USBD_IsHighSpeed
 .text.USBD_Stall
                0x20044f28       0xec C:/Users/user1/Documents/hoopoe-2/hal/demo/..//at91/lib\libAt91D.a(USBD_UDP.o)
                0x20044f28                USBD_Stall
 .text.USBD_SetAddress
                0x20045014       0x88 C:/Users/user1/Documents/hoopoe-2/hal/demo/..//at91/lib\libAt91D.a(USBD_UDP.o)
                0x20045014                USBD_SetAddress
 .text.USBD_SetConfiguration
                0x2004509c       0x84 C:/Users/user1/Documents/hoopoe-2/hal/demo/..//at91/lib\libAt91D.a(USBD_UDP.o)
                0x2004509c                USBD_SetConfiguration
 .text.USBD_Connect
                0x20045120       0x30 C:/Users/user1/Documents/hoopoe-2/hal/demo/..//at91/lib\libAt91D.a(USBD_UDP.o)
                0x20045120                USBD_Connect
 .text.USBD_Disconnect
                0x20045150       0x50 C:/Users/user1/Documents/hoopoe-2/hal/demo/..//at91/lib\libAt91D.a(USBD_UDP.o)
                0x20045150                USBD_Disconnect
 .text.USBD_Init
                0x200451a0       0x78 C:/Users/user1/Documents/hoopoe-2/hal/demo/..//at91/lib\libAt91D.a(USBD_UDP.o)
                0x200451a0                USBD_Init
 .text.USBD_GetState
                0x20045218       0x24 C:/Users/user1/Documents/hoopoe-2/hal/demo/..//at91/lib\libAt91D.a(USBD_UDP.o)
                0x20045218                USBD_GetState
 .text.HIDDMouseDriver_GetDescriptor
                0x2004523c      0x124 C:/Users/user1/Documents/hoopoe-2/hal/demo/..//at91/lib\libAt91D.a(HIDDMouseDriver.o)
 .text.HIDDMouseDriver_GetIdle
                0x20045360       0x40 C:/Users/user1/Documents/hoopoe-2/hal/demo/..//at91/lib\libAt91D.a(HIDDMouseDriver.o)
 .text.HIDDMouseDriver_SetIdle
                0x200453a0       0x5c C:/Users/user1/Documents/hoopoe-2/hal/demo/..//at91/lib\libAt91D.a(HIDDMouseDriver.o)
 .text.HIDDMouseDriver_GetReport
                0x200453fc       0x8c C:/Users/user1/Documents/hoopoe-2/hal/demo/..//at91/lib\libAt91D.a(HIDDMouseDriver.o)
 .text.HIDDMouseDriver_SetReport
                0x20045488       0x50 C:/Users/user1/Documents/hoopoe-2/hal/demo/..//at91/lib\libAt91D.a(HIDDMouseDriver.o)
 .text.USBDCallbacks_RequestReceived
                0x200454d8       0x20 C:/Users/user1/Documents/hoopoe-2/hal/demo/..//at91/lib\libAt91D.a(HIDDMouseDriver.o)
                0x200454d8                USBDCallbacks_RequestReceived
 .text.USBDDriverCallbacks_ConfigurationChanged
                0x200454f8       0x20 C:/Users/user1/Documents/hoopoe-2/hal/demo/..//at91/lib\libAt91D.a(HIDDMouseDriver.o)
                0x200454f8                USBDDriverCallbacks_ConfigurationChanged
 .text.HIDDMouseDriver_Initialize
                0x20045518       0x40 C:/Users/user1/Documents/hoopoe-2/hal/demo/..//at91/lib\libAt91D.a(HIDDMouseDriver.o)
                0x20045518                HIDDMouseDriver_Initialize
 .text.HIDDMouseDriver_RequestHandler
                0x20045558      0x214 C:/Users/user1/Documents/hoopoe-2/hal/demo/..//at91/lib\libAt91D.a(HIDDMouseDriver.o)
                0x20045558                HIDDMouseDriver_RequestHandler
 .text.HIDDMouseDriver_ChangePoints
                0x2004576c       0x90 C:/Users/user1/Documents/hoopoe-2/hal/demo/..//at91/lib\libAt91D.a(HIDDMouseDriver.o)
                0x2004576c                HIDDMouseDriver_ChangePoints
 .text.HIDDMouseInputReport_Initialize
                0x200457fc       0x40 C:/Users/user1/Documents/hoopoe-2/hal/demo/..//at91/lib\libAt91D.a(HIDDMouseInputReport.o)
                0x200457fc                HIDDMouseInputReport_Initialize
 .text.disableCaches
                0x2004583c       0x18 C:/Users/user1/Documents/hoopoe-2/hal/demo/..//at91/lib\libAt91D.a(ExitHandler.o)
 .text.restart  0x20045854       0x28 C:/Users/user1/Documents/hoopoe-2/hal/demo/..//at91/lib\libAt91D.a(ExitHandler.o)
                0x20045854                restart
 .text.restartPrefetchAbort
                0x2004587c       0x28 C:/Users/user1/Documents/hoopoe-2/hal/demo/..//at91/lib\libAt91D.a(ExitHandler.o)
                0x2004587c                restartPrefetchAbort
 .text.restartDataAbort
                0x200458a4       0x28 C:/Users/user1/Documents/hoopoe-2/hal/demo/..//at91/lib\libAt91D.a(ExitHandler.o)
                0x200458a4                restartDataAbort
 .text.rand     0x200458cc       0x54 C:/Users/user1/Documents/hoopoe-2/hal/demo/..//at91/lib\libAt91D.a(rand.o)
                0x200458cc                rand
 .text.defaultSpuriousHandler
                0x20045920       0x18 C:/Users/user1/Documents/hoopoe-2/hal/demo/..//at91/lib\libAt91D.a(board_lowlevel.o)
                0x20045920                defaultSpuriousHandler
 .text.defaultFiqHandler
                0x20045938       0x18 C:/Users/user1/Documents/hoopoe-2/hal/demo/..//at91/lib\libAt91D.a(board_lowlevel.o)
                0x20045938                defaultFiqHandler
 .text.defaultIrqHandler
                0x20045950       0x18 C:/Users/user1/Documents/hoopoe-2/hal/demo/..//at91/lib\libAt91D.a(board_lowlevel.o)
                0x20045950                defaultIrqHandler
 .text.LowLevelInit
                0x20045968       0xf4 C:/Users/user1/Documents/hoopoe-2/hal/demo/..//at91/lib\libAt91D.a(board_lowlevel.o)
                0x20045968                LowLevelInit
 .text.USBConfigurationDescriptor_GetTotalLength
                0x20045a5c       0x3c C:/Users/user1/Documents/hoopoe-2/hal/demo/..//at91/lib\libAt91D.a(USBConfigurationDescriptor.o)
                0x20045a5c                USBConfigurationDescriptor_GetTotalLength
 .text.USBConfigurationDescriptor_IsSelfPowered
                0x20045a98       0x40 C:/Users/user1/Documents/hoopoe-2/hal/demo/..//at91/lib\libAt91D.a(USBConfigurationDescriptor.o)
                0x20045a98                USBConfigurationDescriptor_IsSelfPowered
 .text.USBConfigurationDescriptor_Parse
                0x20045ad8      0x160 C:/Users/user1/Documents/hoopoe-2/hal/demo/..//at91/lib\libAt91D.a(USBConfigurationDescriptor.o)
                0x20045ad8                USBConfigurationDescriptor_Parse
 .text.USBEndpointDescriptor_GetNumber
                0x20045c38       0x30 C:/Users/user1/Documents/hoopoe-2/hal/demo/..//at91/lib\libAt91D.a(USBEndpointDescriptor.o)
                0x20045c38                USBEndpointDescriptor_GetNumber
 .text.USBEndpointDescriptor_GetDirection
                0x20045c68       0x48 C:/Users/user1/Documents/hoopoe-2/hal/demo/..//at91/lib\libAt91D.a(USBEndpointDescriptor.o)
                0x20045c68                USBEndpointDescriptor_GetDirection
 .text.USBEndpointDescriptor_GetType
                0x20045cb0       0x30 C:/Users/user1/Documents/hoopoe-2/hal/demo/..//at91/lib\libAt91D.a(USBEndpointDescriptor.o)
                0x20045cb0                USBEndpointDescriptor_GetType
 .text.USBEndpointDescriptor_GetMaxPacketSize
                0x20045ce0       0x3c C:/Users/user1/Documents/hoopoe-2/hal/demo/..//at91/lib\libAt91D.a(USBEndpointDescriptor.o)
                0x20045ce0                USBEndpointDescriptor_GetMaxPacketSize
 .text.USBGenericDescriptor_GetLength
                0x20045d1c       0x28 C:/Users/user1/Documents/hoopoe-2/hal/demo/..//at91/lib\libAt91D.a(USBGenericDescriptor.o)
                0x20045d1c                USBGenericDescriptor_GetLength
 .text.USBGenericDescriptor_GetType
                0x20045d44       0x28 C:/Users/user1/Documents/hoopoe-2/hal/demo/..//at91/lib\libAt91D.a(USBGenericDescriptor.o)
                0x20045d44                USBGenericDescriptor_GetType
 .text.USBGenericDescriptor_GetNextDescriptor
                0x20045d6c       0x30 C:/Users/user1/Documents/hoopoe-2/hal/demo/..//at91/lib\libAt91D.a(USBGenericDescriptor.o)
                0x20045d6c                USBGenericDescriptor_GetNextDescriptor
 .text.USBGenericRequest_GetType
                0x20045d9c       0x38 C:/Users/user1/Documents/hoopoe-2/hal/demo/..//at91/lib\libAt91D.a(USBGenericRequest.o)
                0x20045d9c                USBGenericRequest_GetType
 .text.USBGenericRequest_GetRequest
                0x20045dd4       0x28 C:/Users/user1/Documents/hoopoe-2/hal/demo/..//at91/lib\libAt91D.a(USBGenericRequest.o)
                0x20045dd4                USBGenericRequest_GetRequest
 .text.USBGenericRequest_GetValue
                0x20045dfc       0x28 C:/Users/user1/Documents/hoopoe-2/hal/demo/..//at91/lib\libAt91D.a(USBGenericRequest.o)
                0x20045dfc                USBGenericRequest_GetValue
 .text.USBGenericRequest_GetIndex
                0x20045e24       0x28 C:/Users/user1/Documents/hoopoe-2/hal/demo/..//at91/lib\libAt91D.a(USBGenericRequest.o)
                0x20045e24                USBGenericRequest_GetIndex
 .text.USBGenericRequest_GetLength
                0x20045e4c       0x28 C:/Users/user1/Documents/hoopoe-2/hal/demo/..//at91/lib\libAt91D.a(USBGenericRequest.o)
                0x20045e4c                USBGenericRequest_GetLength
 .text.USBGenericRequest_GetEndpointNumber
                0x20045e74       0x34 C:/Users/user1/Documents/hoopoe-2/hal/demo/..//at91/lib\libAt91D.a(USBGenericRequest.o)
                0x20045e74                USBGenericRequest_GetEndpointNumber
 .text.USBGenericRequest_GetRecipient
                0x20045ea8       0x30 C:/Users/user1/Documents/hoopoe-2/hal/demo/..//at91/lib\libAt91D.a(USBGenericRequest.o)
                0x20045ea8                USBGenericRequest_GetRecipient
 .text.USBGenericRequest_GetDirection
                0x20045ed8       0x48 C:/Users/user1/Documents/hoopoe-2/hal/demo/..//at91/lib\libAt91D.a(USBGenericRequest.o)
                0x20045ed8                USBGenericRequest_GetDirection
 .text.USBGetDescriptorRequest_GetDescriptorType
                0x20045f20       0x38 C:/Users/user1/Documents/hoopoe-2/hal/demo/..//at91/lib\libAt91D.a(USBGetDescriptorRequest.o)
                0x20045f20                USBGetDescriptorRequest_GetDescriptorType
 .text.USBGetDescriptorRequest_GetDescriptorIndex
                0x20045f58       0x2c C:/Users/user1/Documents/hoopoe-2/hal/demo/..//at91/lib\libAt91D.a(USBGetDescriptorRequest.o)
                0x20045f58                USBGetDescriptorRequest_GetDescriptorIndex
 .text.HIDIdleRequest_GetIdleRate
                0x20045f84       0x38 C:/Users/user1/Documents/hoopoe-2/hal/demo/..//at91/lib\libAt91D.a(HIDIdleRequest.o)
                0x20045f84                HIDIdleRequest_GetIdleRate
 .text.HIDReportRequest_GetReportType
                0x20045fbc       0x38 C:/Users/user1/Documents/hoopoe-2/hal/demo/..//at91/lib\libAt91D.a(HIDReportRequest.o)
                0x20045fbc                HIDReportRequest_GetReportType
 .text.USBDCallbacks_Initialized
                0x20045ff4       0x28 C:/Users/user1/Documents/hoopoe-2/hal/demo/..//at91/lib\libAt91D.a(USBDCallbacks_Initialized.o)
                0x20045ff4                USBDCallbacks_Initialized
 .text.USBDCallbacks_Reset
                0x2004601c       0x14 C:/Users/user1/Documents/hoopoe-2/hal/demo/..//at91/lib\libAt91D.a(USBDCallbacks_Reset.o)
                0x2004601c                USBDCallbacks_Reset
 .text.SetConfiguration
                0x20046030      0x118 C:/Users/user1/Documents/hoopoe-2/hal/demo/..//at91/lib\libAt91D.a(USBDDriver.o)
 .text.GetConfiguration
                0x20046148       0x3c C:/Users/user1/Documents/hoopoe-2/hal/demo/..//at91/lib\libAt91D.a(USBDDriver.o)
 .text.GetDeviceStatus
                0x20046184       0xd0 C:/Users/user1/Documents/hoopoe-2/hal/demo/..//at91/lib\libAt91D.a(USBDDriver.o)
 .text.GetEndpointStatus
                0x20046254       0x7c C:/Users/user1/Documents/hoopoe-2/hal/demo/..//at91/lib\libAt91D.a(USBDDriver.o)
 .text.GetDescriptor
                0x200462d0      0x340 C:/Users/user1/Documents/hoopoe-2/hal/demo/..//at91/lib\libAt91D.a(USBDDriver.o)
 .text.SetInterface
                0x20046610       0xac C:/Users/user1/Documents/hoopoe-2/hal/demo/..//at91/lib\libAt91D.a(USBDDriver.o)
 .text.GetInterface
                0x200466bc       0x68 C:/Users/user1/Documents/hoopoe-2/hal/demo/..//at91/lib\libAt91D.a(USBDDriver.o)
 .text.USBDDriver_Initialize
                0x20046724       0x54 C:/Users/user1/Documents/hoopoe-2/hal/demo/..//at91/lib\libAt91D.a(USBDDriver.o)
                0x20046724                USBDDriver_Initialize
 .text.USBDDriver_RequestHandler
                0x20046778      0x41c C:/Users/user1/Documents/hoopoe-2/hal/demo/..//at91/lib\libAt91D.a(USBDDriver.o)
                0x20046778                USBDDriver_RequestHandler
 .text.USBDDriverCallbacks_InterfaceSettingChanged
                0x20046b94       0x30 C:/Users/user1/Documents/hoopoe-2/hal/demo/..//at91/lib\libAt91D.a(USBDDriverCb_IfSettingChanged.o)
                0x20046b94                USBDDriverCallbacks_InterfaceSettingChanged
 .text.USBFeatureRequest_GetFeatureSelector
                0x20046bc4       0x2c C:/Users/user1/Documents/hoopoe-2/hal/demo/..//at91/lib\libAt91D.a(USBFeatureRequest.o)
                0x20046bc4                USBFeatureRequest_GetFeatureSelector
 .text.USBInterfaceRequest_GetInterface
                0x20046bf0       0x2c C:/Users/user1/Documents/hoopoe-2/hal/demo/..//at91/lib\libAt91D.a(USBInterfaceRequest.o)
                0x20046bf0                USBInterfaceRequest_GetInterface
 .text.USBInterfaceRequest_GetAlternateSetting
                0x20046c1c       0x2c C:/Users/user1/Documents/hoopoe-2/hal/demo/..//at91/lib\libAt91D.a(USBInterfaceRequest.o)
                0x20046c1c                USBInterfaceRequest_GetAlternateSetting
 .text.USBSetAddressRequest_GetAddress
                0x20046c48       0x34 C:/Users/user1/Documents/hoopoe-2/hal/demo/..//at91/lib\libAt91D.a(USBSetAddressRequest.o)
                0x20046c48                USBSetAddressRequest_GetAddress
 .text.USBSetConfigurationRequest_GetConfiguration
                0x20046c7c       0x2c C:/Users/user1/Documents/hoopoe-2/hal/demo/..//at91/lib\libAt91D.a(USBSetConfigurationRequest.o)
                0x20046c7c                USBSetConfigurationRequest_GetConfiguration
 .text.__errno  0x20046ca8       0x10 c:/isis/application/toolchain/bin/../lib/gcc/arm-none-eabi/4.7.4/../../../../arm-none-eabi/lib\libc_s.a(lib_a-errno.o)
                0x20046ca8                __errno
 .text.memcmp   0x20046cb8       0x3c c:/isis/application/toolchain/bin/../lib/gcc/arm-none-eabi/4.7.4/../../../../arm-none-eabi/lib\libc_s.a(lib_a-memcmp.o)
                0x20046cb8                memcmp
 .text.printf   0x20046cf4       0x50 c:/isis/application/toolchain/bin/../lib/gcc/arm-none-eabi/4.7.4/../../../../arm-none-eabi/lib\libc_s.a(lib_a-printf.o)
                0x20046cf4                iprintf
                0x20046cf4                printf
 .text.puts     0x20046d44       0x64 c:/isis/application/toolchain/bin/../lib/gcc/arm-none-eabi/4.7.4/../../../../arm-none-eabi/lib\libc_s.a(lib_a-puts.o)
                0x20046d44                puts
 .text.strnlen  0x20046da8       0x30 c:/isis/application/toolchain/bin/../lib/gcc/arm-none-eabi/4.7.4/../../../../arm-none-eabi/lib\libc_s.a(lib_a-strnlen.o)
                0x20046da8                strnlen
 .text.__sfputc_r
                0x20046dd8       0x50 c:/isis/application/toolchain/bin/../lib/gcc/arm-none-eabi/4.7.4/../../../../arm-none-eabi/lib\libc_s.a(lib_a-vfprintf.o)
                0x20046dd8                __sfputc_r
 .text._vfprintf_r
                0x20046e28      0x360 c:/isis/application/toolchain/bin/../lib/gcc/arm-none-eabi/4.7.4/../../../../arm-none-eabi/lib\libc_s.a(lib_a-vfprintf.o)
                0x20046e28                _vfprintf_r
                0x20046e28                _vfiprintf_r
 .text.__swbuf_r
                0x20047188      0x138 c:/isis/application/toolchain/bin/../lib/gcc/arm-none-eabi/4.7.4/../../../../arm-none-eabi/lib\libc_s.a(lib_a-wbuf.o)
                0x20047188                __swbuf_r
 .text.__swsetup_r
                0x200472c0      0x154 c:/isis/application/toolchain/bin/../lib/gcc/arm-none-eabi/4.7.4/../../../../arm-none-eabi/lib\libc_s.a(lib_a-wsetup.o)
                0x200472c0                __swsetup_r
 .text._fflush_r
                0x20047414      0x244 c:/isis/application/toolchain/bin/../lib/gcc/arm-none-eabi/4.7.4/../../../../arm-none-eabi/lib\libc_s.a(lib_a-fflush.o)
                0x20047414                _fflush_r
 .text._cleanup_r
                0x20047658       0x5c c:/isis/application/toolchain/bin/../lib/gcc/arm-none-eabi/4.7.4/../../../../arm-none-eabi/lib\libc_s.a(lib_a-findfp.o)
                0x20047658                _cleanup_r
 .text.std.isra.0
                0x200476b4       0x7c c:/isis/application/toolchain/bin/../lib/gcc/arm-none-eabi/4.7.4/../../../../arm-none-eabi/lib\libc_s.a(lib_a-findfp.o)
 .text.__sfmoreglue
                0x20047730       0x44 c:/isis/application/toolchain/bin/../lib/gcc/arm-none-eabi/4.7.4/../../../../arm-none-eabi/lib\libc_s.a(lib_a-findfp.o)
                0x20047730                __sfmoreglue
 .text.__sinit  0x20047774       0x90 c:/isis/application/toolchain/bin/../lib/gcc/arm-none-eabi/4.7.4/../../../../arm-none-eabi/lib\libc_s.a(lib_a-findfp.o)
                0x20047774                __sinit
 .text.__sfp    0x20047804       0xdc c:/isis/application/toolchain/bin/../lib/gcc/arm-none-eabi/4.7.4/../../../../arm-none-eabi/lib\libc_s.a(lib_a-findfp.o)
                0x20047804                __sfp
 .text.__smakebuf_r
                0x200478e0       0xf8 c:/isis/application/toolchain/bin/../lib/gcc/arm-none-eabi/4.7.4/../../../../arm-none-eabi/lib\libc_s.a(lib_a-makebuf.o)
                0x200478e0                __smakebuf_r
 .text._putc_r  0x200479d8       0xd0 c:/isis/application/toolchain/bin/../lib/gcc/arm-none-eabi/4.7.4/../../../../arm-none-eabi/lib\libc_s.a(lib_a-putc.o)
                0x200479d8                _putc_r
 .text.__sread  0x20047aa8       0x34 c:/isis/application/toolchain/bin/../lib/gcc/arm-none-eabi/4.7.4/../../../../arm-none-eabi/lib\libc_s.a(lib_a-stdio.o)
                0x20047aa8                __sread
 .text.__swrite
                0x20047adc       0x54 c:/isis/application/toolchain/bin/../lib/gcc/arm-none-eabi/4.7.4/../../../../arm-none-eabi/lib\libc_s.a(lib_a-stdio.o)
                0x20047adc                __swrite
 .text.__sseek  0x20047b30       0x34 c:/isis/application/toolchain/bin/../lib/gcc/arm-none-eabi/4.7.4/../../../../arm-none-eabi/lib\libc_s.a(lib_a-stdio.o)
                0x20047b30                __sseek
 .text.__sclose
                0x20047b64       0x14 c:/isis/application/toolchain/bin/../lib/gcc/arm-none-eabi/4.7.4/../../../../arm-none-eabi/lib\libc_s.a(lib_a-stdio.o)
                0x20047b64                __sclose
 .text._write_r
                0x20047b78       0x44 c:/isis/application/toolchain/bin/../lib/gcc/arm-none-eabi/4.7.4/../../../../arm-none-eabi/lib\libc_s.a(lib_a-writer.o)
                0x20047b78                _write_r
 .text._close_r
                0x20047bbc       0x3c c:/isis/application/toolchain/bin/../lib/gcc/arm-none-eabi/4.7.4/../../../../arm-none-eabi/lib\libc_s.a(lib_a-closer.o)
                0x20047bbc                _close_r
 .text._fstat_r
                0x20047bf8       0x40 c:/isis/application/toolchain/bin/../lib/gcc/arm-none-eabi/4.7.4/../../../../arm-none-eabi/lib\libc_s.a(lib_a-fstatr.o)
                0x20047bf8                _fstat_r
 .text._isatty_r
                0x20047c38       0x3c c:/isis/application/toolchain/bin/../lib/gcc/arm-none-eabi/4.7.4/../../../../arm-none-eabi/lib\libc_s.a(lib_a-isattyr.o)
                0x20047c38                _isatty_r
 .text._lseek_r
                0x20047c74       0x44 c:/isis/application/toolchain/bin/../lib/gcc/arm-none-eabi/4.7.4/../../../../arm-none-eabi/lib\libc_s.a(lib_a-lseekr.o)
                0x20047c74                _lseek_r
 .text._read_r  0x20047cb8       0x44 c:/isis/application/toolchain/bin/../lib/gcc/arm-none-eabi/4.7.4/../../../../arm-none-eabi/lib\libc_s.a(lib_a-readr.o)
                0x20047cb8                _read_r
 *fill*         0x20047cfc        0x4 00
 .text._read_r.stub
                0x20047d00       0x10 linker stubs
 *(.rodata)
 .rodata        0x20047d10      0x198 ./src/Tests/ADCtest.o
 .rodata        0x20047ea8      0x2ec ./src/Tests/I2Ctest.o
 .rodata        0x20048194       0x40 ./src/Tests/LEDtest.o
 .rodata        0x200481d4       0x60 ./src/Tests/PWMtest.o
 .rodata        0x20048234      0x238 ./src/Tests/PinTest.o
 .rodata        0x2004846c       0x40 ./src/Tests/SDCardTest.o
 .rodata        0x200484ac      0x33c ./src/Tests/SPI_FRAM_RTCtest.o
 .rodata        0x200487e8      0x724 ./src/Tests/SupervisorTest.o
 .rodata        0x20048f0c      0x35c ./src/Tests/TimeTest.o
 .rodata        0x20049268      0x1b8 ./src/Tests/UARTtest.o
 .rodata        0x20049420      0x12c ./src/Tests/USBdeviceTest.o
 .rodata        0x2004954c      0x630 ./src/Tests/boardTest.o
 .rodata        0x20049b7c      0x32c ./src/Tests/checksumTest.o
 .rodata        0x20049ea8       0x58 ./src/freertos_hooks.o
 .rodata        0x20049f00      0x33c ./src/main.o
 .rodata        0x2004a23c       0x6c C:/Users/user1/Documents/hoopoe-2/hal/demo/..//hcc/lib\libHCCD.a(fat_common.o)
 .rodata        0x2004a2a8       0x60 C:/Users/user1/Documents/hoopoe-2/hal/demo/..//hcc/lib\libHCCD.a(safefat.o)
 .rodata        0x2004a308      0x828 C:/Users/user1/Documents/hoopoe-2/hal/demo/..//hcc/lib\libHCCD.a(fat_test.o)
 .rodata        0x2004ab30       0x30 C:/Users/user1/Documents/hoopoe-2/hal/demo/..//hcc/lib\libHCCD.a(atmel_mcipdc.o)
 .rodata        0x2004ab60       0x54 C:/Users/user1/Documents/hoopoe-2/hal/demo/..//hcc/lib\libHCCD.a(atmel_mcipdc_hw.o)
 .rodata        0x2004abb4       0x4c C:/Users/user1/Documents/hoopoe-2/hal/demo/..//hcc/lib\libHCCD.a(fat_testport.o)
 .rodata        0x2004ac00       0x20 C:/Users/user1/Documents/hoopoe-2/hal/demo/..//hcc/lib\libHCCD.a(fat.o)
 .rodata        0x2004ac20      0x25c C:/Users/user1/Documents/hoopoe-2/hal/demo/..//hal/lib\libHALD.a(supervisor.o)
 .rodata        0x2004ae7c        0xc C:/Users/user1/Documents/hoopoe-2/hal/demo/..//hal/lib\libHALD.a(ADC.o)
 .rodata        0x2004ae88       0xf4 C:/Users/user1/Documents/hoopoe-2/hal/demo/..//hal/lib\libHALD.a(I2C.o)
 .rodata        0x2004af7c       0x30 C:/Users/user1/Documents/hoopoe-2/hal/demo/..//hal/lib\libHALD.a(LED.o)
 .rodata        0x2004afac       0x14 C:/Users/user1/Documents/hoopoe-2/hal/demo/..//hal/lib\libHALD.a(PWM.o)
 .rodata        0x2004afc0      0x324 C:/Users/user1/Documents/hoopoe-2/hal/demo/..//hal/lib\libHALD.a(SPI.o)
 .rodata        0x2004b2e4      0x190 C:/Users/user1/Documents/hoopoe-2/hal/demo/..//hal/lib\libHALD.a(UART.o)
 .rodata        0x2004b474       0x98 C:/Users/user1/Documents/hoopoe-2/hal/demo/..//hal/lib\libHALD.a(Time.o)
 .rodata        0x2004b50c        0xc C:/Users/user1/Documents/hoopoe-2/hal/demo/..//hal/lib\libHALD.a(WatchDogTimerNoOS.o)
 .rodata        0x2004b518       0x14 C:/Users/user1/Documents/hoopoe-2/hal/demo/..//hal/lib\libHALD.a(WatchDogTimerOS.o)
 .rodata        0x2004b52c       0xcc C:/Users/user1/Documents/hoopoe-2/hal/demo/..//hal/lib\libHALD.a(util.o)
 .rodata        0x2004b5f8       0x24 C:/Users/user1/Documents/hoopoe-2/hal/demo/..//hal/lib\libHALD.a(version.o)
                0x2004b5f8                HalCompileDate
                0x2004b604                HalCompileTime
                0x2004b610                HalVersionMajor
                0x2004b614                HalVersionMinor
                0x2004b618                HalVersionRevision
 .rodata        0x2004b61c       0x40 C:/Users/user1/Documents/hoopoe-2/hal/demo/..//freertos/lib\libFreeRTOSD.a(queue.o)
 .rodata        0x2004b65c       0x48 C:/Users/user1/Documents/hoopoe-2/hal/demo/..//freertos/lib\libFreeRTOSD.a(tasks.o)
 .rodata        0x2004b6a4       0x3c C:/Users/user1/Documents/hoopoe-2/hal/demo/..//at91/lib\libAt91D.a(syscalls.o)
 .rodata        0x2004b6e0      0x128 C:/Users/user1/Documents/hoopoe-2/hal/demo/..//at91/lib\libAt91D.a(adc_at91.o)
 .rodata        0x2004b808      0x158 C:/Users/user1/Documents/hoopoe-2/hal/demo/..//at91/lib\libAt91D.a(cp15.o)
 .rodata        0x2004b960      0x118 C:/Users/user1/Documents/hoopoe-2/hal/demo/..//at91/lib\libAt91D.a(pmc.o)
 .rodata        0x2004ba78       0x98 C:/Users/user1/Documents/hoopoe-2/hal/demo/..//at91/lib\libAt91D.a(twi_at91.o)
 .rodata        0x2004bb10      0x15c C:/Users/user1/Documents/hoopoe-2/hal/demo/..//at91/lib\libAt91D.a(USBD_UDP.o)
 .rodata        0x2004bc6c       0xa8 C:/Users/user1/Documents/hoopoe-2/hal/demo/..//at91/lib\libAt91D.a(HIDDMouseDriver.o)
 .rodata        0x2004bd14       0xc4 C:/Users/user1/Documents/hoopoe-2/hal/demo/..//at91/lib\libAt91D.a(HIDDMouseDriverDescriptors.o)
                0x2004bda4                hiddReportDescriptor
 .rodata        0x2004bdd8       0x8c C:/Users/user1/Documents/hoopoe-2/hal/demo/..//at91/lib\libAt91D.a(ExitHandler.o)
 .rodata        0x2004be64       0xa8 C:/Users/user1/Documents/hoopoe-2/hal/demo/..//at91/lib\libAt91D.a(board_lowlevel.o)
 .rodata        0x2004bf0c      0x19c C:/Users/user1/Documents/hoopoe-2/hal/demo/..//at91/lib\libAt91D.a(USBDDriver.o)
 .rodata        0x2004c0a8       0x1c C:/Users/user1/Documents/hoopoe-2/hal/demo/..//at91/lib\libAt91D.a(USBDDriverCb_IfSettingChanged.o)
 *(.rodata*)
 .rodata.str1.1
                0x2004c0c4       0x10 c:/isis/application/toolchain/bin/../lib/gcc/arm-none-eabi/4.7.4/../../../../arm-none-eabi/lib\libc_s.a(lib_a-vfprintf_float.o)
 .rodata.str1.1
                0x2004c0d4       0x22 c:/isis/application/toolchain/bin/../lib/gcc/arm-none-eabi/4.7.4/../../../../arm-none-eabi/lib\libc_s.a(lib_a-vfprintf_i.o)
 .rodata.str1.1
                0x2004c0f6        0x5 c:/isis/application/toolchain/bin/../lib/gcc/arm-none-eabi/4.7.4/../../../../arm-none-eabi/lib\libc_s.a(lib_a-vfscanf_float.o)
 .rodata.str1.1
                0x2004c0fb        0xf c:/isis/application/toolchain/bin/../lib/gcc/arm-none-eabi/4.7.4/../../../../arm-none-eabi/lib\libc_s.a(lib_a-dtoa.o)
 .rodata.str1.1
                0x2004c10a        0xa c:/isis/application/toolchain/bin/../lib/gcc/arm-none-eabi/4.7.4/../../../../arm-none-eabi/lib\libc_s.a(lib_a-locale.o)
                                  0xb (size before relaxing)
 *fill*         0x2004c114        0x4 00
 .rodata.__mprec_tens
                0x2004c118       0xc8 c:/isis/application/toolchain/bin/../lib/gcc/arm-none-eabi/4.7.4/../../../../arm-none-eabi/lib\libc_s.a(lib_a-mprec.o)
                0x2004c118                __mprec_tens
 .rodata.p05.5252
                0x2004c1e0        0xc c:/isis/application/toolchain/bin/../lib/gcc/arm-none-eabi/4.7.4/../../../../arm-none-eabi/lib\libc_s.a(lib_a-mprec.o)
 *fill*         0x2004c1ec        0x4 00
 .rodata.__mprec_bigtens
                0x2004c1f0       0x28 c:/isis/application/toolchain/bin/../lib/gcc/arm-none-eabi/4.7.4/../../../../arm-none-eabi/lib\libc_s.a(lib_a-mprec.o)
                0x2004c1f0                __mprec_bigtens
 .rodata.str1.1
                0x00000000        0xa c:/isis/application/toolchain/bin/../lib/gcc/arm-none-eabi/4.7.4/../../../../arm-none-eabi/lib\libc_s.a(lib_a-strtod.o)
                                  0xc (size before relaxing)
 .rodata.tinytens
                0x2004c218       0x28 c:/isis/application/toolchain/bin/../lib/gcc/arm-none-eabi/4.7.4/../../../../arm-none-eabi/lib\libc_s.a(lib_a-strtod.o)
 .rodata.str1.1
                0x2004c240       0x11 c:/isis/application/toolchain/bin/../lib/gcc/arm-none-eabi/4.7.4/../../../../arm-none-eabi/lib\libc_s.a(lib_a-svfprintf.o)
 .rodata._ctype_
                0x2004c251      0x101 c:/isis/application/toolchain/bin/../lib/gcc/arm-none-eabi/4.7.4/../../../../arm-none-eabi/lib\libc_s.a(lib_a-ctype_.o)
                0x2004c251                _ctype_
 .rodata.str1.1
                0x2004c352        0xb c:/isis/application/toolchain/bin/../lib/gcc/arm-none-eabi/4.7.4/../../../../arm-none-eabi/lib\libc_s.a(lib_a-gdtoa-gethex.o)
                                 0x19 (size before relaxing)
 .rodata.str1.1
                0x00000000        0x2 c:/isis/application/toolchain/bin/../lib/gcc/arm-none-eabi/4.7.4/../../../../arm-none-eabi/lib\libc_s.a(lib_a-impure.o)
 *fill*         0x2004c35d        0x3 00
 .rodata._global_impure_ptr
                0x2004c360        0x4 c:/isis/application/toolchain/bin/../lib/gcc/arm-none-eabi/4.7.4/../../../../arm-none-eabi/lib\libc_s.a(lib_a-impure.o)
                0x2004c360                _global_impure_ptr
 .rodata.str1.1
                0x00000000       0x11 c:/isis/application/toolchain/bin/../lib/gcc/arm-none-eabi/4.7.4/../../../../arm-none-eabi/lib\libc_s.a(lib_a-vfprintf.o)
 .rodata.__sf_fake_stdin
                0x2004c364       0x20 c:/isis/application/toolchain/bin/../lib/gcc/arm-none-eabi/4.7.4/../../../../arm-none-eabi/lib\libc_s.a(lib_a-findfp.o)
                0x2004c364                __sf_fake_stdin
 .rodata.__sf_fake_stdout
                0x2004c384       0x20 c:/isis/application/toolchain/bin/../lib/gcc/arm-none-eabi/4.7.4/../../../../arm-none-eabi/lib\libc_s.a(lib_a-findfp.o)
                0x2004c384                __sf_fake_stdout
 .rodata.__sf_fake_stderr
                0x2004c3a4       0x20 c:/isis/application/toolchain/bin/../lib/gcc/arm-none-eabi/4.7.4/../../../../arm-none-eabi/lib\libc_s.a(lib_a-findfp.o)
                0x2004c3a4                __sf_fake_stderr
 *(.rodata.*)
 *(.glue_7)
 .glue_7        0x00000000        0x0 linker stubs
 *(.glue_7t)
 .glue_7t       0x00000000        0x0 linker stubs
 *(.vfp11_veneer)
 .vfp11_veneer  0x00000000        0x0 linker stubs
 *(.v4_bx)
 .v4_bx         0x00000000        0x0 linker stubs
 *(.data)
 .data          0x2004c3c4        0x4 ./src/Tests/UARTtest.o
 .data          0x2004c3c8        0x4 ./src/Tests/checksumTest.o
 .data          0x2004c3cc       0x20 C:/Users/user1/Documents/hoopoe-2/hal/demo/..//hcc/lib\libHCCD.a(safefat.o)
                0x2004c3cc                s_subdir
 .data          0x2004c3ec        0x4 C:/Users/user1/Documents/hoopoe-2/hal/demo/..//hcc/lib\libHCCD.a(psp_rand.o)
 .data          0x2004c3f0       0xa4 C:/Users/user1/Documents/hoopoe-2/hal/demo/..//hal/lib\libHALD.a(supervisor.o)
 .data          0x2004c494        0x4 C:/Users/user1/Documents/hoopoe-2/hal/demo/..//hal/lib\libHALD.a(ADC.o)
 .data          0x2004c498        0x8 C:/Users/user1/Documents/hoopoe-2/hal/demo/..//hal/lib\libHALD.a(I2C.o)
 .data          0x2004c4a0       0x94 C:/Users/user1/Documents/hoopoe-2/hal/demo/..//hal/lib\libHALD.a(PWM.o)
 .data          0x2004c534        0xc C:/Users/user1/Documents/hoopoe-2/hal/demo/..//hal/lib\libHALD.a(SPI.o)
 .data          0x2004c540       0x1c C:/Users/user1/Documents/hoopoe-2/hal/demo/..//hal/lib\libHALD.a(UART.o)
 .data          0x2004c55c       0x10 C:/Users/user1/Documents/hoopoe-2/hal/demo/..//hal/lib\libHALD.a(FRAM.o)
 .data          0x2004c56c       0x10 C:/Users/user1/Documents/hoopoe-2/hal/demo/..//hal/lib\libHALD.a(RTC.o)
 .data          0x2004c57c        0x4 C:/Users/user1/Documents/hoopoe-2/hal/demo/..//hal/lib\libHALD.a(Time.o)
 .data          0x2004c580        0x4 C:/Users/user1/Documents/hoopoe-2/hal/demo/..//freertos/lib\libFreeRTOSD.a(tasks.o)
 .data          0x2004c584        0x4 C:/Users/user1/Documents/hoopoe-2/hal/demo/..//freertos/lib\libFreeRTOSD.a(port.o)
                0x2004c584                ulCriticalNesting
 .data          0x2004c588       0x38 C:/Users/user1/Documents/hoopoe-2/hal/demo/..//at91/lib\libAt91D.a(HIDDMouseDriverDescriptors.o)
                0x2004c598                hiddMouseDriverDescriptors
 .data          0x2004c5c0        0x4 C:/Users/user1/Documents/hoopoe-2/hal/demo/..//at91/lib\libAt91D.a(rand.o)
 *(.data.*)
 .data.lconv    0x2004c5c4       0x38 c:/isis/application/toolchain/bin/../lib/gcc/arm-none-eabi/4.7.4/../../../../arm-none-eabi/lib\libc_s.a(lib_a-locale.o)
 .data.fpi.5208
                0x2004c5fc       0x14 c:/isis/application/toolchain/bin/../lib/gcc/arm-none-eabi/4.7.4/../../../../arm-none-eabi/lib\libc_s.a(lib_a-strtod.o)
 .data.fpinan.5244
                0x2004c610       0x14 c:/isis/application/toolchain/bin/../lib/gcc/arm-none-eabi/4.7.4/../../../../arm-none-eabi/lib\libc_s.a(lib_a-strtod.o)
 .data.__ctype_ptr__
                0x2004c624        0x4 c:/isis/application/toolchain/bin/../lib/gcc/arm-none-eabi/4.7.4/../../../../arm-none-eabi/lib\libc_s.a(lib_a-ctype_.o)
                0x2004c624                __ctype_ptr__
 .data.impure_data
                0x2004c628       0x64 c:/isis/application/toolchain/bin/../lib/gcc/arm-none-eabi/4.7.4/../../../../arm-none-eabi/lib\libc_s.a(lib_a-impure.o)
 .data._impure_ptr
                0x2004c68c        0x4 c:/isis/application/toolchain/bin/../lib/gcc/arm-none-eabi/4.7.4/../../../../arm-none-eabi/lib\libc_s.a(lib_a-impure.o)
                0x2004c68c                _impure_ptr
 *(.dyn)
 *(.iplt)
 .iplt          0x00000000        0x0 c:/isis/application/toolchain/bin/../lib/gcc/arm-none-eabi/4.7.4/../../../../arm-none-eabi/lib\libc_s.a(lib_a-vfprintf_float.o)
 *(.igot)
 *(.igot.plt)
 .igot.plt      0x00000000        0x0 c:/isis/application/toolchain/bin/../lib/gcc/arm-none-eabi/4.7.4/../../../../arm-none-eabi/lib\libc_s.a(lib_a-vfprintf_float.o)
 *(.rel.dyn)
 *(.rel.iplt)
 .rel.iplt      0x00000000        0x0 c:/isis/application/toolchain/bin/../lib/gcc/arm-none-eabi/4.7.4/../../../../arm-none-eabi/lib\libc_s.a(lib_a-vfprintf_float.o)
                0x2004c690                . = ALIGN (0x4)
                0x2004c690                _efixed = .

.ARM.exidx      0x2004c690        0x0
 *(.ARM.exidx)
                0x2004c690                _eexidx = .

.ARM.extab      0x2004c690        0x0
 *(.ARM.extab)
                0x2004c690                _eextab = .

.prerelocate    0x00000000        0x0 load address 0x2004c690
                0x00000000                . = ALIGN (0x4)
                0x00000000                _sprerelocate = .
                0x00000000                . = ALIGN (0x4)
                0x00000000                _eprerelocate = .

.postrelocate   0x00200000     0x22e8 load address 0x2004c690
                0x00200000                . = ALIGN (0x4)
                0x00200000                _spostrelocate = .
 *(.vectors)
 .vectors       0x00200000       0xd4 C:/Users/user1/Documents/hoopoe-2/hal/demo/..//at91/lib\libAt91D.a(board_cstartup.o)
 *(.sramfunc)
 .sramfunc      0x002000d4       0xc0 C:/Users/user1/Documents/hoopoe-2/hal/demo/..//hal/lib\libHALD.a(ADC.o)
                0x002000d4                ISR_ADC
 .sramfunc      0x00200194      0xe1c C:/Users/user1/Documents/hoopoe-2/hal/demo/..//hal/lib\libHALD.a(I2C.o)
                0x00200a4c                ISR_I2Cmaster
                0x00200dfc                taskI2Cregulator
 .sramfunc      0x00200fb0      0xa58 C:/Users/user1/Documents/hoopoe-2/hal/demo/..//hal/lib\libHALD.a(SPI.o)
                0x00200fb0                taskSPI0regulator
                0x00201458                taskSPI1regulator
                0x002017dc                ISR_SPI0master
                0x0020189c                ISR_SPI1master
 .sramfunc      0x00201a08      0x5ec C:/Users/user1/Documents/hoopoe-2/hal/demo/..//hal/lib\libHALD.a(UART.o)
                0x00201aec                ISR_UART0
                0x00201d70                ISR_UART2
 .sramfunc      0x00201ff4       0x98 C:/Users/user1/Documents/hoopoe-2/hal/demo/..//hal/lib\libHALD.a(WatchDogTimerNoOS.o)
                0x00201ff4                WDT_kickEveryNcalls
                0x0020203c                WDT_forceKick
 .sramfunc      0x0020208c       0x50 C:/Users/user1/Documents/hoopoe-2/hal/demo/..//hal/lib\libHALD.a(WatchDogTimerOS.o)
                0x0020208c                taskWatchdogKick
 .sramfunc      0x002020dc       0xf0 C:/Users/user1/Documents/hoopoe-2/hal/demo/..//freertos/lib\libFreeRTOSD.a(port.o)
                0x002020dc                vPortTickISR
                0x00202118                vPortYieldProcessor
 .sramfunc      0x002021cc       0x48 C:/Users/user1/Documents/hoopoe-2/hal/demo/..//at91/lib\libAt91D.a(ExitHandler.o)
                0x002021cc                gracefulReset
 *fill*         0x00202214        0x4 00
 .sramfunc.stub
                0x00202218       0xd0 linker stubs
 *(.ramfunc)
                0x002022e8                . = ALIGN (0x4)
                0x002022e8                _epostrelocate = .

.sramdata       0x00300000        0xc load address 0x2004e978
                0x00300000                . = ALIGN (0x4)
                0x00300000                _ssramdata = .
 *(.sramdata)
 .sramdata      0x00300000        0x4 C:/Users/user1/Documents/hoopoe-2/hal/demo/..//hal/lib\libHALD.a(WatchDogTimerNoOS.o)
 .sramdata      0x00300004        0x8 C:/Users/user1/Documents/hoopoe-2/hal/demo/..//hal/lib\libHALD.a(WatchDogTimerOS.o)
                0x0030000c                . = ALIGN (0x4)
                0x0030000c                _esramdata = .

.srambss        0x0030000c        0x0
                0x0030000c                . = ALIGN (0x4)
                0x0030000c                _ssrambss = .
 *(.srambss)
                0x0030000c                . = ALIGN (0x4)
                0x0030000c                _esrambss = .

.bss            0x2004c690    0x6c22c
                0x2004c690                _szero = .
 *(.bss)
 .bss           0x2004c690       0x1c ./src/Tests/ADCtest.o
 .bss           0x2004c6ac        0x4 ./src/Tests/SupervisorTest.o
 .bss           0x2004c6b0        0x1 ./src/Tests/USBdeviceTest.o
                0x2004c6b0                USBState
 *fill*         0x2004c6b1        0x3 00
 .bss           0x2004c6b4      0x400 ./src/Tests/boardTest.o
 .bss           0x2004cab4    0x19700 ./src/Tests/checksumTest.o
 .bss           0x200661b4    0x44780 C:/Users/user1/Documents/hoopoe-2/hal/demo/..//hcc/lib\libHCCD.a(fat_common.o)
                0x200aa930                p_filesystem
 .bss           0x200aa934     0x8400 C:/Users/user1/Documents/hoopoe-2/hal/demo/..//hcc/lib\libHCCD.a(fat_test.o)
 .bss           0x200b2d34       0x60 C:/Users/user1/Documents/hoopoe-2/hal/demo/..//hcc/lib\libHCCD.a(atmel_mcipdc.o)
                0x200b2d90                mmcsd_dma_buf
 .bss           0x200b2d94       0x90 C:/Users/user1/Documents/hoopoe-2/hal/demo/..//hcc/lib\libHCCD.a(hcc_mem.o)
 .bss           0x200b2e24     0x4024 C:/Users/user1/Documents/hoopoe-2/hal/demo/..//hcc/lib\libHCCD.a(psp_hcc_mem.o)
 .bss           0x200b6e48      0x1e0 C:/Users/user1/Documents/hoopoe-2/hal/demo/..//hal/lib\libHALD.a(supervisor.o)
 .bss           0x200b7028       0x14 C:/Users/user1/Documents/hoopoe-2/hal/demo/..//hal/lib\libHALD.a(ADC.o)
 .bss           0x200b703c       0x54 C:/Users/user1/Documents/hoopoe-2/hal/demo/..//hal/lib\libHALD.a(I2C.o)
                0x200b7044                RescheduleFlag
 .bss           0x200b7090       0x10 C:/Users/user1/Documents/hoopoe-2/hal/demo/..//hal/lib\libHALD.a(LED.o)
 .bss           0x200b70a0        0x8 C:/Users/user1/Documents/hoopoe-2/hal/demo/..//hal/lib\libHALD.a(PWM.o)
 .bss           0x200b70a8       0x50 C:/Users/user1/Documents/hoopoe-2/hal/demo/..//hal/lib\libHALD.a(SPI.o)
 .bss           0x200b70f8       0xe0 C:/Users/user1/Documents/hoopoe-2/hal/demo/..//hal/lib\libHALD.a(UART.o)
 .bss           0x200b71d8      0x214 C:/Users/user1/Documents/hoopoe-2/hal/demo/..//hal/lib\libHALD.a(FRAM.o)
 .bss           0x200b73ec       0x18 C:/Users/user1/Documents/hoopoe-2/hal/demo/..//hal/lib\libHALD.a(Time.o)
 .bss           0x200b7404        0x8 C:/Users/user1/Documents/hoopoe-2/hal/demo/..//hal/lib\libHALD.a(WatchDogTimerOS.o)
 .bss           0x200b740c       0xfc C:/Users/user1/Documents/hoopoe-2/hal/demo/..//freertos/lib\libFreeRTOSD.a(tasks.o)
                0x200b740c                pxCurrentTCB
 .bss           0x200b7508        0x4 C:/Users/user1/Documents/hoopoe-2/hal/demo/..//at91/lib\libAt91D.a(syscalls.o)
 .bss           0x200b750c       0x3c C:/Users/user1/Documents/hoopoe-2/hal/demo/..//at91/lib\libAt91D.a(pio_it.o)
 .bss           0x200b7548       0xac C:/Users/user1/Documents/hoopoe-2/hal/demo/..//at91/lib\libAt91D.a(USBD_UDP.o)
 .bss           0x200b75f4       0x14 C:/Users/user1/Documents/hoopoe-2/hal/demo/..//at91/lib\libAt91D.a(HIDDMouseDriver.o)
 *(.bss.*)
 .bss.__malloc_free_list
                0x200b7608        0x4 c:/isis/application/toolchain/bin/../lib/gcc/arm-none-eabi/4.7.4/../../../../arm-none-eabi/lib\libc_s.a(lib_a-mallocr.o)
                0x200b7608                __malloc_free_list
 *(COMMON)
 COMMON         0x200b760c      0x100 c:/isis/application/toolchain/bin/../lib/gcc/arm-none-eabi/4.7.4/../../../../arm-none-eabi/lib\libc_s.a(lib_a-gdtoa-gethex.o)
                0x200b760c                __hexdig
 COMMON         0x200b770c        0x4 c:/isis/application/toolchain/bin/../lib/gcc/arm-none-eabi/4.7.4/../../../../arm-none-eabi/lib\libc_s.a(lib_a-reent.o)
                0x200b770c                errno
 COMMON         0x200b7710     0x10a8 C:/Users/user1/Documents/hoopoe-2/hal/demo/..//hcc/lib\libHCCD.a(fat_common.o)
                0x200b7710                g_fatmutex
                0x200b7714                g_multi
                0x200b87b4                f_format_progress
 COMMON         0x200b87b8        0x4 C:/Users/user1/Documents/hoopoe-2/hal/demo/..//hal/lib\libHALD.a(ADC.o)
                0x200b87b8                ADCcallback
 COMMON         0x200b87bc      0x100 C:/Users/user1/Documents/hoopoe-2/hal/demo/..//freertos/lib\libFreeRTOSD.a(queue.o)
                0x200b87bc                xQueueRegistry
 *(COMMON.*)
                0x200b88bc                . = ALIGN (0x4)
                0x200b88bc                _ezero = .
                0x200b88bc                _sheap_ = .
                0x21700000                _eheap_ = 0x21700000
                0x21fffc00                _sstack = 0x21fffc00
                0x200b88bc                end = .
OUTPUT(hal-demo.elf elf32-littlearm)

.ARM.attributes
                0x00000000       0x30
 .ARM.attributes
                0x00000000       0x30 c:/isis/application/toolchain/bin/../lib/gcc/arm-none-eabi/4.7.4/../../../../arm-none-eabi/lib\libc_s.a(lib_a-vfprintf_float.o)
 .ARM.attributes
                0x00000030       0x30 c:/isis/application/toolchain/bin/../lib/gcc/arm-none-eabi/4.7.4/../../../../arm-none-eabi/lib\libc_s.a(lib_a-vfprintf_i.o)
 .ARM.attributes
                0x00000060       0x30 c:/isis/application/toolchain/bin/../lib/gcc/arm-none-eabi/4.7.4/../../../../arm-none-eabi/lib\libc_s.a(lib_a-vfscanf_float.o)
 .ARM.attributes
                0x00000090       0x30 c:/isis/application/toolchain/bin/../lib/gcc/arm-none-eabi/4.7.4/../../../../arm-none-eabi/lib\libc_s.a(lib_a-dtoa.o)
 .ARM.attributes
                0x000000c0       0x30 c:/isis/application/toolchain/bin/../lib/gcc/arm-none-eabi/4.7.4/../../../../arm-none-eabi/lib\libc_s.a(lib_a-locale.o)
 .ARM.attributes
                0x000000f0       0x30 c:/isis/application/toolchain/bin/../lib/gcc/arm-none-eabi/4.7.4/../../../../arm-none-eabi/lib\libc_s.a(lib_a-malloc.o)
 .ARM.attributes
                0x00000120       0x30 c:/isis/application/toolchain/bin/../lib/gcc/arm-none-eabi/4.7.4/../../../../arm-none-eabi/lib\libc_s.a(lib_a-mallocr.o)
 .ARM.attributes
                0x00000150       0x30 c:/isis/application/toolchain/bin/../lib/gcc/arm-none-eabi/4.7.4/../../../../arm-none-eabi/lib\libc_s.a(lib_a-memcpy.o)
 .ARM.attributes
                0x00000180       0x30 c:/isis/application/toolchain/bin/../lib/gcc/arm-none-eabi/4.7.4/../../../../arm-none-eabi/lib\libc_s.a(lib_a-mprec.o)
 .ARM.attributes
                0x000001b0       0x30 c:/isis/application/toolchain/bin/../lib/gcc/arm-none-eabi/4.7.4/../../../../arm-none-eabi/lib\libc_s.a(lib_a-s_fpclassify.o)
 .ARM.attributes
                0x000001e0       0x30 c:/isis/application/toolchain/bin/../lib/gcc/arm-none-eabi/4.7.4/../../../../arm-none-eabi/lib\libc_s.a(lib_a-sbrkr.o)
 .ARM.attributes
                0x00000210       0x30 c:/isis/application/toolchain/bin/../lib/gcc/arm-none-eabi/4.7.4/../../../../arm-none-eabi/lib\libc_s.a(lib_a-sf_nan.o)
 .ARM.attributes
                0x00000240       0x30 c:/isis/application/toolchain/bin/../lib/gcc/arm-none-eabi/4.7.4/../../../../arm-none-eabi/lib\libc_s.a(lib_a-sprintf.o)
 .ARM.attributes
                0x00000270       0x30 c:/isis/application/toolchain/bin/../lib/gcc/arm-none-eabi/4.7.4/../../../../arm-none-eabi/lib\libc_s.a(lib_a-strlen.o)
 .ARM.attributes
                0x000002a0       0x30 c:/isis/application/toolchain/bin/../lib/gcc/arm-none-eabi/4.7.4/../../../../arm-none-eabi/lib\libc_s.a(lib_a-strtod.o)
 .ARM.attributes
                0x000002d0       0x30 c:/isis/application/toolchain/bin/../lib/gcc/arm-none-eabi/4.7.4/../../../../arm-none-eabi/lib\libc_s.a(lib_a-strtol.o)
 .ARM.attributes
                0x00000300       0x30 c:/isis/application/toolchain/bin/../lib/gcc/arm-none-eabi/4.7.4/../../../../arm-none-eabi/lib\libc_s.a(lib_a-svfprintf.o)
 .ARM.attributes
                0x00000330       0x30 c:/isis/application/toolchain/bin/../lib/gcc/arm-none-eabi/4.7.4/../../../../arm-none-eabi/lib\libc_s.a(lib_a-callocr.o)
 .ARM.attributes
                0x00000360       0x30 c:/isis/application/toolchain/bin/../lib/gcc/arm-none-eabi/4.7.4/../../../../arm-none-eabi/lib\libc_s.a(lib_a-ctype_.o)
 .ARM.attributes
                0x00000390       0x30 c:/isis/application/toolchain/bin/../lib/gcc/arm-none-eabi/4.7.4/../../../../arm-none-eabi/lib\libc_s.a(lib_a-freer.o)
 .ARM.attributes
                0x000003c0       0x30 c:/isis/application/toolchain/bin/../lib/gcc/arm-none-eabi/4.7.4/../../../../arm-none-eabi/lib\libc_s.a(lib_a-gdtoa-gethex.o)
 .ARM.attributes
                0x000003f0       0x30 c:/isis/application/toolchain/bin/../lib/gcc/arm-none-eabi/4.7.4/../../../../arm-none-eabi/lib\libc_s.a(lib_a-gdtoa-hexnan.o)
 .ARM.attributes
                0x00000420       0x30 c:/isis/application/toolchain/bin/../lib/gcc/arm-none-eabi/4.7.4/../../../../arm-none-eabi/lib\libc_s.a(lib_a-impure.o)
 .ARM.attributes
                0x00000450       0x30 c:/isis/application/toolchain/bin/../lib/gcc/arm-none-eabi/4.7.4/../../../../arm-none-eabi/lib\libc_s.a(lib_a-memchr.o)
 .ARM.attributes
                0x00000480       0x30 c:/isis/application/toolchain/bin/../lib/gcc/arm-none-eabi/4.7.4/../../../../arm-none-eabi/lib\libc_s.a(lib_a-memset.o)
 .ARM.attributes
                0x000004b0       0x30 c:/isis/application/toolchain/bin/../lib/gcc/arm-none-eabi/4.7.4/../../../../arm-none-eabi/lib\libc_s.a(lib_a-reallocr.o)
 .ARM.attributes
                0x000004e0       0x30 c:/isis/application/toolchain/bin/../lib/gcc/arm-none-eabi/4.7.4/../../../../arm-none-eabi/lib\libc_s.a(lib_a-reent.o)
 .ARM.attributes
                0x00000510       0x30 c:/isis/application/toolchain/bin/../lib/gcc/arm-none-eabi/4.7.4/../../../../arm-none-eabi/lib\libc_s.a(lib_a-strncmp.o)
 .ARM.attributes
                0x00000540       0x30 c:/isis/application/toolchain/bin/../lib/gcc/arm-none-eabi/4.7.4/../../../../arm-none-eabi/lib\libc_s.a(lib_a-msizer.o)
 .ARM.attributes
                0x00000570       0x32 ./src/Tests/ADCtest.o
 .ARM.attributes
                0x000005a2       0x32 ./src/Tests/I2Ctest.o
 .ARM.attributes
                0x000005d4       0x32 ./src/Tests/LEDtest.o
 .ARM.attributes
                0x00000606       0x32 ./src/Tests/PWMtest.o
 .ARM.attributes
                0x00000638       0x32 ./src/Tests/PinTest.o
 .ARM.attributes
                0x0000066a       0x32 ./src/Tests/SDCardTest.o
 .ARM.attributes
                0x0000069c       0x32 ./src/Tests/SPI_FRAM_RTCtest.o
 .ARM.attributes
                0x000006ce       0x32 ./src/Tests/SupervisorTest.o
 .ARM.attributes
                0x00000700       0x32 ./src/Tests/TimeTest.o
 .ARM.attributes
                0x00000732       0x32 ./src/Tests/UARTtest.o
 .ARM.attributes
                0x00000764       0x32 ./src/Tests/USBdeviceTest.o
 .ARM.attributes
                0x00000796       0x32 ./src/Tests/boardTest.o
 .ARM.attributes
                0x000007c8       0x32 ./src/Tests/checksumTest.o
 .ARM.attributes
                0x000007fa       0x32 ./src/freertos_hooks.o
 .ARM.attributes
                0x0000082c       0x32 ./src/main.o
 .ARM.attributes
                0x0000085e       0x32 C:/Users/user1/Documents/hoopoe-2/hal/demo/..//hcc/lib\libHCCD.a(fat_common.o)
 .ARM.attributes
                0x00000890       0x32 C:/Users/user1/Documents/hoopoe-2/hal/demo/..//hcc/lib\libHCCD.a(fat_m.o)
 .ARM.attributes
                0x000008c2       0x32 C:/Users/user1/Documents/hoopoe-2/hal/demo/..//hcc/lib\libHCCD.a(safefat.o)
 .ARM.attributes
                0x000008f4       0x32 C:/Users/user1/Documents/hoopoe-2/hal/demo/..//hcc/lib\libHCCD.a(fat_test.o)
 .ARM.attributes
                0x00000926       0x32 C:/Users/user1/Documents/hoopoe-2/hal/demo/..//hcc/lib\libHCCD.a(atmel_mcipdc.o)
 .ARM.attributes
                0x00000958       0x32 C:/Users/user1/Documents/hoopoe-2/hal/demo/..//hcc/lib\libHCCD.a(oalp_mutex.o)
 .ARM.attributes
                0x0000098a       0x32 C:/Users/user1/Documents/hoopoe-2/hal/demo/..//hcc/lib\libHCCD.a(oalp_task.o)
 .ARM.attributes
                0x000009bc       0x32 C:/Users/user1/Documents/hoopoe-2/hal/demo/..//hcc/lib\libHCCD.a(atmel_mcipdc_hw.o)
 .ARM.attributes
                0x000009ee       0x32 C:/Users/user1/Documents/hoopoe-2/hal/demo/..//hcc/lib\libHCCD.a(fat_testport.o)
 .ARM.attributes
                0x00000a20       0x32 C:/Users/user1/Documents/hoopoe-2/hal/demo/..//hcc/lib\libHCCD.a(psp_rand.o)
 .ARM.attributes
                0x00000a52       0x32 C:/Users/user1/Documents/hoopoe-2/hal/demo/..//hcc/lib\libHCCD.a(psp_rtc.o)
 .ARM.attributes
                0x00000a84       0x32 C:/Users/user1/Documents/hoopoe-2/hal/demo/..//hcc/lib\libHCCD.a(hcc_mem.o)
 .ARM.attributes
                0x00000ab6       0x32 C:/Users/user1/Documents/hoopoe-2/hal/demo/..//hcc/lib\libHCCD.a(fat.o)
 .ARM.attributes
                0x00000ae8       0x32 C:/Users/user1/Documents/hoopoe-2/hal/demo/..//hcc/lib\libHCCD.a(psp_hcc_mem.o)
 .ARM.attributes
                0x00000b1a       0x32 C:/Users/user1/Documents/hoopoe-2/hal/demo/..//hal/lib\libHALD.a(checksum.o)
 .ARM.attributes
                0x00000b4c       0x32 C:/Users/user1/Documents/hoopoe-2/hal/demo/..//hal/lib\libHALD.a(supervisor.o)
 .ARM.attributes
                0x00000b7e       0x32 C:/Users/user1/Documents/hoopoe-2/hal/demo/..//hal/lib\libHALD.a(ADC.o)
 .ARM.attributes
                0x00000bb0       0x32 C:/Users/user1/Documents/hoopoe-2/hal/demo/..//hal/lib\libHALD.a(I2C.o)
 .ARM.attributes
                0x00000be2       0x32 C:/Users/user1/Documents/hoopoe-2/hal/demo/..//hal/lib\libHALD.a(LED.o)
 .ARM.attributes
                0x00000c14       0x32 C:/Users/user1/Documents/hoopoe-2/hal/demo/..//hal/lib\libHALD.a(PWM.o)
 .ARM.attributes
                0x00000c46       0x32 C:/Users/user1/Documents/hoopoe-2/hal/demo/..//hal/lib\libHALD.a(SPI.o)
 .ARM.attributes
                0x00000c78       0x32 C:/Users/user1/Documents/hoopoe-2/hal/demo/..//hal/lib\libHALD.a(UART.o)
 .ARM.attributes
                0x00000caa       0x32 C:/Users/user1/Documents/hoopoe-2/hal/demo/..//hal/lib\libHALD.a(FRAM.o)
 .ARM.attributes
                0x00000cdc       0x32 C:/Users/user1/Documents/hoopoe-2/hal/demo/..//hal/lib\libHALD.a(RTC.o)
 .ARM.attributes
                0x00000d0e       0x32 C:/Users/user1/Documents/hoopoe-2/hal/demo/..//hal/lib\libHALD.a(Time.o)
 .ARM.attributes
                0x00000d40       0x32 C:/Users/user1/Documents/hoopoe-2/hal/demo/..//hal/lib\libHALD.a(WatchDogTimerNoOS.o)
 .ARM.attributes
                0x00000d72       0x32 C:/Users/user1/Documents/hoopoe-2/hal/demo/..//hal/lib\libHALD.a(WatchDogTimerOS.o)
 .ARM.attributes
                0x00000da4       0x32 C:/Users/user1/Documents/hoopoe-2/hal/demo/..//hal/lib\libHALD.a(util.o)
 .ARM.attributes
                0x00000dd6       0x32 C:/Users/user1/Documents/hoopoe-2/hal/demo/..//hal/lib\libHALD.a(version.o)
 .ARM.attributes
                0x00000e08       0x32 C:/Users/user1/Documents/hoopoe-2/hal/demo/..//hal/lib\libHALD.a(RTT.o)
 .ARM.attributes
                0x00000e3a       0x32 C:/Users/user1/Documents/hoopoe-2/hal/demo/..//freertos/lib\libFreeRTOSD.a(queue.o)
 .ARM.attributes
                0x00000e6c       0x32 C:/Users/user1/Documents/hoopoe-2/hal/demo/..//freertos/lib\libFreeRTOSD.a(tasks.o)
 .ARM.attributes
                0x00000e9e       0x32 C:/Users/user1/Documents/hoopoe-2/hal/demo/..//freertos/lib\libFreeRTOSD.a(standardMemMang.o)
 .ARM.attributes
                0x00000ed0       0x32 C:/Users/user1/Documents/hoopoe-2/hal/demo/..//freertos/lib\libFreeRTOSD.a(port.o)
 .ARM.attributes
                0x00000f02       0x32 C:/Users/user1/Documents/hoopoe-2/hal/demo/..//freertos/lib\libFreeRTOSD.a(list.o)
 .ARM.attributes
                0x00000f34       0x32 C:/Users/user1/Documents/hoopoe-2/hal/demo/..//at91/lib\libAt91D.a(syscalls.o)
 .ARM.attributes
                0x00000f66       0x32 C:/Users/user1/Documents/hoopoe-2/hal/demo/..//at91/lib\libAt91D.a(board_memories.o)
 .ARM.attributes
                0x00000f98       0x32 C:/Users/user1/Documents/hoopoe-2/hal/demo/..//at91/lib\libAt91D.a(adc_at91.o)
 .ARM.attributes
                0x00000fca       0x32 C:/Users/user1/Documents/hoopoe-2/hal/demo/..//at91/lib\libAt91D.a(aic.o)
 .ARM.attributes
                0x00000ffc       0x32 C:/Users/user1/Documents/hoopoe-2/hal/demo/..//at91/lib\libAt91D.a(cp15.o)
 .ARM.attributes
                0x0000102e       0x32 C:/Users/user1/Documents/hoopoe-2/hal/demo/..//at91/lib\libAt91D.a(dbgu.o)
 .ARM.attributes
                0x00001060       0x32 C:/Users/user1/Documents/hoopoe-2/hal/demo/..//at91/lib\libAt91D.a(pio.o)
 .ARM.attributes
                0x00001092       0x32 C:/Users/user1/Documents/hoopoe-2/hal/demo/..//at91/lib\libAt91D.a(pio_it.o)
 .ARM.attributes
                0x000010c4       0x32 C:/Users/user1/Documents/hoopoe-2/hal/demo/..//at91/lib\libAt91D.a(pit.o)
 .ARM.attributes
                0x000010f6       0x32 C:/Users/user1/Documents/hoopoe-2/hal/demo/..//at91/lib\libAt91D.a(pmc.o)
 .ARM.attributes
                0x00001128       0x32 C:/Users/user1/Documents/hoopoe-2/hal/demo/..//at91/lib\libAt91D.a(spi_at91.o)
 .ARM.attributes
                0x0000115a       0x32 C:/Users/user1/Documents/hoopoe-2/hal/demo/..//at91/lib\libAt91D.a(tc.o)
 .ARM.attributes
                0x0000118c       0x32 C:/Users/user1/Documents/hoopoe-2/hal/demo/..//at91/lib\libAt91D.a(twi_at91.o)
 .ARM.attributes
                0x000011be       0x32 C:/Users/user1/Documents/hoopoe-2/hal/demo/..//at91/lib\libAt91D.a(USBD_UDP.o)
 .ARM.attributes
                0x000011f0       0x32 C:/Users/user1/Documents/hoopoe-2/hal/demo/..//at91/lib\libAt91D.a(HIDDMouseDriver.o)
 .ARM.attributes
                0x00001222       0x32 C:/Users/user1/Documents/hoopoe-2/hal/demo/..//at91/lib\libAt91D.a(HIDDMouseDriverDescriptors.o)
 .ARM.attributes
                0x00001254       0x32 C:/Users/user1/Documents/hoopoe-2/hal/demo/..//at91/lib\libAt91D.a(HIDDMouseInputReport.o)
 .ARM.attributes
                0x00001286       0x32 C:/Users/user1/Documents/hoopoe-2/hal/demo/..//at91/lib\libAt91D.a(ExitHandler.o)
 .ARM.attributes
                0x000012b8       0x32 C:/Users/user1/Documents/hoopoe-2/hal/demo/..//at91/lib\libAt91D.a(rand.o)
 .ARM.attributes
                0x000012ea       0x22 C:/Users/user1/Documents/hoopoe-2/hal/demo/..//at91/lib\libAt91D.a(board_cstartup.o)
 .ARM.attributes
                0x0000130c       0x22 C:/Users/user1/Documents/hoopoe-2/hal/demo/..//at91/lib\libAt91D.a(cp15_asm.o)
 .ARM.attributes
                0x0000132e       0x32 C:/Users/user1/Documents/hoopoe-2/hal/demo/..//at91/lib\libAt91D.a(board_lowlevel.o)
 .ARM.attributes
                0x00001360       0x32 C:/Users/user1/Documents/hoopoe-2/hal/demo/..//at91/lib\libAt91D.a(USBConfigurationDescriptor.o)
 .ARM.attributes
                0x00001392       0x32 C:/Users/user1/Documents/hoopoe-2/hal/demo/..//at91/lib\libAt91D.a(USBEndpointDescriptor.o)
 .ARM.attributes
                0x000013c4       0x32 C:/Users/user1/Documents/hoopoe-2/hal/demo/..//at91/lib\libAt91D.a(USBGenericDescriptor.o)
 .ARM.attributes
                0x000013f6       0x32 C:/Users/user1/Documents/hoopoe-2/hal/demo/..//at91/lib\libAt91D.a(USBGenericRequest.o)
 .ARM.attributes
                0x00001428       0x32 C:/Users/user1/Documents/hoopoe-2/hal/demo/..//at91/lib\libAt91D.a(USBGetDescriptorRequest.o)
 .ARM.attributes
                0x0000145a       0x32 C:/Users/user1/Documents/hoopoe-2/hal/demo/..//at91/lib\libAt91D.a(HIDIdleRequest.o)
 .ARM.attributes
                0x0000148c       0x32 C:/Users/user1/Documents/hoopoe-2/hal/demo/..//at91/lib\libAt91D.a(HIDReportRequest.o)
 .ARM.attributes
                0x000014be       0x32 C:/Users/user1/Documents/hoopoe-2/hal/demo/..//at91/lib\libAt91D.a(USBDCallbacks_Initialized.o)
 .ARM.attributes
                0x000014f0       0x32 C:/Users/user1/Documents/hoopoe-2/hal/demo/..//at91/lib\libAt91D.a(USBDCallbacks_Reset.o)
 .ARM.attributes
                0x00001522       0x32 C:/Users/user1/Documents/hoopoe-2/hal/demo/..//at91/lib\libAt91D.a(USBDDriver.o)
 .ARM.attributes
                0x00001554       0x32 C:/Users/user1/Documents/hoopoe-2/hal/demo/..//at91/lib\libAt91D.a(USBDDriverCb_IfSettingChanged.o)
 .ARM.attributes
                0x00001586       0x32 C:/Users/user1/Documents/hoopoe-2/hal/demo/..//at91/lib\libAt91D.a(USBFeatureRequest.o)
 .ARM.attributes
                0x000015b8       0x32 C:/Users/user1/Documents/hoopoe-2/hal/demo/..//at91/lib\libAt91D.a(USBInterfaceRequest.o)
 .ARM.attributes
                0x000015ea       0x32 C:/Users/user1/Documents/hoopoe-2/hal/demo/..//at91/lib\libAt91D.a(USBSetAddressRequest.o)
 .ARM.attributes
                0x0000161c       0x32 C:/Users/user1/Documents/hoopoe-2/hal/demo/..//at91/lib\libAt91D.a(USBSetConfigurationRequest.o)
 .ARM.attributes
                0x0000164e       0x18 c:/isis/application/toolchain/bin/../lib/gcc/arm-none-eabi/4.7.4\libgcc.a(_udivsi3.o)
 .ARM.attributes
                0x00001666       0x18 c:/isis/application/toolchain/bin/../lib/gcc/arm-none-eabi/4.7.4\libgcc.a(_divsi3.o)
 .ARM.attributes
                0x0000167e       0x18 c:/isis/application/toolchain/bin/../lib/gcc/arm-none-eabi/4.7.4\libgcc.a(_dvmd_tls.o)
 .ARM.attributes
                0x00001696       0x18 c:/isis/application/toolchain/bin/../lib/gcc/arm-none-eabi/4.7.4\libgcc.a(_arm_addsubdf3.o)
 .ARM.attributes
                0x000016ae       0x18 c:/isis/application/toolchain/bin/../lib/gcc/arm-none-eabi/4.7.4\libgcc.a(_arm_muldivdf3.o)
 .ARM.attributes
                0x000016c6       0x18 c:/isis/application/toolchain/bin/../lib/gcc/arm-none-eabi/4.7.4\libgcc.a(_arm_cmpdf2.o)
 .ARM.attributes
                0x000016de       0x18 c:/isis/application/toolchain/bin/../lib/gcc/arm-none-eabi/4.7.4\libgcc.a(_arm_fixdfsi.o)
 .ARM.attributes
                0x000016f6       0x18 c:/isis/application/toolchain/bin/../lib/gcc/arm-none-eabi/4.7.4\libgcc.a(_arm_fixunsdfsi.o)
 .ARM.attributes
                0x0000170e       0x18 c:/isis/application/toolchain/bin/../lib/gcc/arm-none-eabi/4.7.4\libgcc.a(_arm_truncdfsf2.o)
 .ARM.attributes
                0x00001726       0x18 c:/isis/application/toolchain/bin/../lib/gcc/arm-none-eabi/4.7.4\libgcc.a(_arm_addsubsf3.o)
 .ARM.attributes
                0x0000173e       0x18 c:/isis/application/toolchain/bin/../lib/gcc/arm-none-eabi/4.7.4\libgcc.a(_arm_muldivsf3.o)
 .ARM.attributes
                0x00001756       0x18 c:/isis/application/toolchain/bin/../lib/gcc/arm-none-eabi/4.7.4\libgcc.a(_arm_cmpsf2.o)
 .ARM.attributes
                0x0000176e       0x18 c:/isis/application/toolchain/bin/../lib/gcc/arm-none-eabi/4.7.4\libgcc.a(_arm_fixsfsi.o)
 .ARM.attributes
                0x00001786       0x18 c:/isis/application/toolchain/bin/../lib/gcc/arm-none-eabi/4.7.4\libgcc.a(_arm_fixunssfsi.o)
 .ARM.attributes
                0x0000179e       0x30 c:/isis/application/toolchain/bin/../lib/gcc/arm-none-eabi/4.7.4/../../../../arm-none-eabi/lib\libc_s.a(lib_a-errno.o)
 .ARM.attributes
                0x000017ce       0x30 c:/isis/application/toolchain/bin/../lib/gcc/arm-none-eabi/4.7.4/../../../../arm-none-eabi/lib\libc_s.a(lib_a-memcmp.o)
 .ARM.attributes
                0x000017fe       0x30 c:/isis/application/toolchain/bin/../lib/gcc/arm-none-eabi/4.7.4/../../../../arm-none-eabi/lib\libc_s.a(lib_a-printf.o)
 .ARM.attributes
                0x0000182e       0x30 c:/isis/application/toolchain/bin/../lib/gcc/arm-none-eabi/4.7.4/../../../../arm-none-eabi/lib\libc_s.a(lib_a-puts.o)
 .ARM.attributes
                0x0000185e       0x30 c:/isis/application/toolchain/bin/../lib/gcc/arm-none-eabi/4.7.4/../../../../arm-none-eabi/lib\libc_s.a(lib_a-strnlen.o)
 .ARM.attributes
                0x0000188e       0x30 c:/isis/application/toolchain/bin/../lib/gcc/arm-none-eabi/4.7.4/../../../../arm-none-eabi/lib\libc_s.a(lib_a-vfprintf.o)
 .ARM.attributes
                0x000018be       0x30 c:/isis/application/toolchain/bin/../lib/gcc/arm-none-eabi/4.7.4/../../../../arm-none-eabi/lib\libc_s.a(lib_a-wbuf.o)
 .ARM.attributes
                0x000018ee       0x30 c:/isis/application/toolchain/bin/../lib/gcc/arm-none-eabi/4.7.4/../../../../arm-none-eabi/lib\libc_s.a(lib_a-wsetup.o)
 .ARM.attributes
                0x0000191e       0x30 c:/isis/application/toolchain/bin/../lib/gcc/arm-none-eabi/4.7.4/../../../../arm-none-eabi/lib\libc_s.a(lib_a-fflush.o)
 .ARM.attributes
                0x0000194e       0x30 c:/isis/application/toolchain/bin/../lib/gcc/arm-none-eabi/4.7.4/../../../../arm-none-eabi/lib\libc_s.a(lib_a-findfp.o)
 .ARM.attributes
                0x0000197e       0x30 c:/isis/application/toolchain/bin/../lib/gcc/arm-none-eabi/4.7.4/../../../../arm-none-eabi/lib\libc_s.a(lib_a-makebuf.o)
 .ARM.attributes
                0x000019ae       0x30 c:/isis/application/toolchain/bin/../lib/gcc/arm-none-eabi/4.7.4/../../../../arm-none-eabi/lib\libc_s.a(lib_a-putc.o)
 .ARM.attributes
                0x000019de       0x30 c:/isis/application/toolchain/bin/../lib/gcc/arm-none-eabi/4.7.4/../../../../arm-none-eabi/lib\libc_s.a(lib_a-stdio.o)
 .ARM.attributes
                0x00001a0e       0x30 c:/isis/application/toolchain/bin/../lib/gcc/arm-none-eabi/4.7.4/../../../../arm-none-eabi/lib\libc_s.a(lib_a-writer.o)
 .ARM.attributes
                0x00001a3e       0x30 c:/isis/application/toolchain/bin/../lib/gcc/arm-none-eabi/4.7.4/../../../../arm-none-eabi/lib\libc_s.a(lib_a-closer.o)
 .ARM.attributes
                0x00001a6e       0x30 c:/isis/application/toolchain/bin/../lib/gcc/arm-none-eabi/4.7.4/../../../../arm-none-eabi/lib\libc_s.a(lib_a-fstatr.o)
 .ARM.attributes
                0x00001a9e       0x30 c:/isis/application/toolchain/bin/../lib/gcc/arm-none-eabi/4.7.4/../../../../arm-none-eabi/lib\libc_s.a(lib_a-isattyr.o)
 .ARM.attributes
                0x00001ace       0x30 c:/isis/application/toolchain/bin/../lib/gcc/arm-none-eabi/4.7.4/../../../../arm-none-eabi/lib\libc_s.a(lib_a-lseekr.o)
 .ARM.attributes
                0x00001afe       0x30 c:/isis/application/toolchain/bin/../lib/gcc/arm-none-eabi/4.7.4/../../../../arm-none-eabi/lib\libc_s.a(lib_a-readr.o)

.comment        0x00000000       0x70
 .comment       0x00000000       0x70 ./src/Tests/ADCtest.o
                                 0x71 (size before relaxing)
 .comment       0x00000000       0x71 ./src/Tests/I2Ctest.o
 .comment       0x00000000       0x71 ./src/Tests/LEDtest.o
 .comment       0x00000000       0x71 ./src/Tests/PWMtest.o
 .comment       0x00000000       0x71 ./src/Tests/PinTest.o
 .comment       0x00000000       0x71 ./src/Tests/SDCardTest.o
 .comment       0x00000000       0x71 ./src/Tests/SPI_FRAM_RTCtest.o
 .comment       0x00000000       0x71 ./src/Tests/SupervisorTest.o
 .comment       0x00000000       0x71 ./src/Tests/TimeTest.o
 .comment       0x00000000       0x71 ./src/Tests/UARTtest.o
 .comment       0x00000000       0x71 ./src/Tests/USBdeviceTest.o
 .comment       0x00000000       0x71 ./src/Tests/boardTest.o
 .comment       0x00000000       0x71 ./src/Tests/checksumTest.o
 .comment       0x00000000       0x71 ./src/freertos_hooks.o
 .comment       0x00000000       0x71 ./src/main.o
 .comment       0x00000000       0x71 C:/Users/user1/Documents/hoopoe-2/hal/demo/..//hcc/lib\libHCCD.a(fat_common.o)
 .comment       0x00000000       0x71 C:/Users/user1/Documents/hoopoe-2/hal/demo/..//hcc/lib\libHCCD.a(fat_m.o)
 .comment       0x00000000       0x71 C:/Users/user1/Documents/hoopoe-2/hal/demo/..//hcc/lib\libHCCD.a(safefat.o)
 .comment       0x00000000       0x71 C:/Users/user1/Documents/hoopoe-2/hal/demo/..//hcc/lib\libHCCD.a(fat_test.o)
 .comment       0x00000000       0x71 C:/Users/user1/Documents/hoopoe-2/hal/demo/..//hcc/lib\libHCCD.a(atmel_mcipdc.o)
 .comment       0x00000000       0x71 C:/Users/user1/Documents/hoopoe-2/hal/demo/..//hcc/lib\libHCCD.a(oalp_mutex.o)
 .comment       0x00000000       0x71 C:/Users/user1/Documents/hoopoe-2/hal/demo/..//hcc/lib\libHCCD.a(oalp_task.o)
 .comment       0x00000000       0x71 C:/Users/user1/Documents/hoopoe-2/hal/demo/..//hcc/lib\libHCCD.a(atmel_mcipdc_hw.o)
 .comment       0x00000000       0x71 C:/Users/user1/Documents/hoopoe-2/hal/demo/..//hcc/lib\libHCCD.a(fat_testport.o)
 .comment       0x00000000       0x71 C:/Users/user1/Documents/hoopoe-2/hal/demo/..//hcc/lib\libHCCD.a(psp_rand.o)
 .comment       0x00000000       0x71 C:/Users/user1/Documents/hoopoe-2/hal/demo/..//hcc/lib\libHCCD.a(psp_rtc.o)
 .comment       0x00000000       0x71 C:/Users/user1/Documents/hoopoe-2/hal/demo/..//hcc/lib\libHCCD.a(hcc_mem.o)
 .comment       0x00000000       0x71 C:/Users/user1/Documents/hoopoe-2/hal/demo/..//hcc/lib\libHCCD.a(fat.o)
 .comment       0x00000000       0x71 C:/Users/user1/Documents/hoopoe-2/hal/demo/..//hcc/lib\libHCCD.a(psp_hcc_mem.o)
 .comment       0x00000000       0x71 C:/Users/user1/Documents/hoopoe-2/hal/demo/..//hal/lib\libHALD.a(checksum.o)
 .comment       0x00000000       0x71 C:/Users/user1/Documents/hoopoe-2/hal/demo/..//hal/lib\libHALD.a(supervisor.o)
 .comment       0x00000000       0x71 C:/Users/user1/Documents/hoopoe-2/hal/demo/..//hal/lib\libHALD.a(ADC.o)
 .comment       0x00000000       0x71 C:/Users/user1/Documents/hoopoe-2/hal/demo/..//hal/lib\libHALD.a(I2C.o)
 .comment       0x00000000       0x71 C:/Users/user1/Documents/hoopoe-2/hal/demo/..//hal/lib\libHALD.a(LED.o)
 .comment       0x00000000       0x71 C:/Users/user1/Documents/hoopoe-2/hal/demo/..//hal/lib\libHALD.a(PWM.o)
 .comment       0x00000000       0x71 C:/Users/user1/Documents/hoopoe-2/hal/demo/..//hal/lib\libHALD.a(SPI.o)
 .comment       0x00000000       0x71 C:/Users/user1/Documents/hoopoe-2/hal/demo/..//hal/lib\libHALD.a(UART.o)
 .comment       0x00000000       0x71 C:/Users/user1/Documents/hoopoe-2/hal/demo/..//hal/lib\libHALD.a(FRAM.o)
 .comment       0x00000000       0x71 C:/Users/user1/Documents/hoopoe-2/hal/demo/..//hal/lib\libHALD.a(RTC.o)
 .comment       0x00000000       0x71 C:/Users/user1/Documents/hoopoe-2/hal/demo/..//hal/lib\libHALD.a(Time.o)
 .comment       0x00000000       0x71 C:/Users/user1/Documents/hoopoe-2/hal/demo/..//hal/lib\libHALD.a(WatchDogTimerNoOS.o)
 .comment       0x00000000       0x71 C:/Users/user1/Documents/hoopoe-2/hal/demo/..//hal/lib\libHALD.a(WatchDogTimerOS.o)
 .comment       0x00000000       0x71 C:/Users/user1/Documents/hoopoe-2/hal/demo/..//hal/lib\libHALD.a(util.o)
 .comment       0x00000000       0x71 C:/Users/user1/Documents/hoopoe-2/hal/demo/..//hal/lib\libHALD.a(version.o)
 .comment       0x00000000       0x71 C:/Users/user1/Documents/hoopoe-2/hal/demo/..//hal/lib\libHALD.a(RTT.o)
 .comment       0x00000000       0x71 C:/Users/user1/Documents/hoopoe-2/hal/demo/..//freertos/lib\libFreeRTOSD.a(queue.o)
 .comment       0x00000000       0x71 C:/Users/user1/Documents/hoopoe-2/hal/demo/..//freertos/lib\libFreeRTOSD.a(tasks.o)
 .comment       0x00000000       0x71 C:/Users/user1/Documents/hoopoe-2/hal/demo/..//freertos/lib\libFreeRTOSD.a(standardMemMang.o)
 .comment       0x00000000       0x71 C:/Users/user1/Documents/hoopoe-2/hal/demo/..//freertos/lib\libFreeRTOSD.a(port.o)
 .comment       0x00000000       0x71 C:/Users/user1/Documents/hoopoe-2/hal/demo/..//freertos/lib\libFreeRTOSD.a(list.o)
 .comment       0x00000000       0x71 C:/Users/user1/Documents/hoopoe-2/hal/demo/..//at91/lib\libAt91D.a(syscalls.o)
 .comment       0x00000000       0x71 C:/Users/user1/Documents/hoopoe-2/hal/demo/..//at91/lib\libAt91D.a(board_memories.o)
 .comment       0x00000000       0x71 C:/Users/user1/Documents/hoopoe-2/hal/demo/..//at91/lib\libAt91D.a(adc_at91.o)
 .comment       0x00000000       0x71 C:/Users/user1/Documents/hoopoe-2/hal/demo/..//at91/lib\libAt91D.a(aic.o)
 .comment       0x00000000       0x71 C:/Users/user1/Documents/hoopoe-2/hal/demo/..//at91/lib\libAt91D.a(cp15.o)
 .comment       0x00000000       0x71 C:/Users/user1/Documents/hoopoe-2/hal/demo/..//at91/lib\libAt91D.a(dbgu.o)
 .comment       0x00000000       0x71 C:/Users/user1/Documents/hoopoe-2/hal/demo/..//at91/lib\libAt91D.a(pio.o)
 .comment       0x00000000       0x71 C:/Users/user1/Documents/hoopoe-2/hal/demo/..//at91/lib\libAt91D.a(pio_it.o)
 .comment       0x00000000       0x71 C:/Users/user1/Documents/hoopoe-2/hal/demo/..//at91/lib\libAt91D.a(pit.o)
 .comment       0x00000000       0x71 C:/Users/user1/Documents/hoopoe-2/hal/demo/..//at91/lib\libAt91D.a(pmc.o)
 .comment       0x00000000       0x71 C:/Users/user1/Documents/hoopoe-2/hal/demo/..//at91/lib\libAt91D.a(spi_at91.o)
 .comment       0x00000000       0x71 C:/Users/user1/Documents/hoopoe-2/hal/demo/..//at91/lib\libAt91D.a(tc.o)
 .comment       0x00000000       0x71 C:/Users/user1/Documents/hoopoe-2/hal/demo/..//at91/lib\libAt91D.a(twi_at91.o)
 .comment       0x00000000       0x71 C:/Users/user1/Documents/hoopoe-2/hal/demo/..//at91/lib\libAt91D.a(USBD_UDP.o)
 .comment       0x00000000       0x71 C:/Users/user1/Documents/hoopoe-2/hal/demo/..//at91/lib\libAt91D.a(HIDDMouseDriver.o)
 .comment       0x00000000       0x71 C:/Users/user1/Documents/hoopoe-2/hal/demo/..//at91/lib\libAt91D.a(HIDDMouseDriverDescriptors.o)
 .comment       0x00000000       0x71 C:/Users/user1/Documents/hoopoe-2/hal/demo/..//at91/lib\libAt91D.a(HIDDMouseInputReport.o)
 .comment       0x00000000       0x71 C:/Users/user1/Documents/hoopoe-2/hal/demo/..//at91/lib\libAt91D.a(ExitHandler.o)
 .comment       0x00000000       0x71 C:/Users/user1/Documents/hoopoe-2/hal/demo/..//at91/lib\libAt91D.a(rand.o)
 .comment       0x00000000       0x71 C:/Users/user1/Documents/hoopoe-2/hal/demo/..//at91/lib\libAt91D.a(board_lowlevel.o)
 .comment       0x00000000       0x71 C:/Users/user1/Documents/hoopoe-2/hal/demo/..//at91/lib\libAt91D.a(USBConfigurationDescriptor.o)
 .comment       0x00000000       0x71 C:/Users/user1/Documents/hoopoe-2/hal/demo/..//at91/lib\libAt91D.a(USBEndpointDescriptor.o)
 .comment       0x00000000       0x71 C:/Users/user1/Documents/hoopoe-2/hal/demo/..//at91/lib\libAt91D.a(USBGenericDescriptor.o)
 .comment       0x00000000       0x71 C:/Users/user1/Documents/hoopoe-2/hal/demo/..//at91/lib\libAt91D.a(USBGenericRequest.o)
 .comment       0x00000000       0x71 C:/Users/user1/Documents/hoopoe-2/hal/demo/..//at91/lib\libAt91D.a(USBGetDescriptorRequest.o)
 .comment       0x00000000       0x71 C:/Users/user1/Documents/hoopoe-2/hal/demo/..//at91/lib\libAt91D.a(HIDIdleRequest.o)
 .comment       0x00000000       0x71 C:/Users/user1/Documents/hoopoe-2/hal/demo/..//at91/lib\libAt91D.a(HIDReportRequest.o)
 .comment       0x00000000       0x71 C:/Users/user1/Documents/hoopoe-2/hal/demo/..//at91/lib\libAt91D.a(USBDCallbacks_Initialized.o)
 .comment       0x00000000       0x71 C:/Users/user1/Documents/hoopoe-2/hal/demo/..//at91/lib\libAt91D.a(USBDCallbacks_Reset.o)
 .comment       0x00000000       0x71 C:/Users/user1/Documents/hoopoe-2/hal/demo/..//at91/lib\libAt91D.a(USBDDriver.o)
 .comment       0x00000000       0x71 C:/Users/user1/Documents/hoopoe-2/hal/demo/..//at91/lib\libAt91D.a(USBDDriverCb_IfSettingChanged.o)
 .comment       0x00000000       0x71 C:/Users/user1/Documents/hoopoe-2/hal/demo/..//at91/lib\libAt91D.a(USBFeatureRequest.o)
 .comment       0x00000000       0x71 C:/Users/user1/Documents/hoopoe-2/hal/demo/..//at91/lib\libAt91D.a(USBInterfaceRequest.o)
 .comment       0x00000000       0x71 C:/Users/user1/Documents/hoopoe-2/hal/demo/..//at91/lib\libAt91D.a(USBSetAddressRequest.o)
 .comment       0x00000000       0x71 C:/Users/user1/Documents/hoopoe-2/hal/demo/..//at91/lib\libAt91D.a(USBSetConfigurationRequest.o)

.debug_frame    0x00000000     0x6e24
 .debug_frame   0x00000000       0x80 c:/isis/application/toolchain/bin/../lib/gcc/arm-none-eabi/4.7.4/../../../../arm-none-eabi/lib\libc_s.a(lib_a-vfprintf_float.o)
 .debug_frame   0x00000080       0x5c c:/isis/application/toolchain/bin/../lib/gcc/arm-none-eabi/4.7.4/../../../../arm-none-eabi/lib\libc_s.a(lib_a-vfprintf_i.o)
 .debug_frame   0x000000dc       0x38 c:/isis/application/toolchain/bin/../lib/gcc/arm-none-eabi/4.7.4/../../../../arm-none-eabi/lib\libc_s.a(lib_a-vfscanf_float.o)
 .debug_frame   0x00000114       0x64 c:/isis/application/toolchain/bin/../lib/gcc/arm-none-eabi/4.7.4/../../../../arm-none-eabi/lib\libc_s.a(lib_a-dtoa.o)
 .debug_frame   0x00000178       0x98 c:/isis/application/toolchain/bin/../lib/gcc/arm-none-eabi/4.7.4/../../../../arm-none-eabi/lib\libc_s.a(lib_a-locale.o)
 .debug_frame   0x00000210       0x40 c:/isis/application/toolchain/bin/../lib/gcc/arm-none-eabi/4.7.4/../../../../arm-none-eabi/lib\libc_s.a(lib_a-malloc.o)
 .debug_frame   0x00000250       0x2c c:/isis/application/toolchain/bin/../lib/gcc/arm-none-eabi/4.7.4/../../../../arm-none-eabi/lib\libc_s.a(lib_a-mallocr.o)
 .debug_frame   0x0000027c       0x20 c:/isis/application/toolchain/bin/../lib/gcc/arm-none-eabi/4.7.4/../../../../arm-none-eabi/lib\libc_s.a(lib_a-memcpy.o)
 .debug_frame   0x0000029c      0x22c c:/isis/application/toolchain/bin/../lib/gcc/arm-none-eabi/4.7.4/../../../../arm-none-eabi/lib\libc_s.a(lib_a-mprec.o)
 .debug_frame   0x000004c8       0x20 c:/isis/application/toolchain/bin/../lib/gcc/arm-none-eabi/4.7.4/../../../../arm-none-eabi/lib\libc_s.a(lib_a-s_fpclassify.o)
 .debug_frame   0x000004e8       0x2c c:/isis/application/toolchain/bin/../lib/gcc/arm-none-eabi/4.7.4/../../../../arm-none-eabi/lib\libc_s.a(lib_a-sbrkr.o)
 .debug_frame   0x00000514       0x20 c:/isis/application/toolchain/bin/../lib/gcc/arm-none-eabi/4.7.4/../../../../arm-none-eabi/lib\libc_s.a(lib_a-sf_nan.o)
 .debug_frame   0x00000534       0x54 c:/isis/application/toolchain/bin/../lib/gcc/arm-none-eabi/4.7.4/../../../../arm-none-eabi/lib\libc_s.a(lib_a-sprintf.o)
 .debug_frame   0x00000588       0x20 c:/isis/application/toolchain/bin/../lib/gcc/arm-none-eabi/4.7.4/../../../../arm-none-eabi/lib\libc_s.a(lib_a-strlen.o)
 .debug_frame   0x000005a8       0x80 c:/isis/application/toolchain/bin/../lib/gcc/arm-none-eabi/4.7.4/../../../../arm-none-eabi/lib\libc_s.a(lib_a-strtod.o)
 .debug_frame   0x00000628       0x54 c:/isis/application/toolchain/bin/../lib/gcc/arm-none-eabi/4.7.4/../../../../arm-none-eabi/lib\libc_s.a(lib_a-strtol.o)
 .debug_frame   0x0000067c       0x88 c:/isis/application/toolchain/bin/../lib/gcc/arm-none-eabi/4.7.4/../../../../arm-none-eabi/lib\libc_s.a(lib_a-svfprintf.o)
 .debug_frame   0x00000704       0x2c c:/isis/application/toolchain/bin/../lib/gcc/arm-none-eabi/4.7.4/../../../../arm-none-eabi/lib\libc_s.a(lib_a-callocr.o)
 .debug_frame   0x00000730       0x28 c:/isis/application/toolchain/bin/../lib/gcc/arm-none-eabi/4.7.4/../../../../arm-none-eabi/lib\libc_s.a(lib_a-freer.o)
 .debug_frame   0x00000758       0x84 c:/isis/application/toolchain/bin/../lib/gcc/arm-none-eabi/4.7.4/../../../../arm-none-eabi/lib\libc_s.a(lib_a-gdtoa-gethex.o)
 .debug_frame   0x000007dc       0x54 c:/isis/application/toolchain/bin/../lib/gcc/arm-none-eabi/4.7.4/../../../../arm-none-eabi/lib\libc_s.a(lib_a-gdtoa-hexnan.o)
 .debug_frame   0x00000830       0x20 c:/isis/application/toolchain/bin/../lib/gcc/arm-none-eabi/4.7.4/../../../../arm-none-eabi/lib\libc_s.a(lib_a-memchr.o)
 .debug_frame   0x00000850       0x20 c:/isis/application/toolchain/bin/../lib/gcc/arm-none-eabi/4.7.4/../../../../arm-none-eabi/lib\libc_s.a(lib_a-memset.o)
 .debug_frame   0x00000870       0x30 c:/isis/application/toolchain/bin/../lib/gcc/arm-none-eabi/4.7.4/../../../../arm-none-eabi/lib\libc_s.a(lib_a-reallocr.o)
 .debug_frame   0x000008a0       0x64 c:/isis/application/toolchain/bin/../lib/gcc/arm-none-eabi/4.7.4/../../../../arm-none-eabi/lib\libc_s.a(lib_a-reent.o)
 .debug_frame   0x00000904       0x28 c:/isis/application/toolchain/bin/../lib/gcc/arm-none-eabi/4.7.4/../../../../arm-none-eabi/lib\libc_s.a(lib_a-strncmp.o)
 .debug_frame   0x0000092c       0x20 c:/isis/application/toolchain/bin/../lib/gcc/arm-none-eabi/4.7.4/../../../../arm-none-eabi/lib\libc_s.a(lib_a-msizer.o)
 .debug_frame   0x0000094c       0xe8 ./src/Tests/ADCtest.o
 .debug_frame   0x00000a34       0xb8 ./src/Tests/I2Ctest.o
 .debug_frame   0x00000aec       0x64 ./src/Tests/LEDtest.o
 .debug_frame   0x00000b50       0x48 ./src/Tests/PWMtest.o
 .debug_frame   0x00000b98       0x2c ./src/Tests/PinTest.o
 .debug_frame   0x00000bc4       0x2c ./src/Tests/SDCardTest.o
 .debug_frame   0x00000bf0       0xbc ./src/Tests/SPI_FRAM_RTCtest.o
 .debug_frame   0x00000cac       0x60 ./src/Tests/SupervisorTest.o
 .debug_frame   0x00000d0c       0x64 ./src/Tests/TimeTest.o
 .debug_frame   0x00000d70       0x48 ./src/Tests/UARTtest.o
 .debug_frame   0x00000db8       0xb0 ./src/Tests/USBdeviceTest.o
 .debug_frame   0x00000e68       0x48 ./src/Tests/boardTest.o
 .debug_frame   0x00000eb0       0x30 ./src/Tests/checksumTest.o
 .debug_frame   0x00000ee0       0x44 ./src/freertos_hooks.o
 .debug_frame   0x00000f24       0x64 ./src/main.o
 .debug_frame   0x00000f88      0xc40 C:/Users/user1/Documents/hoopoe-2/hal/demo/..//hcc/lib\libHCCD.a(fat_common.o)
 .debug_frame   0x00001bc8      0x614 C:/Users/user1/Documents/hoopoe-2/hal/demo/..//hcc/lib\libHCCD.a(fat_m.o)
 .debug_frame   0x000021dc      0x638 C:/Users/user1/Documents/hoopoe-2/hal/demo/..//hcc/lib\libHCCD.a(safefat.o)
 .debug_frame   0x00002814      0x2a4 C:/Users/user1/Documents/hoopoe-2/hal/demo/..//hcc/lib\libHCCD.a(fat_test.o)
 .debug_frame   0x00002ab8      0x1c4 C:/Users/user1/Documents/hoopoe-2/hal/demo/..//hcc/lib\libHCCD.a(atmel_mcipdc.o)
 .debug_frame   0x00002c7c       0x80 C:/Users/user1/Documents/hoopoe-2/hal/demo/..//hcc/lib\libHCCD.a(oalp_mutex.o)
 .debug_frame   0x00002cfc       0x2c C:/Users/user1/Documents/hoopoe-2/hal/demo/..//hcc/lib\libHCCD.a(oalp_task.o)
 .debug_frame   0x00002d28       0x80 C:/Users/user1/Documents/hoopoe-2/hal/demo/..//hcc/lib\libHCCD.a(atmel_mcipdc_hw.o)
 .debug_frame   0x00002da8       0x80 C:/Users/user1/Documents/hoopoe-2/hal/demo/..//hcc/lib\libHCCD.a(fat_testport.o)
 .debug_frame   0x00002e28       0x2c C:/Users/user1/Documents/hoopoe-2/hal/demo/..//hcc/lib\libHCCD.a(psp_rand.o)
 .debug_frame   0x00002e54       0x2c C:/Users/user1/Documents/hoopoe-2/hal/demo/..//hcc/lib\libHCCD.a(psp_rtc.o)
 .debug_frame   0x00002e80      0x228 C:/Users/user1/Documents/hoopoe-2/hal/demo/..//hcc/lib\libHCCD.a(hcc_mem.o)
 .debug_frame   0x000030a8      0x47c C:/Users/user1/Documents/hoopoe-2/hal/demo/..//hcc/lib\libHCCD.a(fat.o)
 .debug_frame   0x00003524       0x40 C:/Users/user1/Documents/hoopoe-2/hal/demo/..//hcc/lib\libHCCD.a(psp_hcc_mem.o)
 .debug_frame   0x00003564      0x154 C:/Users/user1/Documents/hoopoe-2/hal/demo/..//hal/lib\libHALD.a(checksum.o)
 .debug_frame   0x000036b8      0x184 C:/Users/user1/Documents/hoopoe-2/hal/demo/..//hal/lib\libHALD.a(supervisor.o)
 .debug_frame   0x0000383c       0xd4 C:/Users/user1/Documents/hoopoe-2/hal/demo/..//hal/lib\libHALD.a(ADC.o)
 .debug_frame   0x00003910      0x264 C:/Users/user1/Documents/hoopoe-2/hal/demo/..//hal/lib\libHALD.a(I2C.o)
 .debug_frame   0x00003b74       0xd0 C:/Users/user1/Documents/hoopoe-2/hal/demo/..//hal/lib\libHALD.a(LED.o)
 .debug_frame   0x00003c44       0xf0 C:/Users/user1/Documents/hoopoe-2/hal/demo/..//hal/lib\libHALD.a(PWM.o)
 .debug_frame   0x00003d34      0x160 C:/Users/user1/Documents/hoopoe-2/hal/demo/..//hal/lib\libHALD.a(SPI.o)
 .debug_frame   0x00003e94      0x228 C:/Users/user1/Documents/hoopoe-2/hal/demo/..//hal/lib\libHALD.a(UART.o)
 .debug_frame   0x000040bc      0x194 C:/Users/user1/Documents/hoopoe-2/hal/demo/..//hal/lib\libHALD.a(FRAM.o)
 .debug_frame   0x00004250      0x11c C:/Users/user1/Documents/hoopoe-2/hal/demo/..//hal/lib\libHALD.a(RTC.o)
 .debug_frame   0x0000436c      0x18c C:/Users/user1/Documents/hoopoe-2/hal/demo/..//hal/lib\libHALD.a(Time.o)
 .debug_frame   0x000044f8       0x64 C:/Users/user1/Documents/hoopoe-2/hal/demo/..//hal/lib\libHALD.a(WatchDogTimerNoOS.o)
 .debug_frame   0x0000455c       0x80 C:/Users/user1/Documents/hoopoe-2/hal/demo/..//hal/lib\libHALD.a(WatchDogTimerOS.o)
 .debug_frame   0x000045dc       0xd8 C:/Users/user1/Documents/hoopoe-2/hal/demo/..//hal/lib\libHALD.a(util.o)
 .debug_frame   0x000046b4       0x8c C:/Users/user1/Documents/hoopoe-2/hal/demo/..//hal/lib\libHALD.a(RTT.o)
 .debug_frame   0x00004740      0x2b0 C:/Users/user1/Documents/hoopoe-2/hal/demo/..//freertos/lib\libFreeRTOSD.a(queue.o)
 .debug_frame   0x000049f0      0x404 C:/Users/user1/Documents/hoopoe-2/hal/demo/..//freertos/lib\libFreeRTOSD.a(tasks.o)
 .debug_frame   0x00004df4       0x78 C:/Users/user1/Documents/hoopoe-2/hal/demo/..//freertos/lib\libFreeRTOSD.a(standardMemMang.o)
 .debug_frame   0x00004e6c      0x10c C:/Users/user1/Documents/hoopoe-2/hal/demo/..//freertos/lib\libFreeRTOSD.a(port.o)
 .debug_frame   0x00004f78       0x88 C:/Users/user1/Documents/hoopoe-2/hal/demo/..//freertos/lib\libFreeRTOSD.a(list.o)
 .debug_frame   0x00005000      0x1e0 C:/Users/user1/Documents/hoopoe-2/hal/demo/..//at91/lib\libAt91D.a(syscalls.o)
 .debug_frame   0x000051e0       0x74 C:/Users/user1/Documents/hoopoe-2/hal/demo/..//at91/lib\libAt91D.a(board_memories.o)
 .debug_frame   0x00005254      0x1e4 C:/Users/user1/Documents/hoopoe-2/hal/demo/..//at91/lib\libAt91D.a(adc_at91.o)
 .debug_frame   0x00005438       0x58 C:/Users/user1/Documents/hoopoe-2/hal/demo/..//at91/lib\libAt91D.a(aic.o)
 .debug_frame   0x00005490      0x10c C:/Users/user1/Documents/hoopoe-2/hal/demo/..//at91/lib\libAt91D.a(cp15.o)
 .debug_frame   0x0000559c       0xcc C:/Users/user1/Documents/hoopoe-2/hal/demo/..//at91/lib\libAt91D.a(dbgu.o)
 .debug_frame   0x00005668      0x104 C:/Users/user1/Documents/hoopoe-2/hal/demo/..//at91/lib\libAt91D.a(pio.o)
 .debug_frame   0x0000576c       0xac C:/Users/user1/Documents/hoopoe-2/hal/demo/..//at91/lib\libAt91D.a(pio_it.o)
 .debug_frame   0x00005818       0xe8 C:/Users/user1/Documents/hoopoe-2/hal/demo/..//at91/lib\libAt91D.a(pit.o)
 .debug_frame   0x00005900       0xe4 C:/Users/user1/Documents/hoopoe-2/hal/demo/..//at91/lib\libAt91D.a(pmc.o)
 .debug_frame   0x000059e4       0xe8 C:/Users/user1/Documents/hoopoe-2/hal/demo/..//at91/lib\libAt91D.a(spi_at91.o)
 .debug_frame   0x00005acc       0x74 C:/Users/user1/Documents/hoopoe-2/hal/demo/..//at91/lib\libAt91D.a(tc.o)
 .debug_frame   0x00005b40      0x1a8 C:/Users/user1/Documents/hoopoe-2/hal/demo/..//at91/lib\libAt91D.a(twi_at91.o)
 .debug_frame   0x00005ce8      0x338 C:/Users/user1/Documents/hoopoe-2/hal/demo/..//at91/lib\libAt91D.a(USBD_UDP.o)
 .debug_frame   0x00006020      0x144 C:/Users/user1/Documents/hoopoe-2/hal/demo/..//at91/lib\libAt91D.a(HIDDMouseDriver.o)
 .debug_frame   0x00006164       0x28 C:/Users/user1/Documents/hoopoe-2/hal/demo/..//at91/lib\libAt91D.a(HIDDMouseInputReport.o)
 .debug_frame   0x0000618c       0x9c C:/Users/user1/Documents/hoopoe-2/hal/demo/..//at91/lib\libAt91D.a(ExitHandler.o)
 .debug_frame   0x00006228       0x40 C:/Users/user1/Documents/hoopoe-2/hal/demo/..//at91/lib\libAt91D.a(rand.o)
 .debug_frame   0x00006268       0x98 C:/Users/user1/Documents/hoopoe-2/hal/demo/..//at91/lib\libAt91D.a(board_lowlevel.o)
 .debug_frame   0x00006300       0x78 C:/Users/user1/Documents/hoopoe-2/hal/demo/..//at91/lib\libAt91D.a(USBConfigurationDescriptor.o)
 .debug_frame   0x00006378       0x70 C:/Users/user1/Documents/hoopoe-2/hal/demo/..//at91/lib\libAt91D.a(USBEndpointDescriptor.o)
 .debug_frame   0x000063e8       0x5c C:/Users/user1/Documents/hoopoe-2/hal/demo/..//at91/lib\libAt91D.a(USBGenericDescriptor.o)
 .debug_frame   0x00006444       0xd4 C:/Users/user1/Documents/hoopoe-2/hal/demo/..//at91/lib\libAt91D.a(USBGenericRequest.o)
 .debug_frame   0x00006518       0x48 C:/Users/user1/Documents/hoopoe-2/hal/demo/..//at91/lib\libAt91D.a(USBGetDescriptorRequest.o)
 .debug_frame   0x00006560       0x2c C:/Users/user1/Documents/hoopoe-2/hal/demo/..//at91/lib\libAt91D.a(HIDIdleRequest.o)
 .debug_frame   0x0000658c       0x48 C:/Users/user1/Documents/hoopoe-2/hal/demo/..//at91/lib\libAt91D.a(HIDReportRequest.o)
 .debug_frame   0x000065d4       0x2c C:/Users/user1/Documents/hoopoe-2/hal/demo/..//at91/lib\libAt91D.a(USBDCallbacks_Initialized.o)
 .debug_frame   0x00006600       0x28 C:/Users/user1/Documents/hoopoe-2/hal/demo/..//at91/lib\libAt91D.a(USBDCallbacks_Reset.o)
 .debug_frame   0x00006628      0x120 C:/Users/user1/Documents/hoopoe-2/hal/demo/..//at91/lib\libAt91D.a(USBDDriver.o)
 .debug_frame   0x00006748       0x2c C:/Users/user1/Documents/hoopoe-2/hal/demo/..//at91/lib\libAt91D.a(USBDDriverCb_IfSettingChanged.o)
 .debug_frame   0x00006774       0x48 C:/Users/user1/Documents/hoopoe-2/hal/demo/..//at91/lib\libAt91D.a(USBFeatureRequest.o)
 .debug_frame   0x000067bc       0x48 C:/Users/user1/Documents/hoopoe-2/hal/demo/..//at91/lib\libAt91D.a(USBInterfaceRequest.o)
 .debug_frame   0x00006804       0x2c C:/Users/user1/Documents/hoopoe-2/hal/demo/..//at91/lib\libAt91D.a(USBSetAddressRequest.o)
 .debug_frame   0x00006830       0x2c C:/Users/user1/Documents/hoopoe-2/hal/demo/..//at91/lib\libAt91D.a(USBSetConfigurationRequest.o)
 .debug_frame   0x0000685c       0x20 c:/isis/application/toolchain/bin/../lib/gcc/arm-none-eabi/4.7.4\libgcc.a(_udivsi3.o)
 .debug_frame   0x0000687c       0x20 c:/isis/application/toolchain/bin/../lib/gcc/arm-none-eabi/4.7.4\libgcc.a(_divsi3.o)
 .debug_frame   0x0000689c       0x20 c:/isis/application/toolchain/bin/../lib/gcc/arm-none-eabi/4.7.4/../../../../arm-none-eabi/lib\libc_s.a(lib_a-errno.o)
 .debug_frame   0x000068bc       0x28 c:/isis/application/toolchain/bin/../lib/gcc/arm-none-eabi/4.7.4/../../../../arm-none-eabi/lib\libc_s.a(lib_a-memcmp.o)
 .debug_frame   0x000068e4       0x60 c:/isis/application/toolchain/bin/../lib/gcc/arm-none-eabi/4.7.4/../../../../arm-none-eabi/lib\libc_s.a(lib_a-printf.o)
 .debug_frame   0x00006944       0x48 c:/isis/application/toolchain/bin/../lib/gcc/arm-none-eabi/4.7.4/../../../../arm-none-eabi/lib\libc_s.a(lib_a-puts.o)
 .debug_frame   0x0000698c       0x20 c:/isis/application/toolchain/bin/../lib/gcc/arm-none-eabi/4.7.4/../../../../arm-none-eabi/lib\libc_s.a(lib_a-strnlen.o)
 .debug_frame   0x000069ac       0x8c c:/isis/application/toolchain/bin/../lib/gcc/arm-none-eabi/4.7.4/../../../../arm-none-eabi/lib\libc_s.a(lib_a-vfprintf.o)
 .debug_frame   0x00006a38       0x3c c:/isis/application/toolchain/bin/../lib/gcc/arm-none-eabi/4.7.4/../../../../arm-none-eabi/lib\libc_s.a(lib_a-wbuf.o)
 .debug_frame   0x00006a74       0x2c c:/isis/application/toolchain/bin/../lib/gcc/arm-none-eabi/4.7.4/../../../../arm-none-eabi/lib\libc_s.a(lib_a-wsetup.o)
 .debug_frame   0x00006aa0       0x48 c:/isis/application/toolchain/bin/../lib/gcc/arm-none-eabi/4.7.4/../../../../arm-none-eabi/lib\libc_s.a(lib_a-fflush.o)
 .debug_frame   0x00006ae8      0x140 c:/isis/application/toolchain/bin/../lib/gcc/arm-none-eabi/4.7.4/../../../../arm-none-eabi/lib\libc_s.a(lib_a-findfp.o)
 .debug_frame   0x00006c28       0x30 c:/isis/application/toolchain/bin/../lib/gcc/arm-none-eabi/4.7.4/../../../../arm-none-eabi/lib\libc_s.a(lib_a-makebuf.o)
 .debug_frame   0x00006c58       0x3c c:/isis/application/toolchain/bin/../lib/gcc/arm-none-eabi/4.7.4/../../../../arm-none-eabi/lib\libc_s.a(lib_a-putc.o)
 .debug_frame   0x00006c94       0x88 c:/isis/application/toolchain/bin/../lib/gcc/arm-none-eabi/4.7.4/../../../../arm-none-eabi/lib\libc_s.a(lib_a-stdio.o)
 .debug_frame   0x00006d1c       0x2c c:/isis/application/toolchain/bin/../lib/gcc/arm-none-eabi/4.7.4/../../../../arm-none-eabi/lib\libc_s.a(lib_a-writer.o)
 .debug_frame   0x00006d48       0x2c c:/isis/application/toolchain/bin/../lib/gcc/arm-none-eabi/4.7.4/../../../../arm-none-eabi/lib\libc_s.a(lib_a-closer.o)
 .debug_frame   0x00006d74       0x2c c:/isis/application/toolchain/bin/../lib/gcc/arm-none-eabi/4.7.4/../../../../arm-none-eabi/lib\libc_s.a(lib_a-fstatr.o)
 .debug_frame   0x00006da0       0x2c c:/isis/application/toolchain/bin/../lib/gcc/arm-none-eabi/4.7.4/../../../../arm-none-eabi/lib\libc_s.a(lib_a-isattyr.o)
 .debug_frame   0x00006dcc       0x2c c:/isis/application/toolchain/bin/../lib/gcc/arm-none-eabi/4.7.4/../../../../arm-none-eabi/lib\libc_s.a(lib_a-lseekr.o)
 .debug_frame   0x00006df8       0x2c c:/isis/application/toolchain/bin/../lib/gcc/arm-none-eabi/4.7.4/../../../../arm-none-eabi/lib\libc_s.a(lib_a-readr.o)

.debug_info     0x00000000    0x23bdb
 .debug_info    0x00000000      0x326 ./src/Tests/ADCtest.o
 .debug_info    0x00000326      0x4fc ./src/Tests/I2Ctest.o
 .debug_info    0x00000822      0x11b ./src/Tests/LEDtest.o
 .debug_info    0x0000093d      0x104 ./src/Tests/PWMtest.o
 .debug_info    0x00000a41      0x3c4 ./src/Tests/PinTest.o
 .debug_info    0x00000e05       0xc0 ./src/Tests/SDCardTest.o
 .debug_info    0x00000ec5      0x664 ./src/Tests/SPI_FRAM_RTCtest.o
 .debug_info    0x00001529      0x63d ./src/Tests/SupervisorTest.o
 .debug_info    0x00001b66      0x254 ./src/Tests/TimeTest.o
 .debug_info    0x00001dba      0x262 ./src/Tests/UARTtest.o
 .debug_info    0x0000201c      0x4b7 ./src/Tests/USBdeviceTest.o
 .debug_info    0x000024d3      0x3a2 ./src/Tests/boardTest.o
 .debug_info    0x00002875      0x1b8 ./src/Tests/checksumTest.o
 .debug_info    0x00002a2d       0xde ./src/freertos_hooks.o
 .debug_info    0x00002b0b      0x4e9 ./src/main.o
 .debug_info    0x00002ff4     0x4751 C:/Users/user1/Documents/hoopoe-2/hal/demo/..//hcc/lib\libHCCD.a(fat_common.o)
 .debug_info    0x00007745     0x19f9 C:/Users/user1/Documents/hoopoe-2/hal/demo/..//hcc/lib\libHCCD.a(fat_m.o)
 .debug_info    0x0000913e     0x2750 C:/Users/user1/Documents/hoopoe-2/hal/demo/..//hcc/lib\libHCCD.a(safefat.o)
 .debug_info    0x0000b88e      0xf83 C:/Users/user1/Documents/hoopoe-2/hal/demo/..//hcc/lib\libHCCD.a(fat_test.o)
 .debug_info    0x0000c811      0xd43 C:/Users/user1/Documents/hoopoe-2/hal/demo/..//hcc/lib\libHCCD.a(atmel_mcipdc.o)
 .debug_info    0x0000d554      0x1aa C:/Users/user1/Documents/hoopoe-2/hal/demo/..//hcc/lib\libHCCD.a(oalp_mutex.o)
 .debug_info    0x0000d6fe       0xb0 C:/Users/user1/Documents/hoopoe-2/hal/demo/..//hcc/lib\libHCCD.a(oalp_task.o)
 .debug_info    0x0000d7ae      0x4c6 C:/Users/user1/Documents/hoopoe-2/hal/demo/..//hcc/lib\libHCCD.a(atmel_mcipdc_hw.o)
 .debug_info    0x0000dc74      0x155 C:/Users/user1/Documents/hoopoe-2/hal/demo/..//hcc/lib\libHCCD.a(fat_testport.o)
 .debug_info    0x0000ddc9      0x157 C:/Users/user1/Documents/hoopoe-2/hal/demo/..//hcc/lib\libHCCD.a(psp_rand.o)
 .debug_info    0x0000df20      0x1ba C:/Users/user1/Documents/hoopoe-2/hal/demo/..//hcc/lib\libHCCD.a(psp_rtc.o)
 .debug_info    0x0000e0da      0xd35 C:/Users/user1/Documents/hoopoe-2/hal/demo/..//hcc/lib\libHCCD.a(hcc_mem.o)
 .debug_info    0x0000ee0f     0x28dd C:/Users/user1/Documents/hoopoe-2/hal/demo/..//hcc/lib\libHCCD.a(fat.o)
 .debug_info    0x000116ec      0x1ad C:/Users/user1/Documents/hoopoe-2/hal/demo/..//hcc/lib\libHCCD.a(psp_hcc_mem.o)
 .debug_info    0x00011899      0x5a2 C:/Users/user1/Documents/hoopoe-2/hal/demo/..//hal/lib\libHALD.a(checksum.o)
 .debug_info    0x00011e3b      0xd92 C:/Users/user1/Documents/hoopoe-2/hal/demo/..//hal/lib\libHALD.a(supervisor.o)
 .debug_info    0x00012bcd      0xa34 C:/Users/user1/Documents/hoopoe-2/hal/demo/..//hal/lib\libHALD.a(ADC.o)
 .debug_info    0x00013601     0x106f C:/Users/user1/Documents/hoopoe-2/hal/demo/..//hal/lib\libHALD.a(I2C.o)
 .debug_info    0x00014670      0x506 C:/Users/user1/Documents/hoopoe-2/hal/demo/..//hal/lib\libHALD.a(LED.o)
 .debug_info    0x00014b76      0x7dd C:/Users/user1/Documents/hoopoe-2/hal/demo/..//hal/lib\libHALD.a(PWM.o)
 .debug_info    0x00015353      0xdf5 C:/Users/user1/Documents/hoopoe-2/hal/demo/..//hal/lib\libHALD.a(SPI.o)
 .debug_info    0x00016148     0x1092 C:/Users/user1/Documents/hoopoe-2/hal/demo/..//hal/lib\libHALD.a(UART.o)
 .debug_info    0x000171da      0x832 C:/Users/user1/Documents/hoopoe-2/hal/demo/..//hal/lib\libHALD.a(FRAM.o)
 .debug_info    0x00017a0c      0x654 C:/Users/user1/Documents/hoopoe-2/hal/demo/..//hal/lib\libHALD.a(RTC.o)
 .debug_info    0x00018060      0x5cf C:/Users/user1/Documents/hoopoe-2/hal/demo/..//hal/lib\libHALD.a(Time.o)
 .debug_info    0x0001862f      0x3f1 C:/Users/user1/Documents/hoopoe-2/hal/demo/..//hal/lib\libHALD.a(WatchDogTimerNoOS.o)
 .debug_info    0x00018a20      0x1ab C:/Users/user1/Documents/hoopoe-2/hal/demo/..//hal/lib\libHALD.a(WatchDogTimerOS.o)
 .debug_info    0x00018bcb      0x2b4 C:/Users/user1/Documents/hoopoe-2/hal/demo/..//hal/lib\libHALD.a(util.o)
 .debug_info    0x00018e7f       0xcf C:/Users/user1/Documents/hoopoe-2/hal/demo/..//hal/lib\libHALD.a(version.o)
 .debug_info    0x00018f4e      0x185 C:/Users/user1/Documents/hoopoe-2/hal/demo/..//hal/lib\libHALD.a(RTT.o)
 .debug_info    0x000190d3      0xadf C:/Users/user1/Documents/hoopoe-2/hal/demo/..//freertos/lib\libFreeRTOSD.a(queue.o)
 .debug_info    0x00019bb2      0xede C:/Users/user1/Documents/hoopoe-2/hal/demo/..//freertos/lib\libFreeRTOSD.a(tasks.o)
 .debug_info    0x0001aa90      0x110 C:/Users/user1/Documents/hoopoe-2/hal/demo/..//freertos/lib\libFreeRTOSD.a(standardMemMang.o)
 .debug_info    0x0001aba0      0x330 C:/Users/user1/Documents/hoopoe-2/hal/demo/..//freertos/lib\libFreeRTOSD.a(port.o)
 .debug_info    0x0001aed0      0x2aa C:/Users/user1/Documents/hoopoe-2/hal/demo/..//freertos/lib\libFreeRTOSD.a(list.o)
 .debug_info    0x0001b17a      0x628 C:/Users/user1/Documents/hoopoe-2/hal/demo/..//at91/lib\libAt91D.a(syscalls.o)
 .debug_info    0x0001b7a2      0x956 C:/Users/user1/Documents/hoopoe-2/hal/demo/..//at91/lib\libAt91D.a(board_memories.o)
 .debug_info    0x0001c0f8      0xaf7 C:/Users/user1/Documents/hoopoe-2/hal/demo/..//at91/lib\libAt91D.a(adc_at91.o)
 .debug_info    0x0001cbef      0x287 C:/Users/user1/Documents/hoopoe-2/hal/demo/..//at91/lib\libAt91D.a(aic.o)
 .debug_info    0x0001ce76      0x1f7 C:/Users/user1/Documents/hoopoe-2/hal/demo/..//at91/lib\libAt91D.a(cp15.o)
 .debug_info    0x0001d06d      0xc6e C:/Users/user1/Documents/hoopoe-2/hal/demo/..//at91/lib\libAt91D.a(dbgu.o)
 .debug_info    0x0001dcdb      0x734 C:/Users/user1/Documents/hoopoe-2/hal/demo/..//at91/lib\libAt91D.a(pio.o)
 .debug_info    0x0001e40f      0x6a5 C:/Users/user1/Documents/hoopoe-2/hal/demo/..//at91/lib\libAt91D.a(pio_it.o)
 .debug_info    0x0001eab4      0x1ae C:/Users/user1/Documents/hoopoe-2/hal/demo/..//at91/lib\libAt91D.a(pit.o)
 .debug_info    0x0001ec62      0x2fd C:/Users/user1/Documents/hoopoe-2/hal/demo/..//at91/lib\libAt91D.a(pmc.o)
 .debug_info    0x0001ef5f      0x576 C:/Users/user1/Documents/hoopoe-2/hal/demo/..//at91/lib\libAt91D.a(spi_at91.o)
 .debug_info    0x0001f4d5      0x240 C:/Users/user1/Documents/hoopoe-2/hal/demo/..//at91/lib\libAt91D.a(tc.o)
 .debug_info    0x0001f715      0x63d C:/Users/user1/Documents/hoopoe-2/hal/demo/..//at91/lib\libAt91D.a(twi_at91.o)
 .debug_info    0x0001fd52      0xe49 C:/Users/user1/Documents/hoopoe-2/hal/demo/..//at91/lib\libAt91D.a(USBD_UDP.o)
 .debug_info    0x00020b9b      0x773 C:/Users/user1/Documents/hoopoe-2/hal/demo/..//at91/lib\libAt91D.a(HIDDMouseDriver.o)
 .debug_info    0x0002130e      0x5db C:/Users/user1/Documents/hoopoe-2/hal/demo/..//at91/lib\libAt91D.a(HIDDMouseDriverDescriptors.o)
 .debug_info    0x000218e9       0xe9 C:/Users/user1/Documents/hoopoe-2/hal/demo/..//at91/lib\libAt91D.a(HIDDMouseInputReport.o)
 .debug_info    0x000219d2      0x22e C:/Users/user1/Documents/hoopoe-2/hal/demo/..//at91/lib\libAt91D.a(ExitHandler.o)
 .debug_info    0x00021c00       0x93 C:/Users/user1/Documents/hoopoe-2/hal/demo/..//at91/lib\libAt91D.a(rand.o)
 .debug_info    0x00021c93       0x92 C:/Users/user1/Documents/hoopoe-2/hal/demo/..//at91/lib\libAt91D.a(board_cstartup.o)
 .debug_info    0x00021d25       0x81 C:/Users/user1/Documents/hoopoe-2/hal/demo/..//at91/lib\libAt91D.a(cp15_asm.o)
 .debug_info    0x00021da6      0x651 C:/Users/user1/Documents/hoopoe-2/hal/demo/..//at91/lib\libAt91D.a(board_lowlevel.o)
 .debug_info    0x000223f7      0x319 C:/Users/user1/Documents/hoopoe-2/hal/demo/..//at91/lib\libAt91D.a(USBConfigurationDescriptor.o)
 .debug_info    0x00022710      0x15b C:/Users/user1/Documents/hoopoe-2/hal/demo/..//at91/lib\libAt91D.a(USBEndpointDescriptor.o)
 .debug_info    0x0002286b      0x100 C:/Users/user1/Documents/hoopoe-2/hal/demo/..//at91/lib\libAt91D.a(USBGenericDescriptor.o)
 .debug_info    0x0002296b      0x210 C:/Users/user1/Documents/hoopoe-2/hal/demo/..//at91/lib\libAt91D.a(USBGenericRequest.o)
 .debug_info    0x00022b7b      0x102 C:/Users/user1/Documents/hoopoe-2/hal/demo/..//at91/lib\libAt91D.a(USBGetDescriptorRequest.o)
 .debug_info    0x00022c7d       0xd9 C:/Users/user1/Documents/hoopoe-2/hal/demo/..//at91/lib\libAt91D.a(HIDIdleRequest.o)
 .debug_info    0x00022d56      0x102 C:/Users/user1/Documents/hoopoe-2/hal/demo/..//at91/lib\libAt91D.a(HIDReportRequest.o)
 .debug_info    0x00022e58       0x5c C:/Users/user1/Documents/hoopoe-2/hal/demo/..//at91/lib\libAt91D.a(USBDCallbacks_Initialized.o)
 .debug_info    0x00022eb4       0x4e C:/Users/user1/Documents/hoopoe-2/hal/demo/..//at91/lib\libAt91D.a(USBDCallbacks_Reset.o)
 .debug_info    0x00022f02      0x872 C:/Users/user1/Documents/hoopoe-2/hal/demo/..//at91/lib\libAt91D.a(USBDDriver.o)
 .debug_info    0x00023774       0xb1 C:/Users/user1/Documents/hoopoe-2/hal/demo/..//at91/lib\libAt91D.a(USBDDriverCb_IfSettingChanged.o)
 .debug_info    0x00023825      0x102 C:/Users/user1/Documents/hoopoe-2/hal/demo/..//at91/lib\libAt91D.a(USBFeatureRequest.o)
 .debug_info    0x00023927      0x102 C:/Users/user1/Documents/hoopoe-2/hal/demo/..//at91/lib\libAt91D.a(USBInterfaceRequest.o)
 .debug_info    0x00023a29       0xd9 C:/Users/user1/Documents/hoopoe-2/hal/demo/..//at91/lib\libAt91D.a(USBSetAddressRequest.o)
 .debug_info    0x00023b02       0xd9 C:/Users/user1/Documents/hoopoe-2/hal/demo/..//at91/lib\libAt91D.a(USBSetConfigurationRequest.o)

.debug_abbrev   0x00000000     0x64ac
 .debug_abbrev  0x00000000      0x14c ./src/Tests/ADCtest.o
 .debug_abbrev  0x0000014c      0x14a ./src/Tests/I2Ctest.o
 .debug_abbrev  0x00000296       0x95 ./src/Tests/LEDtest.o
 .debug_abbrev  0x0000032b       0x91 ./src/Tests/PWMtest.o
 .debug_abbrev  0x000003bc       0xe5 ./src/Tests/PinTest.o
 .debug_abbrev  0x000004a1       0x71 ./src/Tests/SDCardTest.o
 .debug_abbrev  0x00000512      0x1ad ./src/Tests/SPI_FRAM_RTCtest.o
 .debug_abbrev  0x000006bf      0x163 ./src/Tests/SupervisorTest.o
 .debug_abbrev  0x00000822       0xdc ./src/Tests/TimeTest.o
 .debug_abbrev  0x000008fe       0xf0 ./src/Tests/UARTtest.o
 .debug_abbrev  0x000009ee      0x17b ./src/Tests/USBdeviceTest.o
 .debug_abbrev  0x00000b69      0x121 ./src/Tests/boardTest.o
 .debug_abbrev  0x00000c8a       0x8f ./src/Tests/checksumTest.o
 .debug_abbrev  0x00000d19       0x8a ./src/freertos_hooks.o
 .debug_abbrev  0x00000da3      0x153 ./src/main.o
 .debug_abbrev  0x00000ef6      0x2c0 C:/Users/user1/Documents/hoopoe-2/hal/demo/..//hcc/lib\libHCCD.a(fat_common.o)
 .debug_abbrev  0x000011b6      0x1c9 C:/Users/user1/Documents/hoopoe-2/hal/demo/..//hcc/lib\libHCCD.a(fat_m.o)
 .debug_abbrev  0x0000137f      0x265 C:/Users/user1/Documents/hoopoe-2/hal/demo/..//hcc/lib\libHCCD.a(safefat.o)
 .debug_abbrev  0x000015e4      0x268 C:/Users/user1/Documents/hoopoe-2/hal/demo/..//hcc/lib\libHCCD.a(fat_test.o)
 .debug_abbrev  0x0000184c      0x22f C:/Users/user1/Documents/hoopoe-2/hal/demo/..//hcc/lib\libHCCD.a(atmel_mcipdc.o)
 .debug_abbrev  0x00001a7b       0xb3 C:/Users/user1/Documents/hoopoe-2/hal/demo/..//hcc/lib\libHCCD.a(oalp_mutex.o)
 .debug_abbrev  0x00001b2e       0x5a C:/Users/user1/Documents/hoopoe-2/hal/demo/..//hcc/lib\libHCCD.a(oalp_task.o)
 .debug_abbrev  0x00001b88      0x13e C:/Users/user1/Documents/hoopoe-2/hal/demo/..//hcc/lib\libHCCD.a(atmel_mcipdc_hw.o)
 .debug_abbrev  0x00001cc6       0xbf C:/Users/user1/Documents/hoopoe-2/hal/demo/..//hcc/lib\libHCCD.a(fat_testport.o)
 .debug_abbrev  0x00001d85       0xad C:/Users/user1/Documents/hoopoe-2/hal/demo/..//hcc/lib\libHCCD.a(psp_rand.o)
 .debug_abbrev  0x00001e32       0xb4 C:/Users/user1/Documents/hoopoe-2/hal/demo/..//hcc/lib\libHCCD.a(psp_rtc.o)
 .debug_abbrev  0x00001ee6      0x1fb C:/Users/user1/Documents/hoopoe-2/hal/demo/..//hcc/lib\libHCCD.a(hcc_mem.o)
 .debug_abbrev  0x000020e1      0x2ce C:/Users/user1/Documents/hoopoe-2/hal/demo/..//hcc/lib\libHCCD.a(fat.o)
 .debug_abbrev  0x000023af       0xb3 C:/Users/user1/Documents/hoopoe-2/hal/demo/..//hcc/lib\libHCCD.a(psp_hcc_mem.o)
 .debug_abbrev  0x00002462       0xfd C:/Users/user1/Documents/hoopoe-2/hal/demo/..//hal/lib\libHALD.a(checksum.o)
 .debug_abbrev  0x0000255f      0x1e7 C:/Users/user1/Documents/hoopoe-2/hal/demo/..//hal/lib\libHALD.a(supervisor.o)
 .debug_abbrev  0x00002746      0x1c9 C:/Users/user1/Documents/hoopoe-2/hal/demo/..//hal/lib\libHALD.a(ADC.o)
 .debug_abbrev  0x0000290f      0x2e0 C:/Users/user1/Documents/hoopoe-2/hal/demo/..//hal/lib\libHALD.a(I2C.o)
 .debug_abbrev  0x00002bef      0x163 C:/Users/user1/Documents/hoopoe-2/hal/demo/..//hal/lib\libHALD.a(LED.o)
 .debug_abbrev  0x00002d52      0x165 C:/Users/user1/Documents/hoopoe-2/hal/demo/..//hal/lib\libHALD.a(PWM.o)
 .debug_abbrev  0x00002eb7      0x242 C:/Users/user1/Documents/hoopoe-2/hal/demo/..//hal/lib\libHALD.a(SPI.o)
 .debug_abbrev  0x000030f9      0x231 C:/Users/user1/Documents/hoopoe-2/hal/demo/..//hal/lib\libHALD.a(UART.o)
 .debug_abbrev  0x0000332a      0x257 C:/Users/user1/Documents/hoopoe-2/hal/demo/..//hal/lib\libHALD.a(FRAM.o)
 .debug_abbrev  0x00003581      0x180 C:/Users/user1/Documents/hoopoe-2/hal/demo/..//hal/lib\libHALD.a(RTC.o)
 .debug_abbrev  0x00003701      0x1ed C:/Users/user1/Documents/hoopoe-2/hal/demo/..//hal/lib\libHALD.a(Time.o)
 .debug_abbrev  0x000038ee       0xf6 C:/Users/user1/Documents/hoopoe-2/hal/demo/..//hal/lib\libHALD.a(WatchDogTimerNoOS.o)
 .debug_abbrev  0x000039e4       0xd3 C:/Users/user1/Documents/hoopoe-2/hal/demo/..//hal/lib\libHALD.a(WatchDogTimerOS.o)
 .debug_abbrev  0x00003ab7       0xd9 C:/Users/user1/Documents/hoopoe-2/hal/demo/..//hal/lib\libHALD.a(util.o)
 .debug_abbrev  0x00003b90       0x45 C:/Users/user1/Documents/hoopoe-2/hal/demo/..//hal/lib\libHALD.a(version.o)
 .debug_abbrev  0x00003bd5       0xf6 C:/Users/user1/Documents/hoopoe-2/hal/demo/..//hal/lib\libHALD.a(RTT.o)
 .debug_abbrev  0x00003ccb      0x1af C:/Users/user1/Documents/hoopoe-2/hal/demo/..//freertos/lib\libFreeRTOSD.a(queue.o)
 .debug_abbrev  0x00003e7a      0x1e9 C:/Users/user1/Documents/hoopoe-2/hal/demo/..//freertos/lib\libFreeRTOSD.a(tasks.o)
 .debug_abbrev  0x00004063       0xc6 C:/Users/user1/Documents/hoopoe-2/hal/demo/..//freertos/lib\libFreeRTOSD.a(standardMemMang.o)
 .debug_abbrev  0x00004129      0x1dc C:/Users/user1/Documents/hoopoe-2/hal/demo/..//freertos/lib\libFreeRTOSD.a(port.o)
 .debug_abbrev  0x00004305       0xc0 C:/Users/user1/Documents/hoopoe-2/hal/demo/..//freertos/lib\libFreeRTOSD.a(list.o)
 .debug_abbrev  0x000043c5      0x152 C:/Users/user1/Documents/hoopoe-2/hal/demo/..//at91/lib\libAt91D.a(syscalls.o)
 .debug_abbrev  0x00004517      0x149 C:/Users/user1/Documents/hoopoe-2/hal/demo/..//at91/lib\libAt91D.a(board_memories.o)
 .debug_abbrev  0x00004660      0x200 C:/Users/user1/Documents/hoopoe-2/hal/demo/..//at91/lib\libAt91D.a(adc_at91.o)
 .debug_abbrev  0x00004860       0xc3 C:/Users/user1/Documents/hoopoe-2/hal/demo/..//at91/lib\libAt91D.a(aic.o)
 .debug_abbrev  0x00004923       0x89 C:/Users/user1/Documents/hoopoe-2/hal/demo/..//at91/lib\libAt91D.a(cp15.o)
 .debug_abbrev  0x000049ac      0x1f7 C:/Users/user1/Documents/hoopoe-2/hal/demo/..//at91/lib\libAt91D.a(dbgu.o)
 .debug_abbrev  0x00004ba3      0x185 C:/Users/user1/Documents/hoopoe-2/hal/demo/..//at91/lib\libAt91D.a(pio.o)
 .debug_abbrev  0x00004d28      0x1a0 C:/Users/user1/Documents/hoopoe-2/hal/demo/..//at91/lib\libAt91D.a(pio_it.o)
 .debug_abbrev  0x00004ec8       0xd3 C:/Users/user1/Documents/hoopoe-2/hal/demo/..//at91/lib\libAt91D.a(pit.o)
 .debug_abbrev  0x00004f9b      0x115 C:/Users/user1/Documents/hoopoe-2/hal/demo/..//at91/lib\libAt91D.a(pmc.o)
 .debug_abbrev  0x000050b0       0xff C:/Users/user1/Documents/hoopoe-2/hal/demo/..//at91/lib\libAt91D.a(spi_at91.o)
 .debug_abbrev  0x000051af       0xe5 C:/Users/user1/Documents/hoopoe-2/hal/demo/..//at91/lib\libAt91D.a(tc.o)
 .debug_abbrev  0x00005294      0x180 C:/Users/user1/Documents/hoopoe-2/hal/demo/..//at91/lib\libAt91D.a(twi_at91.o)
 .debug_abbrev  0x00005414      0x235 C:/Users/user1/Documents/hoopoe-2/hal/demo/..//at91/lib\libAt91D.a(USBD_UDP.o)
 .debug_abbrev  0x00005649      0x1b3 C:/Users/user1/Documents/hoopoe-2/hal/demo/..//at91/lib\libAt91D.a(HIDDMouseDriver.o)
 .debug_abbrev  0x000057fc       0xa4 C:/Users/user1/Documents/hoopoe-2/hal/demo/..//at91/lib\libAt91D.a(HIDDMouseDriverDescriptors.o)
 .debug_abbrev  0x000058a0       0x96 C:/Users/user1/Documents/hoopoe-2/hal/demo/..//at91/lib\libAt91D.a(HIDDMouseInputReport.o)
 .debug_abbrev  0x00005936       0xbf C:/Users/user1/Documents/hoopoe-2/hal/demo/..//at91/lib\libAt91D.a(ExitHandler.o)
 .debug_abbrev  0x000059f5       0x7e C:/Users/user1/Documents/hoopoe-2/hal/demo/..//at91/lib\libAt91D.a(rand.o)
 .debug_abbrev  0x00005a73       0x12 C:/Users/user1/Documents/hoopoe-2/hal/demo/..//at91/lib\libAt91D.a(board_cstartup.o)
 .debug_abbrev  0x00005a85       0x14 C:/Users/user1/Documents/hoopoe-2/hal/demo/..//at91/lib\libAt91D.a(cp15_asm.o)
 .debug_abbrev  0x00005a99       0xea C:/Users/user1/Documents/hoopoe-2/hal/demo/..//at91/lib\libAt91D.a(board_lowlevel.o)
 .debug_abbrev  0x00005b83       0xb9 C:/Users/user1/Documents/hoopoe-2/hal/demo/..//at91/lib\libAt91D.a(USBConfigurationDescriptor.o)
 .debug_abbrev  0x00005c3c       0x9f C:/Users/user1/Documents/hoopoe-2/hal/demo/..//at91/lib\libAt91D.a(USBEndpointDescriptor.o)
 .debug_abbrev  0x00005cdb       0xa1 C:/Users/user1/Documents/hoopoe-2/hal/demo/..//at91/lib\libAt91D.a(USBGenericDescriptor.o)
 .debug_abbrev  0x00005d7c       0xc1 C:/Users/user1/Documents/hoopoe-2/hal/demo/..//at91/lib\libAt91D.a(USBGenericRequest.o)
 .debug_abbrev  0x00005e3d       0xa5 C:/Users/user1/Documents/hoopoe-2/hal/demo/..//at91/lib\libAt91D.a(USBGetDescriptorRequest.o)
 .debug_abbrev  0x00005ee2       0x8b C:/Users/user1/Documents/hoopoe-2/hal/demo/..//at91/lib\libAt91D.a(HIDIdleRequest.o)
 .debug_abbrev  0x00005f6d       0xa5 C:/Users/user1/Documents/hoopoe-2/hal/demo/..//at91/lib\libAt91D.a(HIDReportRequest.o)
 .debug_abbrev  0x00006012       0x39 C:/Users/user1/Documents/hoopoe-2/hal/demo/..//at91/lib\libAt91D.a(USBDCallbacks_Initialized.o)
 .debug_abbrev  0x0000604b       0x39 C:/Users/user1/Documents/hoopoe-2/hal/demo/..//at91/lib\libAt91D.a(USBDCallbacks_Reset.o)
 .debug_abbrev  0x00006084      0x175 C:/Users/user1/Documents/hoopoe-2/hal/demo/..//at91/lib\libAt91D.a(USBDDriver.o)
 .debug_abbrev  0x000061f9       0x53 C:/Users/user1/Documents/hoopoe-2/hal/demo/..//at91/lib\libAt91D.a(USBDDriverCb_IfSettingChanged.o)
 .debug_abbrev  0x0000624c       0xa5 C:/Users/user1/Documents/hoopoe-2/hal/demo/..//at91/lib\libAt91D.a(USBFeatureRequest.o)
 .debug_abbrev  0x000062f1       0xa5 C:/Users/user1/Documents/hoopoe-2/hal/demo/..//at91/lib\libAt91D.a(USBInterfaceRequest.o)
 .debug_abbrev  0x00006396       0x8b C:/Users/user1/Documents/hoopoe-2/hal/demo/..//at91/lib\libAt91D.a(USBSetAddressRequest.o)
 .debug_abbrev  0x00006421       0x8b C:/Users/user1/Documents/hoopoe-2/hal/demo/..//at91/lib\libAt91D.a(USBSetConfigurationRequest.o)

.debug_loc      0x00000000     0x91ac
 .debug_loc     0x00000000      0x160 ./src/Tests/ADCtest.o
 .debug_loc     0x00000160      0x108 ./src/Tests/I2Ctest.o
 .debug_loc     0x00000268       0x84 ./src/Tests/LEDtest.o
 .debug_loc     0x000002ec       0x58 ./src/Tests/PWMtest.o
 .debug_loc     0x00000344       0x2c ./src/Tests/PinTest.o
 .debug_loc     0x00000370       0x2c ./src/Tests/SDCardTest.o
 .debug_loc     0x0000039c      0x108 ./src/Tests/SPI_FRAM_RTCtest.o
 .debug_loc     0x000004a4       0x84 ./src/Tests/SupervisorTest.o
 .debug_loc     0x00000528       0x84 ./src/Tests/TimeTest.o
 .debug_loc     0x000005ac       0x58 ./src/Tests/UARTtest.o
 .debug_loc     0x00000604      0x108 ./src/Tests/USBdeviceTest.o
 .debug_loc     0x0000070c       0x58 ./src/Tests/boardTest.o
 .debug_loc     0x00000764       0x2c ./src/Tests/checksumTest.o
 .debug_loc     0x00000790       0x58 ./src/freertos_hooks.o
 .debug_loc     0x000007e8       0x84 ./src/main.o
 .debug_loc     0x0000086c     0x1398 C:/Users/user1/Documents/hoopoe-2/hal/demo/..//hcc/lib\libHCCD.a(fat_common.o)
 .debug_loc     0x00001c04      0x974 C:/Users/user1/Documents/hoopoe-2/hal/demo/..//hcc/lib\libHCCD.a(fat_m.o)
 .debug_loc     0x00002578      0x9cc C:/Users/user1/Documents/hoopoe-2/hal/demo/..//hcc/lib\libHCCD.a(safefat.o)
 .debug_loc     0x00002f44      0x420 C:/Users/user1/Documents/hoopoe-2/hal/demo/..//hcc/lib\libHCCD.a(fat_test.o)
 .debug_loc     0x00003364      0x2c0 C:/Users/user1/Documents/hoopoe-2/hal/demo/..//hcc/lib\libHCCD.a(atmel_mcipdc.o)
 .debug_loc     0x00003624       0xb0 C:/Users/user1/Documents/hoopoe-2/hal/demo/..//hcc/lib\libHCCD.a(oalp_mutex.o)
 .debug_loc     0x000036d4       0x2c C:/Users/user1/Documents/hoopoe-2/hal/demo/..//hcc/lib\libHCCD.a(oalp_task.o)
 .debug_loc     0x00003700       0xb0 C:/Users/user1/Documents/hoopoe-2/hal/demo/..//hcc/lib\libHCCD.a(atmel_mcipdc_hw.o)
 .debug_loc     0x000037b0       0xb0 C:/Users/user1/Documents/hoopoe-2/hal/demo/..//hcc/lib\libHCCD.a(fat_testport.o)
 .debug_loc     0x00003860       0x2c C:/Users/user1/Documents/hoopoe-2/hal/demo/..//hcc/lib\libHCCD.a(psp_rand.o)
 .debug_loc     0x0000388c       0x2c C:/Users/user1/Documents/hoopoe-2/hal/demo/..//hcc/lib\libHCCD.a(psp_rtc.o)
 .debug_loc     0x000038b8      0x370 C:/Users/user1/Documents/hoopoe-2/hal/demo/..//hcc/lib\libHCCD.a(hcc_mem.o)
 .debug_loc     0x00003c28      0x70c C:/Users/user1/Documents/hoopoe-2/hal/demo/..//hcc/lib\libHCCD.a(fat.o)
 .debug_loc     0x00004334       0x58 C:/Users/user1/Documents/hoopoe-2/hal/demo/..//hcc/lib\libHCCD.a(psp_hcc_mem.o)
 .debug_loc     0x0000438c      0x210 C:/Users/user1/Documents/hoopoe-2/hal/demo/..//hal/lib\libHALD.a(checksum.o)
 .debug_loc     0x0000459c      0x23c C:/Users/user1/Documents/hoopoe-2/hal/demo/..//hal/lib\libHALD.a(supervisor.o)
 .debug_loc     0x000047d8      0x140 C:/Users/user1/Documents/hoopoe-2/hal/demo/..//hal/lib\libHALD.a(ADC.o)
 .debug_loc     0x00004918      0x3c8 C:/Users/user1/Documents/hoopoe-2/hal/demo/..//hal/lib\libHALD.a(I2C.o)
 .debug_loc     0x00004ce0      0x134 C:/Users/user1/Documents/hoopoe-2/hal/demo/..//hal/lib\libHALD.a(LED.o)
 .debug_loc     0x00004e14      0x160 C:/Users/user1/Documents/hoopoe-2/hal/demo/..//hal/lib\libHALD.a(PWM.o)
 .debug_loc     0x00004f74      0x210 C:/Users/user1/Documents/hoopoe-2/hal/demo/..//hal/lib\libHALD.a(SPI.o)
 .debug_loc     0x00005184      0x370 C:/Users/user1/Documents/hoopoe-2/hal/demo/..//hal/lib\libHALD.a(UART.o)
 .debug_loc     0x000054f4      0x268 C:/Users/user1/Documents/hoopoe-2/hal/demo/..//hal/lib\libHALD.a(FRAM.o)
 .debug_loc     0x0000575c      0x1b8 C:/Users/user1/Documents/hoopoe-2/hal/demo/..//hal/lib\libHALD.a(RTC.o)
 .debug_loc     0x00005914      0x268 C:/Users/user1/Documents/hoopoe-2/hal/demo/..//hal/lib\libHALD.a(Time.o)
 .debug_loc     0x00005b7c       0x84 C:/Users/user1/Documents/hoopoe-2/hal/demo/..//hal/lib\libHALD.a(WatchDogTimerNoOS.o)
 .debug_loc     0x00005c00       0xb0 C:/Users/user1/Documents/hoopoe-2/hal/demo/..//hal/lib\libHALD.a(WatchDogTimerOS.o)
 .debug_loc     0x00005cb0      0x134 C:/Users/user1/Documents/hoopoe-2/hal/demo/..//hal/lib\libHALD.a(util.o)
 .debug_loc     0x00005de4       0xdc C:/Users/user1/Documents/hoopoe-2/hal/demo/..//hal/lib\libHALD.a(RTT.o)
 .debug_loc     0x00005ec0      0x420 C:/Users/user1/Documents/hoopoe-2/hal/demo/..//freertos/lib\libFreeRTOSD.a(queue.o)
 .debug_loc     0x000062e0      0x65c C:/Users/user1/Documents/hoopoe-2/hal/demo/..//freertos/lib\libFreeRTOSD.a(tasks.o)
 .debug_loc     0x0000693c       0xb0 C:/Users/user1/Documents/hoopoe-2/hal/demo/..//freertos/lib\libFreeRTOSD.a(standardMemMang.o)
 .debug_loc     0x000069ec      0x160 C:/Users/user1/Documents/hoopoe-2/hal/demo/..//freertos/lib\libFreeRTOSD.a(port.o)
 .debug_loc     0x00006b4c       0xdc C:/Users/user1/Documents/hoopoe-2/hal/demo/..//freertos/lib\libFreeRTOSD.a(list.o)
 .debug_loc     0x00006c28      0x324 C:/Users/user1/Documents/hoopoe-2/hal/demo/..//at91/lib\libAt91D.a(syscalls.o)
 .debug_loc     0x00006f4c       0xb0 C:/Users/user1/Documents/hoopoe-2/hal/demo/..//at91/lib\libAt91D.a(board_memories.o)
 .debug_loc     0x00006ffc      0x318 C:/Users/user1/Documents/hoopoe-2/hal/demo/..//at91/lib\libAt91D.a(adc_at91.o)
 .debug_loc     0x00007314       0x84 C:/Users/user1/Documents/hoopoe-2/hal/demo/..//at91/lib\libAt91D.a(aic.o)
 .debug_loc     0x00007398      0x18c C:/Users/user1/Documents/hoopoe-2/hal/demo/..//at91/lib\libAt91D.a(cp15.o)
 .debug_loc     0x00007524      0x134 C:/Users/user1/Documents/hoopoe-2/hal/demo/..//at91/lib\libAt91D.a(dbgu.o)
 .debug_loc     0x00007658      0x1b8 C:/Users/user1/Documents/hoopoe-2/hal/demo/..//at91/lib\libAt91D.a(pio.o)
 .debug_loc     0x00007810      0x108 C:/Users/user1/Documents/hoopoe-2/hal/demo/..//at91/lib\libAt91D.a(pio_it.o)
 .debug_loc     0x00007918      0x18c C:/Users/user1/Documents/hoopoe-2/hal/demo/..//at91/lib\libAt91D.a(pit.o)
 .debug_loc     0x00007aa4      0x160 C:/Users/user1/Documents/hoopoe-2/hal/demo/..//at91/lib\libAt91D.a(pmc.o)
 .debug_loc     0x00007c04      0x18c C:/Users/user1/Documents/hoopoe-2/hal/demo/..//at91/lib\libAt91D.a(spi_at91.o)
 .debug_loc     0x00007d90       0xb0 C:/Users/user1/Documents/hoopoe-2/hal/demo/..//at91/lib\libAt91D.a(tc.o)
 .debug_loc     0x00007e40      0x294 C:/Users/user1/Documents/hoopoe-2/hal/demo/..//at91/lib\libAt91D.a(twi_at91.o)
 .debug_loc     0x000080d4      0x554 C:/Users/user1/Documents/hoopoe-2/hal/demo/..//at91/lib\libAt91D.a(USBD_UDP.o)
 .debug_loc     0x00008628      0x1e4 C:/Users/user1/Documents/hoopoe-2/hal/demo/..//at91/lib\libAt91D.a(HIDDMouseDriver.o)
 .debug_loc     0x0000880c       0x2c C:/Users/user1/Documents/hoopoe-2/hal/demo/..//at91/lib\libAt91D.a(HIDDMouseInputReport.o)
 .debug_loc     0x00008838       0xdc C:/Users/user1/Documents/hoopoe-2/hal/demo/..//at91/lib\libAt91D.a(ExitHandler.o)
 .debug_loc     0x00008914       0x58 C:/Users/user1/Documents/hoopoe-2/hal/demo/..//at91/lib\libAt91D.a(rand.o)
 .debug_loc     0x0000896c       0xdc C:/Users/user1/Documents/hoopoe-2/hal/demo/..//at91/lib\libAt91D.a(board_lowlevel.o)
 .debug_loc     0x00008a48       0xb0 C:/Users/user1/Documents/hoopoe-2/hal/demo/..//at91/lib\libAt91D.a(USBConfigurationDescriptor.o)
 .debug_loc     0x00008af8       0xb0 C:/Users/user1/Documents/hoopoe-2/hal/demo/..//at91/lib\libAt91D.a(USBEndpointDescriptor.o)
 .debug_loc     0x00008ba8       0x84 C:/Users/user1/Documents/hoopoe-2/hal/demo/..//at91/lib\libAt91D.a(USBGenericDescriptor.o)
 .debug_loc     0x00008c2c      0x160 C:/Users/user1/Documents/hoopoe-2/hal/demo/..//at91/lib\libAt91D.a(USBGenericRequest.o)
 .debug_loc     0x00008d8c       0x58 C:/Users/user1/Documents/hoopoe-2/hal/demo/..//at91/lib\libAt91D.a(USBGetDescriptorRequest.o)
 .debug_loc     0x00008de4       0x2c C:/Users/user1/Documents/hoopoe-2/hal/demo/..//at91/lib\libAt91D.a(HIDIdleRequest.o)
 .debug_loc     0x00008e10       0x58 C:/Users/user1/Documents/hoopoe-2/hal/demo/..//at91/lib\libAt91D.a(HIDReportRequest.o)
 .debug_loc     0x00008e68       0x2c C:/Users/user1/Documents/hoopoe-2/hal/demo/..//at91/lib\libAt91D.a(USBDCallbacks_Initialized.o)
 .debug_loc     0x00008e94       0x2c C:/Users/user1/Documents/hoopoe-2/hal/demo/..//at91/lib\libAt91D.a(USBDCallbacks_Reset.o)
 .debug_loc     0x00008ec0      0x1b8 C:/Users/user1/Documents/hoopoe-2/hal/demo/..//at91/lib\libAt91D.a(USBDDriver.o)
 .debug_loc     0x00009078       0x2c C:/Users/user1/Documents/hoopoe-2/hal/demo/..//at91/lib\libAt91D.a(USBDDriverCb_IfSettingChanged.o)
 .debug_loc     0x000090a4       0x58 C:/Users/user1/Documents/hoopoe-2/hal/demo/..//at91/lib\libAt91D.a(USBFeatureRequest.o)
 .debug_loc     0x000090fc       0x58 C:/Users/user1/Documents/hoopoe-2/hal/demo/..//at91/lib\libAt91D.a(USBInterfaceRequest.o)
 .debug_loc     0x00009154       0x2c C:/Users/user1/Documents/hoopoe-2/hal/demo/..//at91/lib\libAt91D.a(USBSetAddressRequest.o)
 .debug_loc     0x00009180       0x2c C:/Users/user1/Documents/hoopoe-2/hal/demo/..//at91/lib\libAt91D.a(USBSetConfigurationRequest.o)

.debug_aranges  0x00000000     0x22d0
 .debug_aranges
                0x00000000       0x58 ./src/Tests/ADCtest.o
 .debug_aranges
                0x00000058       0x48 ./src/Tests/I2Ctest.o
 .debug_aranges
                0x000000a0       0x30 ./src/Tests/LEDtest.o
 .debug_aranges
                0x000000d0       0x28 ./src/Tests/PWMtest.o
 .debug_aranges
                0x000000f8       0x20 ./src/Tests/PinTest.o
 .debug_aranges
                0x00000118       0x20 ./src/Tests/SDCardTest.o
 .debug_aranges
                0x00000138       0x48 ./src/Tests/SPI_FRAM_RTCtest.o
 .debug_aranges
                0x00000180       0x30 ./src/Tests/SupervisorTest.o
 .debug_aranges
                0x000001b0       0x30 ./src/Tests/TimeTest.o
 .debug_aranges
                0x000001e0       0x28 ./src/Tests/UARTtest.o
 .debug_aranges
                0x00000208       0x48 ./src/Tests/USBdeviceTest.o
 .debug_aranges
                0x00000250       0x28 ./src/Tests/boardTest.o
 .debug_aranges
                0x00000278       0x20 ./src/Tests/checksumTest.o
 .debug_aranges
                0x00000298       0x28 ./src/freertos_hooks.o
 .debug_aranges
                0x000002c0       0x30 ./src/main.o
 .debug_aranges
                0x000002f0      0x3a8 C:/Users/user1/Documents/hoopoe-2/hal/demo/..//hcc/lib\libHCCD.a(fat_common.o)
 .debug_aranges
                0x00000698      0x1d0 C:/Users/user1/Documents/hoopoe-2/hal/demo/..//hcc/lib\libHCCD.a(fat_m.o)
 .debug_aranges
                0x00000868      0x1e0 C:/Users/user1/Documents/hoopoe-2/hal/demo/..//hcc/lib\libHCCD.a(safefat.o)
 .debug_aranges
                0x00000a48       0xd8 C:/Users/user1/Documents/hoopoe-2/hal/demo/..//hcc/lib\libHCCD.a(fat_test.o)
 .debug_aranges
                0x00000b20       0x98 C:/Users/user1/Documents/hoopoe-2/hal/demo/..//hcc/lib\libHCCD.a(atmel_mcipdc.o)
 .debug_aranges
                0x00000bb8       0x38 C:/Users/user1/Documents/hoopoe-2/hal/demo/..//hcc/lib\libHCCD.a(oalp_mutex.o)
 .debug_aranges
                0x00000bf0       0x20 C:/Users/user1/Documents/hoopoe-2/hal/demo/..//hcc/lib\libHCCD.a(oalp_task.o)
 .debug_aranges
                0x00000c10       0x38 C:/Users/user1/Documents/hoopoe-2/hal/demo/..//hcc/lib\libHCCD.a(atmel_mcipdc_hw.o)
 .debug_aranges
                0x00000c48       0x38 C:/Users/user1/Documents/hoopoe-2/hal/demo/..//hcc/lib\libHCCD.a(fat_testport.o)
 .debug_aranges
                0x00000c80       0x20 C:/Users/user1/Documents/hoopoe-2/hal/demo/..//hcc/lib\libHCCD.a(psp_rand.o)
 .debug_aranges
                0x00000ca0       0x20 C:/Users/user1/Documents/hoopoe-2/hal/demo/..//hcc/lib\libHCCD.a(psp_rtc.o)
 .debug_aranges
                0x00000cc0       0xb8 C:/Users/user1/Documents/hoopoe-2/hal/demo/..//hcc/lib\libHCCD.a(hcc_mem.o)
 .debug_aranges
                0x00000d78      0x160 C:/Users/user1/Documents/hoopoe-2/hal/demo/..//hcc/lib\libHCCD.a(fat.o)
 .debug_aranges
                0x00000ed8       0x28 C:/Users/user1/Documents/hoopoe-2/hal/demo/..//hcc/lib\libHCCD.a(psp_hcc_mem.o)
 .debug_aranges
                0x00000f00       0x78 C:/Users/user1/Documents/hoopoe-2/hal/demo/..//hal/lib\libHALD.a(checksum.o)
 .debug_aranges
                0x00000f78       0x80 C:/Users/user1/Documents/hoopoe-2/hal/demo/..//hal/lib\libHALD.a(supervisor.o)
 .debug_aranges
                0x00000ff8       0x50 C:/Users/user1/Documents/hoopoe-2/hal/demo/..//hal/lib\libHALD.a(ADC.o)
 .debug_aranges
                0x00001048       0xc8 C:/Users/user1/Documents/hoopoe-2/hal/demo/..//hal/lib\libHALD.a(I2C.o)
 .debug_aranges
                0x00001110       0x50 C:/Users/user1/Documents/hoopoe-2/hal/demo/..//hal/lib\libHALD.a(LED.o)
 .debug_aranges
                0x00001160       0x58 C:/Users/user1/Documents/hoopoe-2/hal/demo/..//hal/lib\libHALD.a(PWM.o)
 .debug_aranges
                0x000011b8       0x78 C:/Users/user1/Documents/hoopoe-2/hal/demo/..//hal/lib\libHALD.a(SPI.o)
 .debug_aranges
                0x00001230       0xb8 C:/Users/user1/Documents/hoopoe-2/hal/demo/..//hal/lib\libHALD.a(UART.o)
 .debug_aranges
                0x000012e8       0x88 C:/Users/user1/Documents/hoopoe-2/hal/demo/..//hal/lib\libHALD.a(FRAM.o)
 .debug_aranges
                0x00001370       0x68 C:/Users/user1/Documents/hoopoe-2/hal/demo/..//hal/lib\libHALD.a(RTC.o)
 .debug_aranges
                0x000013d8       0x88 C:/Users/user1/Documents/hoopoe-2/hal/demo/..//hal/lib\libHALD.a(Time.o)
 .debug_aranges
                0x00001460       0x30 C:/Users/user1/Documents/hoopoe-2/hal/demo/..//hal/lib\libHALD.a(WatchDogTimerNoOS.o)
 .debug_aranges
                0x00001490       0x38 C:/Users/user1/Documents/hoopoe-2/hal/demo/..//hal/lib\libHALD.a(WatchDogTimerOS.o)
 .debug_aranges
                0x000014c8       0x50 C:/Users/user1/Documents/hoopoe-2/hal/demo/..//hal/lib\libHALD.a(util.o)
 .debug_aranges
                0x00001518       0x18 C:/Users/user1/Documents/hoopoe-2/hal/demo/..//hal/lib\libHALD.a(version.o)
 .debug_aranges
                0x00001530       0x40 C:/Users/user1/Documents/hoopoe-2/hal/demo/..//hal/lib\libHALD.a(RTT.o)
 .debug_aranges
                0x00001570       0xd8 C:/Users/user1/Documents/hoopoe-2/hal/demo/..//freertos/lib\libFreeRTOSD.a(queue.o)
 .debug_aranges
                0x00001648      0x140 C:/Users/user1/Documents/hoopoe-2/hal/demo/..//freertos/lib\libFreeRTOSD.a(tasks.o)
 .debug_aranges
                0x00001788       0x38 C:/Users/user1/Documents/hoopoe-2/hal/demo/..//freertos/lib\libFreeRTOSD.a(standardMemMang.o)
 .debug_aranges
                0x000017c0       0x70 C:/Users/user1/Documents/hoopoe-2/hal/demo/..//freertos/lib\libFreeRTOSD.a(port.o)
 .debug_aranges
                0x00001830       0x40 C:/Users/user1/Documents/hoopoe-2/hal/demo/..//freertos/lib\libFreeRTOSD.a(list.o)
 .debug_aranges
                0x00001870       0xa8 C:/Users/user1/Documents/hoopoe-2/hal/demo/..//at91/lib\libAt91D.a(syscalls.o)
 .debug_aranges
                0x00001918       0x38 C:/Users/user1/Documents/hoopoe-2/hal/demo/..//at91/lib\libAt91D.a(board_memories.o)
 .debug_aranges
                0x00001950       0xa8 C:/Users/user1/Documents/hoopoe-2/hal/demo/..//at91/lib\libAt91D.a(adc_at91.o)
 .debug_aranges
                0x000019f8       0x30 C:/Users/user1/Documents/hoopoe-2/hal/demo/..//at91/lib\libAt91D.a(aic.o)
 .debug_aranges
                0x00001a28       0x60 C:/Users/user1/Documents/hoopoe-2/hal/demo/..//at91/lib\libAt91D.a(cp15.o)
 .debug_aranges
                0x00001a88       0x50 C:/Users/user1/Documents/hoopoe-2/hal/demo/..//at91/lib\libAt91D.a(dbgu.o)
 .debug_aranges
                0x00001ad8       0x68 C:/Users/user1/Documents/hoopoe-2/hal/demo/..//at91/lib\libAt91D.a(pio.o)
 .debug_aranges
                0x00001b40       0x48 C:/Users/user1/Documents/hoopoe-2/hal/demo/..//at91/lib\libAt91D.a(pio_it.o)
 .debug_aranges
                0x00001b88       0x60 C:/Users/user1/Documents/hoopoe-2/hal/demo/..//at91/lib\libAt91D.a(pit.o)
 .debug_aranges
                0x00001be8       0x58 C:/Users/user1/Documents/hoopoe-2/hal/demo/..//at91/lib\libAt91D.a(pmc.o)
 .debug_aranges
                0x00001c40       0x60 C:/Users/user1/Documents/hoopoe-2/hal/demo/..//at91/lib\libAt91D.a(spi_at91.o)
 .debug_aranges
                0x00001ca0       0x38 C:/Users/user1/Documents/hoopoe-2/hal/demo/..//at91/lib\libAt91D.a(tc.o)
 .debug_aranges
                0x00001cd8       0x90 C:/Users/user1/Documents/hoopoe-2/hal/demo/..//at91/lib\libAt91D.a(twi_at91.o)
 .debug_aranges
                0x00001d68      0x110 C:/Users/user1/Documents/hoopoe-2/hal/demo/..//at91/lib\libAt91D.a(USBD_UDP.o)
 .debug_aranges
                0x00001e78       0x70 C:/Users/user1/Documents/hoopoe-2/hal/demo/..//at91/lib\libAt91D.a(HIDDMouseDriver.o)
 .debug_aranges
                0x00001ee8       0x18 C:/Users/user1/Documents/hoopoe-2/hal/demo/..//at91/lib\libAt91D.a(HIDDMouseDriverDescriptors.o)
 .debug_aranges
                0x00001f00       0x20 C:/Users/user1/Documents/hoopoe-2/hal/demo/..//at91/lib\libAt91D.a(HIDDMouseInputReport.o)
 .debug_aranges
                0x00001f20       0x40 C:/Users/user1/Documents/hoopoe-2/hal/demo/..//at91/lib\libAt91D.a(ExitHandler.o)
 .debug_aranges
                0x00001f60       0x28 C:/Users/user1/Documents/hoopoe-2/hal/demo/..//at91/lib\libAt91D.a(rand.o)
 .debug_aranges
                0x00001f88       0x28 C:/Users/user1/Documents/hoopoe-2/hal/demo/..//at91/lib\libAt91D.a(board_cstartup.o)
 .debug_aranges
                0x00001fb0       0x20 C:/Users/user1/Documents/hoopoe-2/hal/demo/..//at91/lib\libAt91D.a(cp15_asm.o)
 .debug_aranges
                0x00001fd0       0x40 C:/Users/user1/Documents/hoopoe-2/hal/demo/..//at91/lib\libAt91D.a(board_lowlevel.o)
 .debug_aranges
                0x00002010       0x38 C:/Users/user1/Documents/hoopoe-2/hal/demo/..//at91/lib\libAt91D.a(USBConfigurationDescriptor.o)
 .debug_aranges
                0x00002048       0x38 C:/Users/user1/Documents/hoopoe-2/hal/demo/..//at91/lib\libAt91D.a(USBEndpointDescriptor.o)
 .debug_aranges
                0x00002080       0x30 C:/Users/user1/Documents/hoopoe-2/hal/demo/..//at91/lib\libAt91D.a(USBGenericDescriptor.o)
 .debug_aranges
                0x000020b0       0x58 C:/Users/user1/Documents/hoopoe-2/hal/demo/..//at91/lib\libAt91D.a(USBGenericRequest.o)
 .debug_aranges
                0x00002108       0x28 C:/Users/user1/Documents/hoopoe-2/hal/demo/..//at91/lib\libAt91D.a(USBGetDescriptorRequest.o)
 .debug_aranges
                0x00002130       0x20 C:/Users/user1/Documents/hoopoe-2/hal/demo/..//at91/lib\libAt91D.a(HIDIdleRequest.o)
 .debug_aranges
                0x00002150       0x28 C:/Users/user1/Documents/hoopoe-2/hal/demo/..//at91/lib\libAt91D.a(HIDReportRequest.o)
 .debug_aranges
                0x00002178       0x20 C:/Users/user1/Documents/hoopoe-2/hal/demo/..//at91/lib\libAt91D.a(USBDCallbacks_Initialized.o)
 .debug_aranges
                0x00002198       0x20 C:/Users/user1/Documents/hoopoe-2/hal/demo/..//at91/lib\libAt91D.a(USBDCallbacks_Reset.o)
 .debug_aranges
                0x000021b8       0x68 C:/Users/user1/Documents/hoopoe-2/hal/demo/..//at91/lib\libAt91D.a(USBDDriver.o)
 .debug_aranges
                0x00002220       0x20 C:/Users/user1/Documents/hoopoe-2/hal/demo/..//at91/lib\libAt91D.a(USBDDriverCb_IfSettingChanged.o)
 .debug_aranges
                0x00002240       0x28 C:/Users/user1/Documents/hoopoe-2/hal/demo/..//at91/lib\libAt91D.a(USBFeatureRequest.o)
 .debug_aranges
                0x00002268       0x28 C:/Users/user1/Documents/hoopoe-2/hal/demo/..//at91/lib\libAt91D.a(USBInterfaceRequest.o)
 .debug_aranges
                0x00002290       0x20 C:/Users/user1/Documents/hoopoe-2/hal/demo/..//at91/lib\libAt91D.a(USBSetAddressRequest.o)
 .debug_aranges
                0x000022b0       0x20 C:/Users/user1/Documents/hoopoe-2/hal/demo/..//at91/lib\libAt91D.a(USBSetConfigurationRequest.o)

.debug_ranges   0x00000000     0x1e38
 .debug_ranges  0x00000000       0x48 ./src/Tests/ADCtest.o
 .debug_ranges  0x00000048       0x38 ./src/Tests/I2Ctest.o
 .debug_ranges  0x00000080       0x20 ./src/Tests/LEDtest.o
 .debug_ranges  0x000000a0       0x18 ./src/Tests/PWMtest.o
 .debug_ranges  0x000000b8       0x10 ./src/Tests/PinTest.o
 .debug_ranges  0x000000c8       0x10 ./src/Tests/SDCardTest.o
 .debug_ranges  0x000000d8       0x38 ./src/Tests/SPI_FRAM_RTCtest.o
 .debug_ranges  0x00000110       0x20 ./src/Tests/SupervisorTest.o
 .debug_ranges  0x00000130       0x20 ./src/Tests/TimeTest.o
 .debug_ranges  0x00000150       0x18 ./src/Tests/UARTtest.o
 .debug_ranges  0x00000168       0x38 ./src/Tests/USBdeviceTest.o
 .debug_ranges  0x000001a0       0x18 ./src/Tests/boardTest.o
 .debug_ranges  0x000001b8       0x10 ./src/Tests/checksumTest.o
 .debug_ranges  0x000001c8       0x18 ./src/freertos_hooks.o
 .debug_ranges  0x000001e0       0x20 ./src/main.o
 .debug_ranges  0x00000200      0x3b0 C:/Users/user1/Documents/hoopoe-2/hal/demo/..//hcc/lib\libHCCD.a(fat_common.o)
 .debug_ranges  0x000005b0      0x1c0 C:/Users/user1/Documents/hoopoe-2/hal/demo/..//hcc/lib\libHCCD.a(fat_m.o)
 .debug_ranges  0x00000770      0x1e8 C:/Users/user1/Documents/hoopoe-2/hal/demo/..//hcc/lib\libHCCD.a(safefat.o)
 .debug_ranges  0x00000958       0xe0 C:/Users/user1/Documents/hoopoe-2/hal/demo/..//hcc/lib\libHCCD.a(fat_test.o)
 .debug_ranges  0x00000a38       0x88 C:/Users/user1/Documents/hoopoe-2/hal/demo/..//hcc/lib\libHCCD.a(atmel_mcipdc.o)
 .debug_ranges  0x00000ac0       0x28 C:/Users/user1/Documents/hoopoe-2/hal/demo/..//hcc/lib\libHCCD.a(oalp_mutex.o)
 .debug_ranges  0x00000ae8       0x10 C:/Users/user1/Documents/hoopoe-2/hal/demo/..//hcc/lib\libHCCD.a(oalp_task.o)
 .debug_ranges  0x00000af8       0x28 C:/Users/user1/Documents/hoopoe-2/hal/demo/..//hcc/lib\libHCCD.a(atmel_mcipdc_hw.o)
 .debug_ranges  0x00000b20       0x28 C:/Users/user1/Documents/hoopoe-2/hal/demo/..//hcc/lib\libHCCD.a(fat_testport.o)
 .debug_ranges  0x00000b48       0x10 C:/Users/user1/Documents/hoopoe-2/hal/demo/..//hcc/lib\libHCCD.a(psp_rand.o)
 .debug_ranges  0x00000b58       0x10 C:/Users/user1/Documents/hoopoe-2/hal/demo/..//hcc/lib\libHCCD.a(psp_rtc.o)
 .debug_ranges  0x00000b68       0xc0 C:/Users/user1/Documents/hoopoe-2/hal/demo/..//hcc/lib\libHCCD.a(hcc_mem.o)
 .debug_ranges  0x00000c28      0x1c8 C:/Users/user1/Documents/hoopoe-2/hal/demo/..//hcc/lib\libHCCD.a(fat.o)
 .debug_ranges  0x00000df0       0x18 C:/Users/user1/Documents/hoopoe-2/hal/demo/..//hcc/lib\libHCCD.a(psp_hcc_mem.o)
 .debug_ranges  0x00000e08       0x68 C:/Users/user1/Documents/hoopoe-2/hal/demo/..//hal/lib\libHALD.a(checksum.o)
 .debug_ranges  0x00000e70       0x70 C:/Users/user1/Documents/hoopoe-2/hal/demo/..//hal/lib\libHALD.a(supervisor.o)
 .debug_ranges  0x00000ee0       0x40 C:/Users/user1/Documents/hoopoe-2/hal/demo/..//hal/lib\libHALD.a(ADC.o)
 .debug_ranges  0x00000f20       0xb8 C:/Users/user1/Documents/hoopoe-2/hal/demo/..//hal/lib\libHALD.a(I2C.o)
 .debug_ranges  0x00000fd8       0x40 C:/Users/user1/Documents/hoopoe-2/hal/demo/..//hal/lib\libHALD.a(LED.o)
 .debug_ranges  0x00001018       0x48 C:/Users/user1/Documents/hoopoe-2/hal/demo/..//hal/lib\libHALD.a(PWM.o)
 .debug_ranges  0x00001060       0x68 C:/Users/user1/Documents/hoopoe-2/hal/demo/..//hal/lib\libHALD.a(SPI.o)
 .debug_ranges  0x000010c8       0xa8 C:/Users/user1/Documents/hoopoe-2/hal/demo/..//hal/lib\libHALD.a(UART.o)
 .debug_ranges  0x00001170       0x78 C:/Users/user1/Documents/hoopoe-2/hal/demo/..//hal/lib\libHALD.a(FRAM.o)
 .debug_ranges  0x000011e8       0x58 C:/Users/user1/Documents/hoopoe-2/hal/demo/..//hal/lib\libHALD.a(RTC.o)
 .debug_ranges  0x00001240       0x78 C:/Users/user1/Documents/hoopoe-2/hal/demo/..//hal/lib\libHALD.a(Time.o)
 .debug_ranges  0x000012b8       0x20 C:/Users/user1/Documents/hoopoe-2/hal/demo/..//hal/lib\libHALD.a(WatchDogTimerNoOS.o)
 .debug_ranges  0x000012d8       0x28 C:/Users/user1/Documents/hoopoe-2/hal/demo/..//hal/lib\libHALD.a(WatchDogTimerOS.o)
 .debug_ranges  0x00001300       0x40 C:/Users/user1/Documents/hoopoe-2/hal/demo/..//hal/lib\libHALD.a(util.o)
 .debug_ranges  0x00001340       0x30 C:/Users/user1/Documents/hoopoe-2/hal/demo/..//hal/lib\libHALD.a(RTT.o)
 .debug_ranges  0x00001370       0xc8 C:/Users/user1/Documents/hoopoe-2/hal/demo/..//freertos/lib\libFreeRTOSD.a(queue.o)
 .debug_ranges  0x00001438      0x148 C:/Users/user1/Documents/hoopoe-2/hal/demo/..//freertos/lib\libFreeRTOSD.a(tasks.o)
 .debug_ranges  0x00001580       0x28 C:/Users/user1/Documents/hoopoe-2/hal/demo/..//freertos/lib\libFreeRTOSD.a(standardMemMang.o)
 .debug_ranges  0x000015a8       0x60 C:/Users/user1/Documents/hoopoe-2/hal/demo/..//freertos/lib\libFreeRTOSD.a(port.o)
 .debug_ranges  0x00001608       0x30 C:/Users/user1/Documents/hoopoe-2/hal/demo/..//freertos/lib\libFreeRTOSD.a(list.o)
 .debug_ranges  0x00001638       0x98 C:/Users/user1/Documents/hoopoe-2/hal/demo/..//at91/lib\libAt91D.a(syscalls.o)
 .debug_ranges  0x000016d0       0x28 C:/Users/user1/Documents/hoopoe-2/hal/demo/..//at91/lib\libAt91D.a(board_memories.o)
 .debug_ranges  0x000016f8       0x98 C:/Users/user1/Documents/hoopoe-2/hal/demo/..//at91/lib\libAt91D.a(adc_at91.o)
 .debug_ranges  0x00001790       0x20 C:/Users/user1/Documents/hoopoe-2/hal/demo/..//at91/lib\libAt91D.a(aic.o)
 .debug_ranges  0x000017b0       0x50 C:/Users/user1/Documents/hoopoe-2/hal/demo/..//at91/lib\libAt91D.a(cp15.o)
 .debug_ranges  0x00001800       0x40 C:/Users/user1/Documents/hoopoe-2/hal/demo/..//at91/lib\libAt91D.a(dbgu.o)
 .debug_ranges  0x00001840       0x58 C:/Users/user1/Documents/hoopoe-2/hal/demo/..//at91/lib\libAt91D.a(pio.o)
 .debug_ranges  0x00001898       0x38 C:/Users/user1/Documents/hoopoe-2/hal/demo/..//at91/lib\libAt91D.a(pio_it.o)
 .debug_ranges  0x000018d0       0x50 C:/Users/user1/Documents/hoopoe-2/hal/demo/..//at91/lib\libAt91D.a(pit.o)
 .debug_ranges  0x00001920       0x48 C:/Users/user1/Documents/hoopoe-2/hal/demo/..//at91/lib\libAt91D.a(pmc.o)
 .debug_ranges  0x00001968       0x50 C:/Users/user1/Documents/hoopoe-2/hal/demo/..//at91/lib\libAt91D.a(spi_at91.o)
 .debug_ranges  0x000019b8       0x28 C:/Users/user1/Documents/hoopoe-2/hal/demo/..//at91/lib\libAt91D.a(tc.o)
 .debug_ranges  0x000019e0       0x80 C:/Users/user1/Documents/hoopoe-2/hal/demo/..//at91/lib\libAt91D.a(twi_at91.o)
 .debug_ranges  0x00001a60      0x100 C:/Users/user1/Documents/hoopoe-2/hal/demo/..//at91/lib\libAt91D.a(USBD_UDP.o)
 .debug_ranges  0x00001b60       0x60 C:/Users/user1/Documents/hoopoe-2/hal/demo/..//at91/lib\libAt91D.a(HIDDMouseDriver.o)
 .debug_ranges  0x00001bc0       0x10 C:/Users/user1/Documents/hoopoe-2/hal/demo/..//at91/lib\libAt91D.a(HIDDMouseInputReport.o)
 .debug_ranges  0x00001bd0       0x30 C:/Users/user1/Documents/hoopoe-2/hal/demo/..//at91/lib\libAt91D.a(ExitHandler.o)
 .debug_ranges  0x00001c00       0x18 C:/Users/user1/Documents/hoopoe-2/hal/demo/..//at91/lib\libAt91D.a(rand.o)
 .debug_ranges  0x00001c18       0x20 C:/Users/user1/Documents/hoopoe-2/hal/demo/..//at91/lib\libAt91D.a(board_cstartup.o)
 .debug_ranges  0x00001c38       0x30 C:/Users/user1/Documents/hoopoe-2/hal/demo/..//at91/lib\libAt91D.a(board_lowlevel.o)
 .debug_ranges  0x00001c68       0x28 C:/Users/user1/Documents/hoopoe-2/hal/demo/..//at91/lib\libAt91D.a(USBConfigurationDescriptor.o)
 .debug_ranges  0x00001c90       0x28 C:/Users/user1/Documents/hoopoe-2/hal/demo/..//at91/lib\libAt91D.a(USBEndpointDescriptor.o)
 .debug_ranges  0x00001cb8       0x20 C:/Users/user1/Documents/hoopoe-2/hal/demo/..//at91/lib\libAt91D.a(USBGenericDescriptor.o)
 .debug_ranges  0x00001cd8       0x48 C:/Users/user1/Documents/hoopoe-2/hal/demo/..//at91/lib\libAt91D.a(USBGenericRequest.o)
 .debug_ranges  0x00001d20       0x18 C:/Users/user1/Documents/hoopoe-2/hal/demo/..//at91/lib\libAt91D.a(USBGetDescriptorRequest.o)
 .debug_ranges  0x00001d38       0x10 C:/Users/user1/Documents/hoopoe-2/hal/demo/..//at91/lib\libAt91D.a(HIDIdleRequest.o)
 .debug_ranges  0x00001d48       0x18 C:/Users/user1/Documents/hoopoe-2/hal/demo/..//at91/lib\libAt91D.a(HIDReportRequest.o)
 .debug_ranges  0x00001d60       0x10 C:/Users/user1/Documents/hoopoe-2/hal/demo/..//at91/lib\libAt91D.a(USBDCallbacks_Initialized.o)
 .debug_ranges  0x00001d70       0x10 C:/Users/user1/Documents/hoopoe-2/hal/demo/..//at91/lib\libAt91D.a(USBDCallbacks_Reset.o)
 .debug_ranges  0x00001d80       0x58 C:/Users/user1/Documents/hoopoe-2/hal/demo/..//at91/lib\libAt91D.a(USBDDriver.o)
 .debug_ranges  0x00001dd8       0x10 C:/Users/user1/Documents/hoopoe-2/hal/demo/..//at91/lib\libAt91D.a(USBDDriverCb_IfSettingChanged.o)
 .debug_ranges  0x00001de8       0x18 C:/Users/user1/Documents/hoopoe-2/hal/demo/..//at91/lib\libAt91D.a(USBFeatureRequest.o)
 .debug_ranges  0x00001e00       0x18 C:/Users/user1/Documents/hoopoe-2/hal/demo/..//at91/lib\libAt91D.a(USBInterfaceRequest.o)
 .debug_ranges  0x00001e18       0x10 C:/Users/user1/Documents/hoopoe-2/hal/demo/..//at91/lib\libAt91D.a(USBSetAddressRequest.o)
 .debug_ranges  0x00001e28       0x10 C:/Users/user1/Documents/hoopoe-2/hal/demo/..//at91/lib\libAt91D.a(USBSetConfigurationRequest.o)

.debug_line     0x00000000     0xefdb
 .debug_line    0x00000000      0x2ea ./src/Tests/ADCtest.o
 .debug_line    0x000002ea      0x37c ./src/Tests/I2Ctest.o
 .debug_line    0x00000666      0x188 ./src/Tests/LEDtest.o
 .debug_line    0x000007ee      0x114 ./src/Tests/PWMtest.o
 .debug_line    0x00000902      0x199 ./src/Tests/PinTest.o
 .debug_line    0x00000a9b       0xad ./src/Tests/SDCardTest.o
 .debug_line    0x00000b48      0x491 ./src/Tests/SPI_FRAM_RTCtest.o
 .debug_line    0x00000fd9      0x333 ./src/Tests/SupervisorTest.o
 .debug_line    0x0000130c      0x1fb ./src/Tests/TimeTest.o
 .debug_line    0x00001507      0x18d ./src/Tests/UARTtest.o
 .debug_line    0x00001694      0x208 ./src/Tests/USBdeviceTest.o
 .debug_line    0x0000189c      0x1c1 ./src/Tests/boardTest.o
 .debug_line    0x00001a5d      0x162 ./src/Tests/checksumTest.o
 .debug_line    0x00001bbf       0xaf ./src/freertos_hooks.o
 .debug_line    0x00001c6e      0x36e ./src/main.o
 .debug_line    0x00001fdc     0x1b99 C:/Users/user1/Documents/hoopoe-2/hal/demo/..//hcc/lib\libHCCD.a(fat_common.o)
 .debug_line    0x00003b75      0x637 C:/Users/user1/Documents/hoopoe-2/hal/demo/..//hcc/lib\libHCCD.a(fat_m.o)
 .debug_line    0x000041ac      0xcb9 C:/Users/user1/Documents/hoopoe-2/hal/demo/..//hcc/lib\libHCCD.a(safefat.o)
 .debug_line    0x00004e65     0x132d C:/Users/user1/Documents/hoopoe-2/hal/demo/..//hcc/lib\libHCCD.a(fat_test.o)
 .debug_line    0x00006192      0x574 C:/Users/user1/Documents/hoopoe-2/hal/demo/..//hcc/lib\libHCCD.a(atmel_mcipdc.o)
 .debug_line    0x00006706      0x14d C:/Users/user1/Documents/hoopoe-2/hal/demo/..//hcc/lib\libHCCD.a(oalp_mutex.o)
 .debug_line    0x00006853       0x92 C:/Users/user1/Documents/hoopoe-2/hal/demo/..//hcc/lib\libHCCD.a(oalp_task.o)
 .debug_line    0x000068e5      0x18b C:/Users/user1/Documents/hoopoe-2/hal/demo/..//hcc/lib\libHCCD.a(atmel_mcipdc_hw.o)
 .debug_line    0x00006a70      0x120 C:/Users/user1/Documents/hoopoe-2/hal/demo/..//hcc/lib\libHCCD.a(fat_testport.o)
 .debug_line    0x00006b90      0x124 C:/Users/user1/Documents/hoopoe-2/hal/demo/..//hcc/lib\libHCCD.a(psp_rand.o)
 .debug_line    0x00006cb4      0x132 C:/Users/user1/Documents/hoopoe-2/hal/demo/..//hcc/lib\libHCCD.a(psp_rtc.o)
 .debug_line    0x00006de6      0x5b7 C:/Users/user1/Documents/hoopoe-2/hal/demo/..//hcc/lib\libHCCD.a(hcc_mem.o)
 .debug_line    0x0000739d     0x1081 C:/Users/user1/Documents/hoopoe-2/hal/demo/..//hcc/lib\libHCCD.a(fat.o)
 .debug_line    0x0000841e      0x133 C:/Users/user1/Documents/hoopoe-2/hal/demo/..//hcc/lib\libHCCD.a(psp_hcc_mem.o)
 .debug_line    0x00008551      0x255 C:/Users/user1/Documents/hoopoe-2/hal/demo/..//hal/lib\libHALD.a(checksum.o)
 .debug_line    0x000087a6      0x3a4 C:/Users/user1/Documents/hoopoe-2/hal/demo/..//hal/lib\libHALD.a(supervisor.o)
 .debug_line    0x00008b4a      0x260 C:/Users/user1/Documents/hoopoe-2/hal/demo/..//hal/lib\libHALD.a(ADC.o)
 .debug_line    0x00008daa      0x4fa C:/Users/user1/Documents/hoopoe-2/hal/demo/..//hal/lib\libHALD.a(I2C.o)
 .debug_line    0x000092a4      0x1fa C:/Users/user1/Documents/hoopoe-2/hal/demo/..//hal/lib\libHALD.a(LED.o)
 .debug_line    0x0000949e      0x1db C:/Users/user1/Documents/hoopoe-2/hal/demo/..//hal/lib\libHALD.a(PWM.o)
 .debug_line    0x00009679      0x3d7 C:/Users/user1/Documents/hoopoe-2/hal/demo/..//hal/lib\libHALD.a(SPI.o)
 .debug_line    0x00009a50      0x4ac C:/Users/user1/Documents/hoopoe-2/hal/demo/..//hal/lib\libHALD.a(UART.o)
 .debug_line    0x00009efc      0x352 C:/Users/user1/Documents/hoopoe-2/hal/demo/..//hal/lib\libHALD.a(FRAM.o)
 .debug_line    0x0000a24e      0x26f C:/Users/user1/Documents/hoopoe-2/hal/demo/..//hal/lib\libHALD.a(RTC.o)
 .debug_line    0x0000a4bd      0x379 C:/Users/user1/Documents/hoopoe-2/hal/demo/..//hal/lib\libHALD.a(Time.o)
 .debug_line    0x0000a836       0xe3 C:/Users/user1/Documents/hoopoe-2/hal/demo/..//hal/lib\libHALD.a(WatchDogTimerNoOS.o)
 .debug_line    0x0000a919      0x147 C:/Users/user1/Documents/hoopoe-2/hal/demo/..//hal/lib\libHALD.a(WatchDogTimerOS.o)
 .debug_line    0x0000aa60      0x1e1 C:/Users/user1/Documents/hoopoe-2/hal/demo/..//hal/lib\libHALD.a(util.o)
 .debug_line    0x0000ac41       0x36 C:/Users/user1/Documents/hoopoe-2/hal/demo/..//hal/lib\libHALD.a(version.o)
 .debug_line    0x0000ac77       0xe8 C:/Users/user1/Documents/hoopoe-2/hal/demo/..//hal/lib\libHALD.a(RTT.o)
 .debug_line    0x0000ad5f      0x5ae C:/Users/user1/Documents/hoopoe-2/hal/demo/..//freertos/lib\libFreeRTOSD.a(queue.o)
 .debug_line    0x0000b30d      0x82a C:/Users/user1/Documents/hoopoe-2/hal/demo/..//freertos/lib\libFreeRTOSD.a(tasks.o)
 .debug_line    0x0000bb37       0xf9 C:/Users/user1/Documents/hoopoe-2/hal/demo/..//freertos/lib\libFreeRTOSD.a(standardMemMang.o)
 .debug_line    0x0000bc30      0x1ea C:/Users/user1/Documents/hoopoe-2/hal/demo/..//freertos/lib\libFreeRTOSD.a(port.o)
 .debug_line    0x0000be1a      0x10e C:/Users/user1/Documents/hoopoe-2/hal/demo/..//freertos/lib\libFreeRTOSD.a(list.o)
 .debug_line    0x0000bf28      0x356 C:/Users/user1/Documents/hoopoe-2/hal/demo/..//at91/lib\libAt91D.a(syscalls.o)
 .debug_line    0x0000c27e      0x140 C:/Users/user1/Documents/hoopoe-2/hal/demo/..//at91/lib\libAt91D.a(board_memories.o)
 .debug_line    0x0000c3be      0x281 C:/Users/user1/Documents/hoopoe-2/hal/demo/..//at91/lib\libAt91D.a(adc_at91.o)
 .debug_line    0x0000c63f       0xb2 C:/Users/user1/Documents/hoopoe-2/hal/demo/..//at91/lib\libAt91D.a(aic.o)
 .debug_line    0x0000c6f1      0x101 C:/Users/user1/Documents/hoopoe-2/hal/demo/..//at91/lib\libAt91D.a(cp15.o)
 .debug_line    0x0000c7f2      0x2cc C:/Users/user1/Documents/hoopoe-2/hal/demo/..//at91/lib\libAt91D.a(dbgu.o)
 .debug_line    0x0000cabe      0x1b7 C:/Users/user1/Documents/hoopoe-2/hal/demo/..//at91/lib\libAt91D.a(pio.o)
 .debug_line    0x0000cc75      0x18a C:/Users/user1/Documents/hoopoe-2/hal/demo/..//at91/lib\libAt91D.a(pio_it.o)
 .debug_line    0x0000cdff      0x136 C:/Users/user1/Documents/hoopoe-2/hal/demo/..//at91/lib\libAt91D.a(pit.o)
 .debug_line    0x0000cf35      0x145 C:/Users/user1/Documents/hoopoe-2/hal/demo/..//at91/lib\libAt91D.a(pmc.o)
 .debug_line    0x0000d07a      0x14e C:/Users/user1/Documents/hoopoe-2/hal/demo/..//at91/lib\libAt91D.a(spi_at91.o)
 .debug_line    0x0000d1c8       0xe3 C:/Users/user1/Documents/hoopoe-2/hal/demo/..//at91/lib\libAt91D.a(tc.o)
 .debug_line    0x0000d2ab      0x2e9 C:/Users/user1/Documents/hoopoe-2/hal/demo/..//at91/lib\libAt91D.a(twi_at91.o)
 .debug_line    0x0000d594      0x582 C:/Users/user1/Documents/hoopoe-2/hal/demo/..//at91/lib\libAt91D.a(USBD_UDP.o)
 .debug_line    0x0000db16      0x2e1 C:/Users/user1/Documents/hoopoe-2/hal/demo/..//at91/lib\libAt91D.a(HIDDMouseDriver.o)
 .debug_line    0x0000ddf7      0x172 C:/Users/user1/Documents/hoopoe-2/hal/demo/..//at91/lib\libAt91D.a(HIDDMouseDriverDescriptors.o)
 .debug_line    0x0000df69       0xa1 C:/Users/user1/Documents/hoopoe-2/hal/demo/..//at91/lib\libAt91D.a(HIDDMouseInputReport.o)
 .debug_line    0x0000e00a       0xda C:/Users/user1/Documents/hoopoe-2/hal/demo/..//at91/lib\libAt91D.a(ExitHandler.o)
 .debug_line    0x0000e0e4       0x56 C:/Users/user1/Documents/hoopoe-2/hal/demo/..//at91/lib\libAt91D.a(rand.o)
 .debug_line    0x0000e13a      0x109 C:/Users/user1/Documents/hoopoe-2/hal/demo/..//at91/lib\libAt91D.a(board_cstartup.o)
 .debug_line    0x0000e243       0x6f C:/Users/user1/Documents/hoopoe-2/hal/demo/..//at91/lib\libAt91D.a(cp15_asm.o)
 .debug_line    0x0000e2b2      0x122 C:/Users/user1/Documents/hoopoe-2/hal/demo/..//at91/lib\libAt91D.a(board_lowlevel.o)
 .debug_line    0x0000e3d4      0x149 C:/Users/user1/Documents/hoopoe-2/hal/demo/..//at91/lib\libAt91D.a(USBConfigurationDescriptor.o)
 .debug_line    0x0000e51d       0xcf C:/Users/user1/Documents/hoopoe-2/hal/demo/..//at91/lib\libAt91D.a(USBEndpointDescriptor.o)
 .debug_line    0x0000e5ec       0xba C:/Users/user1/Documents/hoopoe-2/hal/demo/..//at91/lib\libAt91D.a(USBGenericDescriptor.o)
 .debug_line    0x0000e6a6      0x10e C:/Users/user1/Documents/hoopoe-2/hal/demo/..//at91/lib\libAt91D.a(USBGenericRequest.o)
 .debug_line    0x0000e7b4       0xa7 C:/Users/user1/Documents/hoopoe-2/hal/demo/..//at91/lib\libAt91D.a(USBGetDescriptorRequest.o)
 .debug_line    0x0000e85b       0x8b C:/Users/user1/Documents/hoopoe-2/hal/demo/..//at91/lib\libAt91D.a(HIDIdleRequest.o)
 .debug_line    0x0000e8e6       0x9f C:/Users/user1/Documents/hoopoe-2/hal/demo/..//at91/lib\libAt91D.a(HIDReportRequest.o)
 .debug_line    0x0000e985       0x64 C:/Users/user1/Documents/hoopoe-2/hal/demo/..//at91/lib\libAt91D.a(USBDCallbacks_Initialized.o)
 .debug_line    0x0000e9e9       0x5a C:/Users/user1/Documents/hoopoe-2/hal/demo/..//at91/lib\libAt91D.a(USBDCallbacks_Reset.o)
 .debug_line    0x0000ea43      0x2c5 C:/Users/user1/Documents/hoopoe-2/hal/demo/..//at91/lib\libAt91D.a(USBDDriver.o)
 .debug_line    0x0000ed08       0x65 C:/Users/user1/Documents/hoopoe-2/hal/demo/..//at91/lib\libAt91D.a(USBDDriverCb_IfSettingChanged.o)
 .debug_line    0x0000ed6d       0xa1 C:/Users/user1/Documents/hoopoe-2/hal/demo/..//at91/lib\libAt91D.a(USBFeatureRequest.o)
 .debug_line    0x0000ee0e       0xa3 C:/Users/user1/Documents/hoopoe-2/hal/demo/..//at91/lib\libAt91D.a(USBInterfaceRequest.o)
 .debug_line    0x0000eeb1       0x92 C:/Users/user1/Documents/hoopoe-2/hal/demo/..//at91/lib\libAt91D.a(USBSetAddressRequest.o)
 .debug_line    0x0000ef43       0x98 C:/Users/user1/Documents/hoopoe-2/hal/demo/..//at91/lib\libAt91D.a(USBSetConfigurationRequest.o)

.debug_str      0x00000000     0x9050
 .debug_str     0x00000000      0x29d ./src/Tests/ADCtest.o
                                0x310 (size before relaxing)
 .debug_str     0x0000029d      0x226 ./src/Tests/I2Ctest.o
                                0x430 (size before relaxing)
 .debug_str     0x000004c3       0x6c ./src/Tests/LEDtest.o
                                0x18c (size before relaxing)
 .debug_str     0x0000052f       0x3d ./src/Tests/PWMtest.o
                                0x16c (size before relaxing)
 .debug_str     0x0000056c      0x1a2 ./src/Tests/PinTest.o
                                0x2ca (size before relaxing)
 .debug_str     0x0000070e       0x2c ./src/Tests/SDCardTest.o
                                0x140 (size before relaxing)
 .debug_str     0x0000073a      0x278 ./src/Tests/SPI_FRAM_RTCtest.o
                                0x4d2 (size before relaxing)
 .debug_str     0x000009b2      0x40d ./src/Tests/SupervisorTest.o
                                0x6dd (size before relaxing)
 .debug_str     0x00000dbf       0xa3 ./src/Tests/TimeTest.o
                                0x28e (size before relaxing)
 .debug_str     0x00000e62      0x124 ./src/Tests/UARTtest.o
                                0x2a0 (size before relaxing)
 .debug_str     0x00000f86       0xde ./src/Tests/USBdeviceTest.o
                                0x36e (size before relaxing)
 .debug_str     0x00001064       0x6a ./src/Tests/boardTest.o
                                0x4b2 (size before relaxing)
 .debug_str     0x000010ce       0xc6 ./src/Tests/checksumTest.o
                                0x1e7 (size before relaxing)
 .debug_str     0x00001194       0x5d ./src/freertos_hooks.o
                                0x175 (size before relaxing)
 .debug_str     0x000011f1       0xa9 ./src/main.o
                                0x379 (size before relaxing)
 .debug_str     0x0000129a     0x129f C:/Users/user1/Documents/hoopoe-2/hal/demo/..//hcc/lib\libHCCD.a(fat_common.o)
                               0x1610 (size before relaxing)
 .debug_str     0x00002539      0x311 C:/Users/user1/Documents/hoopoe-2/hal/demo/..//hcc/lib\libHCCD.a(fat_m.o)
                                0x7fd (size before relaxing)
 .debug_str     0x0000284a      0x540 C:/Users/user1/Documents/hoopoe-2/hal/demo/..//hcc/lib\libHCCD.a(safefat.o)
                                0xdcf (size before relaxing)
 .debug_str     0x00002d8a      0x206 C:/Users/user1/Documents/hoopoe-2/hal/demo/..//hcc/lib\libHCCD.a(fat_test.o)
                                0x52b (size before relaxing)
 .debug_str     0x00002f90      0x34d C:/Users/user1/Documents/hoopoe-2/hal/demo/..//hcc/lib\libHCCD.a(atmel_mcipdc.o)
                                0x643 (size before relaxing)
 .debug_str     0x000032dd       0x8d C:/Users/user1/Documents/hoopoe-2/hal/demo/..//hcc/lib\libHCCD.a(oalp_mutex.o)
                                0x1df (size before relaxing)
 .debug_str     0x0000336a       0x27 C:/Users/user1/Documents/hoopoe-2/hal/demo/..//hcc/lib\libHCCD.a(oalp_task.o)
                                0x154 (size before relaxing)
 .debug_str     0x00003391       0xc0 C:/Users/user1/Documents/hoopoe-2/hal/demo/..//hcc/lib\libHCCD.a(atmel_mcipdc_hw.o)
                                0x3bb (size before relaxing)
 .debug_str     0x00003451       0x55 C:/Users/user1/Documents/hoopoe-2/hal/demo/..//hcc/lib\libHCCD.a(fat_testport.o)
                                0x17f (size before relaxing)
 .debug_str     0x000034a6       0x32 C:/Users/user1/Documents/hoopoe-2/hal/demo/..//hcc/lib\libHCCD.a(psp_rand.o)
                                0x175 (size before relaxing)
 .debug_str     0x000034d8       0x34 C:/Users/user1/Documents/hoopoe-2/hal/demo/..//hcc/lib\libHCCD.a(psp_rtc.o)
                                0x1b2 (size before relaxing)
 .debug_str     0x0000350c      0x2eb C:/Users/user1/Documents/hoopoe-2/hal/demo/..//hcc/lib\libHCCD.a(hcc_mem.o)
                                0x4fa (size before relaxing)
 .debug_str     0x000037f7      0x2e4 C:/Users/user1/Documents/hoopoe-2/hal/demo/..//hcc/lib\libHCCD.a(fat.o)
                                0xd16 (size before relaxing)
 .debug_str     0x00003adb       0x7a C:/Users/user1/Documents/hoopoe-2/hal/demo/..//hcc/lib\libHCCD.a(psp_hcc_mem.o)
                                0x1d7 (size before relaxing)
 .debug_str     0x00003b55      0x1c2 C:/Users/user1/Documents/hoopoe-2/hal/demo/..//hal/lib\libHALD.a(checksum.o)
                                0x257 (size before relaxing)
 .debug_str     0x00003d17      0x4d8 C:/Users/user1/Documents/hoopoe-2/hal/demo/..//hal/lib\libHALD.a(supervisor.o)
                                0xc93 (size before relaxing)
 .debug_str     0x000041ef      0x382 C:/Users/user1/Documents/hoopoe-2/hal/demo/..//hal/lib\libHALD.a(ADC.o)
                                0x6c3 (size before relaxing)
 .debug_str     0x00004571      0x4af C:/Users/user1/Documents/hoopoe-2/hal/demo/..//hal/lib\libHALD.a(I2C.o)
                                0xa1c (size before relaxing)
 .debug_str     0x00004a20       0x6a C:/Users/user1/Documents/hoopoe-2/hal/demo/..//hal/lib\libHALD.a(LED.o)
                                0x31d (size before relaxing)
 .debug_str     0x00004a8a      0x119 C:/Users/user1/Documents/hoopoe-2/hal/demo/..//hal/lib\libHALD.a(PWM.o)
                                0x4ac (size before relaxing)
 .debug_str     0x00004ba3      0x369 C:/Users/user1/Documents/hoopoe-2/hal/demo/..//hal/lib\libHALD.a(SPI.o)
                                0x8be (size before relaxing)
 .debug_str     0x00004f0c      0x46d C:/Users/user1/Documents/hoopoe-2/hal/demo/..//hal/lib\libHALD.a(UART.o)
                                0xa15 (size before relaxing)
 .debug_str     0x00005379      0x18a C:/Users/user1/Documents/hoopoe-2/hal/demo/..//hal/lib\libHALD.a(FRAM.o)
                                0x58b (size before relaxing)
 .debug_str     0x00005503       0xfc C:/Users/user1/Documents/hoopoe-2/hal/demo/..//hal/lib\libHALD.a(RTC.o)
                                0x4eb (size before relaxing)
 .debug_str     0x000055ff      0x1e7 C:/Users/user1/Documents/hoopoe-2/hal/demo/..//hal/lib\libHALD.a(Time.o)
                                0x398 (size before relaxing)
 .debug_str     0x000057e6       0x6b C:/Users/user1/Documents/hoopoe-2/hal/demo/..//hal/lib\libHALD.a(WatchDogTimerNoOS.o)
                                0x2f3 (size before relaxing)
 .debug_str     0x00005851       0xd2 C:/Users/user1/Documents/hoopoe-2/hal/demo/..//hal/lib\libHALD.a(WatchDogTimerOS.o)
                                0x22e (size before relaxing)
 .debug_str     0x00005923       0xc4 C:/Users/user1/Documents/hoopoe-2/hal/demo/..//hal/lib\libHALD.a(util.o)
                                0x1e2 (size before relaxing)
 .debug_str     0x000059e7       0x16 C:/Users/user1/Documents/hoopoe-2/hal/demo/..//hal/lib\libHALD.a(version.o)
                                 0xf6 (size before relaxing)
 .debug_str     0x000059fd       0x4b C:/Users/user1/Documents/hoopoe-2/hal/demo/..//hal/lib\libHALD.a(RTT.o)
                                0x1b5 (size before relaxing)
 .debug_str     0x00005a48      0x50b C:/Users/user1/Documents/hoopoe-2/hal/demo/..//freertos/lib\libFreeRTOSD.a(queue.o)
                                0x643 (size before relaxing)
 .debug_str     0x00005f53      0x707 C:/Users/user1/Documents/hoopoe-2/hal/demo/..//freertos/lib\libFreeRTOSD.a(tasks.o)
                                0x96e (size before relaxing)
 .debug_str     0x0000665a       0x6f C:/Users/user1/Documents/hoopoe-2/hal/demo/..//freertos/lib\libFreeRTOSD.a(standardMemMang.o)
                                0x18e (size before relaxing)
 .debug_str     0x000066c9      0x155 C:/Users/user1/Documents/hoopoe-2/hal/demo/..//freertos/lib\libFreeRTOSD.a(port.o)
                                0x2f6 (size before relaxing)
 .debug_str     0x0000681e       0xa1 C:/Users/user1/Documents/hoopoe-2/hal/demo/..//freertos/lib\libFreeRTOSD.a(list.o)
                                0x257 (size before relaxing)
 .debug_str     0x000068bf      0x1c6 C:/Users/user1/Documents/hoopoe-2/hal/demo/..//at91/lib\libAt91D.a(syscalls.o)
                                0x30e (size before relaxing)
 .debug_str     0x00006a85      0x413 C:/Users/user1/Documents/hoopoe-2/hal/demo/..//at91/lib\libAt91D.a(board_memories.o)
                                0x641 (size before relaxing)
 .debug_str     0x00006e98      0x1bd C:/Users/user1/Documents/hoopoe-2/hal/demo/..//at91/lib\libAt91D.a(adc_at91.o)
                                0x5f1 (size before relaxing)
 .debug_str     0x00007055      0x104 C:/Users/user1/Documents/hoopoe-2/hal/demo/..//at91/lib\libAt91D.a(aic.o)
                                0x1be (size before relaxing)
 .debug_str     0x00007159       0xd5 C:/Users/user1/Documents/hoopoe-2/hal/demo/..//at91/lib\libAt91D.a(cp15.o)
                                0x1e9 (size before relaxing)
 .debug_str     0x0000722e      0x4c1 C:/Users/user1/Documents/hoopoe-2/hal/demo/..//at91/lib\libAt91D.a(dbgu.o)
                                0x65a (size before relaxing)
 .debug_str     0x000076ef       0xde C:/Users/user1/Documents/hoopoe-2/hal/demo/..//at91/lib\libAt91D.a(pio.o)
                                0x408 (size before relaxing)
 .debug_str     0x000077cd       0xaf C:/Users/user1/Documents/hoopoe-2/hal/demo/..//at91/lib\libAt91D.a(pio_it.o)
                                0x405 (size before relaxing)
 .debug_str     0x0000787c       0x9b C:/Users/user1/Documents/hoopoe-2/hal/demo/..//at91/lib\libAt91D.a(pit.o)
                                0x17c (size before relaxing)
 .debug_str     0x00007917       0xcf C:/Users/user1/Documents/hoopoe-2/hal/demo/..//at91/lib\libAt91D.a(pmc.o)
                                0x2ac (size before relaxing)
 .debug_str     0x000079e6       0xaf C:/Users/user1/Documents/hoopoe-2/hal/demo/..//at91/lib\libAt91D.a(spi_at91.o)
                                0x2f4 (size before relaxing)
 .debug_str     0x00007a95       0x5d C:/Users/user1/Documents/hoopoe-2/hal/demo/..//at91/lib\libAt91D.a(tc.o)
                                0x175 (size before relaxing)
 .debug_str     0x00007af2      0x161 C:/Users/user1/Documents/hoopoe-2/hal/demo/..//at91/lib\libAt91D.a(twi_at91.o)
                                0x3b0 (size before relaxing)
 .debug_str     0x00007c53      0x43a C:/Users/user1/Documents/hoopoe-2/hal/demo/..//at91/lib\libAt91D.a(USBD_UDP.o)
                                0x678 (size before relaxing)
 .debug_str     0x0000808d      0x4ad C:/Users/user1/Documents/hoopoe-2/hal/demo/..//at91/lib\libAt91D.a(HIDDMouseDriver.o)
                                0x64a (size before relaxing)
 .debug_str     0x0000853a      0x184 C:/Users/user1/Documents/hoopoe-2/hal/demo/..//at91/lib\libAt91D.a(HIDDMouseDriverDescriptors.o)
                                0x51a (size before relaxing)
 .debug_str     0x000086be       0x57 C:/Users/user1/Documents/hoopoe-2/hal/demo/..//at91/lib\libAt91D.a(HIDDMouseInputReport.o)
                                0x18a (size before relaxing)
 .debug_str     0x00008715       0xa0 C:/Users/user1/Documents/hoopoe-2/hal/demo/..//at91/lib\libAt91D.a(ExitHandler.o)
                                0x24e (size before relaxing)
 .debug_str     0x000087b5       0x19 C:/Users/user1/Documents/hoopoe-2/hal/demo/..//at91/lib\libAt91D.a(rand.o)
                                 0xc9 (size before relaxing)
 .debug_str     0x000087ce       0xc1 C:/Users/user1/Documents/hoopoe-2/hal/demo/..//at91/lib\libAt91D.a(board_lowlevel.o)
                                0x4c6 (size before relaxing)
 .debug_str     0x0000888f       0xe3 C:/Users/user1/Documents/hoopoe-2/hal/demo/..//at91/lib\libAt91D.a(USBConfigurationDescriptor.o)
                                0x322 (size before relaxing)
 .debug_str     0x00008972       0xbd C:/Users/user1/Documents/hoopoe-2/hal/demo/..//at91/lib\libAt91D.a(USBEndpointDescriptor.o)
                                0x1c5 (size before relaxing)
 .debug_str     0x00008a2f       0x8e C:/Users/user1/Documents/hoopoe-2/hal/demo/..//at91/lib\libAt91D.a(USBGenericDescriptor.o)
                                0x163 (size before relaxing)
 .debug_str     0x00008abd      0x113 C:/Users/user1/Documents/hoopoe-2/hal/demo/..//at91/lib\libAt91D.a(USBGenericRequest.o)
                                0x1fd (size before relaxing)
 .debug_str     0x00008bd0       0x83 C:/Users/user1/Documents/hoopoe-2/hal/demo/..//at91/lib\libAt91D.a(USBGetDescriptorRequest.o)
                                0x16d (size before relaxing)
 .debug_str     0x00008c53       0x3f C:/Users/user1/Documents/hoopoe-2/hal/demo/..//at91/lib\libAt91D.a(HIDIdleRequest.o)
                                0x129 (size before relaxing)
 .debug_str     0x00008c92       0x62 C:/Users/user1/Documents/hoopoe-2/hal/demo/..//at91/lib\libAt91D.a(HIDReportRequest.o)
                                0x14c (size before relaxing)
 .debug_str     0x00008cf4       0x4a C:/Users/user1/Documents/hoopoe-2/hal/demo/..//at91/lib\libAt91D.a(USBDCallbacks_Initialized.o)
                                0x103 (size before relaxing)
 .debug_str     0x00008d3e       0x3e C:/Users/user1/Documents/hoopoe-2/hal/demo/..//at91/lib\libAt91D.a(USBDCallbacks_Reset.o)
                                 0xe1 (size before relaxing)
 .debug_str     0x00008d7c       0xea C:/Users/user1/Documents/hoopoe-2/hal/demo/..//at91/lib\libAt91D.a(USBDDriver.o)
                                0x55c (size before relaxing)
 .debug_str     0x00008e66       0x60 C:/Users/user1/Documents/hoopoe-2/hal/demo/..//at91/lib\libAt91D.a(USBDDriverCb_IfSettingChanged.o)
                                0x186 (size before relaxing)
 .debug_str     0x00008ec6       0x6f C:/Users/user1/Documents/hoopoe-2/hal/demo/..//at91/lib\libAt91D.a(USBFeatureRequest.o)
                                0x159 (size before relaxing)
 .debug_str     0x00008f35       0x73 C:/Users/user1/Documents/hoopoe-2/hal/demo/..//at91/lib\libAt91D.a(USBInterfaceRequest.o)
                                0x15d (size before relaxing)
 .debug_str     0x00008fa8       0x4b C:/Users/user1/Documents/hoopoe-2/hal/demo/..//at91/lib\libAt91D.a(USBSetAddressRequest.o)
                                0x135 (size before relaxing)
 .debug_str     0x00008ff3       0x5d C:/Users/user1/Documents/hoopoe-2/hal/demo/..//at91/lib\libAt91D.a(USBSetConfigurationRequest.o)
                                0x147 (size before relaxing)
